ARM GAS  /tmp/ccslA8Q6.s 			page 1


   1              		.cpu cortex-m4
   2              		.arch armv7e-m
   3              		.fpu fpv4-sp-d16
   4              		.eabi_attribute 27, 1
   5              		.eabi_attribute 28, 1
   6              		.eabi_attribute 20, 1
   7              		.eabi_attribute 21, 1
   8              		.eabi_attribute 23, 3
   9              		.eabi_attribute 24, 1
  10              		.eabi_attribute 25, 1
  11              		.eabi_attribute 26, 1
  12              		.eabi_attribute 30, 1
  13              		.eabi_attribute 34, 1
  14              		.eabi_attribute 18, 4
  15              		.file	"BL24C16F.cpp"
  16              		.text
  17              	.Ltext0:
  18              		.cfi_sections	.debug_frame
  19              		.file 1 "My_Top/System/BL24C16F.cpp"
  20              		.align	1
  21              		.global	_ZN8BL24C16F4initEv
  22              		.syntax unified
  23              		.thumb
  24              		.thumb_func
  26              	_ZN8BL24C16F4initEv:
  27              	.LFB332:
   1:My_Top/System/BL24C16F.cpp **** #include "BL24C16F.hpp"
   2:My_Top/System/BL24C16F.cpp **** 
   3:My_Top/System/BL24C16F.cpp **** I2C_HandleTypeDef* BL24C16F::_hi2c = nullptr;
   4:My_Top/System/BL24C16F.cpp **** 
   5:My_Top/System/BL24C16F.cpp **** // ============================================================
   6:My_Top/System/BL24C16F.cpp **** // 初始化：探测 EEPROM 是否在线
   7:My_Top/System/BL24C16F.cpp **** // ============================================================
   8:My_Top/System/BL24C16F.cpp **** bool BL24C16F::init(void)
   9:My_Top/System/BL24C16F.cpp **** {
  28              		.loc 1 9 1 view -0
  29              		.cfi_startproc
  30              		@ args = 0, pretend = 0, frame = 0
  31              		@ frame_needed = 0, uses_anonymous_args = 0
  32 0000 08B5     		push	{r3, lr}
  33              		.cfi_def_cfa_offset 8
  34              		.cfi_offset 3, -8
  35              		.cfi_offset 14, -4
  10:My_Top/System/BL24C16F.cpp ****     if (HAL_I2C_IsDeviceReady(_hi2c,
  36              		.loc 1 10 5 view .LVU1
  37              		.loc 1 10 30 is_stmt 0 view .LVU2
  38 0002 6423     		movs	r3, #100
  39 0004 0322     		movs	r2, #3
  40 0006 A021     		movs	r1, #160
  41 0008 0448     		ldr	r0, .L5
  42 000a 0068     		ldr	r0, [r0]
  43 000c FFF7FEFF 		bl	HAL_I2C_IsDeviceReady
  44              	.LVL0:
  45              		.loc 1 10 5 view .LVU3
  46 0010 08B1     		cbz	r0, .L3
  11:My_Top/System/BL24C16F.cpp ****                               EEPROM_DEV_ADDR << 1,   // 8位写地址
  12:My_Top/System/BL24C16F.cpp ****                               3,                       // 重试次数
ARM GAS  /tmp/ccslA8Q6.s 			page 2


  13:My_Top/System/BL24C16F.cpp ****                               100) == HAL_OK)          // 超时 ms
  14:My_Top/System/BL24C16F.cpp ****     {
  15:My_Top/System/BL24C16F.cpp ****         return true;
  16:My_Top/System/BL24C16F.cpp ****     }
  17:My_Top/System/BL24C16F.cpp ****     return false;
  47              		.loc 1 17 12 view .LVU4
  48 0012 0020     		movs	r0, #0
  49              	.L2:
  18:My_Top/System/BL24C16F.cpp **** }
  50              		.loc 1 18 1 view .LVU5
  51 0014 08BD     		pop	{r3, pc}
  52              	.L3:
  15:My_Top/System/BL24C16F.cpp ****     }
  53              		.loc 1 15 16 view .LVU6
  54 0016 0120     		movs	r0, #1
  55 0018 FCE7     		b	.L2
  56              	.L6:
  57 001a 00BF     		.align	2
  58              	.L5:
  59 001c 00000000 		.word	.LANCHOR0
  60              		.cfi_endproc
  61              	.LFE332:
  63              		.align	1
  64              		.global	_ZN8BL24C16F9read_byteEt
  65              		.syntax unified
  66              		.thumb
  67              		.thumb_func
  69              	_ZN8BL24C16F9read_byteEt:
  70              	.LVL1:
  71              	.LFB333:
  19:My_Top/System/BL24C16F.cpp **** 
  20:My_Top/System/BL24C16F.cpp **** 
  21:My_Top/System/BL24C16F.cpp **** // ============================================================
  22:My_Top/System/BL24C16F.cpp **** // 读取一个字节
  23:My_Top/System/BL24C16F.cpp **** // ============================================================
  24:My_Top/System/BL24C16F.cpp **** uint8_t BL24C16F::read_byte(uint16_t addr)
  25:My_Top/System/BL24C16F.cpp **** {
  72              		.loc 1 25 1 is_stmt 1 view -0
  73              		.cfi_startproc
  74              		@ args = 0, pretend = 0, frame = 8
  75              		@ frame_needed = 0, uses_anonymous_args = 0
  76              		.loc 1 25 1 is_stmt 0 view .LVU8
  77 0020 00B5     		push	{lr}
  78              		.cfi_def_cfa_offset 4
  79              		.cfi_offset 14, -4
  80 0022 87B0     		sub	sp, sp, #28
  81              		.cfi_def_cfa_offset 32
  82 0024 0246     		mov	r2, r0
  26:My_Top/System/BL24C16F.cpp ****     uint8_t data = 0xFF;
  83              		.loc 1 26 5 is_stmt 1 view .LVU9
  84              		.loc 1 26 13 is_stmt 0 view .LVU10
  85 0026 FF23     		movs	r3, #255
  86 0028 8DF81730 		strb	r3, [sp, #23]
  27:My_Top/System/BL24C16F.cpp **** 
  28:My_Top/System/BL24C16F.cpp ****     if (HAL_I2C_Mem_Read(_hi2c, EEPROM_DEV_ADDR << 1, addr,
  87              		.loc 1 28 5 is_stmt 1 view .LVU11
  88              		.loc 1 28 25 is_stmt 0 view .LVU12
ARM GAS  /tmp/ccslA8Q6.s 			page 3


  89 002c 6423     		movs	r3, #100
  90 002e 0293     		str	r3, [sp, #8]
  91 0030 0123     		movs	r3, #1
  92 0032 0193     		str	r3, [sp, #4]
  93 0034 0DF11703 		add	r3, sp, #23
  94 0038 0093     		str	r3, [sp]
  95 003a 0223     		movs	r3, #2
  96 003c A021     		movs	r1, #160
  97 003e 0648     		ldr	r0, .L11
  98              	.LVL2:
  99              		.loc 1 28 25 view .LVU13
 100 0040 0068     		ldr	r0, [r0]
 101 0042 FFF7FEFF 		bl	HAL_I2C_Mem_Read
 102              	.LVL3:
 103              		.loc 1 28 5 view .LVU14
 104 0046 20B9     		cbnz	r0, .L9
  29:My_Top/System/BL24C16F.cpp ****                          EEPROM_ADDR_SIZE,
  30:My_Top/System/BL24C16F.cpp ****                          &data, 1, 100) != HAL_OK)
  31:My_Top/System/BL24C16F.cpp ****     {
  32:My_Top/System/BL24C16F.cpp ****         return 0xFF;
  33:My_Top/System/BL24C16F.cpp ****     }
  34:My_Top/System/BL24C16F.cpp ****     return data;
 105              		.loc 1 34 5 is_stmt 1 view .LVU15
 106              		.loc 1 34 12 is_stmt 0 view .LVU16
 107 0048 9DF81700 		ldrb	r0, [sp, #23]	@ zero_extendqisi2
 108              	.L8:
  35:My_Top/System/BL24C16F.cpp **** }
 109              		.loc 1 35 1 view .LVU17
 110 004c 07B0     		add	sp, sp, #28
 111              		.cfi_remember_state
 112              		.cfi_def_cfa_offset 4
 113              		@ sp needed
 114 004e 5DF804FB 		ldr	pc, [sp], #4
 115              	.L9:
 116              		.cfi_restore_state
  32:My_Top/System/BL24C16F.cpp ****     }
 117              		.loc 1 32 16 view .LVU18
 118 0052 FF20     		movs	r0, #255
 119 0054 FAE7     		b	.L8
 120              	.L12:
 121 0056 00BF     		.align	2
 122              	.L11:
 123 0058 00000000 		.word	.LANCHOR0
 124              		.cfi_endproc
 125              	.LFE333:
 127              		.align	1
 128              		.global	_ZN8BL24C16F4readEtPht
 129              		.syntax unified
 130              		.thumb
 131              		.thumb_func
 133              	_ZN8BL24C16F4readEtPht:
 134              	.LVL4:
 135              	.LFB335:
  36:My_Top/System/BL24C16F.cpp **** 
  37:My_Top/System/BL24C16F.cpp **** 
  38:My_Top/System/BL24C16F.cpp **** // ============================================================
  39:My_Top/System/BL24C16F.cpp **** // 写入一个字节
ARM GAS  /tmp/ccslA8Q6.s 			page 4


  40:My_Top/System/BL24C16F.cpp **** // ============================================================
  41:My_Top/System/BL24C16F.cpp **** bool BL24C16F::write_byte(uint16_t addr, uint8_t data)
  42:My_Top/System/BL24C16F.cpp **** {
  43:My_Top/System/BL24C16F.cpp ****     if (HAL_I2C_Mem_Write(_hi2c, EEPROM_DEV_ADDR << 1, addr,
  44:My_Top/System/BL24C16F.cpp ****                            EEPROM_ADDR_SIZE,
  45:My_Top/System/BL24C16F.cpp ****                            &data, 1, 100) != HAL_OK)
  46:My_Top/System/BL24C16F.cpp ****     {
  47:My_Top/System/BL24C16F.cpp ****         return false;
  48:My_Top/System/BL24C16F.cpp ****     }
  49:My_Top/System/BL24C16F.cpp ****     _wait_write_complete();
  50:My_Top/System/BL24C16F.cpp ****     return true;
  51:My_Top/System/BL24C16F.cpp **** }
  52:My_Top/System/BL24C16F.cpp **** 
  53:My_Top/System/BL24C16F.cpp **** 
  54:My_Top/System/BL24C16F.cpp **** // ============================================================
  55:My_Top/System/BL24C16F.cpp **** // 连续读取多个字节（16位地址芯片支持跨页连续读）
  56:My_Top/System/BL24C16F.cpp **** // ============================================================
  57:My_Top/System/BL24C16F.cpp **** bool BL24C16F::read(uint16_t addr, uint8_t *buf, uint16_t len)
  58:My_Top/System/BL24C16F.cpp **** {
 136              		.loc 1 58 1 is_stmt 1 view -0
 137              		.cfi_startproc
 138              		@ args = 0, pretend = 0, frame = 0
 139              		@ frame_needed = 0, uses_anonymous_args = 0
  59:My_Top/System/BL24C16F.cpp ****     if (buf == NULL || len == 0)
 140              		.loc 1 59 5 view .LVU20
 141 005c C9B1     		cbz	r1, .L15
 142 005e 0B46     		mov	r3, r1
 143              		.loc 1 59 21 is_stmt 0 discriminator 1 view .LVU21
 144 0060 CAB1     		cbz	r2, .L16
  60:My_Top/System/BL24C16F.cpp ****         return false;
  61:My_Top/System/BL24C16F.cpp ****     if (addr + len > EEPROM_SIZE)
 145              		.loc 1 61 5 is_stmt 1 view .LVU22
 146              		.loc 1 61 14 is_stmt 0 view .LVU23
 147 0062 8118     		adds	r1, r0, r2
 148              	.LVL5:
 149              		.loc 1 61 5 view .LVU24
 150 0064 B1F5805F 		cmp	r1, #4096
 151 0068 01DD     		ble	.L23
  62:My_Top/System/BL24C16F.cpp ****         return false;
 152              		.loc 1 62 16 view .LVU25
 153 006a 0020     		movs	r0, #0
 154              	.LVL6:
  63:My_Top/System/BL24C16F.cpp **** 
  64:My_Top/System/BL24C16F.cpp ****     // 16位地址的 EEPROM 支持一次连续读完全部数据
  65:My_Top/System/BL24C16F.cpp ****     if (HAL_I2C_Mem_Read(_hi2c, EEPROM_DEV_ADDR << 1, addr,
  66:My_Top/System/BL24C16F.cpp ****                          EEPROM_ADDR_SIZE,
  67:My_Top/System/BL24C16F.cpp ****                          buf, len, 100) != HAL_OK)
  68:My_Top/System/BL24C16F.cpp ****     {
  69:My_Top/System/BL24C16F.cpp ****         return false;
  70:My_Top/System/BL24C16F.cpp ****     }
  71:My_Top/System/BL24C16F.cpp ****     return true;
  72:My_Top/System/BL24C16F.cpp **** }
 155              		.loc 1 72 1 view .LVU26
 156 006c 7047     		bx	lr
 157              	.LVL7:
 158              	.L23:
  58:My_Top/System/BL24C16F.cpp ****     if (buf == NULL || len == 0)
ARM GAS  /tmp/ccslA8Q6.s 			page 5


 159              		.loc 1 58 1 view .LVU27
 160 006e 00B5     		push	{lr}
 161              		.cfi_def_cfa_offset 4
 162              		.cfi_offset 14, -4
 163 0070 85B0     		sub	sp, sp, #20
 164              		.cfi_def_cfa_offset 24
  65:My_Top/System/BL24C16F.cpp ****                          EEPROM_ADDR_SIZE,
 165              		.loc 1 65 5 is_stmt 1 view .LVU28
  65:My_Top/System/BL24C16F.cpp ****                          EEPROM_ADDR_SIZE,
 166              		.loc 1 65 25 is_stmt 0 view .LVU29
 167 0072 6421     		movs	r1, #100
 168 0074 0291     		str	r1, [sp, #8]
 169 0076 0192     		str	r2, [sp, #4]
 170 0078 0093     		str	r3, [sp]
 171 007a 0223     		movs	r3, #2
 172              	.LVL8:
  65:My_Top/System/BL24C16F.cpp ****                          EEPROM_ADDR_SIZE,
 173              		.loc 1 65 25 view .LVU30
 174 007c 0246     		mov	r2, r0
 175              	.LVL9:
  65:My_Top/System/BL24C16F.cpp ****                          EEPROM_ADDR_SIZE,
 176              		.loc 1 65 25 view .LVU31
 177 007e A021     		movs	r1, #160
 178 0080 0748     		ldr	r0, .L24
 179              	.LVL10:
  65:My_Top/System/BL24C16F.cpp ****                          EEPROM_ADDR_SIZE,
 180              		.loc 1 65 25 view .LVU32
 181 0082 0068     		ldr	r0, [r0]
 182 0084 FFF7FEFF 		bl	HAL_I2C_Mem_Read
 183              	.LVL11:
  65:My_Top/System/BL24C16F.cpp ****                          EEPROM_ADDR_SIZE,
 184              		.loc 1 65 5 view .LVU33
 185 0088 38B9     		cbnz	r0, .L18
  71:My_Top/System/BL24C16F.cpp **** }
 186              		.loc 1 71 12 view .LVU34
 187 008a 0120     		movs	r0, #1
 188              	.L14:
 189              		.loc 1 72 1 view .LVU35
 190 008c 05B0     		add	sp, sp, #20
 191              		.cfi_def_cfa_offset 4
 192              		@ sp needed
 193 008e 5DF804FB 		ldr	pc, [sp], #4
 194              	.LVL12:
 195              	.L15:
 196              		.cfi_def_cfa_offset 0
 197              		.cfi_restore 14
  60:My_Top/System/BL24C16F.cpp ****     if (addr + len > EEPROM_SIZE)
 198              		.loc 1 60 16 view .LVU36
 199 0092 0020     		movs	r0, #0
 200              	.LVL13:
  60:My_Top/System/BL24C16F.cpp ****     if (addr + len > EEPROM_SIZE)
 201              		.loc 1 60 16 view .LVU37
 202 0094 7047     		bx	lr
 203              	.LVL14:
 204              	.L16:
  60:My_Top/System/BL24C16F.cpp ****     if (addr + len > EEPROM_SIZE)
 205              		.loc 1 60 16 view .LVU38
ARM GAS  /tmp/ccslA8Q6.s 			page 6


 206 0096 0020     		movs	r0, #0
 207              	.LVL15:
  60:My_Top/System/BL24C16F.cpp ****     if (addr + len > EEPROM_SIZE)
 208              		.loc 1 60 16 view .LVU39
 209 0098 7047     		bx	lr
 210              	.LVL16:
 211              	.L18:
 212              		.cfi_def_cfa_offset 24
 213              		.cfi_offset 14, -4
  69:My_Top/System/BL24C16F.cpp ****     }
 214              		.loc 1 69 16 view .LVU40
 215 009a 0020     		movs	r0, #0
 216 009c F6E7     		b	.L14
 217              	.L25:
 218 009e 00BF     		.align	2
 219              	.L24:
 220 00a0 00000000 		.word	.LANCHOR0
 221              		.cfi_endproc
 222              	.LFE335:
 224              		.align	1
 225              		.global	_ZN8BL24C16F20_wait_write_completeEv
 226              		.syntax unified
 227              		.thumb
 228              		.thumb_func
 230              	_ZN8BL24C16F20_wait_write_completeEv:
 231              	.LFB337:
  73:My_Top/System/BL24C16F.cpp **** 
  74:My_Top/System/BL24C16F.cpp **** 
  75:My_Top/System/BL24C16F.cpp **** // ============================================================
  76:My_Top/System/BL24C16F.cpp **** // 连续写入多个字节（自动处理页边界）
  77:My_Top/System/BL24C16F.cpp **** // ============================================================
  78:My_Top/System/BL24C16F.cpp **** bool BL24C16F::write(uint16_t addr, const uint8_t *buf, uint16_t len)
  79:My_Top/System/BL24C16F.cpp **** {
  80:My_Top/System/BL24C16F.cpp ****     if (buf == NULL || len == 0)
  81:My_Top/System/BL24C16F.cpp ****         return false;
  82:My_Top/System/BL24C16F.cpp ****     if (addr + len > EEPROM_SIZE)
  83:My_Top/System/BL24C16F.cpp ****         return false;
  84:My_Top/System/BL24C16F.cpp **** 
  85:My_Top/System/BL24C16F.cpp ****     while (len > 0)
  86:My_Top/System/BL24C16F.cpp ****     {
  87:My_Top/System/BL24C16F.cpp ****         // 计算当前页内还能写多少字节
  88:My_Top/System/BL24C16F.cpp ****         uint8_t page_remain = EEPROM_PAGE_SIZE - (addr % EEPROM_PAGE_SIZE);
  89:My_Top/System/BL24C16F.cpp ****         uint16_t chunk = (len < page_remain) ? len : page_remain;
  90:My_Top/System/BL24C16F.cpp **** 
  91:My_Top/System/BL24C16F.cpp ****         if (HAL_I2C_Mem_Write(_hi2c, EEPROM_DEV_ADDR << 1, addr,
  92:My_Top/System/BL24C16F.cpp ****                                EEPROM_ADDR_SIZE,
  93:My_Top/System/BL24C16F.cpp ****                                (uint8_t *)buf, chunk, 100) != HAL_OK)
  94:My_Top/System/BL24C16F.cpp ****         {
  95:My_Top/System/BL24C16F.cpp ****             return false;
  96:My_Top/System/BL24C16F.cpp ****         }
  97:My_Top/System/BL24C16F.cpp **** 
  98:My_Top/System/BL24C16F.cpp ****         // 等待内部写入完成
  99:My_Top/System/BL24C16F.cpp ****         _wait_write_complete();
 100:My_Top/System/BL24C16F.cpp **** 
 101:My_Top/System/BL24C16F.cpp ****         addr += chunk;
 102:My_Top/System/BL24C16F.cpp ****         buf  += chunk;
 103:My_Top/System/BL24C16F.cpp ****         len  -= chunk;
ARM GAS  /tmp/ccslA8Q6.s 			page 7


 104:My_Top/System/BL24C16F.cpp ****     }
 105:My_Top/System/BL24C16F.cpp ****     return true;
 106:My_Top/System/BL24C16F.cpp **** }
 107:My_Top/System/BL24C16F.cpp **** 
 108:My_Top/System/BL24C16F.cpp **** 
 109:My_Top/System/BL24C16F.cpp **** // ============================================================
 110:My_Top/System/BL24C16F.cpp **** // 等待 EEPROM 内部写入完成（ACK 轮询）
 111:My_Top/System/BL24C16F.cpp **** // ============================================================
 112:My_Top/System/BL24C16F.cpp **** void BL24C16F::_wait_write_complete(void)
 113:My_Top/System/BL24C16F.cpp **** {
 232              		.loc 1 113 1 is_stmt 1 view -0
 233              		.cfi_startproc
 234              		@ args = 0, pretend = 0, frame = 0
 235              		@ frame_needed = 0, uses_anonymous_args = 0
 236 00a4 10B5     		push	{r4, lr}
 237              		.cfi_def_cfa_offset 8
 238              		.cfi_offset 4, -8
 239              		.cfi_offset 14, -4
 114:My_Top/System/BL24C16F.cpp ****     uint32_t timeout_ms = 50;
 240              		.loc 1 114 5 view .LVU42
 241              	.LVL17:
 115:My_Top/System/BL24C16F.cpp **** 
 116:My_Top/System/BL24C16F.cpp ****     while (HAL_I2C_IsDeviceReady(_hi2c,
 242              		.loc 1 116 5 view .LVU43
 114:My_Top/System/BL24C16F.cpp ****     uint32_t timeout_ms = 50;
 243              		.loc 1 114 14 is_stmt 0 view .LVU44
 244 00a6 3224     		movs	r4, #50
 245              		.loc 1 116 5 view .LVU45
 246 00a8 00E0     		b	.L27
 247              	.LVL18:
 248              	.L31:
 117:My_Top/System/BL24C16F.cpp ****                                   EEPROM_DEV_ADDR << 1,
 118:My_Top/System/BL24C16F.cpp ****                                   1,     // 每次1次尝试
 119:My_Top/System/BL24C16F.cpp ****                                   1) != HAL_OK)   // 1ms 超时
 120:My_Top/System/BL24C16F.cpp ****     {
 121:My_Top/System/BL24C16F.cpp ****         if (timeout_ms == 0)
 122:My_Top/System/BL24C16F.cpp ****             break;
 123:My_Top/System/BL24C16F.cpp ****         timeout_ms--;
 249              		.loc 1 123 9 is_stmt 1 view .LVU46
 250              		.loc 1 123 19 is_stmt 0 view .LVU47
 251 00aa 013C     		subs	r4, r4, #1
 252              	.LVL19:
 253              	.L27:
 119:My_Top/System/BL24C16F.cpp ****     {
 254              		.loc 1 119 38 is_stmt 1 view .LVU48
 116:My_Top/System/BL24C16F.cpp ****                                   EEPROM_DEV_ADDR << 1,
 255              		.loc 1 116 33 is_stmt 0 view .LVU49
 256 00ac 0123     		movs	r3, #1
 257 00ae 1A46     		mov	r2, r3
 258 00b0 A021     		movs	r1, #160
 259 00b2 0448     		ldr	r0, .L32
 260 00b4 0068     		ldr	r0, [r0]
 261 00b6 FFF7FEFF 		bl	HAL_I2C_IsDeviceReady
 262              	.LVL20:
 119:My_Top/System/BL24C16F.cpp ****     {
 263              		.loc 1 119 38 view .LVU50
 264 00ba 08B1     		cbz	r0, .L26
ARM GAS  /tmp/ccslA8Q6.s 			page 8


 121:My_Top/System/BL24C16F.cpp ****             break;
 265              		.loc 1 121 9 is_stmt 1 view .LVU51
 266 00bc 002C     		cmp	r4, #0
 267 00be F4D1     		bne	.L31
 268              	.L26:
 124:My_Top/System/BL24C16F.cpp ****     }
 125:My_Top/System/BL24C16F.cpp **** }
 269              		.loc 1 125 1 is_stmt 0 view .LVU52
 270 00c0 10BD     		pop	{r4, pc}
 271              	.LVL21:
 272              	.L33:
 273              		.loc 1 125 1 view .LVU53
 274 00c2 00BF     		.align	2
 275              	.L32:
 276 00c4 00000000 		.word	.LANCHOR0
 277              		.cfi_endproc
 278              	.LFE337:
 280              		.align	1
 281              		.global	_ZN8BL24C16F10write_byteEth
 282              		.syntax unified
 283              		.thumb
 284              		.thumb_func
 286              	_ZN8BL24C16F10write_byteEth:
 287              	.LVL22:
 288              	.LFB334:
  42:My_Top/System/BL24C16F.cpp ****     if (HAL_I2C_Mem_Write(_hi2c, EEPROM_DEV_ADDR << 1, addr,
 289              		.loc 1 42 1 is_stmt 1 view -0
 290              		.cfi_startproc
 291              		@ args = 0, pretend = 0, frame = 8
 292              		@ frame_needed = 0, uses_anonymous_args = 0
  42:My_Top/System/BL24C16F.cpp ****     if (HAL_I2C_Mem_Write(_hi2c, EEPROM_DEV_ADDR << 1, addr,
 293              		.loc 1 42 1 is_stmt 0 view .LVU55
 294 00c8 00B5     		push	{lr}
 295              		.cfi_def_cfa_offset 4
 296              		.cfi_offset 14, -4
 297 00ca 87B0     		sub	sp, sp, #28
 298              		.cfi_def_cfa_offset 32
 299 00cc 0246     		mov	r2, r0
 300 00ce 8DF81710 		strb	r1, [sp, #23]
  43:My_Top/System/BL24C16F.cpp ****                            EEPROM_ADDR_SIZE,
 301              		.loc 1 43 5 is_stmt 1 view .LVU56
  43:My_Top/System/BL24C16F.cpp ****                            EEPROM_ADDR_SIZE,
 302              		.loc 1 43 26 is_stmt 0 view .LVU57
 303 00d2 6423     		movs	r3, #100
 304 00d4 0293     		str	r3, [sp, #8]
 305 00d6 0123     		movs	r3, #1
 306 00d8 0193     		str	r3, [sp, #4]
 307 00da 0DF11703 		add	r3, sp, #23
 308 00de 0093     		str	r3, [sp]
 309 00e0 0223     		movs	r3, #2
 310 00e2 A021     		movs	r1, #160
 311              	.LVL23:
  43:My_Top/System/BL24C16F.cpp ****                            EEPROM_ADDR_SIZE,
 312              		.loc 1 43 26 view .LVU58
 313 00e4 0648     		ldr	r0, .L39
 314              	.LVL24:
  43:My_Top/System/BL24C16F.cpp ****                            EEPROM_ADDR_SIZE,
ARM GAS  /tmp/ccslA8Q6.s 			page 9


 315              		.loc 1 43 26 view .LVU59
 316 00e6 0068     		ldr	r0, [r0]
 317 00e8 FFF7FEFF 		bl	HAL_I2C_Mem_Write
 318              	.LVL25:
  43:My_Top/System/BL24C16F.cpp ****                            EEPROM_ADDR_SIZE,
 319              		.loc 1 43 5 view .LVU60
 320 00ec 18B1     		cbz	r0, .L38
  47:My_Top/System/BL24C16F.cpp ****     }
 321              		.loc 1 47 16 view .LVU61
 322 00ee 0020     		movs	r0, #0
 323              	.L35:
  51:My_Top/System/BL24C16F.cpp **** 
 324              		.loc 1 51 1 view .LVU62
 325 00f0 07B0     		add	sp, sp, #28
 326              		.cfi_remember_state
 327              		.cfi_def_cfa_offset 4
 328              		@ sp needed
 329 00f2 5DF804FB 		ldr	pc, [sp], #4
 330              	.L38:
 331              		.cfi_restore_state
  49:My_Top/System/BL24C16F.cpp ****     return true;
 332              		.loc 1 49 5 is_stmt 1 view .LVU63
  49:My_Top/System/BL24C16F.cpp ****     return true;
 333              		.loc 1 49 25 is_stmt 0 view .LVU64
 334 00f6 FFF7FEFF 		bl	_ZN8BL24C16F20_wait_write_completeEv
 335              	.LVL26:
  50:My_Top/System/BL24C16F.cpp **** }
 336              		.loc 1 50 5 is_stmt 1 view .LVU65
  50:My_Top/System/BL24C16F.cpp **** }
 337              		.loc 1 50 12 is_stmt 0 view .LVU66
 338 00fa 0120     		movs	r0, #1
 339 00fc F8E7     		b	.L35
 340              	.L40:
 341 00fe 00BF     		.align	2
 342              	.L39:
 343 0100 00000000 		.word	.LANCHOR0
 344              		.cfi_endproc
 345              	.LFE334:
 347              		.align	1
 348              		.global	_ZN8BL24C16F5writeEtPKht
 349              		.syntax unified
 350              		.thumb
 351              		.thumb_func
 353              	_ZN8BL24C16F5writeEtPKht:
 354              	.LVL27:
 355              	.LFB336:
  79:My_Top/System/BL24C16F.cpp ****     if (buf == NULL || len == 0)
 356              		.loc 1 79 1 is_stmt 1 view -0
 357              		.cfi_startproc
 358              		@ args = 0, pretend = 0, frame = 0
 359              		@ frame_needed = 0, uses_anonymous_args = 0
  80:My_Top/System/BL24C16F.cpp ****         return false;
 360              		.loc 1 80 5 view .LVU68
 361 0104 41B3     		cbz	r1, .L45
  79:My_Top/System/BL24C16F.cpp ****     if (buf == NULL || len == 0)
 362              		.loc 1 79 1 is_stmt 0 view .LVU69
 363 0106 F0B5     		push	{r4, r5, r6, r7, lr}
ARM GAS  /tmp/ccslA8Q6.s 			page 10


 364              		.cfi_def_cfa_offset 20
 365              		.cfi_offset 4, -20
 366              		.cfi_offset 5, -16
 367              		.cfi_offset 6, -12
 368              		.cfi_offset 7, -8
 369              		.cfi_offset 14, -4
 370 0108 85B0     		sub	sp, sp, #20
 371              		.cfi_def_cfa_offset 40
 372 010a 0546     		mov	r5, r0
 373 010c 1646     		mov	r6, r2
 374 010e 0F46     		mov	r7, r1
  80:My_Top/System/BL24C16F.cpp ****         return false;
 375              		.loc 1 80 21 discriminator 1 view .LVU70
 376 0110 22B3     		cbz	r2, .L46
  82:My_Top/System/BL24C16F.cpp ****         return false;
 377              		.loc 1 82 5 is_stmt 1 view .LVU71
  82:My_Top/System/BL24C16F.cpp ****         return false;
 378              		.loc 1 82 14 is_stmt 0 view .LVU72
 379 0112 8318     		adds	r3, r0, r2
  82:My_Top/System/BL24C16F.cpp ****         return false;
 380              		.loc 1 82 5 view .LVU73
 381 0114 B3F5805F 		cmp	r3, #4096
 382 0118 23DC     		bgt	.L53
 383              	.LVL28:
 384              	.L43:
  85:My_Top/System/BL24C16F.cpp ****     {
 385              		.loc 1 85 16 is_stmt 1 view .LVU74
 386 011a DEB1     		cbz	r6, .L54
 387              	.LBB2:
  88:My_Top/System/BL24C16F.cpp ****         uint16_t chunk = (len < page_remain) ? len : page_remain;
 388              		.loc 1 88 9 view .LVU75
  88:My_Top/System/BL24C16F.cpp ****         uint16_t chunk = (len < page_remain) ? len : page_remain;
 389              		.loc 1 88 56 is_stmt 0 view .LVU76
 390 011c 05F01F04 		and	r4, r5, #31
  88:My_Top/System/BL24C16F.cpp ****         uint16_t chunk = (len < page_remain) ? len : page_remain;
 391              		.loc 1 88 17 view .LVU77
 392 0120 C4F12004 		rsb	r4, r4, #32
 393 0124 E4B2     		uxtb	r4, r4
 394              	.LVL29:
  89:My_Top/System/BL24C16F.cpp **** 
 395              		.loc 1 89 9 is_stmt 1 view .LVU78
  89:My_Top/System/BL24C16F.cpp **** 
 396              		.loc 1 89 18 is_stmt 0 view .LVU79
 397 0126 B442     		cmp	r4, r6
 398 0128 28BF     		it	cs
 399 012a 3446     		movcs	r4, r6
 400              	.LVL30:
  91:My_Top/System/BL24C16F.cpp ****                                EEPROM_ADDR_SIZE,
 401              		.loc 1 91 9 is_stmt 1 view .LVU80
  91:My_Top/System/BL24C16F.cpp ****                                EEPROM_ADDR_SIZE,
 402              		.loc 1 91 30 is_stmt 0 view .LVU81
 403 012c 6423     		movs	r3, #100
 404 012e 0293     		str	r3, [sp, #8]
 405 0130 0194     		str	r4, [sp, #4]
 406 0132 0097     		str	r7, [sp]
 407 0134 0223     		movs	r3, #2
 408 0136 2A46     		mov	r2, r5
ARM GAS  /tmp/ccslA8Q6.s 			page 11


 409 0138 A021     		movs	r1, #160
 410 013a 0C48     		ldr	r0, .L55
 411 013c 0068     		ldr	r0, [r0]
 412 013e FFF7FEFF 		bl	HAL_I2C_Mem_Write
 413              	.LVL31:
  91:My_Top/System/BL24C16F.cpp ****                                EEPROM_ADDR_SIZE,
 414              		.loc 1 91 9 view .LVU82
 415 0142 80B9     		cbnz	r0, .L48
  99:My_Top/System/BL24C16F.cpp **** 
 416              		.loc 1 99 9 is_stmt 1 view .LVU83
  99:My_Top/System/BL24C16F.cpp **** 
 417              		.loc 1 99 29 is_stmt 0 view .LVU84
 418 0144 FFF7FEFF 		bl	_ZN8BL24C16F20_wait_write_completeEv
 419              	.LVL32:
 101:My_Top/System/BL24C16F.cpp ****         buf  += chunk;
 420              		.loc 1 101 9 is_stmt 1 view .LVU85
 101:My_Top/System/BL24C16F.cpp ****         buf  += chunk;
 421              		.loc 1 101 14 is_stmt 0 view .LVU86
 422 0148 2544     		add	r5, r5, r4
 423              	.LVL33:
 101:My_Top/System/BL24C16F.cpp ****         buf  += chunk;
 424              		.loc 1 101 14 view .LVU87
 425 014a ADB2     		uxth	r5, r5
 426              	.LVL34:
 102:My_Top/System/BL24C16F.cpp ****         len  -= chunk;
 427              		.loc 1 102 9 is_stmt 1 view .LVU88
 102:My_Top/System/BL24C16F.cpp ****         len  -= chunk;
 428              		.loc 1 102 14 is_stmt 0 view .LVU89
 429 014c 2744     		add	r7, r7, r4
 430              	.LVL35:
 103:My_Top/System/BL24C16F.cpp ****     }
 431              		.loc 1 103 9 is_stmt 1 view .LVU90
 103:My_Top/System/BL24C16F.cpp ****     }
 432              		.loc 1 103 14 is_stmt 0 view .LVU91
 433 014e 341B     		subs	r4, r6, r4
 434              	.LVL36:
 103:My_Top/System/BL24C16F.cpp ****     }
 435              		.loc 1 103 14 view .LVU92
 436 0150 A6B2     		uxth	r6, r4
 437              	.LVL37:
 103:My_Top/System/BL24C16F.cpp ****     }
 438              		.loc 1 103 14 view .LVU93
 439 0152 E2E7     		b	.L43
 440              	.LVL38:
 441              	.L54:
 103:My_Top/System/BL24C16F.cpp ****     }
 442              		.loc 1 103 14 view .LVU94
 443              	.LBE2:
 105:My_Top/System/BL24C16F.cpp **** }
 444              		.loc 1 105 12 view .LVU95
 445 0154 0120     		movs	r0, #1
 446 0156 02E0     		b	.L42
 447              	.LVL39:
 448              	.L45:
 449              		.cfi_def_cfa_offset 0
 450              		.cfi_restore 4
 451              		.cfi_restore 5
ARM GAS  /tmp/ccslA8Q6.s 			page 12


 452              		.cfi_restore 6
 453              		.cfi_restore 7
 454              		.cfi_restore 14
  81:My_Top/System/BL24C16F.cpp ****     if (addr + len > EEPROM_SIZE)
 455              		.loc 1 81 16 view .LVU96
 456 0158 0020     		movs	r0, #0
 457              	.LVL40:
 106:My_Top/System/BL24C16F.cpp **** 
 458              		.loc 1 106 1 view .LVU97
 459 015a 7047     		bx	lr
 460              	.LVL41:
 461              	.L46:
 462              		.cfi_def_cfa_offset 40
 463              		.cfi_offset 4, -20
 464              		.cfi_offset 5, -16
 465              		.cfi_offset 6, -12
 466              		.cfi_offset 7, -8
 467              		.cfi_offset 14, -4
  81:My_Top/System/BL24C16F.cpp ****     if (addr + len > EEPROM_SIZE)
 468              		.loc 1 81 16 view .LVU98
 469 015c 0020     		movs	r0, #0
 470              	.LVL42:
 471              	.L42:
 106:My_Top/System/BL24C16F.cpp **** 
 472              		.loc 1 106 1 view .LVU99
 473 015e 05B0     		add	sp, sp, #20
 474              		.cfi_remember_state
 475              		.cfi_def_cfa_offset 20
 476              		@ sp needed
 477 0160 F0BD     		pop	{r4, r5, r6, r7, pc}
 478              	.LVL43:
 479              	.L53:
 480              		.cfi_restore_state
  83:My_Top/System/BL24C16F.cpp **** 
 481              		.loc 1 83 16 view .LVU100
 482 0162 0020     		movs	r0, #0
 483              	.LVL44:
  83:My_Top/System/BL24C16F.cpp **** 
 484              		.loc 1 83 16 view .LVU101
 485 0164 FBE7     		b	.L42
 486              	.LVL45:
 487              	.L48:
 488              	.LBB3:
  95:My_Top/System/BL24C16F.cpp ****         }
 489              		.loc 1 95 20 view .LVU102
 490 0166 0020     		movs	r0, #0
 491 0168 F9E7     		b	.L42
 492              	.L56:
 493 016a 00BF     		.align	2
 494              	.L55:
 495 016c 00000000 		.word	.LANCHOR0
 496              	.LBE3:
 497              		.cfi_endproc
 498              	.LFE336:
 500              		.global	_ZN8BL24C16F5_hi2cE
 501              		.bss
 502              		.align	2
ARM GAS  /tmp/ccslA8Q6.s 			page 13


 503              		.set	.LANCHOR0,. + 0
 506              	_ZN8BL24C16F5_hi2cE:
 507 0000 00000000 		.space	4
 508              		.text
 509              	.Letext0:
 510              		.file 2 "/opt/arm-gnu-toolchain-14.2/arm-none-eabi/include/machine/_default_types.h"
 511              		.file 3 "/opt/arm-gnu-toolchain-14.2/arm-none-eabi/include/sys/_stdint.h"
 512              		.file 4 "Drivers/CMSIS/Device/ST/STM32G4xx/Include/stm32g474xx.h"
 513              		.file 5 "Drivers/CMSIS/Device/ST/STM32G4xx/Include/stm32g4xx.h"
 514              		.file 6 "Drivers/STM32G4xx_HAL_Driver/Inc/stm32g4xx_hal_def.h"
 515              		.file 7 "Drivers/STM32G4xx_HAL_Driver/Inc/stm32g4xx_hal_dma.h"
 516              		.file 8 "Drivers/STM32G4xx_HAL_Driver/Inc/stm32g4xx_hal_i2c.h"
 517              		.file 9 "My_Top/System/BL24C16F.hpp"
ARM GAS  /tmp/ccslA8Q6.s 			page 14

