ARM GAS  /tmp/ccmB0eqY.s 			page 1


   1              		.cpu cortex-m4
   2              		.arch armv7e-m
   3              		.fpu fpv4-sp-d16
   4              		.eabi_attribute 27, 1
   5              		.eabi_attribute 28, 1
   6              		.eabi_attribute 20, 1
   7              		.eabi_attribute 21, 1
   8              		.eabi_attribute 23, 3
   9              		.eabi_attribute 24, 1
  10              		.eabi_attribute 25, 1
  11              		.eabi_attribute 26, 1
  12              		.eabi_attribute 30, 1
  13              		.eabi_attribute 34, 1
  14              		.eabi_attribute 18, 4
  15              		.file	"CLI_Module.cpp"
  16              		.text
  17              	.Ltext0:
  18              		.cfi_sections	.debug_frame
  19              		.file 1 "My_Top/Modules/CLI_Module.cpp"
  20              		.align	1
  21              		.syntax unified
  22              		.thumb
  23              		.thumb_func
  25              	_ZZN10CLI_Module15bind_write_dataEP6SerialENKUlPhtPvE_clES2_tS3_:
  26              	.LVL0:
  27              	.LFB343:
   1:My_Top/Modules/CLI_Module.cpp **** #include "CLI_Module.hpp"
   2:My_Top/Modules/CLI_Module.cpp **** 
   3:My_Top/Modules/CLI_Module.cpp **** #include <string.h>
   4:My_Top/Modules/CLI_Module.cpp **** #include "printf.h"
   5:My_Top/Modules/CLI_Module.cpp **** 
   6:My_Top/Modules/CLI_Module.cpp **** // йқҷжҖҒжҲҗе‘ҳеҲқе§ӢеҢ–пјҡCLIе®һдҫӢжҢҮй’Ҳж•°з»„пјҢжңҖеӨҡеӯҳ CLI_MODULE_INSTANCE_MAX_NUM дёӘе®һдҫӢ
   7:My_Top/Modules/CLI_Module.cpp **** CLI_Module *CLI_Module::_cli_list[] = {};
   8:My_Top/Modules/CLI_Module.cpp **** // йқҷжҖҒжҲҗе‘ҳеҲқе§ӢеҢ–пјҡеҪ“еүҚе·ІеҲӣе»әзҡ„CLIе®һдҫӢж•°йҮҸпјҢеҲқе§Ӣдёә0
   9:My_Top/Modules/CLI_Module.cpp **** int CLI_Module::_cli_count = 0;
  10:My_Top/Modules/CLI_Module.cpp **** 
  11:My_Top/Modules/CLI_Module.cpp **** // еҲқе§ӢеҢ–дёҖдёӘCLIе®һдҫӢ
  12:My_Top/Modules/CLI_Module.cpp **** // nameпјҡCLIеҗҚз§°еӯ—з¬ҰдёІпјӣinternalпјҡд»»еҠЎиҪ®иҜўй—ҙйҡ”(ms)пјҢжңҖе°Ҹ10ms
  13:My_Top/Modules/CLI_Module.cpp **** bool CLI_Module::init(const char *name, uint16_t internal)
  14:My_Top/Modules/CLI_Module.cpp **** {
  15:My_Top/Modules/CLI_Module.cpp ****     // еҗҚз§°дёҚиғҪдёәз©әпјҢеҗҰеҲҷеҲқе§ӢеҢ–еӨұиҙҘ
  16:My_Top/Modules/CLI_Module.cpp ****     if (name == NULL)
  17:My_Top/Modules/CLI_Module.cpp ****         return false;
  18:My_Top/Modules/CLI_Module.cpp **** 
  19:My_Top/Modules/CLI_Module.cpp ****     // е°ҶnameжӢ·иҙқеҲ°_nameпјҢйў„з•ҷ4еӯ—иҠӮз»ҷеҗҺзјҖ"-CLI"пјҢйҳІжӯўжәўеҮә
  20:My_Top/Modules/CLI_Module.cpp ****     strncpy(_name, name, sizeof(_name) - 1 - 4);
  21:My_Top/Modules/CLI_Module.cpp ****     // еңЁ_nameжң«е°ҫиҝҪеҠ "-CLI"еҗҺзјҖпјҢеҪўеҰӮ "DBG-CLI"
  22:My_Top/Modules/CLI_Module.cpp ****     strcat(_name, "-CLI");
  23:My_Top/Modules/CLI_Module.cpp **** 
  24:My_Top/Modules/CLI_Module.cpp ****     // е°ҶnameжӢ·иҙқеҲ°_invitationпјҢз”ЁдәҺе‘Ҫд»ӨиЎҢжҸҗзӨәз¬ҰеүҚзјҖ
  25:My_Top/Modules/CLI_Module.cpp ****     strncpy(_invitation, name, sizeof(_name) - 1);
  26:My_Top/Modules/CLI_Module.cpp ****     // еңЁ_invitationжң«е°ҫиҝҪеҠ "-CLI > "пјҢеҪўеҰӮ "DBG-CLI > "
  27:My_Top/Modules/CLI_Module.cpp ****     strcat(_invitation, "-CLI > ");
  28:My_Top/Modules/CLI_Module.cpp **** 
  29:My_Top/Modules/CLI_Module.cpp ****     // и®ҫзҪ®д»»еҠЎиҪ®иҜўй—ҙйҡ”пјҢжңҖе°ҸдҝқжҠӨдёә10msпјҢйҒҝе…ҚиҝҮдәҺйў‘з№Ғи°ғеәҰ
  30:My_Top/Modules/CLI_Module.cpp ****     _process_internal = internal < 10 ? 10 : internal;
  31:My_Top/Modules/CLI_Module.cpp **** 
ARM GAS  /tmp/ccmB0eqY.s 			page 2


  32:My_Top/Modules/CLI_Module.cpp ****     // й…ҚзҪ® embedded-cli еә“зҡ„еҲқе§ӢеҢ–еҸӮж•°
  33:My_Top/Modules/CLI_Module.cpp ****     EmbeddedCliConfig cli_cfg = {
  34:My_Top/Modules/CLI_Module.cpp ****         .invitation = _invitation,        // е‘Ҫд»ӨиЎҢжҸҗзӨәз¬Ұеӯ—з¬ҰдёІ
  35:My_Top/Modules/CLI_Module.cpp ****         .rxBufferSize = 128,              // жҺҘж”¶зј“еҶІеҢәеӨ§е°Ҹ(еӯ—иҠӮ)
  36:My_Top/Modules/CLI_Module.cpp ****         .cmdBufferSize = 128,             // е‘Ҫд»Өи§Јжһҗзј“еҶІеҢәеӨ§е°Ҹ(еӯ—иҠӮ)
  37:My_Top/Modules/CLI_Module.cpp ****         .historyBufferSize = 256,         // еҺҶеҸІе‘Ҫд»Өзј“еҶІеҢәеӨ§е°Ҹ(еӯ—иҠӮ)
  38:My_Top/Modules/CLI_Module.cpp ****         .maxBindingCount = 32,            // жңҖеӨҡеҸҜз»‘е®ҡзҡ„е‘Ҫд»Өж•°йҮҸ(еҗ«еҶ…зҪ®helpпјҢе®һйҷ…е
  39:My_Top/Modules/CLI_Module.cpp ****         .cliBuffer = NULL,                // дёҚдҪҝз”ЁеӨ–йғЁйқҷжҖҒbufferпјҢи®©еә“иҮӘиЎҢеҠЁжҖҒеҲҶй…Қ
  40:My_Top/Modules/CLI_Module.cpp ****         .cliBufferSize = 0,               // еӨ–йғЁbufferеӨ§е°Ҹдёә0пјҢй…ҚеҗҲдёҠйқўNULLдҪҝз”Ё
  41:My_Top/Modules/CLI_Module.cpp ****         .enableAutoComplete = true};      // еҗҜз”ЁTabиҮӘеҠЁиЎҘе…ЁеҠҹиғҪ
  42:My_Top/Modules/CLI_Module.cpp **** 
  43:My_Top/Modules/CLI_Module.cpp ****     // ж №жҚ®й…ҚзҪ®еҲӣе»әembedded-cliе®һдҫӢпјҢеӨұиҙҘиҝ”еӣһNULL
  44:My_Top/Modules/CLI_Module.cpp ****     _cli = embeddedCliNew(&cli_cfg);
  45:My_Top/Modules/CLI_Module.cpp **** 
  46:My_Top/Modules/CLI_Module.cpp ****     // еҲӣе»әеӨұиҙҘеҲҷиҝ”еӣһfalse
  47:My_Top/Modules/CLI_Module.cpp ****     if (_cli == NULL)
  48:My_Top/Modules/CLI_Module.cpp ****         return false;
  49:My_Top/Modules/CLI_Module.cpp **** 
  50:My_Top/Modules/CLI_Module.cpp ****     // з»‘е®ҡеә•еұӮеҚ•еӯ—з¬Ұиҫ“еҮәеӣһи°ғпјҢembedded-cliеҶ…йғЁиҫ“еҮәеӯ—з¬Ұж—¶и°ғз”ЁжӯӨеҮҪж•°
  51:My_Top/Modules/CLI_Module.cpp ****     _cli->writeChar = _low_level_write_char;
  52:My_Top/Modules/CLI_Module.cpp ****     // з»‘е®ҡеә•еұӮеӯ—з¬ҰдёІиҫ“еҮәеӣһи°ғпјҢembedded-cliеҶ…йғЁиҫ“еҮәеӯ—з¬ҰдёІж—¶и°ғз”ЁжӯӨеҮҪж•°
  53:My_Top/Modules/CLI_Module.cpp ****     _cli->writeString = _low_level_write_string;
  54:My_Top/Modules/CLI_Module.cpp **** 
  55:My_Top/Modules/CLI_Module.cpp ****     // еҲӣе»әFreeRTOSд»»еҠЎпјҢз”ЁдәҺе‘ЁжңҹжҖ§еӨ„зҗҶCLIиҫ“е…Ҙ/е‘Ҫд»Өжү§иЎҢ
  56:My_Top/Modules/CLI_Module.cpp ****     // ж ҲеӨ§е°Ҹ512еӯ—пјҢдјҳе…Ҳзә§osPriorityNormalпјҢд»»еҠЎеҸӮж•°дј е…ҘthisжҢҮй’Ҳ
  57:My_Top/Modules/CLI_Module.cpp ****     if (xTaskCreate(_process_task, _name, 512, this, osPriorityNormal, &_task_handle) != pdPASS)
  58:My_Top/Modules/CLI_Module.cpp ****         return false;   // д»»еҠЎеҲӣе»әеӨұиҙҘпјҢиҝ”еӣһfalse
  59:My_Top/Modules/CLI_Module.cpp ****     // д»»еҠЎеҲӣе»әеҗҺз«ӢеҚіжҢӮиө·пјҢзӯүеҫ… start() и°ғз”ЁеҗҺеҶҚиҝҗиЎҢ
  60:My_Top/Modules/CLI_Module.cpp ****     vTaskSuspend(_task_handle);
  61:My_Top/Modules/CLI_Module.cpp **** 
  62:My_Top/Modules/CLI_Module.cpp ****     // е°ҶеҪ“еүҚе®һдҫӢжіЁеҶҢеҲ°е…ЁеұҖйқҷжҖҒеҲ—иЎЁпјҢдҫӣ get_cli_module зӯүйқҷжҖҒж–№жі•жҹҘжүҫ
  63:My_Top/Modules/CLI_Module.cpp ****     _cli_list[_cli_count++] = this;
  64:My_Top/Modules/CLI_Module.cpp ****     // ж Үи®°еҲқе§ӢеҢ–е®ҢжҲҗ
  65:My_Top/Modules/CLI_Module.cpp ****     _init_ok = true;
  66:My_Top/Modules/CLI_Module.cpp **** 
  67:My_Top/Modules/CLI_Module.cpp ****     return true;
  68:My_Top/Modules/CLI_Module.cpp **** }
  69:My_Top/Modules/CLI_Module.cpp **** 
  70:My_Top/Modules/CLI_Module.cpp **** // еҗҜеҠЁCLIпјҢжҒўеӨҚд№ӢеүҚиў«жҢӮиө·зҡ„FreeRTOSеӨ„зҗҶд»»еҠЎ
  71:My_Top/Modules/CLI_Module.cpp **** bool CLI_Module::start(void)
  72:My_Top/Modules/CLI_Module.cpp **** {
  73:My_Top/Modules/CLI_Module.cpp ****     // жңӘеҲқе§ӢеҢ–еҲҷдёҚе…Ғи®ёеҗҜеҠЁ
  74:My_Top/Modules/CLI_Module.cpp ****     if (!_init_ok)
  75:My_Top/Modules/CLI_Module.cpp ****         return false;
  76:My_Top/Modules/CLI_Module.cpp **** 
  77:My_Top/Modules/CLI_Module.cpp ****     // жҒўеӨҚд»»еҠЎпјҢCLIејҖе§ӢжӯЈеёёиҝҗиЎҢ
  78:My_Top/Modules/CLI_Module.cpp ****     vTaskResume(_task_handle);
  79:My_Top/Modules/CLI_Module.cpp **** 
  80:My_Top/Modules/CLI_Module.cpp ****     return true;
  81:My_Top/Modules/CLI_Module.cpp **** }
  82:My_Top/Modules/CLI_Module.cpp **** 
  83:My_Top/Modules/CLI_Module.cpp **** // з»‘е®ҡеә•еұӮеҶҷж•°жҚ®еӣһи°ғпјҲеҮҪж•°жҢҮй’ҲзүҲжң¬пјү
  84:My_Top/Modules/CLI_Module.cpp **** // write_dataпјҡз”ЁжҲ·жҸҗдҫӣзҡ„ж•°жҚ®еҸ‘йҖҒеҮҪж•°пјӣargsпјҡйҖҸдј з»ҷиҜҘеҮҪж•°зҡ„з”ЁжҲ·еҸӮж•°
  85:My_Top/Modules/CLI_Module.cpp **** bool CLI_Module::bind_write_data(void (*write_data)(uint8_t *data, uint16_t size, void *args), void
  86:My_Top/Modules/CLI_Module.cpp **** {
  87:My_Top/Modules/CLI_Module.cpp ****     // еӣһи°ғеҮҪж•°дёҚиғҪдёәNULL
  88:My_Top/Modules/CLI_Module.cpp ****     if (write_data == NULL)
ARM GAS  /tmp/ccmB0eqY.s 			page 3


  89:My_Top/Modules/CLI_Module.cpp ****         return false;
  90:My_Top/Modules/CLI_Module.cpp **** 
  91:My_Top/Modules/CLI_Module.cpp ****     // дҝқеӯҳеҶҷж•°жҚ®еӣһи°ғеҮҪж•°жҢҮй’Ҳ
  92:My_Top/Modules/CLI_Module.cpp ****     _write_data = write_data;
  93:My_Top/Modules/CLI_Module.cpp ****     // дҝқеӯҳйҖҸдј еҸӮж•°
  94:My_Top/Modules/CLI_Module.cpp ****     _write_data_args = args;
  95:My_Top/Modules/CLI_Module.cpp **** 
  96:My_Top/Modules/CLI_Module.cpp ****     return true;
  97:My_Top/Modules/CLI_Module.cpp **** }
  98:My_Top/Modules/CLI_Module.cpp **** 
  99:My_Top/Modules/CLI_Module.cpp **** // з»‘е®ҡеә•еұӮеҶҷж•°жҚ®еӣһи°ғпјҲSerialеҜ№иұЎзүҲжң¬пјҢеҶ…йғЁз”Ёlambdaе°ҒиЈ…serial->send_dataпјү
 100:My_Top/Modules/CLI_Module.cpp **** bool CLI_Module::bind_write_data(Serial *serial)
 101:My_Top/Modules/CLI_Module.cpp **** {
 102:My_Top/Modules/CLI_Module.cpp ****     // serialеҜ№иұЎдёҚиғҪдёәNULL
 103:My_Top/Modules/CLI_Module.cpp ****     if (serial == NULL)
 104:My_Top/Modules/CLI_Module.cpp ****         return false;
 105:My_Top/Modules/CLI_Module.cpp **** 
 106:My_Top/Modules/CLI_Module.cpp ****     // дҝқеӯҳserialжҢҮй’ҲпјҢдҫӣ get_serial() жҹҘиҜўе’Ң get_cli_module(Serial*) еҢ№й…Қ
 107:My_Top/Modules/CLI_Module.cpp ****     _serial = serial;
 108:My_Top/Modules/CLI_Module.cpp ****     // йҖҸдј еҸӮж•°д№ҹжҢҮеҗ‘serialпјҢlambdaеҶ…йҖҡиҝҮжӯӨжҢҮй’Ҳи°ғз”Ёsend_data
 109:My_Top/Modules/CLI_Module.cpp ****     _write_data_args = serial;
 110:My_Top/Modules/CLI_Module.cpp **** 
 111:My_Top/Modules/CLI_Module.cpp ****     //ж”№жҲҗпјҲжңүйҮҚиҜ•пјҢзӯүTXз©әй—ІеҶҚеҸ‘пјү
 112:My_Top/Modules/CLI_Module.cpp ****     _write_data = [](uint8_t *data, uint16_t size, void *args)
  28              		.loc 1 112 19 view -0
  29              		.cfi_startproc
  30              		@ args = 0, pretend = 0, frame = 0
  31              		@ frame_needed = 0, uses_anonymous_args = 0
  32              		.loc 1 112 19 is_stmt 0 view .LVU1
  33 0000 F8B5     		push	{r3, r4, r5, r6, r7, lr}
  34              		.cfi_def_cfa_offset 24
  35              		.cfi_offset 3, -24
  36              		.cfi_offset 4, -20
  37              		.cfi_offset 5, -16
  38              		.cfi_offset 6, -12
  39              		.cfi_offset 7, -8
  40              		.cfi_offset 14, -4
  41 0002 0F46     		mov	r7, r1
  42 0004 1646     		mov	r6, r2
  43 0006 1D46     		mov	r5, r3
  44              	.LBB2:
 113:My_Top/Modules/CLI_Module.cpp ****     {
 114:My_Top/Modules/CLI_Module.cpp ****         Serial *serial = (Serial *)args;
  45              		.loc 1 114 9 is_stmt 1 view .LVU2
  46              	.LVL1:
 115:My_Top/Modules/CLI_Module.cpp ****         // жңҖеӨҡйҮҚиҜ•100ж¬ЎпјҢжҜҸж¬Ўзӯү1msпјҢзӣҙеҲ°TXз©әй—І
 116:My_Top/Modules/CLI_Module.cpp ****         for (uint8_t i = 0; i < 100; i++) {
  47              		.loc 1 116 9 view .LVU3
  48              	.LBB3:
  49              		.loc 1 116 22 is_stmt 0 view .LVU4
  50 0008 0024     		movs	r4, #0
  51              	.LVL2:
  52              	.L2:
  53              		.loc 1 116 31 is_stmt 1 discriminator 1 view .LVU5
  54 000a 632C     		cmp	r4, #99
  55 000c 0CD8     		bhi	.L1
 117:My_Top/Modules/CLI_Module.cpp ****             if (serial->send_data(data, size)) return; // еҸ‘йҖҒжҲҗеҠҹеҲҷиҝ”еӣһ
ARM GAS  /tmp/ccmB0eqY.s 			page 4


  56              		.loc 1 117 13 view .LVU6
  57              		.loc 1 117 34 is_stmt 0 view .LVU7
  58 000e 0023     		movs	r3, #0
  59 0010 3246     		mov	r2, r6
  60 0012 3946     		mov	r1, r7
  61 0014 2846     		mov	r0, r5
  62 0016 FFF7FEFF 		bl	_ZN6Serial9send_dataEPhtm
  63              	.LVL3:
  64              		.loc 1 117 13 discriminator 1 view .LVU8
  65 001a 28B9     		cbnz	r0, .L1
 118:My_Top/Modules/CLI_Module.cpp ****             vTaskDelay(pdMS_TO_TICKS(1));
  66              		.loc 1 118 13 is_stmt 1 view .LVU9
  67              		.loc 1 118 23 is_stmt 0 view .LVU10
  68 001c 0120     		movs	r0, #1
  69 001e FFF7FEFF 		bl	vTaskDelay
  70              	.LVL4:
 116:My_Top/Modules/CLI_Module.cpp ****             if (serial->send_data(data, size)) return; // еҸ‘йҖҒжҲҗеҠҹеҲҷиҝ”еӣһ
  71              		.loc 1 116 9 is_stmt 1 discriminator 2 view .LVU11
  72 0022 0134     		adds	r4, r4, #1
  73              	.LVL5:
 116:My_Top/Modules/CLI_Module.cpp ****             if (serial->send_data(data, size)) return; // еҸ‘йҖҒжҲҗеҠҹеҲҷиҝ”еӣһ
  74              		.loc 1 116 9 is_stmt 0 discriminator 2 view .LVU12
  75 0024 E4B2     		uxtb	r4, r4
  76              	.LVL6:
 116:My_Top/Modules/CLI_Module.cpp ****             if (serial->send_data(data, size)) return; // еҸ‘йҖҒжҲҗеҠҹеҲҷиҝ”еӣһ
  77              		.loc 1 116 9 discriminator 2 view .LVU13
  78 0026 F0E7     		b	.L2
  79              	.LVL7:
  80              	.L1:
 116:My_Top/Modules/CLI_Module.cpp ****             if (serial->send_data(data, size)) return; // еҸ‘йҖҒжҲҗеҠҹеҲҷиҝ”еӣһ
  81              		.loc 1 116 9 discriminator 2 view .LVU14
  82              	.LBE3:
  83              	.LBE2:
 119:My_Top/Modules/CLI_Module.cpp ****         }
 120:My_Top/Modules/CLI_Module.cpp ****     };
  84              		.loc 1 120 5 view .LVU15
  85 0028 F8BD     		pop	{r3, r4, r5, r6, r7, pc}
  86              		.loc 1 120 5 view .LVU16
  87              		.cfi_endproc
  88              	.LFE343:
  90              		.align	1
  91              		.syntax unified
  92              		.thumb
  93              		.thumb_func
  95              	_ZZN10CLI_Module15bind_write_dataEP6SerialENUlPhtPvE_4_FUNES2_tS3_:
  96              	.LFB344:
 112:My_Top/Modules/CLI_Module.cpp ****     {
  97              		.loc 1 112 19 is_stmt 1 view -0
  98              		.cfi_startproc
  99              		@ args = 0, pretend = 0, frame = 0
 100              		@ frame_needed = 0, uses_anonymous_args = 0
 101 002a 08B5     		push	{r3, lr}
 102              		.cfi_def_cfa_offset 8
 103              		.cfi_offset 3, -8
 104              		.cfi_offset 14, -4
 105 002c 1346     		mov	r3, r2
 106              		.loc 1 120 5 is_stmt 0 view .LVU18
ARM GAS  /tmp/ccmB0eqY.s 			page 5


 107 002e 0A46     		mov	r2, r1
 108 0030 0146     		mov	r1, r0
 109 0032 0020     		movs	r0, #0
 110 0034 FFF7E4FF 		bl	_ZZN10CLI_Module15bind_write_dataEP6SerialENKUlPhtPvE_clES2_tS3_
 111              	.LVL8:
 112 0038 08BD     		pop	{r3, pc}
 113              		.cfi_endproc
 114              	.LFE344:
 116              		.align	1
 117              		.global	_ZN10CLI_Module13_process_taskEPv
 118              		.syntax unified
 119              		.thumb
 120              		.thumb_func
 122              	_ZN10CLI_Module13_process_taskEPv:
 123              	.LVL9:
 124              	.LFB358:
 121:My_Top/Modules/CLI_Module.cpp **** 
 122:My_Top/Modules/CLI_Module.cpp ****     return true;
 123:My_Top/Modules/CLI_Module.cpp **** }
 124:My_Top/Modules/CLI_Module.cpp **** 
 125:My_Top/Modules/CLI_Module.cpp **** // embedded-cliеә•еұӮеҚ•еӯ—з¬Ұиҫ“еҮәеӣһи°ғпјҲйқҷжҖҒеҮҪж•°пјҢиў«еә“еӣһи°ғпјү
 126:My_Top/Modules/CLI_Module.cpp **** // ж №жҚ®embeddedCliжҢҮй’ҲжүҫеҲ°еҜ№еә”зҡ„CLI_Moduleе®һдҫӢпјҢеҶҚи°ғз”Ёе…¶еҶҷж•°жҚ®жҺҘеҸЈ
 127:My_Top/Modules/CLI_Module.cpp **** void CLI_Module::_low_level_write_char(EmbeddedCli *embeddedCli, char c)
 128:My_Top/Modules/CLI_Module.cpp **** {
 129:My_Top/Modules/CLI_Module.cpp ****     // йҖҡиҝҮembeddedCliжҢҮй’ҲеҸҚжҹҘCLI_Moduleе®һдҫӢ
 130:My_Top/Modules/CLI_Module.cpp ****     CLI_Module *mcli = get_cli_module(embeddedCli);
 131:My_Top/Modules/CLI_Module.cpp ****     // жүҫдёҚеҲ°е®һдҫӢеҲҷзӣҙжҺҘиҝ”еӣһ
 132:My_Top/Modules/CLI_Module.cpp ****     if (mcli == NULL)
 133:My_Top/Modules/CLI_Module.cpp ****         return;
 134:My_Top/Modules/CLI_Module.cpp **** 
 135:My_Top/Modules/CLI_Module.cpp ****     // еҸ‘йҖҒеҚ•дёӘеӯ—з¬ҰпјҲеҸ–ең°еқҖиҪ¬дёәuint8_t*пјҢй•ҝеәҰдёә1пјү
 136:My_Top/Modules/CLI_Module.cpp ****     mcli->_write_data((uint8_t *)&c, 1, mcli->_write_data_args);
 137:My_Top/Modules/CLI_Module.cpp **** }
 138:My_Top/Modules/CLI_Module.cpp **** 
 139:My_Top/Modules/CLI_Module.cpp **** // embedded-cliеә•еұӮеӯ—з¬ҰдёІиҫ“еҮәеӣһи°ғпјҲйқҷжҖҒеҮҪж•°пјҢиў«еә“еӣһи°ғпјү
 140:My_Top/Modules/CLI_Module.cpp **** // ж №жҚ®embeddedCliжҢҮй’ҲжүҫеҲ°еҜ№еә”зҡ„CLI_Moduleе®һдҫӢпјҢеҶҚи°ғз”Ёе…¶еҶҷж•°жҚ®жҺҘеҸЈ
 141:My_Top/Modules/CLI_Module.cpp **** void CLI_Module::_low_level_write_string(EmbeddedCli *embeddedCli, const char *str)
 142:My_Top/Modules/CLI_Module.cpp **** {
 143:My_Top/Modules/CLI_Module.cpp ****     // йҖҡиҝҮembeddedCliжҢҮй’ҲеҸҚжҹҘCLI_Moduleе®һдҫӢ
 144:My_Top/Modules/CLI_Module.cpp ****     CLI_Module *mcli = get_cli_module(embeddedCli);
 145:My_Top/Modules/CLI_Module.cpp ****     // жүҫдёҚеҲ°е®һдҫӢеҲҷзӣҙжҺҘиҝ”еӣһ
 146:My_Top/Modules/CLI_Module.cpp ****     if (mcli == NULL)
 147:My_Top/Modules/CLI_Module.cpp ****         return;
 148:My_Top/Modules/CLI_Module.cpp **** 
 149:My_Top/Modules/CLI_Module.cpp ****     // еҸ‘йҖҒеӯ—з¬ҰдёІпјҢй•ҝеәҰз”ЁstrnlenйҷҗеҲ¶жңҖеӨ§дёәCLI_MODULE_PRINT_BUFFER_MAX_SIZEпјҢйҳІжӯўи¶
 150:My_Top/Modules/CLI_Module.cpp ****     mcli->_write_data((uint8_t *)str, strnlen(str, CLI_MODULE_PRINT_BUFFER_MAX_SIZE), mcli->_write_
 151:My_Top/Modules/CLI_Module.cpp **** }
 152:My_Top/Modules/CLI_Module.cpp **** 
 153:My_Top/Modules/CLI_Module.cpp **** // embedded-cliеә•еұӮеҚ•еӯ—з¬ҰжҺҘж”¶еҮҪж•°пјҲйқҷжҖҒеҮҪж•°пјү
 154:My_Top/Modules/CLI_Module.cpp **** // е°ҶеӨ–йғЁжҺҘж”¶еҲ°зҡ„еӯ—з¬Ұе–Ӯз»ҷembedded-cliеә“
 155:My_Top/Modules/CLI_Module.cpp **** void CLI_Module::_low_level_receive_char(EmbeddedCli *embeddedCli, char c)
 156:My_Top/Modules/CLI_Module.cpp **** {
 157:My_Top/Modules/CLI_Module.cpp ****     // embeddedCliдёәNULLеҲҷдёҚеӨ„зҗҶ
 158:My_Top/Modules/CLI_Module.cpp ****     if (embeddedCli == NULL)
 159:My_Top/Modules/CLI_Module.cpp ****         return;
 160:My_Top/Modules/CLI_Module.cpp **** 
 161:My_Top/Modules/CLI_Module.cpp ****     // е°Ҷеӯ—з¬ҰйҖҒе…Ҙembedded-cliзҡ„жҺҘж”¶йҳҹеҲ—пјҢеә“еҶ…йғЁе®ҢжҲҗиЎҢзј–иҫ‘е’Ңе‘Ҫд»Өи§Јжһҗ
ARM GAS  /tmp/ccmB0eqY.s 			page 6


 162:My_Top/Modules/CLI_Module.cpp ****     embeddedCliReceiveChar(embeddedCli, c);
 163:My_Top/Modules/CLI_Module.cpp **** }
 164:My_Top/Modules/CLI_Module.cpp **** 
 165:My_Top/Modules/CLI_Module.cpp **** // жҺҘж”¶еӨ–йғЁж•°жҚ®пјҲеҰӮдёІеҸЈDMAж”¶еҲ°зҡ„дёҖеё§пјүпјҢйҖҗеӯ—иҠӮе–Ӯз»ҷembedded-cli
 166:My_Top/Modules/CLI_Module.cpp **** bool CLI_Module::receive_data(uint8_t *data, uint16_t size)
 167:My_Top/Modules/CLI_Module.cpp **** {
 168:My_Top/Modules/CLI_Module.cpp ****     // ж•°жҚ®жҢҮй’ҲжҲ–й•ҝеәҰж— ж•ҲеҲҷиҝ”еӣһfalse
 169:My_Top/Modules/CLI_Module.cpp ****     if (data == NULL || size == 0)
 170:My_Top/Modules/CLI_Module.cpp ****         return false;
 171:My_Top/Modules/CLI_Module.cpp **** 
 172:My_Top/Modules/CLI_Module.cpp ****     // жңӘеҲқе§ӢеҢ–еҲҷдёҚеӨ„зҗҶ
 173:My_Top/Modules/CLI_Module.cpp ****     if (!_init_ok)
 174:My_Top/Modules/CLI_Module.cpp ****         return false;
 175:My_Top/Modules/CLI_Module.cpp **** 
 176:My_Top/Modules/CLI_Module.cpp ****     // йҖҗеӯ—иҠӮе°Ҷж•°жҚ®йҖҒе…Ҙembedded-cliжҺҘж”¶еӨ„зҗҶ
 177:My_Top/Modules/CLI_Module.cpp ****     for (uint16_t i = 0; i < size; i++)
 178:My_Top/Modules/CLI_Module.cpp ****     {
 179:My_Top/Modules/CLI_Module.cpp ****         _low_level_receive_char(_cli, *(char *)(data + i));
 180:My_Top/Modules/CLI_Module.cpp ****     }
 181:My_Top/Modules/CLI_Module.cpp **** 
 182:My_Top/Modules/CLI_Module.cpp ****     return true;
 183:My_Top/Modules/CLI_Module.cpp **** }
 184:My_Top/Modules/CLI_Module.cpp **** 
 185:My_Top/Modules/CLI_Module.cpp **** // жҢүзҙўеј•жҹҘжүҫCLI_Moduleе®һдҫӢпјҲйқҷжҖҒж–№жі•пјү
 186:My_Top/Modules/CLI_Module.cpp **** CLI_Module *CLI_Module::get_cli_module(int index)
 187:My_Top/Modules/CLI_Module.cpp **** {
 188:My_Top/Modules/CLI_Module.cpp ****     // зҙўеј•и¶Ҡз•ҢеҲҷиҝ”еӣһNULL
 189:My_Top/Modules/CLI_Module.cpp ****     if (index < 0 || index >= _cli_count)
 190:My_Top/Modules/CLI_Module.cpp ****         return NULL;
 191:My_Top/Modules/CLI_Module.cpp **** 
 192:My_Top/Modules/CLI_Module.cpp ****     return _cli_list[index];
 193:My_Top/Modules/CLI_Module.cpp **** }
 194:My_Top/Modules/CLI_Module.cpp **** 
 195:My_Top/Modules/CLI_Module.cpp **** // жҢүembeddedCliжҢҮй’ҲжҹҘжүҫеҜ№еә”зҡ„CLI_Moduleе®һдҫӢпјҲйқҷжҖҒж–№жі•пјү
 196:My_Top/Modules/CLI_Module.cpp **** CLI_Module *CLI_Module::get_cli_module(EmbeddedCli *cli)
 197:My_Top/Modules/CLI_Module.cpp **** {
 198:My_Top/Modules/CLI_Module.cpp ****     // cliжҢҮй’ҲдёәNULLеҲҷж— йңҖжҹҘжүҫ
 199:My_Top/Modules/CLI_Module.cpp ****     if (cli == NULL)
 200:My_Top/Modules/CLI_Module.cpp ****         return NULL;
 201:My_Top/Modules/CLI_Module.cpp **** 
 202:My_Top/Modules/CLI_Module.cpp ****     // йҒҚеҺҶжүҖжңүе·ІжіЁеҶҢе®һдҫӢпјҢжүҫеҲ°еҶ…йғЁ_cliжҢҮй’ҲеҢ№й…Қзҡ„йӮЈдёӘ
 203:My_Top/Modules/CLI_Module.cpp ****     for (uint8_t i = 0; i < _cli_count; i++)
 204:My_Top/Modules/CLI_Module.cpp ****     {
 205:My_Top/Modules/CLI_Module.cpp ****         if (_cli_list[i]->_cli == cli)
 206:My_Top/Modules/CLI_Module.cpp ****             return _cli_list[i];
 207:My_Top/Modules/CLI_Module.cpp ****     }
 208:My_Top/Modules/CLI_Module.cpp **** 
 209:My_Top/Modules/CLI_Module.cpp ****     // жңӘжүҫеҲ°еҲҷиҝ”еӣһNULL
 210:My_Top/Modules/CLI_Module.cpp ****     return NULL;
 211:My_Top/Modules/CLI_Module.cpp **** }
 212:My_Top/Modules/CLI_Module.cpp **** 
 213:My_Top/Modules/CLI_Module.cpp **** // жҢүSerialжҢҮй’ҲжҹҘжүҫеҜ№еә”зҡ„CLI_Moduleе®һдҫӢпјҲйқҷжҖҒж–№жі•пјү
 214:My_Top/Modules/CLI_Module.cpp **** // з”ЁдәҺеңЁдёІеҸЈеӣһи°ғдёӯзӣҙжҺҘйҖҡиҝҮserialжүҫеҲ°еҜ№еә”зҡ„CLIе®һдҫӢ
 215:My_Top/Modules/CLI_Module.cpp **** CLI_Module *CLI_Module::get_cli_module(Serial *serial)
 216:My_Top/Modules/CLI_Module.cpp **** {
 217:My_Top/Modules/CLI_Module.cpp ****     // serialжҢҮй’ҲдёәNULLеҲҷж— йңҖжҹҘжүҫ
 218:My_Top/Modules/CLI_Module.cpp ****     if (serial == NULL)
ARM GAS  /tmp/ccmB0eqY.s 			page 7


 219:My_Top/Modules/CLI_Module.cpp ****         return NULL;
 220:My_Top/Modules/CLI_Module.cpp **** 
 221:My_Top/Modules/CLI_Module.cpp ****     // йҒҚеҺҶжүҖжңүе·ІжіЁеҶҢе®һдҫӢпјҢжүҫеҲ°з»‘е®ҡдәҶиҜҘserialзҡ„йӮЈдёӘ
 222:My_Top/Modules/CLI_Module.cpp ****     for (uint8_t i = 0; i < _cli_count; i++)
 223:My_Top/Modules/CLI_Module.cpp ****     {
 224:My_Top/Modules/CLI_Module.cpp ****         if (_cli_list[i]->_serial == serial)
 225:My_Top/Modules/CLI_Module.cpp ****             return _cli_list[i];
 226:My_Top/Modules/CLI_Module.cpp ****     }
 227:My_Top/Modules/CLI_Module.cpp **** 
 228:My_Top/Modules/CLI_Module.cpp ****     // жңӘжүҫеҲ°еҲҷиҝ”еӣһNULL
 229:My_Top/Modules/CLI_Module.cpp ****     return NULL;
 230:My_Top/Modules/CLI_Module.cpp **** }
 231:My_Top/Modules/CLI_Module.cpp **** 
 232:My_Top/Modules/CLI_Module.cpp **** // еҗ‘жүҖжңүе·ІжіЁеҶҢзҡ„CLIе®һдҫӢжү№йҮҸж·»еҠ еҗҢдёҖжқЎе‘Ҫд»ӨпјҲйқҷжҖҒж–№жі•пјү
 233:My_Top/Modules/CLI_Module.cpp **** // з”ЁдәҺдёҖж¬ЎжҖ§е°Ҷжҹҗе‘Ҫд»ӨжіЁеҶҢеҲ°жүҖжңүCLIйҖҡйҒ“
 234:My_Top/Modules/CLI_Module.cpp **** bool CLI_Module::add_command_to_all(CliCommandBinding cmd_binding)
 235:My_Top/Modules/CLI_Module.cpp **** {
 236:My_Top/Modules/CLI_Module.cpp ****     bool ret = true;
 237:My_Top/Modules/CLI_Module.cpp **** 
 238:My_Top/Modules/CLI_Module.cpp ****     // йҒҚеҺҶжүҖжңүе®һдҫӢпјҢйҖҗдёӘж·»еҠ е‘Ҫд»Өпјӣд»»ж„ҸдёҖдёӘеӨұиҙҘеҲҷжңҖз»Ҳиҝ”еӣһfalse
 239:My_Top/Modules/CLI_Module.cpp ****     for (uint8_t i = 0; i < _cli_count; i++)
 240:My_Top/Modules/CLI_Module.cpp ****     {
 241:My_Top/Modules/CLI_Module.cpp ****         ret &= _cli_list[i]->add_command(cmd_binding);
 242:My_Top/Modules/CLI_Module.cpp ****     }
 243:My_Top/Modules/CLI_Module.cpp **** 
 244:My_Top/Modules/CLI_Module.cpp ****     return ret;
 245:My_Top/Modules/CLI_Module.cpp **** }
 246:My_Top/Modules/CLI_Module.cpp **** 
 247:My_Top/Modules/CLI_Module.cpp **** // еҗ‘жүҖжңүCLIе®һдҫӢжү№йҮҸж·»еҠ е‘Ҫд»ӨпјҲеҸӮж•°еұ•ејҖзүҲжң¬пјҢеҶ…йғЁжһ„йҖ CliCommandBindingеҗҺиҪ¬е
 248:My_Top/Modules/CLI_Module.cpp **** bool CLI_Module::add_command_to_all(const char *name,
 249:My_Top/Modules/CLI_Module.cpp ****                                     const char *help,
 250:My_Top/Modules/CLI_Module.cpp ****                                     bool tokenizeArgs,
 251:My_Top/Modules/CLI_Module.cpp ****                                     void *context,
 252:My_Top/Modules/CLI_Module.cpp ****                                     void (*binding)(EmbeddedCli *cli, char *args, void *context))
 253:My_Top/Modules/CLI_Module.cpp **** {
 254:My_Top/Modules/CLI_Module.cpp ****     // з”Ёдј е…Ҙзҡ„еҗ„еӯ—ж®өжһ„йҖ embedded-cliжүҖйңҖзҡ„е‘Ҫд»Өз»‘е®ҡз»“жһ„дҪ“
 255:My_Top/Modules/CLI_Module.cpp ****     CliCommandBinding cmd_binding = {.name = name,           // е‘Ҫд»ӨеҗҚз§°еӯ—з¬ҰдёІпјҢеҰӮ"set_spe
 256:My_Top/Modules/CLI_Module.cpp ****                                      .help = help,           // е‘Ҫд»Өеё®еҠ©иҜҙжҳҺпјҢжҳҫзӨәеңЁhelpе
 257:My_Top/Modules/CLI_Module.cpp ****                                      .tokenizeArgs = tokenizeArgs, // жҳҜеҗҰиҮӘеҠЁеҲҶиҜҚпјҢtrueеҲҷa
 258:My_Top/Modules/CLI_Module.cpp ****                                      .context = context,     // йҖҸдј з»ҷbindingеӣһи°ғзҡ„з”ЁжҲ·дёҠд
 259:My_Top/Modules/CLI_Module.cpp ****                                      .binding = binding};    // е‘Ҫд»Өи§ҰеҸ‘ж—¶жү§иЎҢзҡ„еӣһи°ғеҮҪж•
 260:My_Top/Modules/CLI_Module.cpp ****     // иҪ¬еҸ‘з»ҷз»“жһ„дҪ“зүҲжң¬зҡ„add_command_to_all
 261:My_Top/Modules/CLI_Module.cpp ****     return add_command_to_all(cmd_binding);
 262:My_Top/Modules/CLI_Module.cpp **** }
 263:My_Top/Modules/CLI_Module.cpp **** 
 264:My_Top/Modules/CLI_Module.cpp **** // еҗҜеҠЁжүҖжңүе·ІжіЁеҶҢзҡ„CLIе®һдҫӢпјҲйқҷжҖҒж–№жі•пјү
 265:My_Top/Modules/CLI_Module.cpp **** bool CLI_Module::start_all(void)
 266:My_Top/Modules/CLI_Module.cpp **** {
 267:My_Top/Modules/CLI_Module.cpp ****     bool ret = true;
 268:My_Top/Modules/CLI_Module.cpp **** 
 269:My_Top/Modules/CLI_Module.cpp ****     // йҒҚеҺҶжүҖжңүе®һдҫӢпјҢйҖҗдёӘи°ғз”Ёstart()пјӣд»»ж„ҸдёҖдёӘеӨұиҙҘеҲҷжңҖз»Ҳиҝ”еӣһfalse
 270:My_Top/Modules/CLI_Module.cpp ****     for (uint8_t i = 0; i < _cli_count; i++)
 271:My_Top/Modules/CLI_Module.cpp ****     {
 272:My_Top/Modules/CLI_Module.cpp ****         ret &= _cli_list[i]->start();
 273:My_Top/Modules/CLI_Module.cpp ****     }
 274:My_Top/Modules/CLI_Module.cpp **** 
 275:My_Top/Modules/CLI_Module.cpp ****     return ret;
ARM GAS  /tmp/ccmB0eqY.s 			page 8


 276:My_Top/Modules/CLI_Module.cpp **** }
 277:My_Top/Modules/CLI_Module.cpp **** 
 278:My_Top/Modules/CLI_Module.cpp **** // еӯҗе‘Ҫд»ӨеҲҶеҸ‘жү§иЎҢпјҲйў„з•ҷжҺҘеҸЈпјҢеҪ“еүҚе®һзҺ°дёәз©әпјү
 279:My_Top/Modules/CLI_Module.cpp **** // еҸҜеңЁжӯӨж №жҚ®argsи§Јжһҗеӯҗе‘Ҫд»ӨеҗҚз§°пјҢжҹҘжүҫsubcmd_cfgиЎЁе№¶и°ғз”ЁеҜ№еә”еӨ„зҗҶеҮҪж•°
 280:My_Top/Modules/CLI_Module.cpp **** void CLI_Module::execute_subcmd(CLI_Module *mcli, const char *args, void *context)
 281:My_Top/Modules/CLI_Module.cpp **** {
 282:My_Top/Modules/CLI_Module.cpp ****     // uint16_t arg_cnt = embeddedCliGetTokenCount(args);   // иҺ·еҸ–еҸӮж•°tokenж•°йҮҸпјҲе·ІжіЁйҮҠп
 283:My_Top/Modules/CLI_Module.cpp ****     // cli_subcmd_cfg_t *subcmd_cfg = (cli_subcmd_cfg_t *)context;  // еӯҗе‘Ҫд»Өй…ҚзҪ®иЎЁпјҲе·ІжіЁй
 284:My_Top/Modules/CLI_Module.cpp **** }
 285:My_Top/Modules/CLI_Module.cpp **** 
 286:My_Top/Modules/CLI_Module.cpp **** // и§Јжһҗе‘Ҫд»ӨеҸӮж•°еҲ—иЎЁпјҢе°Ҷargsеӯ—з¬ҰдёІдёӯзҡ„еҗ„tokenеЎ«е…Ҙarg_listж•°з»„
 287:My_Top/Modules/CLI_Module.cpp **** // arg_list[0]з•ҷз©ә("")пјҢarg_list[1]иө·дҫқж¬Ўеӯҳеҗ„еҸӮж•°пјӣиҝ”еӣһе®һйҷ…еҸӮж•°ж•°йҮҸ
 288:My_Top/Modules/CLI_Module.cpp **** int CLI_Module::init_arg_list(const char **arg_list, const char *args)
 289:My_Top/Modules/CLI_Module.cpp **** {
 290:My_Top/Modules/CLI_Module.cpp ****     // иҺ·еҸ–argsдёӯзҡ„tokenж•°йҮҸпјҲembeddedCliGetTokenCountдёҚеҗ«е‘Ҫд»ӨеҗҚжң¬иә«пјҢеҚіеҸӮж•°дёӘж•
 291:My_Top/Modules/CLI_Module.cpp ****     int arg_count = embeddedCliGetTokenCount(args); // иҝ”еӣһйҷӨз¬¬дёҖдёӘеӯ—з¬ҰдёІзҡ„дёӘж•°
 292:My_Top/Modules/CLI_Module.cpp ****     // arg_list[0]зҪ®з©әеӯ—з¬ҰдёІпјҢеҜ№еә”"е‘Ҫд»ӨеҗҚ"еҚ дҪҚпјҲдёҚдҪҝз”Ёпјү
 293:My_Top/Modules/CLI_Module.cpp ****     arg_list[0] = "";
 294:My_Top/Modules/CLI_Module.cpp ****     // йҷҗеҲ¶еҸӮж•°ж•°йҮҸдёҚи¶…иҝҮCLI_MODULE_MAX_ARGS_NUMпјҢйҳІжӯўж•°з»„и¶Ҡз•Ң
 295:My_Top/Modules/CLI_Module.cpp ****     if (arg_count >= CLI_MODULE_MAX_ARGS_NUM) arg_count = CLI_MODULE_MAX_ARGS_NUM;
 296:My_Top/Modules/CLI_Module.cpp ****     // д»Һзҙўеј•1ејҖе§ӢеЎ«е……еҗ„еҸӮж•°tokenпјҲembeddedCliGetTokenзҙўеј•д»Һ1иө·пјү
 297:My_Top/Modules/CLI_Module.cpp ****     for (int i = 1; i <= arg_count; i++) //
 298:My_Top/Modules/CLI_Module.cpp ****     {
 299:My_Top/Modules/CLI_Module.cpp ****         arg_list[i] = embeddedCliGetToken(args, i);
 300:My_Top/Modules/CLI_Module.cpp ****     }
 301:My_Top/Modules/CLI_Module.cpp ****     return arg_count;
 302:My_Top/Modules/CLI_Module.cpp **** }
 303:My_Top/Modules/CLI_Module.cpp **** 
 304:My_Top/Modules/CLI_Module.cpp **** // FreeRTOSд»»еҠЎеҮҪж•°пјҡе‘ЁжңҹжҖ§и°ғз”ЁembeddedCliProcessеӨ„зҗҶCLIиҫ“е…ҘдёҺе‘Ҫд»Өжү§иЎҢ
 305:My_Top/Modules/CLI_Module.cpp **** void CLI_Module::_process_task(void *argument)
 306:My_Top/Modules/CLI_Module.cpp **** {
 125              		.loc 1 306 1 is_stmt 1 view -0
 126              		.cfi_startproc
 127              		@ args = 0, pretend = 0, frame = 0
 128              		@ frame_needed = 0, uses_anonymous_args = 0
 129              		.loc 1 306 1 is_stmt 0 view .LVU20
 130 003a 10B5     		push	{r4, lr}
 131              		.cfi_def_cfa_offset 8
 132              		.cfi_offset 4, -8
 133              		.cfi_offset 14, -4
 134 003c 0446     		mov	r4, r0
 307:My_Top/Modules/CLI_Module.cpp ****     // е°Ҷvoid*еҸӮж•°иҝҳеҺҹдёәCLI_Moduleе®һдҫӢжҢҮй’Ҳ
 308:My_Top/Modules/CLI_Module.cpp ****     CLI_Module *cli_module = (CLI_Module *)argument;
 135              		.loc 1 308 5 is_stmt 1 view .LVU21
 136              	.LVL10:
 309:My_Top/Modules/CLI_Module.cpp ****     if (cli_module != NULL)
 137              		.loc 1 309 5 view .LVU22
 138              	.L9:
 310:My_Top/Modules/CLI_Module.cpp ****     {
 311:My_Top/Modules/CLI_Module.cpp ****         // д»»еҠЎеҗҜеҠЁж—¶жү“еҚ°ж¬ўиҝҺдҝЎжҒҜпјҢж јејҸеҰӮ "DBG-CLI DBG-CLI Start!"
 312:My_Top/Modules/CLI_Module.cpp ****         // cli_module->print("%s%s Start!\r\n", cli_module->_invitation, cli_module->_name);
 313:My_Top/Modules/CLI_Module.cpp ****     }
 314:My_Top/Modules/CLI_Module.cpp ****     while (1)
 139              		.loc 1 314 5 view .LVU23
 315:My_Top/Modules/CLI_Module.cpp ****     {
 316:My_Top/Modules/CLI_Module.cpp ****         // еӨ„зҗҶCLIеҶ…йғЁзҠ¶жҖҒпјҡеӣһжҳҫиҫ“е…Ҙеӯ—з¬ҰгҖҒжү§иЎҢе·Іе®ҢжҲҗзҡ„е‘Ҫд»ӨгҖҒиҫ“еҮәжҸҗзӨәз¬Ұз
 317:My_Top/Modules/CLI_Module.cpp ****         embeddedCliProcess(cli_module->_cli);
ARM GAS  /tmp/ccmB0eqY.s 			page 9


 140              		.loc 1 317 9 view .LVU24
 141              		.loc 1 317 27 is_stmt 0 view .LVU25
 142 003e E06A     		ldr	r0, [r4, #44]
 143 0040 FFF7FEFF 		bl	embeddedCliProcess
 144              	.LVL11:
 318:My_Top/Modules/CLI_Module.cpp ****         // жҢүй…ҚзҪ®зҡ„й—ҙйҡ”е»¶ж—¶пјҢйҒҝе…ҚCPUж»ЎиҪҪиҪ®иҜў
 319:My_Top/Modules/CLI_Module.cpp ****         vTaskDelay(pdMS_TO_TICKS(cli_module->_process_internal));
 145              		.loc 1 319 9 is_stmt 1 discriminator 1 view .LVU26
 146              		.loc 1 319 20 is_stmt 0 discriminator 1 view .LVU27
 147 0044 A089     		ldrh	r0, [r4, #12]
 148 0046 4FF47A73 		mov	r3, #1000
 149 004a 03FB00F0 		mul	r0, r3, r0
 150              		.loc 1 319 19 discriminator 1 view .LVU28
 151 004e 034B     		ldr	r3, .L11
 152 0050 A3FB0030 		umull	r3, r0, r3, r0
 153 0054 8009     		lsrs	r0, r0, #6
 154 0056 FFF7FEFF 		bl	vTaskDelay
 155              	.LVL12:
 314:My_Top/Modules/CLI_Module.cpp ****     {
 156              		.loc 1 314 5 is_stmt 1 view .LVU29
 157 005a F0E7     		b	.L9
 158              	.L12:
 159              		.align	2
 160              	.L11:
 161 005c D34D6210 		.word	274877907
 162              		.cfi_endproc
 163              	.LFE358:
 165              		.section	.rodata.str1.4,"aMS",%progbits,1
 166              		.align	2
 167              	.LC0:
 168 0000 2D434C49 		.ascii	"-CLI\000"
 168      00
 169 0005 000000   		.align	2
 170              	.LC1:
 171 0008 2D434C49 		.ascii	"-CLI > \000"
 171      203E2000 
 172              		.text
 173              		.align	1
 174              		.global	_ZN10CLI_Module4initEPKct
 175              		.syntax unified
 176              		.thumb
 177              		.thumb_func
 179              	_ZN10CLI_Module4initEPKct:
 180              	.LVL13:
 181              	.LFB339:
  14:My_Top/Modules/CLI_Module.cpp ****     // еҗҚз§°дёҚиғҪдёәз©әпјҢеҗҰеҲҷеҲқе§ӢеҢ–еӨұиҙҘ
 182              		.loc 1 14 1 view -0
 183              		.cfi_startproc
 184              		@ args = 0, pretend = 0, frame = 24
 185              		@ frame_needed = 0, uses_anonymous_args = 0
  16:My_Top/Modules/CLI_Module.cpp ****         return false;
 186              		.loc 1 16 5 view .LVU31
 187 0060 0029     		cmp	r1, #0
 188 0062 6AD0     		beq	.L15
  14:My_Top/Modules/CLI_Module.cpp ****     // еҗҚз§°дёҚиғҪдёәз©әпјҢеҗҰеҲҷеҲқе§ӢеҢ–еӨұиҙҘ
 189              		.loc 1 14 1 is_stmt 0 view .LVU32
 190 0064 2DE9F041 		push	{r4, r5, r6, r7, r8, lr}
ARM GAS  /tmp/ccmB0eqY.s 			page 10


 191              		.cfi_def_cfa_offset 24
 192              		.cfi_offset 4, -24
 193              		.cfi_offset 5, -20
 194              		.cfi_offset 6, -16
 195              		.cfi_offset 7, -12
 196              		.cfi_offset 8, -8
 197              		.cfi_offset 14, -4
 198 0068 88B0     		sub	sp, sp, #32
 199              		.cfi_def_cfa_offset 56
 200 006a 0446     		mov	r4, r0
 201 006c 1646     		mov	r6, r2
 202 006e 8846     		mov	r8, r1
  20:My_Top/Modules/CLI_Module.cpp ****     // еңЁ_nameжң«е°ҫиҝҪеҠ "-CLI"еҗҺзјҖпјҢеҪўеҰӮ "DBG-CLI"
 203              		.loc 1 20 5 is_stmt 1 view .LVU33
  20:My_Top/Modules/CLI_Module.cpp ****     // еңЁ_nameжң«е°ҫиҝҪеҠ "-CLI"еҗҺзјҖпјҢеҪўеҰӮ "DBG-CLI"
 204              		.loc 1 20 13 is_stmt 0 view .LVU34
 205 0070 00F10E07 		add	r7, r0, #14
  20:My_Top/Modules/CLI_Module.cpp ****     // еңЁ_nameжң«е°ҫиҝҪеҠ "-CLI"еҗҺзјҖпјҢеҪўеҰӮ "DBG-CLI"
 206              		.loc 1 20 12 view .LVU35
 207 0074 0522     		movs	r2, #5
 208              	.LVL14:
  20:My_Top/Modules/CLI_Module.cpp ****     // еңЁ_nameжң«е°ҫиҝҪеҠ "-CLI"еҗҺзјҖпјҢеҪўеҰӮ "DBG-CLI"
 209              		.loc 1 20 12 view .LVU36
 210 0076 3846     		mov	r0, r7
 211              	.LVL15:
  20:My_Top/Modules/CLI_Module.cpp ****     // еңЁ_nameжң«е°ҫиҝҪеҠ "-CLI"еҗҺзјҖпјҢеҪўеҰӮ "DBG-CLI"
 212              		.loc 1 20 12 view .LVU37
 213 0078 FFF7FEFF 		bl	strncpy
 214              	.LVL16:
  22:My_Top/Modules/CLI_Module.cpp **** 
 215              		.loc 1 22 5 is_stmt 1 view .LVU38
  22:My_Top/Modules/CLI_Module.cpp **** 
 216              		.loc 1 22 11 is_stmt 0 view .LVU39
 217 007c 3846     		mov	r0, r7
 218 007e FFF7FEFF 		bl	strlen
 219              	.LVL17:
 220 0082 0346     		mov	r3, r0
  22:My_Top/Modules/CLI_Module.cpp **** 
 221              		.loc 1 22 11 discriminator 1 view .LVU40
 222 0084 3918     		adds	r1, r7, r0
 223 0086 2F4A     		ldr	r2, .L23
 224 0088 1068     		ldr	r0, [r2]
 225 008a F850     		str	r0, [r7, r3]	@ unaligned
 226 008c 1379     		ldrb	r3, [r2, #4]	@ zero_extendqisi2
 227 008e 0B71     		strb	r3, [r1, #4]
  25:My_Top/Modules/CLI_Module.cpp ****     // еңЁ_invitationжң«е°ҫиҝҪеҠ "-CLI > "пјҢеҪўеҰӮ "DBG-CLI > "
 228              		.loc 1 25 5 is_stmt 1 view .LVU41
  25:My_Top/Modules/CLI_Module.cpp ****     // еңЁ_invitationжң«е°ҫиҝҪеҠ "-CLI > "пјҢеҪўеҰӮ "DBG-CLI > "
 229              		.loc 1 25 13 is_stmt 0 view .LVU42
 230 0090 04F11805 		add	r5, r4, #24
  25:My_Top/Modules/CLI_Module.cpp ****     // еңЁ_invitationжң«е°ҫиҝҪеҠ "-CLI > "пјҢеҪўеҰӮ "DBG-CLI > "
 231              		.loc 1 25 12 view .LVU43
 232 0094 0922     		movs	r2, #9
 233 0096 4146     		mov	r1, r8
 234 0098 2846     		mov	r0, r5
 235 009a FFF7FEFF 		bl	strncpy
 236              	.LVL18:
ARM GAS  /tmp/ccmB0eqY.s 			page 11


  27:My_Top/Modules/CLI_Module.cpp **** 
 237              		.loc 1 27 5 is_stmt 1 view .LVU44
  27:My_Top/Modules/CLI_Module.cpp **** 
 238              		.loc 1 27 11 is_stmt 0 view .LVU45
 239 009e 2846     		mov	r0, r5
 240 00a0 FFF7FEFF 		bl	strlen
 241              	.LVL19:
 242 00a4 0346     		mov	r3, r0
  27:My_Top/Modules/CLI_Module.cpp **** 
 243              		.loc 1 27 11 discriminator 1 view .LVU46
 244 00a6 05EB000C 		add	ip, r5, r0
 245 00aa 274A     		ldr	r2, .L23+4
 246 00ac 03CA     		ldmia	r2!, {r0, r1}
 247 00ae E850     		str	r0, [r5, r3]	@ unaligned
 248 00b0 CCF80410 		str	r1, [ip, #4]	@ unaligned
  30:My_Top/Modules/CLI_Module.cpp **** 
 249              		.loc 1 30 5 is_stmt 1 view .LVU47
  30:My_Top/Modules/CLI_Module.cpp **** 
 250              		.loc 1 30 39 is_stmt 0 view .LVU48
 251 00b4 0A2E     		cmp	r6, #10
 252 00b6 38BF     		it	cc
 253 00b8 0A26     		movcc	r6, #10
 254              	.LVL20:
  30:My_Top/Modules/CLI_Module.cpp **** 
 255              		.loc 1 30 23 view .LVU49
 256 00ba A681     		strh	r6, [r4, #12]	@ movhi
  33:My_Top/Modules/CLI_Module.cpp ****         .invitation = _invitation,        // е‘Ҫд»ӨиЎҢжҸҗзӨәз¬Ұеӯ—з¬ҰдёІ
 257              		.loc 1 33 5 is_stmt 1 view .LVU50
  33:My_Top/Modules/CLI_Module.cpp ****         .invitation = _invitation,        // е‘Ҫд»ӨиЎҢжҸҗзӨәз¬Ұеӯ—з¬ҰдёІ
 258              		.loc 1 33 23 is_stmt 0 view .LVU51
 259 00bc 03A8     		add	r0, sp, #12
 260 00be 0023     		movs	r3, #0
 261 00c0 0393     		str	r3, [sp, #12]
 262 00c2 4360     		str	r3, [r0, #4]
 263 00c4 8360     		str	r3, [r0, #8]
 264 00c6 C360     		str	r3, [r0, #12]
 265 00c8 0361     		str	r3, [r0, #16]
 266 00ca 8023     		movs	r3, #128
 267 00cc ADF81030 		strh	r3, [sp, #16]	@ movhi
 268 00d0 ADF81230 		strh	r3, [sp, #18]	@ movhi
 269 00d4 4FF48073 		mov	r3, #256
 270 00d8 ADF81430 		strh	r3, [sp, #20]	@ movhi
 271 00dc 2023     		movs	r3, #32
 272 00de ADF81630 		strh	r3, [sp, #22]	@ movhi
 273 00e2 0123     		movs	r3, #1
 274 00e4 8DF81E30 		strb	r3, [sp, #30]
  41:My_Top/Modules/CLI_Module.cpp **** 
 275              		.loc 1 41 35 view .LVU52
 276 00e8 0395     		str	r5, [sp, #12]
  44:My_Top/Modules/CLI_Module.cpp **** 
 277              		.loc 1 44 5 is_stmt 1 view .LVU53
  44:My_Top/Modules/CLI_Module.cpp **** 
 278              		.loc 1 44 26 is_stmt 0 view .LVU54
 279 00ea FFF7FEFF 		bl	embeddedCliNew
 280              	.LVL21:
  44:My_Top/Modules/CLI_Module.cpp **** 
 281              		.loc 1 44 10 discriminator 1 view .LVU55
ARM GAS  /tmp/ccmB0eqY.s 			page 12


 282 00ee E062     		str	r0, [r4, #44]
  47:My_Top/Modules/CLI_Module.cpp ****         return false;
 283              		.loc 1 47 5 is_stmt 1 view .LVU56
 284 00f0 28B3     		cbz	r0, .L16
  51:My_Top/Modules/CLI_Module.cpp ****     // з»‘е®ҡеә•еұӮеӯ—з¬ҰдёІиҫ“еҮәеӣһи°ғпјҢembedded-cliеҶ…йғЁиҫ“еҮәеӯ—з¬ҰдёІж—¶и°ғз”ЁжӯӨеҮҪж•°
 285              		.loc 1 51 5 view .LVU57
  51:My_Top/Modules/CLI_Module.cpp ****     // з»‘е®ҡеә•еұӮеӯ—з¬ҰдёІиҫ“еҮәеӣһи°ғпјҢembedded-cliеҶ…йғЁиҫ“еҮәеӯ—з¬ҰдёІж—¶и°ғз”ЁжӯӨеҮҪж•°
 286              		.loc 1 51 21 is_stmt 0 view .LVU58
 287 00f2 164B     		ldr	r3, .L23+8
 288 00f4 0360     		str	r3, [r0]
  53:My_Top/Modules/CLI_Module.cpp **** 
 289              		.loc 1 53 5 is_stmt 1 view .LVU59
 290 00f6 E36A     		ldr	r3, [r4, #44]
  53:My_Top/Modules/CLI_Module.cpp **** 
 291              		.loc 1 53 23 is_stmt 0 view .LVU60
 292 00f8 154A     		ldr	r2, .L23+12
 293 00fa 5A60     		str	r2, [r3, #4]
  57:My_Top/Modules/CLI_Module.cpp ****         return false;   // д»»еҠЎеҲӣе»әеӨұиҙҘпјҢиҝ”еӣһfalse
 294              		.loc 1 57 5 is_stmt 1 view .LVU61
  57:My_Top/Modules/CLI_Module.cpp ****         return false;   // д»»еҠЎеҲӣе»әеӨұиҙҘпјҢиҝ”еӣһfalse
 295              		.loc 1 57 20 is_stmt 0 view .LVU62
 296 00fc 04F13403 		add	r3, r4, #52
 297 0100 0193     		str	r3, [sp, #4]
 298 0102 1823     		movs	r3, #24
 299 0104 0093     		str	r3, [sp]
 300 0106 2346     		mov	r3, r4
 301 0108 4FF40072 		mov	r2, #512
 302 010c 3946     		mov	r1, r7
 303 010e 1148     		ldr	r0, .L23+16
 304 0110 FFF7FEFF 		bl	xTaskCreate
 305              	.LVL22:
  57:My_Top/Modules/CLI_Module.cpp ****         return false;   // д»»еҠЎеҲӣе»әеӨұиҙҘпјҢиҝ”еӣһfalse
 306              		.loc 1 57 5 discriminator 1 view .LVU63
 307 0114 0128     		cmp	r0, #1
 308 0116 03D0     		beq	.L22
  58:My_Top/Modules/CLI_Module.cpp ****     // д»»еҠЎеҲӣе»әеҗҺз«ӢеҚіжҢӮиө·пјҢзӯүеҫ… start() и°ғз”ЁеҗҺеҶҚиҝҗиЎҢ
 309              		.loc 1 58 16 view .LVU64
 310 0118 0020     		movs	r0, #0
 311              	.L14:
  68:My_Top/Modules/CLI_Module.cpp **** 
 312              		.loc 1 68 1 view .LVU65
 313 011a 08B0     		add	sp, sp, #32
 314              		.cfi_remember_state
 315              		.cfi_def_cfa_offset 24
 316              		@ sp needed
 317 011c BDE8F081 		pop	{r4, r5, r6, r7, r8, pc}
 318              	.LVL23:
 319              	.L22:
 320              		.cfi_restore_state
  60:My_Top/Modules/CLI_Module.cpp **** 
 321              		.loc 1 60 5 is_stmt 1 view .LVU66
  60:My_Top/Modules/CLI_Module.cpp **** 
 322              		.loc 1 60 17 is_stmt 0 view .LVU67
 323 0120 606B     		ldr	r0, [r4, #52]
 324 0122 FFF7FEFF 		bl	vTaskSuspend
 325              	.LVL24:
  63:My_Top/Modules/CLI_Module.cpp ****     // ж Үи®°еҲқе§ӢеҢ–е®ҢжҲҗ
ARM GAS  /tmp/ccmB0eqY.s 			page 13


 326              		.loc 1 63 5 is_stmt 1 view .LVU68
  63:My_Top/Modules/CLI_Module.cpp ****     // ж Үи®°еҲқе§ӢеҢ–е®ҢжҲҗ
 327              		.loc 1 63 25 is_stmt 0 view .LVU69
 328 0126 0C4B     		ldr	r3, .L23+20
 329 0128 1A68     		ldr	r2, [r3]
 330 012a 511C     		adds	r1, r2, #1
 331 012c 1960     		str	r1, [r3]
  63:My_Top/Modules/CLI_Module.cpp ****     // ж Үи®°еҲқе§ӢеҢ–е®ҢжҲҗ
 332              		.loc 1 63 29 view .LVU70
 333 012e 03EB8203 		add	r3, r3, r2, lsl #2
 334 0132 5C60     		str	r4, [r3, #4]
  65:My_Top/Modules/CLI_Module.cpp **** 
 335              		.loc 1 65 5 is_stmt 1 view .LVU71
  65:My_Top/Modules/CLI_Module.cpp **** 
 336              		.loc 1 65 14 is_stmt 0 view .LVU72
 337 0134 0120     		movs	r0, #1
 338 0136 2070     		strb	r0, [r4]
  67:My_Top/Modules/CLI_Module.cpp **** }
 339              		.loc 1 67 5 is_stmt 1 view .LVU73
  67:My_Top/Modules/CLI_Module.cpp **** }
 340              		.loc 1 67 12 is_stmt 0 view .LVU74
 341 0138 EFE7     		b	.L14
 342              	.LVL25:
 343              	.L15:
 344              		.cfi_def_cfa_offset 0
 345              		.cfi_restore 4
 346              		.cfi_restore 5
 347              		.cfi_restore 6
 348              		.cfi_restore 7
 349              		.cfi_restore 8
 350              		.cfi_restore 14
  17:My_Top/Modules/CLI_Module.cpp **** 
 351              		.loc 1 17 16 view .LVU75
 352 013a 0020     		movs	r0, #0
 353              	.LVL26:
  68:My_Top/Modules/CLI_Module.cpp **** 
 354              		.loc 1 68 1 view .LVU76
 355 013c 7047     		bx	lr
 356              	.LVL27:
 357              	.L16:
 358              		.cfi_def_cfa_offset 56
 359              		.cfi_offset 4, -24
 360              		.cfi_offset 5, -20
 361              		.cfi_offset 6, -16
 362              		.cfi_offset 7, -12
 363              		.cfi_offset 8, -8
 364              		.cfi_offset 14, -4
  48:My_Top/Modules/CLI_Module.cpp **** 
 365              		.loc 1 48 16 view .LVU77
 366 013e 0020     		movs	r0, #0
 367 0140 EBE7     		b	.L14
 368              	.L24:
 369 0142 00BF     		.align	2
 370              	.L23:
 371 0144 00000000 		.word	.LC0
 372 0148 08000000 		.word	.LC1
 373 014c 00000000 		.word	_ZN10CLI_Module21_low_level_write_charEP11EmbeddedClic
ARM GAS  /tmp/ccmB0eqY.s 			page 14


 374 0150 00000000 		.word	_ZN10CLI_Module23_low_level_write_stringEP11EmbeddedCliPKc
 375 0154 00000000 		.word	_ZN10CLI_Module13_process_taskEPv
 376 0158 00000000 		.word	.LANCHOR0
 377              		.cfi_endproc
 378              	.LFE339:
 380              		.align	1
 381              		.global	_ZN10CLI_Module5startEv
 382              		.syntax unified
 383              		.thumb
 384              		.thumb_func
 386              	_ZN10CLI_Module5startEv:
 387              	.LVL28:
 388              	.LFB340:
  72:My_Top/Modules/CLI_Module.cpp ****     // жңӘеҲқе§ӢеҢ–еҲҷдёҚе…Ғи®ёеҗҜеҠЁ
 389              		.loc 1 72 1 is_stmt 1 view -0
 390              		.cfi_startproc
 391              		@ args = 0, pretend = 0, frame = 0
 392              		@ frame_needed = 0, uses_anonymous_args = 0
  72:My_Top/Modules/CLI_Module.cpp ****     // жңӘеҲқе§ӢеҢ–еҲҷдёҚе…Ғи®ёеҗҜеҠЁ
 393              		.loc 1 72 1 is_stmt 0 view .LVU79
 394 015c 10B5     		push	{r4, lr}
 395              		.cfi_def_cfa_offset 8
 396              		.cfi_offset 4, -8
 397              		.cfi_offset 14, -4
  74:My_Top/Modules/CLI_Module.cpp ****         return false;
 398              		.loc 1 74 5 is_stmt 1 view .LVU80
  74:My_Top/Modules/CLI_Module.cpp ****         return false;
 399              		.loc 1 74 10 is_stmt 0 view .LVU81
 400 015e 0478     		ldrb	r4, [r0]	@ zero_extendqisi2
  74:My_Top/Modules/CLI_Module.cpp ****         return false;
 401              		.loc 1 74 5 view .LVU82
 402 0160 0CB9     		cbnz	r4, .L28
 403              	.LVL29:
 404              	.L26:
  81:My_Top/Modules/CLI_Module.cpp **** 
 405              		.loc 1 81 1 view .LVU83
 406 0162 2046     		mov	r0, r4
 407 0164 10BD     		pop	{r4, pc}
 408              	.LVL30:
 409              	.L28:
  78:My_Top/Modules/CLI_Module.cpp **** 
 410              		.loc 1 78 5 is_stmt 1 view .LVU84
  78:My_Top/Modules/CLI_Module.cpp **** 
 411              		.loc 1 78 16 is_stmt 0 view .LVU85
 412 0166 406B     		ldr	r0, [r0, #52]
 413              	.LVL31:
  78:My_Top/Modules/CLI_Module.cpp **** 
 414              		.loc 1 78 16 view .LVU86
 415 0168 FFF7FEFF 		bl	vTaskResume
 416              	.LVL32:
  80:My_Top/Modules/CLI_Module.cpp **** }
 417              		.loc 1 80 5 is_stmt 1 view .LVU87
  80:My_Top/Modules/CLI_Module.cpp **** }
 418              		.loc 1 80 12 is_stmt 0 view .LVU88
 419 016c F9E7     		b	.L26
 420              		.cfi_endproc
 421              	.LFE340:
ARM GAS  /tmp/ccmB0eqY.s 			page 15


 423              		.align	1
 424              		.global	_ZN10CLI_Module15bind_write_dataEPFvPhtPvES1_
 425              		.syntax unified
 426              		.thumb
 427              		.thumb_func
 429              	_ZN10CLI_Module15bind_write_dataEPFvPhtPvES1_:
 430              	.LVL33:
 431              	.LFB341:
  86:My_Top/Modules/CLI_Module.cpp ****     // еӣһи°ғеҮҪж•°дёҚиғҪдёәNULL
 432              		.loc 1 86 1 is_stmt 1 view -0
 433              		.cfi_startproc
 434              		@ args = 0, pretend = 0, frame = 0
 435              		@ frame_needed = 0, uses_anonymous_args = 0
 436              		@ link register save eliminated.
  88:My_Top/Modules/CLI_Module.cpp ****         return false;
 437              		.loc 1 88 5 view .LVU90
 438 016e 19B1     		cbz	r1, .L31
  92:My_Top/Modules/CLI_Module.cpp ****     // дҝқеӯҳйҖҸдј еҸӮж•°
 439              		.loc 1 92 5 view .LVU91
  92:My_Top/Modules/CLI_Module.cpp ****     // дҝқеӯҳйҖҸдј еҸӮж•°
 440              		.loc 1 92 17 is_stmt 0 view .LVU92
 441 0170 4160     		str	r1, [r0, #4]
  94:My_Top/Modules/CLI_Module.cpp **** 
 442              		.loc 1 94 5 is_stmt 1 view .LVU93
  94:My_Top/Modules/CLI_Module.cpp **** 
 443              		.loc 1 94 22 is_stmt 0 view .LVU94
 444 0172 8260     		str	r2, [r0, #8]
  96:My_Top/Modules/CLI_Module.cpp **** }
 445              		.loc 1 96 5 is_stmt 1 view .LVU95
  96:My_Top/Modules/CLI_Module.cpp **** }
 446              		.loc 1 96 12 is_stmt 0 view .LVU96
 447 0174 0120     		movs	r0, #1
 448              	.LVL34:
  96:My_Top/Modules/CLI_Module.cpp **** }
 449              		.loc 1 96 12 view .LVU97
 450 0176 7047     		bx	lr
 451              	.LVL35:
 452              	.L31:
  89:My_Top/Modules/CLI_Module.cpp **** 
 453              		.loc 1 89 16 view .LVU98
 454 0178 0020     		movs	r0, #0
 455              	.LVL36:
  97:My_Top/Modules/CLI_Module.cpp **** 
 456              		.loc 1 97 1 view .LVU99
 457 017a 7047     		bx	lr
 458              		.cfi_endproc
 459              	.LFE341:
 461              		.align	1
 462              		.global	_ZN10CLI_Module15bind_write_dataEP6Serial
 463              		.syntax unified
 464              		.thumb
 465              		.thumb_func
 467              	_ZN10CLI_Module15bind_write_dataEP6Serial:
 468              	.LVL37:
 469              	.LFB342:
 101:My_Top/Modules/CLI_Module.cpp ****     // serialеҜ№иұЎдёҚиғҪдёәNULL
 470              		.loc 1 101 1 is_stmt 1 view -0
ARM GAS  /tmp/ccmB0eqY.s 			page 16


 471              		.cfi_startproc
 472              		@ args = 0, pretend = 0, frame = 0
 473              		@ frame_needed = 0, uses_anonymous_args = 0
 474              		@ link register save eliminated.
 103:My_Top/Modules/CLI_Module.cpp ****         return false;
 475              		.loc 1 103 5 view .LVU101
 476 017c 29B1     		cbz	r1, .L34
 107:My_Top/Modules/CLI_Module.cpp ****     // йҖҸдј еҸӮж•°д№ҹжҢҮеҗ‘serialпјҢlambdaеҶ…йҖҡиҝҮжӯӨжҢҮй’Ҳи°ғз”Ёsend_data
 477              		.loc 1 107 5 view .LVU102
 107:My_Top/Modules/CLI_Module.cpp ****     // йҖҸдј еҸӮж•°д№ҹжҢҮеҗ‘serialпјҢlambdaеҶ…йҖҡиҝҮжӯӨжҢҮй’Ҳи°ғз”Ёsend_data
 478              		.loc 1 107 13 is_stmt 0 view .LVU103
 479 017e 0163     		str	r1, [r0, #48]
 109:My_Top/Modules/CLI_Module.cpp **** 
 480              		.loc 1 109 5 is_stmt 1 view .LVU104
 109:My_Top/Modules/CLI_Module.cpp **** 
 481              		.loc 1 109 22 is_stmt 0 view .LVU105
 482 0180 8160     		str	r1, [r0, #8]
 112:My_Top/Modules/CLI_Module.cpp ****     {
 483              		.loc 1 112 5 is_stmt 1 view .LVU106
 112:My_Top/Modules/CLI_Module.cpp ****     {
 484              		.loc 1 112 17 is_stmt 0 view .LVU107
 485 0182 034B     		ldr	r3, .L35
 486 0184 4360     		str	r3, [r0, #4]
 122:My_Top/Modules/CLI_Module.cpp **** }
 487              		.loc 1 122 5 is_stmt 1 view .LVU108
 122:My_Top/Modules/CLI_Module.cpp **** }
 488              		.loc 1 122 12 is_stmt 0 view .LVU109
 489 0186 0120     		movs	r0, #1
 490              	.LVL38:
 122:My_Top/Modules/CLI_Module.cpp **** }
 491              		.loc 1 122 12 view .LVU110
 492 0188 7047     		bx	lr
 493              	.LVL39:
 494              	.L34:
 104:My_Top/Modules/CLI_Module.cpp **** 
 495              		.loc 1 104 16 view .LVU111
 496 018a 0020     		movs	r0, #0
 497              	.LVL40:
 123:My_Top/Modules/CLI_Module.cpp **** 
 498              		.loc 1 123 1 view .LVU112
 499 018c 7047     		bx	lr
 500              	.L36:
 501 018e 00BF     		.align	2
 502              	.L35:
 503 0190 00000000 		.word	_ZZN10CLI_Module15bind_write_dataEP6SerialENUlPhtPvE_4_FUNES2_tS3_
 504              		.cfi_endproc
 505              	.LFE342:
 507              		.align	1
 508              		.global	_ZN10CLI_Module23_low_level_receive_charEP11EmbeddedClic
 509              		.syntax unified
 510              		.thumb
 511              		.thumb_func
 513              	_ZN10CLI_Module23_low_level_receive_charEP11EmbeddedClic:
 514              	.LVL41:
 515              	.LFB348:
 156:My_Top/Modules/CLI_Module.cpp ****     // embeddedCliдёәNULLеҲҷдёҚеӨ„зҗҶ
 516              		.loc 1 156 1 is_stmt 1 view -0
ARM GAS  /tmp/ccmB0eqY.s 			page 17


 517              		.cfi_startproc
 518              		@ args = 0, pretend = 0, frame = 0
 519              		@ frame_needed = 0, uses_anonymous_args = 0
 158:My_Top/Modules/CLI_Module.cpp ****         return;
 520              		.loc 1 158 5 view .LVU114
 521 0194 18B1     		cbz	r0, .L40
 156:My_Top/Modules/CLI_Module.cpp ****     // embeddedCliдёәNULLеҲҷдёҚеӨ„зҗҶ
 522              		.loc 1 156 1 is_stmt 0 view .LVU115
 523 0196 08B5     		push	{r3, lr}
 524              		.cfi_def_cfa_offset 8
 525              		.cfi_offset 3, -8
 526              		.cfi_offset 14, -4
 162:My_Top/Modules/CLI_Module.cpp **** }
 527              		.loc 1 162 5 is_stmt 1 view .LVU116
 162:My_Top/Modules/CLI_Module.cpp **** }
 528              		.loc 1 162 27 is_stmt 0 view .LVU117
 529 0198 FFF7FEFF 		bl	embeddedCliReceiveChar
 530              	.LVL42:
 163:My_Top/Modules/CLI_Module.cpp **** 
 531              		.loc 1 163 1 view .LVU118
 532 019c 08BD     		pop	{r3, pc}
 533              	.LVL43:
 534              	.L40:
 535              		.cfi_def_cfa_offset 0
 536              		.cfi_restore 3
 537              		.cfi_restore 14
 163:My_Top/Modules/CLI_Module.cpp **** 
 538              		.loc 1 163 1 view .LVU119
 539 019e 7047     		bx	lr
 540              		.cfi_endproc
 541              	.LFE348:
 543              		.align	1
 544              		.global	_ZN10CLI_Module12receive_dataEPht
 545              		.syntax unified
 546              		.thumb
 547              		.thumb_func
 549              	_ZN10CLI_Module12receive_dataEPht:
 550              	.LVL44:
 551              	.LFB349:
 167:My_Top/Modules/CLI_Module.cpp ****     // ж•°жҚ®жҢҮй’ҲжҲ–й•ҝеәҰж— ж•ҲеҲҷиҝ”еӣһfalse
 552              		.loc 1 167 1 is_stmt 1 view -0
 553              		.cfi_startproc
 554              		@ args = 0, pretend = 0, frame = 0
 555              		@ frame_needed = 0, uses_anonymous_args = 0
 167:My_Top/Modules/CLI_Module.cpp ****     // ж•°жҚ®жҢҮй’ҲжҲ–й•ҝеәҰж— ж•ҲеҲҷиҝ”еӣһfalse
 556              		.loc 1 167 1 is_stmt 0 view .LVU121
 557 01a0 2DE9F041 		push	{r4, r5, r6, r7, r8, lr}
 558              		.cfi_def_cfa_offset 24
 559              		.cfi_offset 4, -24
 560              		.cfi_offset 5, -20
 561              		.cfi_offset 6, -16
 562              		.cfi_offset 7, -12
 563              		.cfi_offset 8, -8
 564              		.cfi_offset 14, -4
 169:My_Top/Modules/CLI_Module.cpp ****         return false;
 565              		.loc 1 169 5 is_stmt 1 view .LVU122
 566 01a4 A9B1     		cbz	r1, .L47
ARM GAS  /tmp/ccmB0eqY.s 			page 18


 567 01a6 0646     		mov	r6, r0
 568 01a8 1546     		mov	r5, r2
 569 01aa 0F46     		mov	r7, r1
 169:My_Top/Modules/CLI_Module.cpp ****         return false;
 570              		.loc 1 169 22 is_stmt 0 discriminator 1 view .LVU123
 571 01ac A2B1     		cbz	r2, .L48
 173:My_Top/Modules/CLI_Module.cpp ****         return false;
 572              		.loc 1 173 5 is_stmt 1 view .LVU124
 173:My_Top/Modules/CLI_Module.cpp ****         return false;
 573              		.loc 1 173 10 is_stmt 0 view .LVU125
 574 01ae 90F80080 		ldrb	r8, [r0]	@ zero_extendqisi2
 173:My_Top/Modules/CLI_Module.cpp ****         return false;
 575              		.loc 1 173 5 view .LVU126
 576 01b2 B8F1000F 		cmp	r8, #0
 577 01b6 09D0     		beq	.L44
 578              	.LBB4:
 177:My_Top/Modules/CLI_Module.cpp ****     {
 579              		.loc 1 177 19 view .LVU127
 580 01b8 0024     		movs	r4, #0
 581 01ba 05E0     		b	.L45
 582              	.LVL45:
 583              	.L46:
 179:My_Top/Modules/CLI_Module.cpp ****     }
 584              		.loc 1 179 9 is_stmt 1 view .LVU128
 179:My_Top/Modules/CLI_Module.cpp ****     }
 585              		.loc 1 179 32 is_stmt 0 view .LVU129
 586 01bc 395D     		ldrb	r1, [r7, r4]	@ zero_extendqisi2
 587 01be F06A     		ldr	r0, [r6, #44]
 588 01c0 FFF7FEFF 		bl	_ZN10CLI_Module23_low_level_receive_charEP11EmbeddedClic
 589              	.LVL46:
 177:My_Top/Modules/CLI_Module.cpp ****     {
 590              		.loc 1 177 5 is_stmt 1 discriminator 3 view .LVU130
 591 01c4 0134     		adds	r4, r4, #1
 592              	.LVL47:
 177:My_Top/Modules/CLI_Module.cpp ****     {
 593              		.loc 1 177 5 is_stmt 0 discriminator 3 view .LVU131
 594 01c6 A4B2     		uxth	r4, r4
 595              	.LVL48:
 596              	.L45:
 177:My_Top/Modules/CLI_Module.cpp ****     {
 597              		.loc 1 177 28 is_stmt 1 discriminator 1 view .LVU132
 598 01c8 AC42     		cmp	r4, r5
 599 01ca F7D3     		bcc	.L46
 600              	.LVL49:
 601              	.L44:
 177:My_Top/Modules/CLI_Module.cpp ****     {
 602              		.loc 1 177 28 is_stmt 0 discriminator 1 view .LVU133
 603              	.LBE4:
 183:My_Top/Modules/CLI_Module.cpp **** 
 604              		.loc 1 183 1 view .LVU134
 605 01cc 4046     		mov	r0, r8
 606 01ce BDE8F081 		pop	{r4, r5, r6, r7, r8, pc}
 607              	.LVL50:
 608              	.L47:
 170:My_Top/Modules/CLI_Module.cpp **** 
 609              		.loc 1 170 16 view .LVU135
 610 01d2 4FF00008 		mov	r8, #0
ARM GAS  /tmp/ccmB0eqY.s 			page 19


 611 01d6 F9E7     		b	.L44
 612              	.L48:
 170:My_Top/Modules/CLI_Module.cpp **** 
 613              		.loc 1 170 16 view .LVU136
 614 01d8 4FF00008 		mov	r8, #0
 615 01dc F6E7     		b	.L44
 616              		.cfi_endproc
 617              	.LFE349:
 619              		.align	1
 620              		.global	_ZN10CLI_Module14get_cli_moduleEi
 621              		.syntax unified
 622              		.thumb
 623              		.thumb_func
 625              	_ZN10CLI_Module14get_cli_moduleEi:
 626              	.LVL51:
 627              	.LFB350:
 187:My_Top/Modules/CLI_Module.cpp ****     // зҙўеј•и¶Ҡз•ҢеҲҷиҝ”еӣһNULL
 628              		.loc 1 187 1 is_stmt 1 view -0
 629              		.cfi_startproc
 630              		@ args = 0, pretend = 0, frame = 0
 631              		@ frame_needed = 0, uses_anonymous_args = 0
 632              		@ link register save eliminated.
 189:My_Top/Modules/CLI_Module.cpp ****         return NULL;
 633              		.loc 1 189 5 view .LVU138
 634 01de 0028     		cmp	r0, #0
 189:My_Top/Modules/CLI_Module.cpp ****         return NULL;
 635              		.loc 1 189 5 is_stmt 0 view .LVU139
 636 01e0 08DB     		blt	.L53
 189:My_Top/Modules/CLI_Module.cpp ****         return NULL;
 637              		.loc 1 189 28 discriminator 1 view .LVU140
 638 01e2 064B     		ldr	r3, .L55
 639 01e4 1B68     		ldr	r3, [r3]
 189:My_Top/Modules/CLI_Module.cpp ****         return NULL;
 640              		.loc 1 189 19 discriminator 1 view .LVU141
 641 01e6 8342     		cmp	r3, r0
 642 01e8 06DD     		ble	.L54
 192:My_Top/Modules/CLI_Module.cpp **** }
 643              		.loc 1 192 5 is_stmt 1 view .LVU142
 192:My_Top/Modules/CLI_Module.cpp **** }
 644              		.loc 1 192 27 is_stmt 0 view .LVU143
 645 01ea 044B     		ldr	r3, .L55
 646 01ec 03EB8003 		add	r3, r3, r0, lsl #2
 647 01f0 5868     		ldr	r0, [r3, #4]
 648              	.LVL52:
 192:My_Top/Modules/CLI_Module.cpp **** }
 649              		.loc 1 192 27 view .LVU144
 650 01f2 7047     		bx	lr
 651              	.LVL53:
 652              	.L53:
 190:My_Top/Modules/CLI_Module.cpp **** 
 653              		.loc 1 190 16 view .LVU145
 654 01f4 0020     		movs	r0, #0
 655              	.LVL54:
 190:My_Top/Modules/CLI_Module.cpp **** 
 656              		.loc 1 190 16 view .LVU146
 657 01f6 7047     		bx	lr
 658              	.LVL55:
ARM GAS  /tmp/ccmB0eqY.s 			page 20


 659              	.L54:
 190:My_Top/Modules/CLI_Module.cpp **** 
 660              		.loc 1 190 16 view .LVU147
 661 01f8 0020     		movs	r0, #0
 662              	.LVL56:
 193:My_Top/Modules/CLI_Module.cpp **** 
 663              		.loc 1 193 1 view .LVU148
 664 01fa 7047     		bx	lr
 665              	.L56:
 666              		.align	2
 667              	.L55:
 668 01fc 00000000 		.word	.LANCHOR0
 669              		.cfi_endproc
 670              	.LFE350:
 672              		.align	1
 673              		.global	_ZN10CLI_Module14get_cli_moduleEP11EmbeddedCli
 674              		.syntax unified
 675              		.thumb
 676              		.thumb_func
 678              	_ZN10CLI_Module14get_cli_moduleEP11EmbeddedCli:
 679              	.LVL57:
 680              	.LFB351:
 197:My_Top/Modules/CLI_Module.cpp ****     // cliжҢҮй’ҲдёәNULLеҲҷж— йңҖжҹҘжүҫ
 681              		.loc 1 197 1 is_stmt 1 view -0
 682              		.cfi_startproc
 683              		@ args = 0, pretend = 0, frame = 0
 684              		@ frame_needed = 0, uses_anonymous_args = 0
 685              		@ link register save eliminated.
 199:My_Top/Modules/CLI_Module.cpp ****         return NULL;
 686              		.loc 1 199 5 view .LVU150
 687 0200 0146     		mov	r1, r0
 688 0202 80B1     		cbz	r0, .L57
 689              	.LBB5:
 203:My_Top/Modules/CLI_Module.cpp ****     {
 690              		.loc 1 203 18 is_stmt 0 view .LVU151
 691 0204 0023     		movs	r3, #0
 692              	.LVL58:
 693              	.L59:
 203:My_Top/Modules/CLI_Module.cpp ****     {
 694              		.loc 1 203 27 is_stmt 1 discriminator 1 view .LVU152
 695 0206 084A     		ldr	r2, .L63
 696 0208 1268     		ldr	r2, [r2]
 697 020a 9342     		cmp	r3, r2
 698 020c 09DA     		bge	.L62
 205:My_Top/Modules/CLI_Module.cpp ****             return _cli_list[i];
 699              		.loc 1 205 9 view .LVU153
 205:My_Top/Modules/CLI_Module.cpp ****             return _cli_list[i];
 700              		.loc 1 205 24 is_stmt 0 view .LVU154
 701 020e 064A     		ldr	r2, .L63
 702 0210 02EB8302 		add	r2, r2, r3, lsl #2
 703 0214 5068     		ldr	r0, [r2, #4]
 205:My_Top/Modules/CLI_Module.cpp ****             return _cli_list[i];
 704              		.loc 1 205 27 view .LVU155
 705 0216 C26A     		ldr	r2, [r0, #44]
 205:My_Top/Modules/CLI_Module.cpp ****             return _cli_list[i];
 706              		.loc 1 205 9 view .LVU156
 707 0218 8A42     		cmp	r2, r1
ARM GAS  /tmp/ccmB0eqY.s 			page 21


 708 021a 04D0     		beq	.L57
 203:My_Top/Modules/CLI_Module.cpp ****     {
 709              		.loc 1 203 5 is_stmt 1 discriminator 2 view .LVU157
 710 021c 0133     		adds	r3, r3, #1
 711              	.LVL59:
 203:My_Top/Modules/CLI_Module.cpp ****     {
 712              		.loc 1 203 5 is_stmt 0 discriminator 2 view .LVU158
 713 021e DBB2     		uxtb	r3, r3
 714              	.LVL60:
 203:My_Top/Modules/CLI_Module.cpp ****     {
 715              		.loc 1 203 5 discriminator 2 view .LVU159
 716 0220 F1E7     		b	.L59
 717              	.LVL61:
 718              	.L62:
 203:My_Top/Modules/CLI_Module.cpp ****     {
 719              		.loc 1 203 5 discriminator 2 view .LVU160
 720              	.LBE5:
 210:My_Top/Modules/CLI_Module.cpp **** }
 721              		.loc 1 210 12 view .LVU161
 722 0222 0020     		movs	r0, #0
 723              	.LBB6:
 724 0224 7047     		bx	lr
 725              	.LVL62:
 726              	.L57:
 210:My_Top/Modules/CLI_Module.cpp **** }
 727              		.loc 1 210 12 view .LVU162
 728              	.LBE6:
 211:My_Top/Modules/CLI_Module.cpp **** 
 729              		.loc 1 211 1 view .LVU163
 730 0226 7047     		bx	lr
 731              	.L64:
 732              		.align	2
 733              	.L63:
 734 0228 00000000 		.word	.LANCHOR0
 735              		.cfi_endproc
 736              	.LFE351:
 738              		.align	1
 739              		.global	_ZN10CLI_Module21_low_level_write_charEP11EmbeddedClic
 740              		.syntax unified
 741              		.thumb
 742              		.thumb_func
 744              	_ZN10CLI_Module21_low_level_write_charEP11EmbeddedClic:
 745              	.LVL63:
 746              	.LFB346:
 128:My_Top/Modules/CLI_Module.cpp ****     // йҖҡиҝҮembeddedCliжҢҮй’ҲеҸҚжҹҘCLI_Moduleе®һдҫӢ
 747              		.loc 1 128 1 is_stmt 1 view -0
 748              		.cfi_startproc
 749              		@ args = 0, pretend = 0, frame = 8
 750              		@ frame_needed = 0, uses_anonymous_args = 0
 128:My_Top/Modules/CLI_Module.cpp ****     // йҖҡиҝҮembeddedCliжҢҮй’ҲеҸҚжҹҘCLI_Moduleе®һдҫӢ
 751              		.loc 1 128 1 is_stmt 0 view .LVU165
 752 022c 10B5     		push	{r4, lr}
 753              		.cfi_def_cfa_offset 8
 754              		.cfi_offset 4, -8
 755              		.cfi_offset 14, -4
 756 022e 82B0     		sub	sp, sp, #8
 757              		.cfi_def_cfa_offset 16
ARM GAS  /tmp/ccmB0eqY.s 			page 22


 758 0230 8DF80710 		strb	r1, [sp, #7]
 130:My_Top/Modules/CLI_Module.cpp ****     // жүҫдёҚеҲ°е®һдҫӢеҲҷзӣҙжҺҘиҝ”еӣһ
 759              		.loc 1 130 5 is_stmt 1 view .LVU166
 130:My_Top/Modules/CLI_Module.cpp ****     // жүҫдёҚеҲ°е®һдҫӢеҲҷзӣҙжҺҘиҝ”еӣһ
 760              		.loc 1 130 38 is_stmt 0 view .LVU167
 761 0234 FFF7FEFF 		bl	_ZN10CLI_Module14get_cli_moduleEP11EmbeddedCli
 762              	.LVL64:
 132:My_Top/Modules/CLI_Module.cpp ****         return;
 763              		.loc 1 132 5 is_stmt 1 view .LVU168
 764 0238 28B1     		cbz	r0, .L65
 136:My_Top/Modules/CLI_Module.cpp **** }
 765              		.loc 1 136 5 view .LVU169
 136:My_Top/Modules/CLI_Module.cpp **** }
 766              		.loc 1 136 11 is_stmt 0 view .LVU170
 767 023a 4468     		ldr	r4, [r0, #4]
 136:My_Top/Modules/CLI_Module.cpp **** }
 768              		.loc 1 136 22 view .LVU171
 769 023c 8268     		ldr	r2, [r0, #8]
 770 023e 0121     		movs	r1, #1
 771 0240 0DF10700 		add	r0, sp, #7
 772              	.LVL65:
 136:My_Top/Modules/CLI_Module.cpp **** }
 773              		.loc 1 136 22 view .LVU172
 774 0244 A047     		blx	r4
 775              	.LVL66:
 776              	.L65:
 137:My_Top/Modules/CLI_Module.cpp **** 
 777              		.loc 1 137 1 view .LVU173
 778 0246 02B0     		add	sp, sp, #8
 779              		.cfi_def_cfa_offset 8
 780              		@ sp needed
 781 0248 10BD     		pop	{r4, pc}
 782              		.cfi_endproc
 783              	.LFE346:
 785              		.align	1
 786              		.global	_ZN10CLI_Module23_low_level_write_stringEP11EmbeddedCliPKc
 787              		.syntax unified
 788              		.thumb
 789              		.thumb_func
 791              	_ZN10CLI_Module23_low_level_write_stringEP11EmbeddedCliPKc:
 792              	.LVL67:
 793              	.LFB347:
 142:My_Top/Modules/CLI_Module.cpp ****     // йҖҡиҝҮembeddedCliжҢҮй’ҲеҸҚжҹҘCLI_Moduleе®һдҫӢ
 794              		.loc 1 142 1 is_stmt 1 view -0
 795              		.cfi_startproc
 796              		@ args = 0, pretend = 0, frame = 0
 797              		@ frame_needed = 0, uses_anonymous_args = 0
 142:My_Top/Modules/CLI_Module.cpp ****     // йҖҡиҝҮembeddedCliжҢҮй’ҲеҸҚжҹҘCLI_Moduleе®һдҫӢ
 798              		.loc 1 142 1 is_stmt 0 view .LVU175
 799 024a 70B5     		push	{r4, r5, r6, lr}
 800              		.cfi_def_cfa_offset 16
 801              		.cfi_offset 4, -16
 802              		.cfi_offset 5, -12
 803              		.cfi_offset 6, -8
 804              		.cfi_offset 14, -4
 805 024c 0C46     		mov	r4, r1
 144:My_Top/Modules/CLI_Module.cpp ****     // жүҫдёҚеҲ°е®һдҫӢеҲҷзӣҙжҺҘиҝ”еӣһ
ARM GAS  /tmp/ccmB0eqY.s 			page 23


 806              		.loc 1 144 5 is_stmt 1 view .LVU176
 144:My_Top/Modules/CLI_Module.cpp ****     // жүҫдёҚеҲ°е®һдҫӢеҲҷзӣҙжҺҘиҝ”еӣһ
 807              		.loc 1 144 38 is_stmt 0 view .LVU177
 808 024e FFF7FEFF 		bl	_ZN10CLI_Module14get_cli_moduleEP11EmbeddedCli
 809              	.LVL68:
 146:My_Top/Modules/CLI_Module.cpp ****         return;
 810              		.loc 1 146 5 is_stmt 1 view .LVU178
 811 0252 48B1     		cbz	r0, .L68
 812 0254 0546     		mov	r5, r0
 150:My_Top/Modules/CLI_Module.cpp **** }
 813              		.loc 1 150 5 view .LVU179
 150:My_Top/Modules/CLI_Module.cpp **** }
 814              		.loc 1 150 11 is_stmt 0 view .LVU180
 815 0256 4668     		ldr	r6, [r0, #4]
 150:My_Top/Modules/CLI_Module.cpp **** }
 816              		.loc 1 150 46 view .LVU181
 817 0258 C821     		movs	r1, #200
 818 025a 2046     		mov	r0, r4
 819              	.LVL69:
 150:My_Top/Modules/CLI_Module.cpp **** }
 820              		.loc 1 150 46 view .LVU182
 821 025c FFF7FEFF 		bl	strnlen
 822              	.LVL70:
 150:My_Top/Modules/CLI_Module.cpp **** }
 823              		.loc 1 150 22 discriminator 1 view .LVU183
 824 0260 AA68     		ldr	r2, [r5, #8]
 825 0262 81B2     		uxth	r1, r0
 826 0264 2046     		mov	r0, r4
 827 0266 B047     		blx	r6
 828              	.LVL71:
 829              	.L68:
 151:My_Top/Modules/CLI_Module.cpp **** 
 830              		.loc 1 151 1 view .LVU184
 831 0268 70BD     		pop	{r4, r5, r6, pc}
 151:My_Top/Modules/CLI_Module.cpp **** 
 832              		.loc 1 151 1 view .LVU185
 833              		.cfi_endproc
 834              	.LFE347:
 836              		.align	1
 837              		.global	_ZN10CLI_Module14get_cli_moduleEP6Serial
 838              		.syntax unified
 839              		.thumb
 840              		.thumb_func
 842              	_ZN10CLI_Module14get_cli_moduleEP6Serial:
 843              	.LVL72:
 844              	.LFB352:
 216:My_Top/Modules/CLI_Module.cpp ****     // serialжҢҮй’ҲдёәNULLеҲҷж— йңҖжҹҘжүҫ
 845              		.loc 1 216 1 is_stmt 1 view -0
 846              		.cfi_startproc
 847              		@ args = 0, pretend = 0, frame = 0
 848              		@ frame_needed = 0, uses_anonymous_args = 0
 849              		@ link register save eliminated.
 218:My_Top/Modules/CLI_Module.cpp ****         return NULL;
 850              		.loc 1 218 5 view .LVU187
 851 026a 0146     		mov	r1, r0
 852 026c 80B1     		cbz	r0, .L71
 853              	.LBB7:
ARM GAS  /tmp/ccmB0eqY.s 			page 24


 222:My_Top/Modules/CLI_Module.cpp ****     {
 854              		.loc 1 222 18 is_stmt 0 view .LVU188
 855 026e 0023     		movs	r3, #0
 856              	.LVL73:
 857              	.L73:
 222:My_Top/Modules/CLI_Module.cpp ****     {
 858              		.loc 1 222 27 is_stmt 1 discriminator 1 view .LVU189
 859 0270 084A     		ldr	r2, .L77
 860 0272 1268     		ldr	r2, [r2]
 861 0274 9342     		cmp	r3, r2
 862 0276 09DA     		bge	.L76
 224:My_Top/Modules/CLI_Module.cpp ****             return _cli_list[i];
 863              		.loc 1 224 9 view .LVU190
 224:My_Top/Modules/CLI_Module.cpp ****             return _cli_list[i];
 864              		.loc 1 224 24 is_stmt 0 view .LVU191
 865 0278 064A     		ldr	r2, .L77
 866 027a 02EB8302 		add	r2, r2, r3, lsl #2
 867 027e 5068     		ldr	r0, [r2, #4]
 224:My_Top/Modules/CLI_Module.cpp ****             return _cli_list[i];
 868              		.loc 1 224 27 view .LVU192
 869 0280 026B     		ldr	r2, [r0, #48]
 224:My_Top/Modules/CLI_Module.cpp ****             return _cli_list[i];
 870              		.loc 1 224 9 view .LVU193
 871 0282 8A42     		cmp	r2, r1
 872 0284 04D0     		beq	.L71
 222:My_Top/Modules/CLI_Module.cpp ****     {
 873              		.loc 1 222 5 is_stmt 1 discriminator 2 view .LVU194
 874 0286 0133     		adds	r3, r3, #1
 875              	.LVL74:
 222:My_Top/Modules/CLI_Module.cpp ****     {
 876              		.loc 1 222 5 is_stmt 0 discriminator 2 view .LVU195
 877 0288 DBB2     		uxtb	r3, r3
 878              	.LVL75:
 222:My_Top/Modules/CLI_Module.cpp ****     {
 879              		.loc 1 222 5 discriminator 2 view .LVU196
 880 028a F1E7     		b	.L73
 881              	.LVL76:
 882              	.L76:
 222:My_Top/Modules/CLI_Module.cpp ****     {
 883              		.loc 1 222 5 discriminator 2 view .LVU197
 884              	.LBE7:
 229:My_Top/Modules/CLI_Module.cpp **** }
 885              		.loc 1 229 12 view .LVU198
 886 028c 0020     		movs	r0, #0
 887              	.LBB8:
 888 028e 7047     		bx	lr
 889              	.LVL77:
 890              	.L71:
 229:My_Top/Modules/CLI_Module.cpp **** }
 891              		.loc 1 229 12 view .LVU199
 892              	.LBE8:
 230:My_Top/Modules/CLI_Module.cpp **** 
 893              		.loc 1 230 1 view .LVU200
 894 0290 7047     		bx	lr
 895              	.L78:
 896 0292 00BF     		.align	2
 897              	.L77:
ARM GAS  /tmp/ccmB0eqY.s 			page 25


 898 0294 00000000 		.word	.LANCHOR0
 899              		.cfi_endproc
 900              	.LFE352:
 902              		.align	1
 903              		.global	_ZN10CLI_Module9start_allEv
 904              		.syntax unified
 905              		.thumb
 906              		.thumb_func
 908              	_ZN10CLI_Module9start_allEv:
 909              	.LFB355:
 266:My_Top/Modules/CLI_Module.cpp ****     bool ret = true;
 910              		.loc 1 266 1 is_stmt 1 view -0
 911              		.cfi_startproc
 912              		@ args = 0, pretend = 0, frame = 0
 913              		@ frame_needed = 0, uses_anonymous_args = 0
 914 0298 38B5     		push	{r3, r4, r5, lr}
 915              		.cfi_def_cfa_offset 16
 916              		.cfi_offset 3, -16
 917              		.cfi_offset 4, -12
 918              		.cfi_offset 5, -8
 919              		.cfi_offset 14, -4
 267:My_Top/Modules/CLI_Module.cpp **** 
 920              		.loc 1 267 5 view .LVU202
 921              	.LVL78:
 270:My_Top/Modules/CLI_Module.cpp ****     {
 922              		.loc 1 270 5 view .LVU203
 923              	.LBB9:
 270:My_Top/Modules/CLI_Module.cpp ****     {
 924              		.loc 1 270 18 is_stmt 0 view .LVU204
 925 029a 0024     		movs	r4, #0
 926              	.LBE9:
 267:My_Top/Modules/CLI_Module.cpp **** 
 927              		.loc 1 267 10 view .LVU205
 928 029c 0125     		movs	r5, #1
 929              	.LBB10:
 270:My_Top/Modules/CLI_Module.cpp ****     {
 930              		.loc 1 270 5 view .LVU206
 931 029e 08E0     		b	.L80
 932              	.LVL79:
 933              	.L81:
 272:My_Top/Modules/CLI_Module.cpp ****     }
 934              		.loc 1 272 9 is_stmt 1 view .LVU207
 272:My_Top/Modules/CLI_Module.cpp ****     }
 935              		.loc 1 272 27 is_stmt 0 view .LVU208
 936 02a0 074B     		ldr	r3, .L83
 937 02a2 03EB8403 		add	r3, r3, r4, lsl #2
 272:My_Top/Modules/CLI_Module.cpp ****     }
 938              		.loc 1 272 35 view .LVU209
 939 02a6 5868     		ldr	r0, [r3, #4]
 940 02a8 FFF7FEFF 		bl	_ZN10CLI_Module5startEv
 941              	.LVL80:
 942 02ac 0540     		ands	r5, r5, r0
 943              	.LVL81:
 270:My_Top/Modules/CLI_Module.cpp ****     {
 944              		.loc 1 270 5 is_stmt 1 discriminator 3 view .LVU210
 945 02ae 0134     		adds	r4, r4, #1
 946              	.LVL82:
ARM GAS  /tmp/ccmB0eqY.s 			page 26


 270:My_Top/Modules/CLI_Module.cpp ****     {
 947              		.loc 1 270 5 is_stmt 0 discriminator 3 view .LVU211
 948 02b0 E4B2     		uxtb	r4, r4
 949              	.LVL83:
 950              	.L80:
 270:My_Top/Modules/CLI_Module.cpp ****     {
 951              		.loc 1 270 27 is_stmt 1 discriminator 1 view .LVU212
 952 02b2 034B     		ldr	r3, .L83
 953 02b4 1B68     		ldr	r3, [r3]
 954 02b6 9C42     		cmp	r4, r3
 955 02b8 F2DB     		blt	.L81
 956              	.LBE10:
 275:My_Top/Modules/CLI_Module.cpp **** }
 957              		.loc 1 275 5 view .LVU213
 276:My_Top/Modules/CLI_Module.cpp **** 
 958              		.loc 1 276 1 is_stmt 0 view .LVU214
 959 02ba 2846     		mov	r0, r5
 960 02bc 38BD     		pop	{r3, r4, r5, pc}
 961              	.LVL84:
 962              	.L84:
 276:My_Top/Modules/CLI_Module.cpp **** 
 963              		.loc 1 276 1 view .LVU215
 964 02be 00BF     		.align	2
 965              	.L83:
 966 02c0 00000000 		.word	.LANCHOR0
 967              		.cfi_endproc
 968              	.LFE355:
 970              		.align	1
 971              		.global	_ZN10CLI_Module14execute_subcmdEPS_PKcPv
 972              		.syntax unified
 973              		.thumb
 974              		.thumb_func
 976              	_ZN10CLI_Module14execute_subcmdEPS_PKcPv:
 977              	.LVL85:
 978              	.LFB356:
 281:My_Top/Modules/CLI_Module.cpp ****     // uint16_t arg_cnt = embeddedCliGetTokenCount(args);   // иҺ·еҸ–еҸӮж•°tokenж•°йҮҸпјҲе·ІжіЁйҮҠп
 979              		.loc 1 281 1 is_stmt 1 view -0
 980              		.cfi_startproc
 981              		@ args = 0, pretend = 0, frame = 0
 982              		@ frame_needed = 0, uses_anonymous_args = 0
 983              		@ link register save eliminated.
 284:My_Top/Modules/CLI_Module.cpp **** 
 984              		.loc 1 284 1 is_stmt 0 view .LVU217
 985 02c4 7047     		bx	lr
 986              		.cfi_endproc
 987              	.LFE356:
 989              		.section	.rodata.str1.4
 990              		.align	2
 991              	.LC2:
 992 0010 00       		.ascii	"\000"
 993              		.text
 994              		.align	1
 995              		.global	_ZN10CLI_Module13init_arg_listEPPKcS1_
 996              		.syntax unified
 997              		.thumb
 998              		.thumb_func
 1000              	_ZN10CLI_Module13init_arg_listEPPKcS1_:
ARM GAS  /tmp/ccmB0eqY.s 			page 27


 1001              	.LVL86:
 1002              	.LFB357:
 289:My_Top/Modules/CLI_Module.cpp ****     // иҺ·еҸ–argsдёӯзҡ„tokenж•°йҮҸпјҲembeddedCliGetTokenCountдёҚеҗ«е‘Ҫд»ӨеҗҚжң¬иә«пјҢеҚіеҸӮж•°дёӘж•
 1003              		.loc 1 289 1 is_stmt 1 view -0
 1004              		.cfi_startproc
 1005              		@ args = 0, pretend = 0, frame = 0
 1006              		@ frame_needed = 0, uses_anonymous_args = 0
 289:My_Top/Modules/CLI_Module.cpp ****     // иҺ·еҸ–argsдёӯзҡ„tokenж•°йҮҸпјҲembeddedCliGetTokenCountдёҚеҗ«е‘Ҫд»ӨеҗҚжң¬иә«пјҢеҚіеҸӮж•°дёӘж•
 1007              		.loc 1 289 1 is_stmt 0 view .LVU219
 1008 02c6 F8B5     		push	{r3, r4, r5, r6, r7, lr}
 1009              		.cfi_def_cfa_offset 24
 1010              		.cfi_offset 3, -24
 1011              		.cfi_offset 4, -20
 1012              		.cfi_offset 5, -16
 1013              		.cfi_offset 6, -12
 1014              		.cfi_offset 7, -8
 1015              		.cfi_offset 14, -4
 1016 02c8 0546     		mov	r5, r0
 1017 02ca 0E46     		mov	r6, r1
 291:My_Top/Modules/CLI_Module.cpp ****     // arg_list[0]зҪ®з©әеӯ—з¬ҰдёІпјҢеҜ№еә”"е‘Ҫд»ӨеҗҚ"еҚ дҪҚпјҲдёҚдҪҝз”Ёпјү
 1018              		.loc 1 291 5 is_stmt 1 view .LVU220
 291:My_Top/Modules/CLI_Module.cpp ****     // arg_list[0]зҪ®з©әеӯ—з¬ҰдёІпјҢеҜ№еә”"е‘Ҫд»ӨеҗҚ"еҚ дҪҚпјҲдёҚдҪҝз”Ёпјү
 1019              		.loc 1 291 45 is_stmt 0 view .LVU221
 1020 02cc 0846     		mov	r0, r1
 1021              	.LVL87:
 291:My_Top/Modules/CLI_Module.cpp ****     // arg_list[0]зҪ®з©әеӯ—з¬ҰдёІпјҢеҜ№еә”"е‘Ҫд»ӨеҗҚ"еҚ дҪҚпјҲдёҚдҪҝз”Ёпјү
 1022              		.loc 1 291 45 view .LVU222
 1023 02ce FFF7FEFF 		bl	embeddedCliGetTokenCount
 1024              	.LVL88:
 291:My_Top/Modules/CLI_Module.cpp ****     // arg_list[0]зҪ®з©әеӯ—з¬ҰдёІпјҢеҜ№еә”"е‘Ҫд»ӨеҗҚ"еҚ дҪҚпјҲдёҚдҪҝз”Ёпјү
 1025              		.loc 1 291 50 discriminator 1 view .LVU223
 1026 02d2 0746     		mov	r7, r0
 1027              	.LVL89:
 293:My_Top/Modules/CLI_Module.cpp ****     // йҷҗеҲ¶еҸӮж•°ж•°йҮҸдёҚи¶…иҝҮCLI_MODULE_MAX_ARGS_NUMпјҢйҳІжӯўж•°з»„и¶Ҡз•Ң
 1028              		.loc 1 293 5 is_stmt 1 view .LVU224
 293:My_Top/Modules/CLI_Module.cpp ****     // йҷҗеҲ¶еҸӮж•°ж•°йҮҸдёҚи¶…иҝҮCLI_MODULE_MAX_ARGS_NUMпјҢйҳІжӯўж•°з»„и¶Ҡз•Ң
 1029              		.loc 1 293 17 is_stmt 0 view .LVU225
 1030 02d4 094B     		ldr	r3, .L93
 1031 02d6 2B60     		str	r3, [r5]
 295:My_Top/Modules/CLI_Module.cpp ****     // д»Һзҙўеј•1ејҖе§ӢеЎ«е……еҗ„еҸӮж•°tokenпјҲembeddedCliGetTokenзҙўеј•д»Һ1иө·пјү
 1032              		.loc 1 295 5 is_stmt 1 view .LVU226
 1033 02d8 0928     		cmp	r0, #9
 1034 02da 01DC     		bgt	.L92
 1035              	.L87:
 1036              	.LVL90:
 297:My_Top/Modules/CLI_Module.cpp ****     {
 1037              		.loc 1 297 5 view .LVU227
 1038              	.LBB11:
 297:My_Top/Modules/CLI_Module.cpp ****     {
 1039              		.loc 1 297 14 is_stmt 0 view .LVU228
 1040 02dc 0124     		movs	r4, #1
 297:My_Top/Modules/CLI_Module.cpp ****     {
 1041              		.loc 1 297 5 view .LVU229
 1042 02de 08E0     		b	.L88
 1043              	.LVL91:
 1044              	.L92:
 297:My_Top/Modules/CLI_Module.cpp ****     {
ARM GAS  /tmp/ccmB0eqY.s 			page 28


 1045              		.loc 1 297 5 view .LVU230
 1046              	.LBE11:
 295:My_Top/Modules/CLI_Module.cpp ****     // д»Һзҙўеј•1ејҖе§ӢеЎ«е……еҗ„еҸӮж•°tokenпјҲembeddedCliGetTokenзҙўеј•д»Һ1иө·пјү
 1047              		.loc 1 295 57 discriminator 1 view .LVU231
 1048 02e0 0A27     		movs	r7, #10
 1049 02e2 FBE7     		b	.L87
 1050              	.LVL92:
 1051              	.L89:
 1052              	.LBB12:
 299:My_Top/Modules/CLI_Module.cpp ****     }
 1053              		.loc 1 299 9 is_stmt 1 view .LVU232
 299:My_Top/Modules/CLI_Module.cpp ****     }
 1054              		.loc 1 299 42 is_stmt 0 view .LVU233
 1055 02e4 A1B2     		uxth	r1, r4
 1056 02e6 3046     		mov	r0, r6
 1057 02e8 FFF7FEFF 		bl	embeddedCliGetToken
 1058              	.LVL93:
 299:My_Top/Modules/CLI_Module.cpp ****     }
 1059              		.loc 1 299 21 discriminator 1 view .LVU234
 1060 02ec 45F82400 		str	r0, [r5, r4, lsl #2]
 297:My_Top/Modules/CLI_Module.cpp ****     {
 1061              		.loc 1 297 5 is_stmt 1 discriminator 3 view .LVU235
 1062 02f0 0134     		adds	r4, r4, #1
 1063              	.LVL94:
 1064              	.L88:
 297:My_Top/Modules/CLI_Module.cpp ****     {
 1065              		.loc 1 297 23 discriminator 1 view .LVU236
 1066 02f2 A742     		cmp	r7, r4
 1067 02f4 F6DA     		bge	.L89
 1068              	.LBE12:
 301:My_Top/Modules/CLI_Module.cpp **** }
 1069              		.loc 1 301 5 view .LVU237
 302:My_Top/Modules/CLI_Module.cpp **** 
 1070              		.loc 1 302 1 is_stmt 0 view .LVU238
 1071 02f6 3846     		mov	r0, r7
 1072 02f8 F8BD     		pop	{r3, r4, r5, r6, r7, pc}
 1073              	.LVL95:
 1074              	.L94:
 302:My_Top/Modules/CLI_Module.cpp **** 
 1075              		.loc 1 302 1 view .LVU239
 1076 02fa 00BF     		.align	2
 1077              	.L93:
 1078 02fc 10000000 		.word	.LC2
 1079              		.cfi_endproc
 1080              	.LFE357:
 1082              		.align	1
 1083              		.global	_ZN10CLI_Module5printEPKcz
 1084              		.syntax unified
 1085              		.thumb
 1086              		.thumb_func
 1088              	_ZN10CLI_Module5printEPKcz:
 1089              	.LVL96:
 1090              	.LFB359:
 320:My_Top/Modules/CLI_Module.cpp ****     }
 321:My_Top/Modules/CLI_Module.cpp **** }
 322:My_Top/Modules/CLI_Module.cpp **** 
 323:My_Top/Modules/CLI_Module.cpp **** // ж јејҸеҢ–жү“еҚ°иҫ“еҮәеҲ°CLIз»‘е®ҡзҡ„дёІеҸЈпјҲзұ»printfз”Ёжі•пјү
ARM GAS  /tmp/ccmB0eqY.s 			page 29


 324:My_Top/Modules/CLI_Module.cpp **** // еҶ…йғЁеҠЁжҖҒз”іиҜ·е ҶеҶ…еӯҳеҒҡж јејҸеҢ–зј“еҶІпјҢе®ҢжҲҗеҗҺз«ӢеҚійҮҠж”ҫ
 325:My_Top/Modules/CLI_Module.cpp **** int CLI_Module::print(const char *format, ...)
 326:My_Top/Modules/CLI_Module.cpp **** {
 1091              		.loc 1 326 1 is_stmt 1 view -0
 1092              		.cfi_startproc
 1093              		@ args = 4, pretend = 12, frame = 8
 1094              		@ frame_needed = 0, uses_anonymous_args = 1
 1095              		.loc 1 326 1 is_stmt 0 view .LVU241
 1096 0300 0EB4     		push	{r1, r2, r3}
 1097              		.cfi_def_cfa_offset 12
 1098              		.cfi_offset 1, -12
 1099              		.cfi_offset 2, -8
 1100              		.cfi_offset 3, -4
 1101 0302 70B5     		push	{r4, r5, r6, lr}
 1102              		.cfi_def_cfa_offset 28
 1103              		.cfi_offset 4, -28
 1104              		.cfi_offset 5, -24
 1105              		.cfi_offset 6, -20
 1106              		.cfi_offset 14, -16
 1107 0304 83B0     		sub	sp, sp, #12
 1108              		.cfi_def_cfa_offset 40
 327:My_Top/Modules/CLI_Module.cpp ****     // жңӘз»‘е®ҡеҶҷж•°жҚ®еӣһи°ғеҲҷж— жі•иҫ“еҮәпјҢиҝ”еӣһ-1
 328:My_Top/Modules/CLI_Module.cpp ****     if (_write_data == NULL)
 1109              		.loc 1 328 5 is_stmt 1 view .LVU242
 1110              		.loc 1 328 9 is_stmt 0 view .LVU243
 1111 0306 4368     		ldr	r3, [r0, #4]
 1112              		.loc 1 328 5 view .LVU244
 1113 0308 D3B1     		cbz	r3, .L97
 1114 030a 0446     		mov	r4, r0
 329:My_Top/Modules/CLI_Module.cpp ****         return -1;
 330:My_Top/Modules/CLI_Module.cpp **** 
 331:My_Top/Modules/CLI_Module.cpp ****     // д»ҺFreeRTOSе Ҷз”іиҜ·ж јејҸеҢ–зј“еҶІеҢәпјҢеӨ§е°ҸдёәCLI_MODULE_PRINT_BUFFER_MAX_SIZE
 332:My_Top/Modules/CLI_Module.cpp ****     uint8_t *print_buf = (uint8_t *)pvPortMalloc(CLI_MODULE_PRINT_BUFFER_MAX_SIZE);
 1115              		.loc 1 332 5 is_stmt 1 view .LVU245
 1116              		.loc 1 332 49 is_stmt 0 view .LVU246
 1117 030c C820     		movs	r0, #200
 1118              	.LVL97:
 1119              		.loc 1 332 49 view .LVU247
 1120 030e FFF7FEFF 		bl	pvPortMalloc
 1121              	.LVL98:
 333:My_Top/Modules/CLI_Module.cpp **** 
 334:My_Top/Modules/CLI_Module.cpp ****     // з”іиҜ·еӨұиҙҘеҲҷиҝ”еӣһ-1
 335:My_Top/Modules/CLI_Module.cpp ****     if (print_buf == NULL)
 1122              		.loc 1 335 5 is_stmt 1 view .LVU248
 1123 0312 0646     		mov	r6, r0
 1124 0314 B8B1     		cbz	r0, .L98
 336:My_Top/Modules/CLI_Module.cpp ****         return -1;
 337:My_Top/Modules/CLI_Module.cpp **** 
 338:My_Top/Modules/CLI_Module.cpp ****     // еҲқе§ӢеҢ–еҸҜеҸҳеҸӮж•°еҲ—иЎЁ
 339:My_Top/Modules/CLI_Module.cpp ****     va_list args;
 1125              		.loc 1 339 5 view .LVU249
 340:My_Top/Modules/CLI_Module.cpp ****     va_start(args, format);
 1126              		.loc 1 340 5 view .LVU250
 1127 0316 08AB     		add	r3, sp, #32
 1128 0318 0193     		str	r3, [sp, #4]
 341:My_Top/Modules/CLI_Module.cpp ****     // е°Ҷж јејҸеҢ–з»“жһңеҶҷе…Ҙprint_bufпјҢжңҖеӨҡеҶҷCLI_MODULE_PRINT_BUFFER_MAX_SIZEеӯ—иҠӮпјҢиҝ”еӣһ
 342:My_Top/Modules/CLI_Module.cpp ****     int len = vsnprintf((char *)print_buf, CLI_MODULE_PRINT_BUFFER_MAX_SIZE, format, args);
ARM GAS  /tmp/ccmB0eqY.s 			page 30


 1129              		.loc 1 342 5 view .LVU251
 1130              		.loc 1 342 24 is_stmt 0 view .LVU252
 1131 031a 079A     		ldr	r2, [sp, #28]
 1132 031c C821     		movs	r1, #200
 1133 031e FFF7FEFF 		bl	vsnprintf_
 1134              	.LVL99:
 1135              		.loc 1 342 24 view .LVU253
 1136 0322 0546     		mov	r5, r0
 1137              	.LVL100:
 343:My_Top/Modules/CLI_Module.cpp ****     // жё…зҗҶеҸҜеҸҳеҸӮж•°еҲ—иЎЁ
 344:My_Top/Modules/CLI_Module.cpp ****     va_end(args);
 1138              		.loc 1 344 5 is_stmt 1 view .LVU254
 345:My_Top/Modules/CLI_Module.cpp **** 
 346:My_Top/Modules/CLI_Module.cpp ****     // и°ғз”Ёеә•еұӮеҶҷж•°жҚ®жҺҘеҸЈе°Ҷж јејҸеҢ–еҗҺзҡ„еҶ…е®№еҸ‘йҖҒеҮәеҺ»
 347:My_Top/Modules/CLI_Module.cpp ****     _write_data(print_buf, len, _write_data_args);
 1139              		.loc 1 347 5 view .LVU255
 1140 0324 6368     		ldr	r3, [r4, #4]
 1141              		.loc 1 347 16 is_stmt 0 view .LVU256
 1142 0326 A268     		ldr	r2, [r4, #8]
 1143 0328 81B2     		uxth	r1, r0
 1144 032a 3046     		mov	r0, r6
 1145              	.LVL101:
 1146              		.loc 1 347 16 view .LVU257
 1147 032c 9847     		blx	r3
 1148              	.LVL102:
 348:My_Top/Modules/CLI_Module.cpp **** 
 349:My_Top/Modules/CLI_Module.cpp ****     // йҮҠж”ҫе ҶеҶ…еӯҳпјҢйҳІжӯўеҶ…еӯҳжі„жјҸ
 350:My_Top/Modules/CLI_Module.cpp ****     vPortFree(print_buf);
 1149              		.loc 1 350 5 is_stmt 1 view .LVU258
 1150              		.loc 1 350 14 is_stmt 0 view .LVU259
 1151 032e 3046     		mov	r0, r6
 1152 0330 FFF7FEFF 		bl	vPortFree
 1153              	.LVL103:
 351:My_Top/Modules/CLI_Module.cpp **** 
 352:My_Top/Modules/CLI_Module.cpp ****     // иҝ”еӣһе®һйҷ…ж јејҸеҢ–еҶҷе…Ҙзҡ„еӯ—иҠӮж•°
 353:My_Top/Modules/CLI_Module.cpp ****     return len;
 1154              		.loc 1 353 5 is_stmt 1 view .LVU260
 1155              	.L95:
 354:My_Top/Modules/CLI_Module.cpp **** }
 1156              		.loc 1 354 1 is_stmt 0 view .LVU261
 1157 0334 2846     		mov	r0, r5
 1158 0336 03B0     		add	sp, sp, #12
 1159              		.cfi_remember_state
 1160              		.cfi_def_cfa_offset 28
 1161              		@ sp needed
 1162 0338 BDE87040 		pop	{r4, r5, r6, lr}
 1163              		.cfi_restore 14
 1164              		.cfi_restore 6
 1165              		.cfi_restore 5
 1166              		.cfi_restore 4
 1167              		.cfi_def_cfa_offset 12
 1168 033c 03B0     		add	sp, sp, #12
 1169              		.cfi_restore 3
 1170              		.cfi_restore 2
 1171              		.cfi_restore 1
 1172              		.cfi_def_cfa_offset 0
 1173 033e 7047     		bx	lr
ARM GAS  /tmp/ccmB0eqY.s 			page 31


 1174              	.LVL104:
 1175              	.L97:
 1176              		.cfi_restore_state
 329:My_Top/Modules/CLI_Module.cpp **** 
 1177              		.loc 1 329 17 view .LVU262
 1178 0340 4FF0FF35 		mov	r5, #-1
 1179 0344 F6E7     		b	.L95
 1180              	.LVL105:
 1181              	.L98:
 336:My_Top/Modules/CLI_Module.cpp **** 
 1182              		.loc 1 336 17 view .LVU263
 1183 0346 4FF0FF35 		mov	r5, #-1
 1184 034a F3E7     		b	.L95
 1185              		.cfi_endproc
 1186              	.LFE359:
 1188              		.align	1
 1189              		.global	_ZN10CLI_Module11add_commandE17CliCommandBinding
 1190              		.syntax unified
 1191              		.thumb
 1192              		.thumb_func
 1194              	_ZN10CLI_Module11add_commandE17CliCommandBinding:
 1195              	.LVL106:
 1196              	.LFB360:
 355:My_Top/Modules/CLI_Module.cpp **** 
 356:My_Top/Modules/CLI_Module.cpp **** // еҗ‘еҪ“еүҚCLIе®һдҫӢж·»еҠ дёҖжқЎе‘Ҫд»Өз»‘е®ҡ
 357:My_Top/Modules/CLI_Module.cpp **** bool CLI_Module::add_command(CliCommandBinding cmd_binding)
 358:My_Top/Modules/CLI_Module.cpp **** {
 1197              		.loc 1 358 1 is_stmt 1 view -0
 1198              		.cfi_startproc
 1199              		@ args = 24, pretend = 16, frame = 0
 1200              		@ frame_needed = 0, uses_anonymous_args = 0
 1201              		.loc 1 358 1 is_stmt 0 view .LVU265
 1202 034c 84B0     		sub	sp, sp, #16
 1203              		.cfi_def_cfa_offset 16
 1204 034e 00B5     		push	{lr}
 1205              		.cfi_def_cfa_offset 20
 1206              		.cfi_offset 14, -20
 1207 0350 83B0     		sub	sp, sp, #12
 1208              		.cfi_def_cfa_offset 32
 1209 0352 8446     		mov	ip, r0
 1210 0354 05A8     		add	r0, sp, #20
 1211              	.LVL107:
 1212              		.loc 1 358 1 view .LVU266
 1213 0356 80E80E00 		stm	r0, {r1, r2, r3}
 359:My_Top/Modules/CLI_Module.cpp ****     // жңӘеҲқе§ӢеҢ–еҲҷдёҚе…Ғи®ёж·»еҠ 
 360:My_Top/Modules/CLI_Module.cpp ****     if (!_init_ok)
 1214              		.loc 1 360 5 is_stmt 1 view .LVU267
 1215              		.loc 1 360 10 is_stmt 0 view .LVU268
 1216 035a 9CF80000 		ldrb	r0, [ip]	@ zero_extendqisi2
 1217              		.loc 1 360 5 view .LVU269
 1218 035e 68B1     		cbz	r0, .L101
 361:My_Top/Modules/CLI_Module.cpp ****         return false;
 362:My_Top/Modules/CLI_Module.cpp **** 
 363:My_Top/Modules/CLI_Module.cpp ****     // е‘Ҫд»ӨеҗҚжҲ–еӣһи°ғеҮҪж•°дёәNULLеҲҷи§Ҷдёәж— ж•Ҳе‘Ҫд»Ө
 364:My_Top/Modules/CLI_Module.cpp ****     if (cmd_binding.name == NULL || cmd_binding.binding == NULL)
 1219              		.loc 1 364 5 is_stmt 1 view .LVU270
 1220 0360 89B1     		cbz	r1, .L102
ARM GAS  /tmp/ccmB0eqY.s 			page 32


 1221              		.loc 1 364 49 is_stmt 0 discriminator 1 view .LVU271
 1222 0362 099B     		ldr	r3, [sp, #36]
 1223              		.loc 1 364 34 discriminator 1 view .LVU272
 1224 0364 8BB1     		cbz	r3, .L103
 365:My_Top/Modules/CLI_Module.cpp ****         return false;
 366:My_Top/Modules/CLI_Module.cpp **** 
 367:My_Top/Modules/CLI_Module.cpp ****     // и°ғз”Ёembedded-cliеә“жҺҘеҸЈе°Ҷе‘Ҫд»Өз»‘е®ҡжіЁеҶҢеҲ°иҜҘCLIе®һдҫӢ
 368:My_Top/Modules/CLI_Module.cpp ****     // жіЁж„ҸпјҡжҖ»ж•°еҸ— maxBindingCount йҷҗеҲ¶пјҲеҪ“еүҚй…ҚзҪ®дёә16пјҢеҗ«еҶ…зҪ®helpе®һйҷ…еҸҜз”Ё15ж
 369:My_Top/Modules/CLI_Module.cpp ****     return embeddedCliAddBinding(_cli, cmd_binding);
 1225              		.loc 1 369 5 is_stmt 1 view .LVU273
 1226              		.loc 1 369 33 is_stmt 0 view .LVU274
 1227 0366 08AB     		add	r3, sp, #32
 1228 0368 93E80300 		ldm	r3, {r0, r1}
 1229 036c 8DE80300 		stm	sp, {r0, r1}
 1230 0370 05AB     		add	r3, sp, #20
 1231 0372 0ECB     		ldm	r3, {r1, r2, r3}
 1232 0374 DCF82C00 		ldr	r0, [ip, #44]
 1233 0378 FFF7FEFF 		bl	embeddedCliAddBinding
 1234              	.LVL108:
 1235              	.L101:
 370:My_Top/Modules/CLI_Module.cpp **** }
 1236              		.loc 1 370 1 view .LVU275
 1237 037c 03B0     		add	sp, sp, #12
 1238              		.cfi_remember_state
 1239              		.cfi_def_cfa_offset 20
 1240              		@ sp needed
 1241 037e 5DF804EB 		ldr	lr, [sp], #4
 1242              		.cfi_restore 14
 1243              		.cfi_def_cfa_offset 16
 1244 0382 04B0     		add	sp, sp, #16
 1245              		.cfi_def_cfa_offset 0
 1246 0384 7047     		bx	lr
 1247              	.LVL109:
 1248              	.L102:
 1249              		.cfi_restore_state
 365:My_Top/Modules/CLI_Module.cpp ****         return false;
 1250              		.loc 1 365 16 view .LVU276
 1251 0386 0020     		movs	r0, #0
 1252 0388 F8E7     		b	.L101
 1253              	.L103:
 1254 038a 0020     		movs	r0, #0
 1255 038c F6E7     		b	.L101
 1256              		.cfi_endproc
 1257              	.LFE360:
 1259              		.align	1
 1260              		.global	_ZN10CLI_Module18add_command_to_allE17CliCommandBinding
 1261              		.syntax unified
 1262              		.thumb
 1263              		.thumb_func
 1265              	_ZN10CLI_Module18add_command_to_allE17CliCommandBinding:
 1266              	.LFB353:
 235:My_Top/Modules/CLI_Module.cpp ****     bool ret = true;
 1267              		.loc 1 235 1 is_stmt 1 view -0
 1268              		.cfi_startproc
 1269              		@ args = 20, pretend = 16, frame = 0
 1270              		@ frame_needed = 0, uses_anonymous_args = 0
 1271 038e 84B0     		sub	sp, sp, #16
ARM GAS  /tmp/ccmB0eqY.s 			page 33


 1272              		.cfi_def_cfa_offset 16
 1273 0390 70B5     		push	{r4, r5, r6, lr}
 1274              		.cfi_def_cfa_offset 32
 1275              		.cfi_offset 4, -32
 1276              		.cfi_offset 5, -28
 1277              		.cfi_offset 6, -24
 1278              		.cfi_offset 14, -20
 1279 0392 82B0     		sub	sp, sp, #8
 1280              		.cfi_def_cfa_offset 40
 1281 0394 06AC     		add	r4, sp, #24
 1282 0396 84E80F00 		stm	r4, {r0, r1, r2, r3}
 236:My_Top/Modules/CLI_Module.cpp **** 
 1283              		.loc 1 236 5 view .LVU278
 1284              	.LVL110:
 239:My_Top/Modules/CLI_Module.cpp ****     {
 1285              		.loc 1 239 5 view .LVU279
 1286              	.LBB13:
 239:My_Top/Modules/CLI_Module.cpp ****     {
 1287              		.loc 1 239 18 is_stmt 0 view .LVU280
 1288 039a 0024     		movs	r4, #0
 1289              	.LBE13:
 236:My_Top/Modules/CLI_Module.cpp **** 
 1290              		.loc 1 236 10 view .LVU281
 1291 039c 0125     		movs	r5, #1
 1292              	.LBB14:
 239:My_Top/Modules/CLI_Module.cpp ****     {
 1293              		.loc 1 239 5 view .LVU282
 1294 039e 10E0     		b	.L106
 1295              	.LVL111:
 1296              	.L107:
 241:My_Top/Modules/CLI_Module.cpp ****     }
 1297              		.loc 1 241 9 is_stmt 1 view .LVU283
 241:My_Top/Modules/CLI_Module.cpp ****     }
 1298              		.loc 1 241 27 is_stmt 0 view .LVU284
 1299 03a0 0D4B     		ldr	r3, .L109
 1300 03a2 03EB8403 		add	r3, r3, r4, lsl #2
 1301 03a6 5E68     		ldr	r6, [r3, #4]
 241:My_Top/Modules/CLI_Module.cpp ****     }
 1302              		.loc 1 241 41 view .LVU285
 1303 03a8 09AB     		add	r3, sp, #36
 1304 03aa 93E80300 		ldm	r3, {r0, r1}
 1305 03ae 8DE80300 		stm	sp, {r0, r1}
 1306 03b2 06AB     		add	r3, sp, #24
 1307 03b4 0ECB     		ldm	r3, {r1, r2, r3}
 1308 03b6 3046     		mov	r0, r6
 1309 03b8 FFF7FEFF 		bl	_ZN10CLI_Module11add_commandE17CliCommandBinding
 1310              	.LVL112:
 1311 03bc 0540     		ands	r5, r5, r0
 1312              	.LVL113:
 239:My_Top/Modules/CLI_Module.cpp ****     {
 1313              		.loc 1 239 5 is_stmt 1 discriminator 3 view .LVU286
 1314 03be 0134     		adds	r4, r4, #1
 1315              	.LVL114:
 239:My_Top/Modules/CLI_Module.cpp ****     {
 1316              		.loc 1 239 5 is_stmt 0 discriminator 3 view .LVU287
 1317 03c0 E4B2     		uxtb	r4, r4
 1318              	.LVL115:
ARM GAS  /tmp/ccmB0eqY.s 			page 34


 1319              	.L106:
 239:My_Top/Modules/CLI_Module.cpp ****     {
 1320              		.loc 1 239 27 is_stmt 1 discriminator 1 view .LVU288
 1321 03c2 054B     		ldr	r3, .L109
 1322 03c4 1B68     		ldr	r3, [r3]
 1323 03c6 9C42     		cmp	r4, r3
 1324 03c8 EADB     		blt	.L107
 1325              	.LBE14:
 244:My_Top/Modules/CLI_Module.cpp **** }
 1326              		.loc 1 244 5 view .LVU289
 245:My_Top/Modules/CLI_Module.cpp **** 
 1327              		.loc 1 245 1 is_stmt 0 view .LVU290
 1328 03ca 2846     		mov	r0, r5
 1329 03cc 02B0     		add	sp, sp, #8
 1330              		.cfi_def_cfa_offset 32
 1331              		@ sp needed
 1332 03ce BDE87040 		pop	{r4, r5, r6, lr}
 1333              		.cfi_restore 14
 1334              		.cfi_restore 6
 1335              		.cfi_restore 5
 1336              		.cfi_restore 4
 1337              		.cfi_def_cfa_offset 16
 1338              	.LVL116:
 245:My_Top/Modules/CLI_Module.cpp **** 
 1339              		.loc 1 245 1 view .LVU291
 1340 03d2 04B0     		add	sp, sp, #16
 1341              		.cfi_def_cfa_offset 0
 1342 03d4 7047     		bx	lr
 1343              	.L110:
 1344 03d6 00BF     		.align	2
 1345              	.L109:
 1346 03d8 00000000 		.word	.LANCHOR0
 1347              		.cfi_endproc
 1348              	.LFE353:
 1350              		.align	1
 1351              		.global	_ZN10CLI_Module18add_command_to_allEPKcS1_bPvPFvP11EmbeddedCliPcS2_E
 1352              		.syntax unified
 1353              		.thumb
 1354              		.thumb_func
 1356              	_ZN10CLI_Module18add_command_to_allEPKcS1_bPvPFvP11EmbeddedCliPcS2_E:
 1357              	.LVL117:
 1358              	.LFB354:
 253:My_Top/Modules/CLI_Module.cpp ****     // з”Ёдј е…Ҙзҡ„еҗ„еӯ—ж®өжһ„йҖ embedded-cliжүҖйңҖзҡ„е‘Ҫд»Өз»‘е®ҡз»“жһ„дҪ“
 1359              		.loc 1 253 1 is_stmt 1 view -0
 1360              		.cfi_startproc
 1361              		@ args = 4, pretend = 0, frame = 24
 1362              		@ frame_needed = 0, uses_anonymous_args = 0
 253:My_Top/Modules/CLI_Module.cpp ****     // з”Ёдј е…Ҙзҡ„еҗ„еӯ—ж®өжһ„йҖ embedded-cliжүҖйңҖзҡ„е‘Ҫд»Өз»‘е®ҡз»“жһ„дҪ“
 1363              		.loc 1 253 1 is_stmt 0 view .LVU293
 1364 03dc 10B5     		push	{r4, lr}
 1365              		.cfi_def_cfa_offset 8
 1366              		.cfi_offset 4, -8
 1367              		.cfi_offset 14, -4
 1368 03de 88B0     		sub	sp, sp, #32
 1369              		.cfi_def_cfa_offset 40
 1370 03e0 0A9C     		ldr	r4, [sp, #40]
 255:My_Top/Modules/CLI_Module.cpp ****                                      .help = help,           // е‘Ҫд»Өеё®еҠ©иҜҙжҳҺпјҢжҳҫзӨәеңЁhelpе
ARM GAS  /tmp/ccmB0eqY.s 			page 35


 1371              		.loc 1 255 5 is_stmt 1 view .LVU294
 259:My_Top/Modules/CLI_Module.cpp ****     // иҪ¬еҸ‘з»ҷз»“жһ„дҪ“зүҲжң¬зҡ„add_command_to_all
 1372              		.loc 1 259 56 is_stmt 0 view .LVU295
 1373 03e2 0390     		str	r0, [sp, #12]
 1374 03e4 0491     		str	r1, [sp, #16]
 1375 03e6 8DF81420 		strb	r2, [sp, #20]
 1376 03ea 0693     		str	r3, [sp, #24]
 1377 03ec 0794     		str	r4, [sp, #28]
 261:My_Top/Modules/CLI_Module.cpp **** }
 1378              		.loc 1 261 5 is_stmt 1 view .LVU296
 261:My_Top/Modules/CLI_Module.cpp **** }
 1379              		.loc 1 261 30 is_stmt 0 view .LVU297
 1380 03ee 0094     		str	r4, [sp]
 1381 03f0 03AB     		add	r3, sp, #12
 1382              	.LVL118:
 261:My_Top/Modules/CLI_Module.cpp **** }
 1383              		.loc 1 261 30 view .LVU298
 1384 03f2 0FCB     		ldm	r3, {r0, r1, r2, r3}
 1385              	.LVL119:
 261:My_Top/Modules/CLI_Module.cpp **** }
 1386              		.loc 1 261 30 view .LVU299
 1387 03f4 FFF7FEFF 		bl	_ZN10CLI_Module18add_command_to_allE17CliCommandBinding
 1388              	.LVL120:
 262:My_Top/Modules/CLI_Module.cpp **** 
 1389              		.loc 1 262 1 view .LVU300
 1390 03f8 08B0     		add	sp, sp, #32
 1391              		.cfi_def_cfa_offset 8
 1392              		@ sp needed
 1393 03fa 10BD     		pop	{r4, pc}
 262:My_Top/Modules/CLI_Module.cpp **** 
 1394              		.loc 1 262 1 view .LVU301
 1395              		.cfi_endproc
 1396              	.LFE354:
 1398              		.global	_ZN10CLI_Module10_cli_countE
 1399              		.global	_ZN10CLI_Module9_cli_listE
 1400              		.bss
 1401              		.align	2
 1402              		.set	.LANCHOR0,. + 0
 1405              	_ZN10CLI_Module10_cli_countE:
 1406 0000 00000000 		.space	4
 1409              	_ZN10CLI_Module9_cli_listE:
 1410 0004 00000000 		.space	20
 1410      00000000 
 1410      00000000 
 1410      00000000 
 1410      00000000 
 1411              		.text
 1412              	.Letext0:
 1413              		.file 2 "/opt/arm-gnu-toolchain-14.2/arm-none-eabi/include/machine/_default_types.h"
 1414              		.file 3 "/opt/arm-gnu-toolchain-14.2/arm-none-eabi/include/sys/_stdint.h"
 1415              		.file 4 "/opt/arm-gnu-toolchain-14.2/lib/gcc/arm-none-eabi/14.2.1/include/stddef.h"
 1416              		.file 5 "Middlewares/Third_Party/FreeRTOS/Source/CMSIS_RTOS_V2/cmsis_os2.h"
 1417              		.file 6 "Middlewares/Third_Party/FreeRTOS/Source/include/projdefs.h"
 1418              		.file 7 "Middlewares/Third_Party/FreeRTOS/Source/portable/GCC/ARM_CM4F/portmacro.h"
 1419              		.file 8 "Middlewares/Third_Party/FreeRTOS/Source/include/task.h"
 1420              		.file 9 "Middlewares/Third_Party/FreeRTOS/Source/include/queue.h"
 1421              		.file 10 "Middlewares/Third_Party/FreeRTOS/Source/include/semphr.h"
ARM GAS  /tmp/ccmB0eqY.s 			page 36


 1422              		.file 11 "/opt/arm-gnu-toolchain-14.2/lib/gcc/arm-none-eabi/14.2.1/include/stdarg.h"
 1423              		.file 12 "Drivers/CMSIS/Device/ST/STM32G4xx/Include/stm32g474xx.h"
 1424              		.file 13 "Drivers/STM32G4xx_HAL_Driver/Inc/stm32g4xx_hal_def.h"
 1425              		.file 14 "Drivers/STM32G4xx_HAL_Driver/Inc/stm32g4xx_hal_dma.h"
 1426              		.file 15 "Drivers/STM32G4xx_HAL_Driver/Inc/stm32g4xx_hal_uart.h"
 1427              		.file 16 "Lib/serial/serial.hpp"
 1428              		.file 17 "Lib/embedded-cli/embedded_cli.h"
 1429              		.file 18 "My_Top/Modules/CLI_Module.hpp"
 1430              		.file 19 "Middlewares/Third_Party/FreeRTOS/Source/include/portable.h"
 1431              		.file 20 "Lib/serial/printf.h"
 1432              		.file 21 "/opt/arm-gnu-toolchain-14.2/arm-none-eabi/include/string.h"
 1433              		.file 22 "<built-in>"
ARM GAS  /tmp/ccmB0eqY.s 			page 37

