ARM GAS  /tmp/cc0AM0z6.s 			page 1


   1              		.cpu cortex-m4
   2              		.arch armv7e-m
   3              		.fpu fpv4-sp-d16
   4              		.eabi_attribute 27, 1
   5              		.eabi_attribute 28, 1
   6              		.eabi_attribute 20, 1
   7              		.eabi_attribute 21, 1
   8              		.eabi_attribute 23, 3
   9              		.eabi_attribute 24, 1
  10              		.eabi_attribute 25, 1
  11              		.eabi_attribute 26, 1
  12              		.eabi_attribute 30, 1
  13              		.eabi_attribute 34, 1
  14              		.eabi_attribute 18, 4
  15              		.file	"DcMotor_ClosedLoop.cpp"
  16              		.text
  17              	.Ltext0:
  18              		.cfi_sections	.debug_frame
  19              		.file 1 "My_Top/Motor_Control/DcMotor_ClosedLoop.cpp"
  20              		.align	1
  21              		.syntax unified
  22              		.thumb
  23              		.thumb_func
  25              	_Z41__static_initialization_and_destruction_0v:
  26              	.LFB1506:
   1:My_Top/Motor_Control/DcMotor_ClosedLoop.cpp **** #include "DcMotor_ClosedLoop.hpp"
   2:My_Top/Motor_Control/DcMotor_ClosedLoop.cpp **** 
   3:My_Top/Motor_Control/DcMotor_ClosedLoop.cpp **** uint8_t DC_Motor::selected_motor = 0;// ķØÖµĆüµłÉÕæśÕ«Üõ╣ē
   4:My_Top/Motor_Control/DcMotor_ClosedLoop.cpp **** uint16_t DC_Motor::ADC_Value[max_chl_num] = {0};// ķØÖµĆüµłÉÕæśÕ«Üõ╣ē
   5:My_Top/Motor_Control/DcMotor_ClosedLoop.cpp **** 
   6:My_Top/Motor_Control/DcMotor_ClosedLoop.cpp **** 
   7:My_Top/Motor_Control/DcMotor_ClosedLoop.cpp **** KTH7111 kth7111_M1(&M1_PWM); //ń╝¢ńĀüÕÖ©Õ»╣Ķ▒Ī’╝ī
   8:My_Top/Motor_Control/DcMotor_ClosedLoop.cpp **** KTH7111 kth7111_M2(&M2_PWM); //ń╝¢ńĀüÕÖ©Õ»╣Ķ▒Ī
   9:My_Top/Motor_Control/DcMotor_ClosedLoop.cpp **** KTH7111 kth7111_M3(&M3_PWM); //ń╝¢ńĀüÕÖ©Õ»╣Ķ▒Ī’╝ī
  10:My_Top/Motor_Control/DcMotor_ClosedLoop.cpp **** KTH7111 kth7111_M4(&M4_PWM); //ń╝¢ńĀüÕÖ©Õ»╣Ķ▒Ī
  11:My_Top/Motor_Control/DcMotor_ClosedLoop.cpp **** 
  12:My_Top/Motor_Control/DcMotor_ClosedLoop.cpp **** PID_Increment pid_spd_M1(0.0, 0.0, 0.0, 1.0/DC_VELOCITY_LOOP_FREQ_HZ, 0.8, -0.8);
  13:My_Top/Motor_Control/DcMotor_ClosedLoop.cpp **** PID           pid_loc_M1(0.0, 0.0, 0.0, 1.0/DC_POSITION_LOOP_FREQ_HZ, 0.8*20, 20.0, -20.0);
  14:My_Top/Motor_Control/DcMotor_ClosedLoop.cpp **** 
  15:My_Top/Motor_Control/DcMotor_ClosedLoop.cpp **** PID_Increment pid_spd_M2(0.0, 0.0, 0.0, 1.0/DC_VELOCITY_LOOP_FREQ_HZ, 0.8, -0.8);
  16:My_Top/Motor_Control/DcMotor_ClosedLoop.cpp **** PID           pid_loc_M2(0.0, 0.0, 0.0, 1.0/DC_POSITION_LOOP_FREQ_HZ, 0.8*20, 20.0, -20.0);
  17:My_Top/Motor_Control/DcMotor_ClosedLoop.cpp **** 
  18:My_Top/Motor_Control/DcMotor_ClosedLoop.cpp **** PID_Increment pid_spd_M3(0.0, 0.0, 0.0, 1.0/DC_VELOCITY_LOOP_FREQ_HZ, 0.8, -0.8);
  19:My_Top/Motor_Control/DcMotor_ClosedLoop.cpp **** PID           pid_loc_M3(0.0, 0.0, 0.0, 1.0/DC_POSITION_LOOP_FREQ_HZ, 0.8*20, 20.0, -20.0);
  20:My_Top/Motor_Control/DcMotor_ClosedLoop.cpp **** 
  21:My_Top/Motor_Control/DcMotor_ClosedLoop.cpp **** PID_Increment pid_spd_M4(0.0, 0.0, 0.0, 1.0/DC_VELOCITY_LOOP_FREQ_HZ, 0.8, -0.8);
  22:My_Top/Motor_Control/DcMotor_ClosedLoop.cpp **** PID           pid_loc_M4(0.0, 0.0, 0.0, 1.0/DC_POSITION_LOOP_FREQ_HZ, 0.8*20, 20.0, -20.0);
  23:My_Top/Motor_Control/DcMotor_ClosedLoop.cpp **** 
  24:My_Top/Motor_Control/DcMotor_ClosedLoop.cpp **** 
  25:My_Top/Motor_Control/DcMotor_ClosedLoop.cpp **** DC_Motor M1(&M1_PWM, &kth7111_M1, &pid_spd_M1, &pid_loc_M1); //ńöĄµ£║1
  26:My_Top/Motor_Control/DcMotor_ClosedLoop.cpp **** DC_Motor M2(&M2_PWM, &kth7111_M2, &pid_spd_M2, &pid_loc_M2); //ńöĄµ£║2
  27:My_Top/Motor_Control/DcMotor_ClosedLoop.cpp **** DC_Motor M3(&M3_PWM, &kth7111_M3, &pid_spd_M3, &pid_loc_M3); //ńöĄµ£║3
  28:My_Top/Motor_Control/DcMotor_ClosedLoop.cpp **** DC_Motor M4(&M4_PWM, &kth7111_M4, &pid_spd_M4, &pid_loc_M4); //ńöĄµ£║4
  29:My_Top/Motor_Control/DcMotor_ClosedLoop.cpp **** 
  30:My_Top/Motor_Control/DcMotor_ClosedLoop.cpp **** 
  31:My_Top/Motor_Control/DcMotor_ClosedLoop.cpp **** 
  32:My_Top/Motor_Control/DcMotor_ClosedLoop.cpp **** void DC_Motor::test_laji()
ARM GAS  /tmp/cc0AM0z6.s 			page 2


  33:My_Top/Motor_Control/DcMotor_ClosedLoop.cpp **** {
  34:My_Top/Motor_Control/DcMotor_ClosedLoop.cpp ****    
  35:My_Top/Motor_Control/DcMotor_ClosedLoop.cpp ****     __HAL_TIM_SET_AUTORELOAD(&htim1, 100);//Ķ«ŠńĮ«Õæ©µ£¤ 
  36:My_Top/Motor_Control/DcMotor_ClosedLoop.cpp ****     __HAL_TIM_SET_COMPARE(&htim1, TIM_CHANNEL_1, 100);//Ķ«ŠńĮ«õĖŖµĪźĶćéÕŹĀń®║µ»ö 
  37:My_Top/Motor_Control/DcMotor_ClosedLoop.cpp ****     __HAL_TIM_SET_COMPARE(&htim1, TIM_CHANNEL_2, 100);//Ķ«ŠńĮ«õĖŗµĪźĶćéÕŹĀń®║µ»ö
  38:My_Top/Motor_Control/DcMotor_ClosedLoop.cpp ****     HAL_TIM_PWM_Start(&htim1, TIM_CHANNEL_1);
  39:My_Top/Motor_Control/DcMotor_ClosedLoop.cpp ****     HAL_TIMEx_PWMN_Start(&htim1, TIM_CHANNEL_1);
  40:My_Top/Motor_Control/DcMotor_ClosedLoop.cpp ****     HAL_TIM_PWM_Start(&htim1, TIM_CHANNEL_2);
  41:My_Top/Motor_Control/DcMotor_ClosedLoop.cpp ****     HAL_TIMEx_PWMN_Start(&htim1, TIM_CHANNEL_2);
  42:My_Top/Motor_Control/DcMotor_ClosedLoop.cpp **** }
  43:My_Top/Motor_Control/DcMotor_ClosedLoop.cpp **** 
  44:My_Top/Motor_Control/DcMotor_ClosedLoop.cpp **** 
  45:My_Top/Motor_Control/DcMotor_ClosedLoop.cpp **** void DC_Motor::My_DC_Motor_Init()
  46:My_Top/Motor_Control/DcMotor_ClosedLoop.cpp **** {
  47:My_Top/Motor_Control/DcMotor_ClosedLoop.cpp ****     uint32_t sysclk = HAL_RCC_GetSysClockFreq();
  48:My_Top/Motor_Control/DcMotor_ClosedLoop.cpp ****     timer_clock_freq_ = sysclk / (_motor_config->htim->Instance->PSC + 1);
  49:My_Top/Motor_Control/DcMotor_ClosedLoop.cpp **** 
  50:My_Top/Motor_Control/DcMotor_ClosedLoop.cpp ****     speed_lpf.init(0.7);
  51:My_Top/Motor_Control/DcMotor_ClosedLoop.cpp ****     error_lpf.init(0.7);
  52:My_Top/Motor_Control/DcMotor_ClosedLoop.cpp ****     speed_avg.init(5);
  53:My_Top/Motor_Control/DcMotor_ClosedLoop.cpp ****     adc_val_avg.init(100);//ADCķććµĀĘÕĆ╝µ╗żµ│ó //67µ×üķÖÉ
  54:My_Top/Motor_Control/DcMotor_ClosedLoop.cpp **** 
  55:My_Top/Motor_Control/DcMotor_ClosedLoop.cpp ****     // ===== ŌæĀ Ķ«ŠķóæńÄćÕÆīÕŹĀń®║µ»ö’╝ł0% ńö©õ║ÄÕģģńöĄ’╝ē =====
  56:My_Top/Motor_Control/DcMotor_ClosedLoop.cpp ****     Set_Motor_Glo_Duty();//Ķ«ŠńĮ«ńöĄµ£║Õģ©Õ▒ĆÕŹĀń®║µ»ö
  57:My_Top/Motor_Control/DcMotor_ClosedLoop.cpp **** 
  58:My_Top/Motor_Control/DcMotor_ClosedLoop.cpp ****     // ===== ŌæĪ Ķć¬õĖŠńöĄÕ«╣ķóäÕģģńöĄ’╝ÜCCR=0 ŌåÆ õĖŗń«ĪÕ»╝ķĆÜ ŌåÆ ńöĄÕ«╣ÕģģńöĄ =====
  59:My_Top/Motor_Control/DcMotor_ClosedLoop.cpp ****     Motor_EN(true);  // µēōÕ╝ĆPWMĶŠōÕć║
  60:My_Top/Motor_Control/DcMotor_ClosedLoop.cpp ****     vTaskDelay(pdMS_TO_TICKS(1));  // ńŁē 1ms Õģģµ╗Ī
  61:My_Top/Motor_Control/DcMotor_ClosedLoop.cpp ****     Motor_EN(false); // Õģ│ķŚŁPWMĶŠōÕć║
  62:My_Top/Motor_Control/DcMotor_ClosedLoop.cpp **** 
  63:My_Top/Motor_Control/DcMotor_ClosedLoop.cpp ****     _encoder->KTH7111_Init(motor_encoder_dir);
  64:My_Top/Motor_Control/DcMotor_ClosedLoop.cpp ****     control_init_flag = true;
  65:My_Top/Motor_Control/DcMotor_ClosedLoop.cpp **** }
  66:My_Top/Motor_Control/DcMotor_ClosedLoop.cpp **** 
  67:My_Top/Motor_Control/DcMotor_ClosedLoop.cpp **** 
  68:My_Top/Motor_Control/DcMotor_ClosedLoop.cpp **** 
  69:My_Top/Motor_Control/DcMotor_ClosedLoop.cpp **** void DC_Motor::Set_Motor_Frequency() //ÕŹĢńŗ¼Ķ«ŠńĮ«ńöĄµ£║ķóæńÄćÕÆīÕŹĀń®║µ»ö
  70:My_Top/Motor_Control/DcMotor_ClosedLoop.cpp **** {
  71:My_Top/Motor_Control/DcMotor_ClosedLoop.cpp ****     bool new_dir = false;
  72:My_Top/Motor_Control/DcMotor_ClosedLoop.cpp ****     uint32_t arr = 0;
  73:My_Top/Motor_Control/DcMotor_ClosedLoop.cpp ****     uint16_t Fre = (uint16_t)motor_freq;//ĶĮ¼µĢ┤µĢ░Ķ«Īń«Ś
  74:My_Top/Motor_Control/DcMotor_ClosedLoop.cpp ****     float up_duty = constraint_value(motor_up_duty, 0.0f, 1.0f); //ķÖÉÕłČÕŹĀń®║µ»öÕ£©0~1õ╣ŗķŚ┤
  75:My_Top/Motor_Control/DcMotor_ClosedLoop.cpp ****     float down_duty = constraint_value(motor_down_duty, 0.0f, 1.0f); //ķÖÉÕłČÕŹĀń®║µ»öÕ£©0~1õ╣ŗķŚ┤
  76:My_Top/Motor_Control/DcMotor_ClosedLoop.cpp **** 
  77:My_Top/Motor_Control/DcMotor_ClosedLoop.cpp ****     if (Fre == Fre_last && up_duty == up_duty_last && down_duty == down_duty_last) return;// Õ”éµ×£
  78:My_Top/Motor_Control/DcMotor_ClosedLoop.cpp ****     Fre_last = Fre;
  79:My_Top/Motor_Control/DcMotor_ClosedLoop.cpp ****     up_duty_last = up_duty;
  80:My_Top/Motor_Control/DcMotor_ClosedLoop.cpp ****     down_duty_last = down_duty;
  81:My_Top/Motor_Control/DcMotor_ClosedLoop.cpp **** 
  82:My_Top/Motor_Control/DcMotor_ClosedLoop.cpp ****     if (Fre == 0 ){Motor_EN(false); return;}
  83:My_Top/Motor_Control/DcMotor_ClosedLoop.cpp ****     else {Motor_EN(true);}
  84:My_Top/Motor_Control/DcMotor_ClosedLoop.cpp **** 
  85:My_Top/Motor_Control/DcMotor_ClosedLoop.cpp ****     arr = timer_clock_freq_ / Fre;
  86:My_Top/Motor_Control/DcMotor_ClosedLoop.cpp ****     if (arr >= 65535) arr = 65535;
  87:My_Top/Motor_Control/DcMotor_ClosedLoop.cpp ****     else if (arr <= 1) arr = 1;
  88:My_Top/Motor_Control/DcMotor_ClosedLoop.cpp **** 
  89:My_Top/Motor_Control/DcMotor_ClosedLoop.cpp ****     _motor_config->htim->Instance->CNT = 0; // µĖģķøČĶ«ĪµĢ░ÕÖ©
ARM GAS  /tmp/cc0AM0z6.s 			page 3


  90:My_Top/Motor_Control/DcMotor_ClosedLoop.cpp ****     __HAL_TIM_SET_AUTORELOAD(_motor_config->htim, (uint16_t)(arr - 1));//Ķ«ŠńĮ«Õæ©µ£¤ 
  91:My_Top/Motor_Control/DcMotor_ClosedLoop.cpp ****     __HAL_TIM_SET_COMPARE(_motor_config->htim, _motor_config->ch_hin1, (uint32_t)(arr*up_duty));//Ķ
  92:My_Top/Motor_Control/DcMotor_ClosedLoop.cpp ****     __HAL_TIM_SET_COMPARE(_motor_config->htim, _motor_config->ch_hin2, (uint32_t)(arr*down_duty));/
  93:My_Top/Motor_Control/DcMotor_ClosedLoop.cpp **** }
  94:My_Top/Motor_Control/DcMotor_ClosedLoop.cpp **** 
  95:My_Top/Motor_Control/DcMotor_ClosedLoop.cpp **** 
  96:My_Top/Motor_Control/DcMotor_ClosedLoop.cpp **** 
  97:My_Top/Motor_Control/DcMotor_ClosedLoop.cpp **** void DC_Motor::Set_Motor_Glo_Duty() //Ķ«ŠńĮ«ńöĄµ£║Õģ©Õ▒ĆÕŹĀń®║µ»ö
  98:My_Top/Motor_Control/DcMotor_ClosedLoop.cpp **** {
  99:My_Top/Motor_Control/DcMotor_ClosedLoop.cpp ****     float duty = constraint_value(updown_duty, -1.0f, 1.0f);
 100:My_Top/Motor_Control/DcMotor_ClosedLoop.cpp **** 
 101:My_Top/Motor_Control/DcMotor_ClosedLoop.cpp ****     if (duty == 0.0f || fabsf(duty) < 1e-6f)
 102:My_Top/Motor_Control/DcMotor_ClosedLoop.cpp ****     {
 103:My_Top/Motor_Control/DcMotor_ClosedLoop.cpp ****         motor_up_duty = motor_down_duty = 0.0f; //ńöĄµĄüµ×üÕż¦ ?????
 104:My_Top/Motor_Control/DcMotor_ClosedLoop.cpp ****         Motor_EN(false);
 105:My_Top/Motor_Control/DcMotor_ClosedLoop.cpp ****     }else if (duty > 0.0f) 
 106:My_Top/Motor_Control/DcMotor_ClosedLoop.cpp ****     {
 107:My_Top/Motor_Control/DcMotor_ClosedLoop.cpp ****         motor_up_duty = duty;
 108:My_Top/Motor_Control/DcMotor_ClosedLoop.cpp ****         motor_down_duty = 0.0f;
 109:My_Top/Motor_Control/DcMotor_ClosedLoop.cpp ****         Motor_EN(true);
 110:My_Top/Motor_Control/DcMotor_ClosedLoop.cpp ****     }else if (duty < 0.0f) 
 111:My_Top/Motor_Control/DcMotor_ClosedLoop.cpp ****     {
 112:My_Top/Motor_Control/DcMotor_ClosedLoop.cpp ****         motor_up_duty = 0.0f;
 113:My_Top/Motor_Control/DcMotor_ClosedLoop.cpp ****         motor_down_duty = -duty;
 114:My_Top/Motor_Control/DcMotor_ClosedLoop.cpp ****         Motor_EN(true);
 115:My_Top/Motor_Control/DcMotor_ClosedLoop.cpp ****     }
 116:My_Top/Motor_Control/DcMotor_ClosedLoop.cpp **** 
 117:My_Top/Motor_Control/DcMotor_ClosedLoop.cpp ****     Set_Motor_Frequency();
 118:My_Top/Motor_Control/DcMotor_ClosedLoop.cpp **** }
 119:My_Top/Motor_Control/DcMotor_ClosedLoop.cpp **** 
 120:My_Top/Motor_Control/DcMotor_ClosedLoop.cpp **** 
 121:My_Top/Motor_Control/DcMotor_ClosedLoop.cpp **** 
 122:My_Top/Motor_Control/DcMotor_ClosedLoop.cpp **** 
 123:My_Top/Motor_Control/DcMotor_ClosedLoop.cpp **** 
 124:My_Top/Motor_Control/DcMotor_ClosedLoop.cpp **** 
 125:My_Top/Motor_Control/DcMotor_ClosedLoop.cpp **** 
 126:My_Top/Motor_Control/DcMotor_ClosedLoop.cpp **** 
 127:My_Top/Motor_Control/DcMotor_ClosedLoop.cpp **** void DC_Motor::Motor_EN(bool en)
 128:My_Top/Motor_Control/DcMotor_ClosedLoop.cpp **** {
 129:My_Top/Motor_Control/DcMotor_ClosedLoop.cpp ****     if (en == _motor_is_on_last) return;  // ńŖČµĆüµ▓ĪÕÅś’╝īĶĘ│Ķ┐ć
 130:My_Top/Motor_Control/DcMotor_ClosedLoop.cpp ****     _motor_is_on_last = en;
 131:My_Top/Motor_Control/DcMotor_ClosedLoop.cpp **** 
 132:My_Top/Motor_Control/DcMotor_ClosedLoop.cpp ****     if (en)
 133:My_Top/Motor_Control/DcMotor_ClosedLoop.cpp ****     {
 134:My_Top/Motor_Control/DcMotor_ClosedLoop.cpp ****         HAL_TIM_PWM_Start(_motor_config->htim, _motor_config->ch_hin1);
 135:My_Top/Motor_Control/DcMotor_ClosedLoop.cpp ****         HAL_TIMEx_PWMN_Start(_motor_config->htim, _motor_config->ch_hin1);
 136:My_Top/Motor_Control/DcMotor_ClosedLoop.cpp ****         HAL_TIM_PWM_Start(_motor_config->htim, _motor_config->ch_hin2);
 137:My_Top/Motor_Control/DcMotor_ClosedLoop.cpp ****         HAL_TIMEx_PWMN_Start(_motor_config->htim, _motor_config->ch_hin2);
 138:My_Top/Motor_Control/DcMotor_ClosedLoop.cpp ****     }else
 139:My_Top/Motor_Control/DcMotor_ClosedLoop.cpp ****     {
 140:My_Top/Motor_Control/DcMotor_ClosedLoop.cpp ****         HAL_TIM_PWM_Stop(_motor_config->htim, _motor_config->ch_hin1);
 141:My_Top/Motor_Control/DcMotor_ClosedLoop.cpp ****         HAL_TIMEx_PWMN_Stop(_motor_config->htim, _motor_config->ch_hin1);
 142:My_Top/Motor_Control/DcMotor_ClosedLoop.cpp ****         HAL_TIM_PWM_Stop(_motor_config->htim, _motor_config->ch_hin2);
 143:My_Top/Motor_Control/DcMotor_ClosedLoop.cpp ****         HAL_TIMEx_PWMN_Stop(_motor_config->htim, _motor_config->ch_hin2);
 144:My_Top/Motor_Control/DcMotor_ClosedLoop.cpp ****     }
 145:My_Top/Motor_Control/DcMotor_ClosedLoop.cpp **** }
 146:My_Top/Motor_Control/DcMotor_ClosedLoop.cpp **** 
ARM GAS  /tmp/cc0AM0z6.s 			page 4


 147:My_Top/Motor_Control/DcMotor_ClosedLoop.cpp **** 
 148:My_Top/Motor_Control/DcMotor_ClosedLoop.cpp **** void DC_Motor::Update_Speed_Angle_LPFAndPLL() //µø┤µ¢░ķĆ¤Õ║”ÕÆīĶ¦ÆÕ║”
 149:My_Top/Motor_Control/DcMotor_ClosedLoop.cpp **** {
 150:My_Top/Motor_Control/DcMotor_ClosedLoop.cpp ****     // ķØÖµĆüÕÅśķćÅ’╝īńö©õ║ÄõĖ┤µŚČÕŁśÕé©Ķ¦ÆÕ║”ÕĆ╝ÕÆīõĖŖõĖĆµ¼ĪńÜäĶ¦ÆÕ║”ÕĆ╝
 151:My_Top/Motor_Control/DcMotor_ClosedLoop.cpp ****     static float fudu_test = 0.0f;
 152:My_Top/Motor_Control/DcMotor_ClosedLoop.cpp ****     static float theta_m_offic_temp = 0.0;
 153:My_Top/Motor_Control/DcMotor_ClosedLoop.cpp **** 
 154:My_Top/Motor_Control/DcMotor_ClosedLoop.cpp ****     _encoder->KTH7111_Send_JIAO_CMD();//ÕÅæķĆüĶ¦ÆÕ║”µīćõ╗ż
 155:My_Top/Motor_Control/DcMotor_ClosedLoop.cpp ****     fudu_test = _encoder->Get_KTH7111_Radian();//ĶÄĘÕÅ¢ń╝¢ńĀüÕÖ©Ķ¦ÆÕ║”
 156:My_Top/Motor_Control/DcMotor_ClosedLoop.cpp **** 
 157:My_Top/Motor_Control/DcMotor_ClosedLoop.cpp ****     theta_m = fudu_test; // ĶÄĘÕÅ¢ÕÄ¤Õ¦ŗµ£║µó░Ķ¦ÆÕ║” Õ╝¦Õ║”
 158:My_Top/Motor_Control/DcMotor_ClosedLoop.cpp ****     
 159:My_Top/Motor_Control/DcMotor_ClosedLoop.cpp ****     if (LPFAndPLL == false) //õĮÄķĆÜµ╗żµ│óĶ¦ÆÕ║”
 160:My_Top/Motor_Control/DcMotor_ClosedLoop.cpp ****     {
 161:My_Top/Motor_Control/DcMotor_ClosedLoop.cpp ****       theta_m = wrap_to_PI(theta_m);
 162:My_Top/Motor_Control/DcMotor_ClosedLoop.cpp ****       //µ¢╣Õ╝Å1 õĮÄķĆÜµ╗żµ│ó µø┤µ¢░µ£║µó░Ķ¦ÆÕ║”ķĆ¤Õ║”
 163:My_Top/Motor_Control/DcMotor_ClosedLoop.cpp ****       theta_m_offic_temp = theta_m - theta_m_last; 
 164:My_Top/Motor_Control/DcMotor_ClosedLoop.cpp ****       theta_m_last = theta_m; // µø┤µ¢░õĖŖõĖĆµ¼ĪńÜäµ£║µó░Ķ¦ÆÕ║”
 165:My_Top/Motor_Control/DcMotor_ClosedLoop.cpp ****       theta_m_offic = wrap_to_PI(theta_m_offic_temp);// Õ░åÕĘ«ÕĆ╝Ķ¦äµĢ┤Õł░ [-PI, PI) Õī║ķŚ┤
 166:My_Top/Motor_Control/DcMotor_ClosedLoop.cpp **** 
 167:My_Top/Motor_Control/DcMotor_ClosedLoop.cpp ****       theta_m_offic_filtered = error_lpf.filter(theta_m_offic);//Õ»╣Ķ»»ÕĘ«Ķ¦ÆÕ║”õĮÄķĆÜµ╗żµ│ó
 168:My_Top/Motor_Control/DcMotor_ClosedLoop.cpp ****       theta_m_speed = theta_m_offic_filtered*DC_VELOCITY_LOOP_FREQ_HZ;//speed=ĶĘ»ń©ŗ/t 
 169:My_Top/Motor_Control/DcMotor_ClosedLoop.cpp ****       theta_av_speed = speed_avg.filter(theta_m_speed);//Õ»╣ķĆ¤Õ║”Ķ┐øĶĪīÕ╣│ÕØćÕĆ╝µ╗żµ│ó
 170:My_Top/Motor_Control/DcMotor_ClosedLoop.cpp ****       filtered_speed = speed_lpf.filter(theta_av_speed);//Õ»╣ķĆ¤Õ║”Ķ┐øĶĪīõĮÄķĆÜµ╗żµ│ó
 171:My_Top/Motor_Control/DcMotor_ClosedLoop.cpp ****       reg_final = theta_m; //Õ░åµ£║µó░Ķ¦ÆÕ║”ĶĄŗÕĆ╝ń╗Öµ£Ćń╗łĶ¦ÆÕ║”
 172:My_Top/Motor_Control/DcMotor_ClosedLoop.cpp ****       theta_deg_final = rad2deg(reg_final); //Õ░åÕ╝¦Õ║”ĶĮ¼µŹóõĖ║360Õ║”
 173:My_Top/Motor_Control/DcMotor_ClosedLoop.cpp ****       Angular_velocity_final = filtered_speed;  //Õ░åµ£Ćń╗łķĆ¤Õ║”ĶĄŗÕĆ╝ń╗Öµ£Ćń╗łĶ¦ÆķĆ¤Õ║”
 174:My_Top/Motor_Control/DcMotor_ClosedLoop.cpp ****       
 175:My_Top/Motor_Control/DcMotor_ClosedLoop.cpp ****     }else if (LPFAndPLL == true)
 176:My_Top/Motor_Control/DcMotor_ClosedLoop.cpp ****     {
 177:My_Top/Motor_Control/DcMotor_ClosedLoop.cpp ****       // µ¢╣Õ╝Å2PLLķöüńøĖńÄ» µø┤µ¢░PLLķöüńøĖńÄ»ńÜäĶŠōÕć║Ķ¦ÆÕ║”ÕÆīĶ¦ÆķĆ¤Õ║”
 178:My_Top/Motor_Control/DcMotor_ClosedLoop.cpp ****       foc_pll_run(theta_m,PLL_FREQ_Dt,&_pll_reg_out,&_pll_Angular_velocity,&_pll_conf); //µø┤µ¢░PLL
 179:My_Top/Motor_Control/DcMotor_ClosedLoop.cpp ****       reg_final = _pll_reg_out; //Õ░åPLLķöüńøĖńÄ»ńÜäĶŠōÕć║Ķ¦ÆÕ║”ĶĄŗÕĆ╝ń╗Öµ£Ćń╗łĶ¦ÆÕ║”
 180:My_Top/Motor_Control/DcMotor_ClosedLoop.cpp ****       theta_deg_final = rad2deg(reg_final); //Õ░åÕ╝¦Õ║”ĶĮ¼µŹóõĖ║360Õ║”
 181:My_Top/Motor_Control/DcMotor_ClosedLoop.cpp ****       Angular_velocity_final = _pll_Angular_velocity; //Õ░åµ£Ćń╗łķĆ¤Õ║”ĶĄŗÕĆ╝ń╗Öµ£Ćń╗łĶ¦ÆķĆ¤Õ║”
 182:My_Top/Motor_Control/DcMotor_ClosedLoop.cpp ****     }
 183:My_Top/Motor_Control/DcMotor_ClosedLoop.cpp **** 
 184:My_Top/Motor_Control/DcMotor_ClosedLoop.cpp **** }
 185:My_Top/Motor_Control/DcMotor_ClosedLoop.cpp **** 
 186:My_Top/Motor_Control/DcMotor_ClosedLoop.cpp **** 
 187:My_Top/Motor_Control/DcMotor_ClosedLoop.cpp **** void DC_Motor::Speed_Loop(void) //ķĆ¤Õ║”ńÄ»
 188:My_Top/Motor_Control/DcMotor_ClosedLoop.cpp **** {
 189:My_Top/Motor_Control/DcMotor_ClosedLoop.cpp ****     float _delta_pwm = 0.0f; //Ķ«Īń«ŚPIDÕó×ķćÅ
 190:My_Top/Motor_Control/DcMotor_ClosedLoop.cpp ****     float error_speed = _target_speed - Angular_velocity_final; //Ķ«Īń«ŚķĆ¤Õ║”Ķ»»ÕĘ«
 191:My_Top/Motor_Control/DcMotor_ClosedLoop.cpp **** 
 192:My_Top/Motor_Control/DcMotor_ClosedLoop.cpp ****     _delta_pwm = pid_speed_incparam->update(error_speed); //Ķ«Īń«ŚPIDÕó×ķćÅ
 193:My_Top/Motor_Control/DcMotor_ClosedLoop.cpp ****     updown_duty += _delta_pwm; //µø┤µ¢░ńöĄµ£║ķóæńÄć
 194:My_Top/Motor_Control/DcMotor_ClosedLoop.cpp ****     Set_Motor_Glo_Duty(); //Ķ«ŠńĮ«ńöĄµ£║Õģ©Õ▒ĆÕŹĀń®║µ»ö
 195:My_Top/Motor_Control/DcMotor_ClosedLoop.cpp **** }
 196:My_Top/Motor_Control/DcMotor_ClosedLoop.cpp **** 
 197:My_Top/Motor_Control/DcMotor_ClosedLoop.cpp **** 
 198:My_Top/Motor_Control/DcMotor_ClosedLoop.cpp **** void DC_Motor::Location_Loop(void) //õĮŹńĮ«ńÄ»
 199:My_Top/Motor_Control/DcMotor_ClosedLoop.cpp **** {
 200:My_Top/Motor_Control/DcMotor_ClosedLoop.cpp ****     float _delta_fre = 0.0f;
 201:My_Top/Motor_Control/DcMotor_ClosedLoop.cpp ****     float _target_error_location = deg2rad(_target_location2) - reg_final; //Ķ«Īń«ŚõĮŹńĮ«Ķ»»ÕĘ«
 202:My_Top/Motor_Control/DcMotor_ClosedLoop.cpp ****     _target_speed = pid_location->update(_target_error_location); //
 203:My_Top/Motor_Control/DcMotor_ClosedLoop.cpp ****     Speed_Loop(); //õĮŹńĮ«ńÄ»Õåģķā©Ķ░āńö©ķĆ¤Õ║”ńÄ»µÄ¦ÕłČ
ARM GAS  /tmp/cc0AM0z6.s 			page 5


 204:My_Top/Motor_Control/DcMotor_ClosedLoop.cpp **** }
 205:My_Top/Motor_Control/DcMotor_ClosedLoop.cpp **** 
 206:My_Top/Motor_Control/DcMotor_ClosedLoop.cpp **** 
 207:My_Top/Motor_Control/DcMotor_ClosedLoop.cpp **** 
 208:My_Top/Motor_Control/DcMotor_ClosedLoop.cpp **** 
 209:My_Top/Motor_Control/DcMotor_ClosedLoop.cpp **** 
 210:My_Top/Motor_Control/DcMotor_ClosedLoop.cpp **** void DC_Motor::Thermistor_Temp() //Ķ«Īń«ŚńāŁµĢÅńöĄķś╗µĖ®Õ║”
 211:My_Top/Motor_Control/DcMotor_ClosedLoop.cpp **** {
 212:My_Top/Motor_Control/DcMotor_ClosedLoop.cpp ****     float adc_av_val = 0.0f;
 213:My_Top/Motor_Control/DcMotor_ClosedLoop.cpp ****     
 214:My_Top/Motor_Control/DcMotor_ClosedLoop.cpp ****     adc_av_val = adc_val_avg.filter((float)ADC_Value[_motor_config->adc_channel]); //Õ»╣ADCÕĆ╝Ķ┐øĶĪ
 215:My_Top/Motor_Control/DcMotor_ClosedLoop.cpp ****     // ADC ÕĆ╝Õ╝éÕĖĖ’╝łµé¼ń®║/µ£¬µÄźńāŁµĢÅńöĄķś╗ ĶĘ│Ķ┐ćĶ«Īń«Ś
 216:My_Top/Motor_Control/DcMotor_ClosedLoop.cpp ****     if (adc_av_val < 10.0f || adc_av_val > 4086.0f) return;  // õ┐ØµīüõĖŖµ¼Īµ£ēµĢłµĖ®Õ║”’╝īõĖŹµø┤µ¢
 217:My_Top/Motor_Control/DcMotor_ClosedLoop.cpp **** 
 218:My_Top/Motor_Control/DcMotor_ClosedLoop.cpp ****     ADC_RES_Val = 10.0*(4096-adc_av_val) / adc_av_val; //Ķ«Īń«ŚADCÕĆ╝Õ»╣Õ║öńÜäńöĄķś╗ÕĆ╝Õż¦Õ░Å
 219:My_Top/Motor_Control/DcMotor_ClosedLoop.cpp **** 
 220:My_Top/Motor_Control/DcMotor_ClosedLoop.cpp ****     float inv_T = 1.0f / T0_K + log(ADC_RES_Val / NTC_R0) / NTC_B; //Ķ«Īń«ŚµĖ®Õ║”ńÜäÕĆÆµĢ░ ÕŹĢõĮŹÕ╝
 221:My_Top/Motor_Control/DcMotor_ClosedLoop.cpp ****     
 222:My_Top/Motor_Control/DcMotor_ClosedLoop.cpp ****     ADC_Temp_Val = (1.0f / inv_T) - T0;  //ĶĮ¼µŹóõĖ║µæäµ░ÅÕ║”µĖ®Õ║”
 223:My_Top/Motor_Control/DcMotor_ClosedLoop.cpp **** }
  27              		.loc 1 223 1 view -0
  28              		.cfi_startproc
  29              		@ args = 0, pretend = 0, frame = 0
  30              		@ frame_needed = 0, uses_anonymous_args = 0
  31 0000 2DE9F041 		push	{r4, r5, r6, r7, r8, lr}
  32              		.cfi_def_cfa_offset 24
  33              		.cfi_offset 4, -24
  34              		.cfi_offset 5, -20
  35              		.cfi_offset 6, -16
  36              		.cfi_offset 7, -12
  37              		.cfi_offset 8, -8
  38              		.cfi_offset 14, -4
  39              	.LVL0:
  40              	.LBB66:
  41              	.LBI66:
  42              		.file 2 "My_Top/System/kth_read.hpp"
   1:My_Top/System/kth_read.hpp **** #pragma once
   2:My_Top/System/kth_read.hpp **** 
   3:My_Top/System/kth_read.hpp **** #include <stdbool.h>
   4:My_Top/System/kth_read.hpp **** #include "spi.h"
   5:My_Top/System/kth_read.hpp **** #include "FreeRTOS.h"
   6:My_Top/System/kth_read.hpp **** #include "task.h"
   7:My_Top/System/kth_read.hpp **** #include "bsp.hpp"
   8:My_Top/System/kth_read.hpp **** 
   9:My_Top/System/kth_read.hpp **** #define KTH7111_PRECISION (65535.0f) // 2^16-1’╝īń╝¢ńĀüÕÖ©ÕłåĶŠ©ńÄć
  10:My_Top/System/kth_read.hpp **** #define RAW_TO_RAD  (6.28318530717f / KTH7111_PRECISION)// ń╝¢ńĀüÕÖ©ÕÄ¤Õ¦ŗÕĆ╝ĶĮ¼Õ╝¦Õ║”ń│╗µĢ░’╝Ü2ŽĆ 
  11:My_Top/System/kth_read.hpp **** #define RAD_TO_DEG  (180.0f / 3.14159265358979323846f)// Õ╝¦Õ║”ĶĮ¼Ķ¦ÆÕ║”ń│╗µĢ░’╝Ü180 / ŽĆ Ōēł 57.29
  12:My_Top/System/kth_read.hpp **** #include "ex_math.hpp" 
  13:My_Top/System/kth_read.hpp **** 
  14:My_Top/System/kth_read.hpp **** 
  15:My_Top/System/kth_read.hpp **** class KTH7111
  16:My_Top/System/kth_read.hpp **** {
  17:My_Top/System/kth_read.hpp **** public:
  18:My_Top/System/kth_read.hpp ****     uint16_t single_turn; // ÕŹĢÕ£łÕÄ¤Õ¦ŗÕĆ╝16õĮŹ
  19:My_Top/System/kth_read.hpp ****     float theta;          // ĶĮ¼µŹóÕÉÄńÜäÕ╝¦Õ║”Ķ¦Æ (0 ~ 2ŽĆ)
  20:My_Top/System/kth_read.hpp ****     float angle;          // ĶĮ¼µŹóÕÉÄńÜäĶ¦ÆÕ║” (0 ~ 360)
  21:My_Top/System/kth_read.hpp ****     bool  encoder_dir; // ń╝¢ńĀüÕÖ©µ¢╣ÕÉæ
ARM GAS  /tmp/cc0AM0z6.s 			page 6


  22:My_Top/System/kth_read.hpp ****     KTH7111(const MotorPWM_Config *motor_config)
  43              		.loc 2 22 5 view .LVU1
  44              	.LBB67:
  45              	.LBB68:
  23:My_Top/System/kth_read.hpp ****     : _motor_config(motor_config),
  24:My_Top/System/kth_read.hpp ****       single_turn(0), theta(0.0f), angle(0.0f) {}
  46              		.loc 2 24 7 is_stmt 0 view .LVU2
  47 0004 D84B     		ldr	r3, .L3+16
  48 0006 0021     		movs	r1, #0
  49 0008 1980     		strh	r1, [r3]	@ movhi
  50              		.loc 2 24 23 view .LVU3
  51 000a 0022     		movs	r2, #0
  52 000c 5A60     		str	r2, [r3, #4]	@ float
  53              		.loc 2 24 36 view .LVU4
  54 000e 9A60     		str	r2, [r3, #8]	@ float
  23:My_Top/System/kth_read.hpp ****     : _motor_config(motor_config),
  55              		.loc 2 23 7 view .LVU5
  56 0010 DFF87C83 		ldr	r8, .L3+56
  57 0014 C3F81080 		str	r8, [r3, #16]
  58              	.LVL1:
  23:My_Top/System/kth_read.hpp ****     : _motor_config(motor_config),
  59              		.loc 2 23 7 view .LVU6
  60              	.LBE68:
  61              	.LBE67:
  62              	.LBE66:
  63              	.LBB69:
  64              	.LBI69:
  22:My_Top/System/kth_read.hpp ****     : _motor_config(motor_config),
  65              		.loc 2 22 5 is_stmt 1 view .LVU7
  66              	.LBB70:
  67              	.LBB71:
  68              		.loc 2 24 7 is_stmt 0 view .LVU8
  69 0018 9982     		strh	r1, [r3, #20]	@ movhi
  70              		.loc 2 24 23 view .LVU9
  71 001a 9A61     		str	r2, [r3, #24]	@ float
  72              		.loc 2 24 36 view .LVU10
  73 001c DA61     		str	r2, [r3, #28]	@ float
  23:My_Top/System/kth_read.hpp ****     : _motor_config(motor_config),
  74              		.loc 2 23 7 view .LVU11
  75 001e D34E     		ldr	r6, .L3+20
  76 0020 5E62     		str	r6, [r3, #36]
  77              	.LVL2:
  23:My_Top/System/kth_read.hpp ****     : _motor_config(motor_config),
  78              		.loc 2 23 7 view .LVU12
  79              	.LBE71:
  80              	.LBE70:
  81              	.LBE69:
  82              	.LBB72:
  83              	.LBI72:
  22:My_Top/System/kth_read.hpp ****     : _motor_config(motor_config),
  84              		.loc 2 22 5 is_stmt 1 view .LVU13
  85              	.LBB73:
  86              	.LBB74:
  87              		.loc 2 24 7 is_stmt 0 view .LVU14
  88 0022 1985     		strh	r1, [r3, #40]	@ movhi
  89              		.loc 2 24 23 view .LVU15
  90 0024 DA62     		str	r2, [r3, #44]	@ float
ARM GAS  /tmp/cc0AM0z6.s 			page 7


  91              		.loc 2 24 36 view .LVU16
  92 0026 1A63     		str	r2, [r3, #48]	@ float
  23:My_Top/System/kth_read.hpp ****     : _motor_config(motor_config),
  93              		.loc 2 23 7 view .LVU17
  94 0028 D148     		ldr	r0, .L3+24
  95 002a 9863     		str	r0, [r3, #56]
  96              	.LVL3:
  23:My_Top/System/kth_read.hpp ****     : _motor_config(motor_config),
  97              		.loc 2 23 7 view .LVU18
  98              	.LBE74:
  99              	.LBE73:
 100              	.LBE72:
 101              	.LBB75:
 102              	.LBI75:
  22:My_Top/System/kth_read.hpp ****     : _motor_config(motor_config),
 103              		.loc 2 22 5 is_stmt 1 view .LVU19
 104              	.LBB76:
 105              	.LBB77:
 106              		.loc 2 24 7 is_stmt 0 view .LVU20
 107 002c 9987     		strh	r1, [r3, #60]	@ movhi
 108              		.loc 2 24 23 view .LVU21
 109 002e 1A64     		str	r2, [r3, #64]	@ float
 110              		.loc 2 24 36 view .LVU22
 111 0030 5A64     		str	r2, [r3, #68]	@ float
  23:My_Top/System/kth_read.hpp ****     : _motor_config(motor_config),
 112              		.loc 2 23 7 view .LVU23
 113 0032 D04D     		ldr	r5, .L3+28
 114 0034 DD64     		str	r5, [r3, #76]
 115              	.LVL4:
  23:My_Top/System/kth_read.hpp ****     : _motor_config(motor_config),
 116              		.loc 2 23 7 view .LVU24
 117              	.LBE77:
 118              	.LBE76:
 119              	.LBE75:
 120              	.LBB78:
 121              	.LBI78:
 122              		.file 3 "Lib/compute/pid/pid_Increment.hpp"
   1:Lib/compute/pid/pid_Increment.hpp **** #pragma once
   2:Lib/compute/pid/pid_Increment.hpp **** 
   3:Lib/compute/pid/pid_Increment.hpp **** // ============================================================
   4:Lib/compute/pid/pid_Increment.hpp **** // Õó×ķćÅÕ╝Å PID µÄ¦ÕłČÕÖ©
   5:Lib/compute/pid/pid_Increment.hpp **** //
   6:Lib/compute/pid/pid_Increment.hpp **** // Õģ¼Õ╝Å:
   7:Lib/compute/pid/pid_Increment.hpp **** //   ╬öu(k) = Kp * (e(k) - e(k-1))
   8:Lib/compute/pid/pid_Increment.hpp **** //         + Ki * T * e(k)
   9:Lib/compute/pid/pid_Increment.hpp **** //         + (Kd / T) * (e(k) - 2*e(k-1) + e(k-2))
  10:Lib/compute/pid/pid_Increment.hpp **** //
  11:Lib/compute/pid/pid_Increment.hpp **** //   u(k) = u(k-1) + ╬öu(k)
  12:Lib/compute/pid/pid_Increment.hpp **** //
  13:Lib/compute/pid/pid_Increment.hpp **** // ÕģČõĖŁ T = dt’╝łķććµĀĘÕæ©µ£¤’╝ē
  14:Lib/compute/pid/pid_Increment.hpp **** // ============================================================
  15:Lib/compute/pid/pid_Increment.hpp **** 
  16:Lib/compute/pid/pid_Increment.hpp **** 
  17:Lib/compute/pid/pid_Increment.hpp **** class PID_Increment
  18:Lib/compute/pid/pid_Increment.hpp **** {
  19:Lib/compute/pid/pid_Increment.hpp **** public:
  20:Lib/compute/pid/pid_Increment.hpp ****     float _kp, _ki, _kd;
ARM GAS  /tmp/cc0AM0z6.s 			page 8


  21:Lib/compute/pid/pid_Increment.hpp ****     PID_Increment(void) //Õ«Üõ╣ēµŚČµŚĀÕÅéńÜäµ×äķĆĀÕćĮµĢ░µĀ╝Õ╝Å
  22:Lib/compute/pid/pid_Increment.hpp ****     {
  23:Lib/compute/pid/pid_Increment.hpp ****         _kp = _ki = _kd = _dt = 0.0f;
  24:Lib/compute/pid/pid_Increment.hpp ****         _max = _min = 0.0f;
  25:Lib/compute/pid/pid_Increment.hpp ****         _e_prev = _e_prev2 = 0.0f;
  26:Lib/compute/pid/pid_Increment.hpp ****         _delta_u = 0.0f;
  27:Lib/compute/pid/pid_Increment.hpp ****     }
  28:Lib/compute/pid/pid_Increment.hpp **** 
  29:Lib/compute/pid/pid_Increment.hpp ****     PID_Increment(float kp, float ki, float kd, float dt, float max, float min) //Õ«Üõ╣ēµŚČÕĖ”ÕÅéńÜ
 123              		.loc 3 29 5 is_stmt 1 view .LVU25
 124              	.LBB79:
 125              	.LBB80:
  30:Lib/compute/pid/pid_Increment.hpp ****     {
  31:Lib/compute/pid/pid_Increment.hpp ****         _kp = kp;
 126              		.loc 3 31 9 view .LVU26
 127              		.loc 3 31 13 is_stmt 0 view .LVU27
 128 0036 1A65     		str	r2, [r3, #80]	@ float
  32:Lib/compute/pid/pid_Increment.hpp ****         _ki = ki;
 129              		.loc 3 32 9 is_stmt 1 view .LVU28
 130              		.loc 3 32 13 is_stmt 0 view .LVU29
 131 0038 5A65     		str	r2, [r3, #84]	@ float
  33:Lib/compute/pid/pid_Increment.hpp ****         _kd = kd;
 132              		.loc 3 33 9 is_stmt 1 view .LVU30
 133              		.loc 3 33 13 is_stmt 0 view .LVU31
 134 003a 9A65     		str	r2, [r3, #88]	@ float
  34:Lib/compute/pid/pid_Increment.hpp ****         _dt = dt;
 135              		.loc 3 34 9 is_stmt 1 view .LVU32
 136              		.loc 3 34 13 is_stmt 0 view .LVU33
 137 003c DFEDCE6A 		vldr.32	s13, .L3+32
 138 0040 C3ED176A 		vstr.32	s13, [r3, #92]
  35:Lib/compute/pid/pid_Increment.hpp ****         _max = max;
 139              		.loc 3 35 9 is_stmt 1 view .LVU34
 140              		.loc 3 35 14 is_stmt 0 view .LVU35
 141 0044 9FEDCD7A 		vldr.32	s14, .L3+36
 142 0048 83ED187A 		vstr.32	s14, [r3, #96]
  36:Lib/compute/pid/pid_Increment.hpp ****         _min = min;
 143              		.loc 3 36 9 is_stmt 1 view .LVU36
 144              		.loc 3 36 14 is_stmt 0 view .LVU37
 145 004c DFEDCC7A 		vldr.32	s15, .L3+40
 146 0050 C3ED197A 		vstr.32	s15, [r3, #100]
  37:Lib/compute/pid/pid_Increment.hpp ****         _e_prev = _e_prev2 = 0.0f;
 147              		.loc 3 37 9 is_stmt 1 view .LVU38
 148              		.loc 3 37 28 is_stmt 0 view .LVU39
 149 0054 DA66     		str	r2, [r3, #108]	@ float
 150              		.loc 3 37 17 view .LVU40
 151 0056 9A66     		str	r2, [r3, #104]	@ float
  38:Lib/compute/pid/pid_Increment.hpp ****         _delta_u = 0.0f;
 152              		.loc 3 38 9 is_stmt 1 view .LVU41
 153              		.loc 3 38 18 is_stmt 0 view .LVU42
 154 0058 1A67     		str	r2, [r3, #112]	@ float
 155              	.LVL5:
 156              		.loc 3 38 18 view .LVU43
 157              	.LBE80:
 158              	.LBE79:
 159              	.LBE78:
 160              	.LBB81:
 161              	.LBI81:
ARM GAS  /tmp/cc0AM0z6.s 			page 9


 162              		.file 4 "Lib/compute/pid/pid.hpp"
   1:Lib/compute/pid/pid.hpp **** #pragma once
   2:Lib/compute/pid/pid.hpp **** 
   3:Lib/compute/pid/pid.hpp **** #define PID_DtHZ (1.0f/16000.0f)
   4:Lib/compute/pid/pid.hpp **** 
   5:Lib/compute/pid/pid.hpp **** class PID
   6:Lib/compute/pid/pid.hpp **** {
   7:Lib/compute/pid/pid.hpp **** public:
   8:Lib/compute/pid/pid.hpp **** 
   9:Lib/compute/pid/pid.hpp **** // µ×äķĆĀÕćĮµĢ░’╝īÕĖ”ķ╗śĶ«żÕÅéµĢ░’╝īµ¢╣õŠ┐õĮ┐ńö©
  10:Lib/compute/pid/pid.hpp ****     PID(float kp = 0.0f, float ki = 0.0f, float kd = 0.0f, float dt = PID_DtHZ, float i_max = 0.66*
 163              		.loc 4 10 5 is_stmt 1 view .LVU44
 164              	.LBB82:
 165              	.LBB83:
  11:Lib/compute/pid/pid.hpp ****         float max = 1.0f, float min = -1.0f)
  12:Lib/compute/pid/pid.hpp ****         : _kp(kp), _ki(ki), _kd(kd), _dt(dt), _i_max(i_max),_max(max), _min(min),
 166              		.loc 4 12 11 is_stmt 0 view .LVU45
 167 005a 5A67     		str	r2, [r3, #116]	@ float
 168              		.loc 4 12 20 view .LVU46
 169 005c 9A67     		str	r2, [r3, #120]	@ float
 170              		.loc 4 12 29 view .LVU47
 171 005e DA67     		str	r2, [r3, #124]	@ float
 172              		.loc 4 12 38 view .LVU48
 173 0060 DFF830E3 		ldr	lr, .L3+60
 174 0064 C3F880E0 		str	lr, [r3, #128]	@ float
 175              		.loc 4 12 47 view .LVU49
 176 0068 4FF0834C 		mov	ip, #1098907648
 177 006c C3F884C0 		str	ip, [r3, #132]	@ float
 178              		.loc 4 12 61 view .LVU50
 179 0070 C44F     		ldr	r7, .L3+44
 180 0072 C3F88870 		str	r7, [r3, #136]	@ float
 181              		.loc 4 12 72 view .LVU51
 182 0076 C44C     		ldr	r4, .L3+48
 183 0078 C3F88C40 		str	r4, [r3, #140]	@ float
  13:Lib/compute/pid/pid.hpp ****           _error(0.0f), _prev_error(0.0f), P_OUT(0.0f), I_OUT(0.0f), D_OUT(0.0f),
 184              		.loc 4 13 11 view .LVU52
 185 007c C3F89020 		str	r2, [r3, #144]	@ float
 186              		.loc 4 13 25 view .LVU53
 187 0080 C3F89420 		str	r2, [r3, #148]	@ float
 188              		.loc 4 13 44 view .LVU54
 189 0084 C3F89820 		str	r2, [r3, #152]	@ float
 190              		.loc 4 13 57 view .LVU55
 191 0088 C3F89C20 		str	r2, [r3, #156]	@ float
 192              		.loc 4 13 70 view .LVU56
 193 008c C3F8A020 		str	r2, [r3, #160]	@ float
  14:Lib/compute/pid/pid.hpp ****           _output(0.0f), max_out_flag(false) {}
 194              		.loc 4 14 11 view .LVU57
 195 0090 C3F8A420 		str	r2, [r3, #164]	@ float
 196              		.loc 4 14 26 view .LVU58
 197 0094 83F8A810 		strb	r1, [r3, #168]
 198              	.LVL6:
 199              		.loc 4 14 26 view .LVU59
 200              	.LBE83:
 201              	.LBE82:
 202              	.LBE81:
 203              	.LBB84:
 204              	.LBI84:
ARM GAS  /tmp/cc0AM0z6.s 			page 10


  29:Lib/compute/pid/pid_Increment.hpp ****     {
 205              		.loc 3 29 5 is_stmt 1 view .LVU60
 206              	.LBB85:
 207              	.LBB86:
  31:Lib/compute/pid/pid_Increment.hpp ****         _ki = ki;
 208              		.loc 3 31 9 view .LVU61
  31:Lib/compute/pid/pid_Increment.hpp ****         _ki = ki;
 209              		.loc 3 31 13 is_stmt 0 view .LVU62
 210 0098 C3F8AC20 		str	r2, [r3, #172]	@ float
  32:Lib/compute/pid/pid_Increment.hpp ****         _kd = kd;
 211              		.loc 3 32 9 is_stmt 1 view .LVU63
  32:Lib/compute/pid/pid_Increment.hpp ****         _kd = kd;
 212              		.loc 3 32 13 is_stmt 0 view .LVU64
 213 009c C3F8B020 		str	r2, [r3, #176]	@ float
  33:Lib/compute/pid/pid_Increment.hpp ****         _dt = dt;
 214              		.loc 3 33 9 is_stmt 1 view .LVU65
  33:Lib/compute/pid/pid_Increment.hpp ****         _dt = dt;
 215              		.loc 3 33 13 is_stmt 0 view .LVU66
 216 00a0 C3F8B420 		str	r2, [r3, #180]	@ float
  34:Lib/compute/pid/pid_Increment.hpp ****         _max = max;
 217              		.loc 3 34 9 is_stmt 1 view .LVU67
  34:Lib/compute/pid/pid_Increment.hpp ****         _max = max;
 218              		.loc 3 34 13 is_stmt 0 view .LVU68
 219 00a4 C3ED2E6A 		vstr.32	s13, [r3, #184]
  35:Lib/compute/pid/pid_Increment.hpp ****         _min = min;
 220              		.loc 3 35 9 is_stmt 1 view .LVU69
  35:Lib/compute/pid/pid_Increment.hpp ****         _min = min;
 221              		.loc 3 35 14 is_stmt 0 view .LVU70
 222 00a8 83ED2F7A 		vstr.32	s14, [r3, #188]
  36:Lib/compute/pid/pid_Increment.hpp ****         _e_prev = _e_prev2 = 0.0f;
 223              		.loc 3 36 9 is_stmt 1 view .LVU71
  36:Lib/compute/pid/pid_Increment.hpp ****         _e_prev = _e_prev2 = 0.0f;
 224              		.loc 3 36 14 is_stmt 0 view .LVU72
 225 00ac C3ED307A 		vstr.32	s15, [r3, #192]
  37:Lib/compute/pid/pid_Increment.hpp ****         _delta_u = 0.0f;
 226              		.loc 3 37 9 is_stmt 1 view .LVU73
  37:Lib/compute/pid/pid_Increment.hpp ****         _delta_u = 0.0f;
 227              		.loc 3 37 28 is_stmt 0 view .LVU74
 228 00b0 C3F8C820 		str	r2, [r3, #200]	@ float
  37:Lib/compute/pid/pid_Increment.hpp ****         _delta_u = 0.0f;
 229              		.loc 3 37 17 view .LVU75
 230 00b4 C3F8C420 		str	r2, [r3, #196]	@ float
 231              		.loc 3 38 9 is_stmt 1 view .LVU76
 232              		.loc 3 38 18 is_stmt 0 view .LVU77
 233 00b8 C3F8CC20 		str	r2, [r3, #204]	@ float
 234              	.LVL7:
 235              		.loc 3 38 18 view .LVU78
 236              	.LBE86:
 237              	.LBE85:
 238              	.LBE84:
 239              	.LBB87:
 240              	.LBI87:
  10:Lib/compute/pid/pid.hpp ****         float max = 1.0f, float min = -1.0f)
 241              		.loc 4 10 5 is_stmt 1 view .LVU79
 242              	.LBB88:
 243              	.LBB89:
  12:Lib/compute/pid/pid.hpp ****           _error(0.0f), _prev_error(0.0f), P_OUT(0.0f), I_OUT(0.0f), D_OUT(0.0f),
ARM GAS  /tmp/cc0AM0z6.s 			page 11


 244              		.loc 4 12 11 is_stmt 0 view .LVU80
 245 00bc C3F8D020 		str	r2, [r3, #208]	@ float
  12:Lib/compute/pid/pid.hpp ****           _error(0.0f), _prev_error(0.0f), P_OUT(0.0f), I_OUT(0.0f), D_OUT(0.0f),
 246              		.loc 4 12 20 view .LVU81
 247 00c0 C3F8D420 		str	r2, [r3, #212]	@ float
  12:Lib/compute/pid/pid.hpp ****           _error(0.0f), _prev_error(0.0f), P_OUT(0.0f), I_OUT(0.0f), D_OUT(0.0f),
 248              		.loc 4 12 29 view .LVU82
 249 00c4 C3F8D820 		str	r2, [r3, #216]	@ float
  12:Lib/compute/pid/pid.hpp ****           _error(0.0f), _prev_error(0.0f), P_OUT(0.0f), I_OUT(0.0f), D_OUT(0.0f),
 250              		.loc 4 12 38 view .LVU83
 251 00c8 C3F8DCE0 		str	lr, [r3, #220]	@ float
  12:Lib/compute/pid/pid.hpp ****           _error(0.0f), _prev_error(0.0f), P_OUT(0.0f), I_OUT(0.0f), D_OUT(0.0f),
 252              		.loc 4 12 47 view .LVU84
 253 00cc C3F8E0C0 		str	ip, [r3, #224]	@ float
  12:Lib/compute/pid/pid.hpp ****           _error(0.0f), _prev_error(0.0f), P_OUT(0.0f), I_OUT(0.0f), D_OUT(0.0f),
 254              		.loc 4 12 61 view .LVU85
 255 00d0 C3F8E470 		str	r7, [r3, #228]	@ float
  12:Lib/compute/pid/pid.hpp ****           _error(0.0f), _prev_error(0.0f), P_OUT(0.0f), I_OUT(0.0f), D_OUT(0.0f),
 256              		.loc 4 12 72 view .LVU86
 257 00d4 C3F8E840 		str	r4, [r3, #232]	@ float
  13:Lib/compute/pid/pid.hpp ****           _output(0.0f), max_out_flag(false) {}
 258              		.loc 4 13 11 view .LVU87
 259 00d8 C3F8EC20 		str	r2, [r3, #236]	@ float
  13:Lib/compute/pid/pid.hpp ****           _output(0.0f), max_out_flag(false) {}
 260              		.loc 4 13 25 view .LVU88
 261 00dc C3F8F020 		str	r2, [r3, #240]	@ float
  13:Lib/compute/pid/pid.hpp ****           _output(0.0f), max_out_flag(false) {}
 262              		.loc 4 13 44 view .LVU89
 263 00e0 C3F8F420 		str	r2, [r3, #244]	@ float
  13:Lib/compute/pid/pid.hpp ****           _output(0.0f), max_out_flag(false) {}
 264              		.loc 4 13 57 view .LVU90
 265 00e4 C3F8F820 		str	r2, [r3, #248]	@ float
  13:Lib/compute/pid/pid.hpp ****           _output(0.0f), max_out_flag(false) {}
 266              		.loc 4 13 70 view .LVU91
 267 00e8 C3F8FC20 		str	r2, [r3, #252]	@ float
 268              		.loc 4 14 11 view .LVU92
 269 00ec C3F80021 		str	r2, [r3, #256]	@ float
 270              		.loc 4 14 26 view .LVU93
 271 00f0 83F80411 		strb	r1, [r3, #260]
 272              	.LVL8:
 273              		.loc 4 14 26 view .LVU94
 274              	.LBE89:
 275              	.LBE88:
 276              	.LBE87:
 277              	.LBB90:
 278              	.LBI90:
  29:Lib/compute/pid/pid_Increment.hpp ****     {
 279              		.loc 3 29 5 is_stmt 1 view .LVU95
 280              	.LBB91:
 281              	.LBB92:
  31:Lib/compute/pid/pid_Increment.hpp ****         _ki = ki;
 282              		.loc 3 31 9 view .LVU96
  31:Lib/compute/pid/pid_Increment.hpp ****         _ki = ki;
 283              		.loc 3 31 13 is_stmt 0 view .LVU97
 284 00f4 C3F80821 		str	r2, [r3, #264]	@ float
  32:Lib/compute/pid/pid_Increment.hpp ****         _kd = kd;
 285              		.loc 3 32 9 is_stmt 1 view .LVU98
ARM GAS  /tmp/cc0AM0z6.s 			page 12


  32:Lib/compute/pid/pid_Increment.hpp ****         _kd = kd;
 286              		.loc 3 32 13 is_stmt 0 view .LVU99
 287 00f8 C3F80C21 		str	r2, [r3, #268]	@ float
  33:Lib/compute/pid/pid_Increment.hpp ****         _dt = dt;
 288              		.loc 3 33 9 is_stmt 1 view .LVU100
  33:Lib/compute/pid/pid_Increment.hpp ****         _dt = dt;
 289              		.loc 3 33 13 is_stmt 0 view .LVU101
 290 00fc C3F81021 		str	r2, [r3, #272]	@ float
  34:Lib/compute/pid/pid_Increment.hpp ****         _max = max;
 291              		.loc 3 34 9 is_stmt 1 view .LVU102
  34:Lib/compute/pid/pid_Increment.hpp ****         _max = max;
 292              		.loc 3 34 13 is_stmt 0 view .LVU103
 293 0100 C3ED456A 		vstr.32	s13, [r3, #276]
  35:Lib/compute/pid/pid_Increment.hpp ****         _min = min;
 294              		.loc 3 35 9 is_stmt 1 view .LVU104
  35:Lib/compute/pid/pid_Increment.hpp ****         _min = min;
 295              		.loc 3 35 14 is_stmt 0 view .LVU105
 296 0104 83ED467A 		vstr.32	s14, [r3, #280]
  36:Lib/compute/pid/pid_Increment.hpp ****         _e_prev = _e_prev2 = 0.0f;
 297              		.loc 3 36 9 is_stmt 1 view .LVU106
  36:Lib/compute/pid/pid_Increment.hpp ****         _e_prev = _e_prev2 = 0.0f;
 298              		.loc 3 36 14 is_stmt 0 view .LVU107
 299 0108 C3ED477A 		vstr.32	s15, [r3, #284]
  37:Lib/compute/pid/pid_Increment.hpp ****         _delta_u = 0.0f;
 300              		.loc 3 37 9 is_stmt 1 view .LVU108
  37:Lib/compute/pid/pid_Increment.hpp ****         _delta_u = 0.0f;
 301              		.loc 3 37 28 is_stmt 0 view .LVU109
 302 010c C3F82421 		str	r2, [r3, #292]	@ float
  37:Lib/compute/pid/pid_Increment.hpp ****         _delta_u = 0.0f;
 303              		.loc 3 37 17 view .LVU110
 304 0110 C3F82021 		str	r2, [r3, #288]	@ float
 305              		.loc 3 38 9 is_stmt 1 view .LVU111
 306              		.loc 3 38 18 is_stmt 0 view .LVU112
 307 0114 C3F82821 		str	r2, [r3, #296]	@ float
 308              	.LVL9:
 309              		.loc 3 38 18 view .LVU113
 310              	.LBE92:
 311              	.LBE91:
 312              	.LBE90:
 313              	.LBB93:
 314              	.LBI93:
  10:Lib/compute/pid/pid.hpp ****         float max = 1.0f, float min = -1.0f)
 315              		.loc 4 10 5 is_stmt 1 view .LVU114
 316              	.LBB94:
 317              	.LBB95:
  12:Lib/compute/pid/pid.hpp ****           _error(0.0f), _prev_error(0.0f), P_OUT(0.0f), I_OUT(0.0f), D_OUT(0.0f),
 318              		.loc 4 12 11 is_stmt 0 view .LVU115
 319 0118 C3F82C21 		str	r2, [r3, #300]	@ float
  12:Lib/compute/pid/pid.hpp ****           _error(0.0f), _prev_error(0.0f), P_OUT(0.0f), I_OUT(0.0f), D_OUT(0.0f),
 320              		.loc 4 12 20 view .LVU116
 321 011c C3F83021 		str	r2, [r3, #304]	@ float
  12:Lib/compute/pid/pid.hpp ****           _error(0.0f), _prev_error(0.0f), P_OUT(0.0f), I_OUT(0.0f), D_OUT(0.0f),
 322              		.loc 4 12 29 view .LVU117
 323 0120 C3F83421 		str	r2, [r3, #308]	@ float
  12:Lib/compute/pid/pid.hpp ****           _error(0.0f), _prev_error(0.0f), P_OUT(0.0f), I_OUT(0.0f), D_OUT(0.0f),
 324              		.loc 4 12 38 view .LVU118
 325 0124 C3F838E1 		str	lr, [r3, #312]	@ float
ARM GAS  /tmp/cc0AM0z6.s 			page 13


  12:Lib/compute/pid/pid.hpp ****           _error(0.0f), _prev_error(0.0f), P_OUT(0.0f), I_OUT(0.0f), D_OUT(0.0f),
 326              		.loc 4 12 47 view .LVU119
 327 0128 C3F83CC1 		str	ip, [r3, #316]	@ float
  12:Lib/compute/pid/pid.hpp ****           _error(0.0f), _prev_error(0.0f), P_OUT(0.0f), I_OUT(0.0f), D_OUT(0.0f),
 328              		.loc 4 12 61 view .LVU120
 329 012c C3F84071 		str	r7, [r3, #320]	@ float
  12:Lib/compute/pid/pid.hpp ****           _error(0.0f), _prev_error(0.0f), P_OUT(0.0f), I_OUT(0.0f), D_OUT(0.0f),
 330              		.loc 4 12 72 view .LVU121
 331 0130 C3F84441 		str	r4, [r3, #324]	@ float
  13:Lib/compute/pid/pid.hpp ****           _output(0.0f), max_out_flag(false) {}
 332              		.loc 4 13 11 view .LVU122
 333 0134 C3F84821 		str	r2, [r3, #328]	@ float
  13:Lib/compute/pid/pid.hpp ****           _output(0.0f), max_out_flag(false) {}
 334              		.loc 4 13 25 view .LVU123
 335 0138 C3F84C21 		str	r2, [r3, #332]	@ float
  13:Lib/compute/pid/pid.hpp ****           _output(0.0f), max_out_flag(false) {}
 336              		.loc 4 13 44 view .LVU124
 337 013c C3F85021 		str	r2, [r3, #336]	@ float
  13:Lib/compute/pid/pid.hpp ****           _output(0.0f), max_out_flag(false) {}
 338              		.loc 4 13 57 view .LVU125
 339 0140 C3F85421 		str	r2, [r3, #340]	@ float
  13:Lib/compute/pid/pid.hpp ****           _output(0.0f), max_out_flag(false) {}
 340              		.loc 4 13 70 view .LVU126
 341 0144 C3F85821 		str	r2, [r3, #344]	@ float
 342              		.loc 4 14 11 view .LVU127
 343 0148 C3F85C21 		str	r2, [r3, #348]	@ float
 344              		.loc 4 14 26 view .LVU128
 345 014c 83F86011 		strb	r1, [r3, #352]
 346              	.LVL10:
 347              		.loc 4 14 26 view .LVU129
 348              	.LBE95:
 349              	.LBE94:
 350              	.LBE93:
 351              	.LBB96:
 352              	.LBI96:
  29:Lib/compute/pid/pid_Increment.hpp ****     {
 353              		.loc 3 29 5 is_stmt 1 view .LVU130
 354              	.LBB97:
 355              	.LBB98:
  31:Lib/compute/pid/pid_Increment.hpp ****         _ki = ki;
 356              		.loc 3 31 9 view .LVU131
  31:Lib/compute/pid/pid_Increment.hpp ****         _ki = ki;
 357              		.loc 3 31 13 is_stmt 0 view .LVU132
 358 0150 C3F86421 		str	r2, [r3, #356]	@ float
  32:Lib/compute/pid/pid_Increment.hpp ****         _kd = kd;
 359              		.loc 3 32 9 is_stmt 1 view .LVU133
  32:Lib/compute/pid/pid_Increment.hpp ****         _kd = kd;
 360              		.loc 3 32 13 is_stmt 0 view .LVU134
 361 0154 C3F86821 		str	r2, [r3, #360]	@ float
  33:Lib/compute/pid/pid_Increment.hpp ****         _dt = dt;
 362              		.loc 3 33 9 is_stmt 1 view .LVU135
  33:Lib/compute/pid/pid_Increment.hpp ****         _dt = dt;
 363              		.loc 3 33 13 is_stmt 0 view .LVU136
 364 0158 C3F86C21 		str	r2, [r3, #364]	@ float
  34:Lib/compute/pid/pid_Increment.hpp ****         _max = max;
 365              		.loc 3 34 9 is_stmt 1 view .LVU137
  34:Lib/compute/pid/pid_Increment.hpp ****         _max = max;
ARM GAS  /tmp/cc0AM0z6.s 			page 14


 366              		.loc 3 34 13 is_stmt 0 view .LVU138
 367 015c C3ED5C6A 		vstr.32	s13, [r3, #368]
  35:Lib/compute/pid/pid_Increment.hpp ****         _min = min;
 368              		.loc 3 35 9 is_stmt 1 view .LVU139
  35:Lib/compute/pid/pid_Increment.hpp ****         _min = min;
 369              		.loc 3 35 14 is_stmt 0 view .LVU140
 370 0160 83ED5D7A 		vstr.32	s14, [r3, #372]
  36:Lib/compute/pid/pid_Increment.hpp ****         _e_prev = _e_prev2 = 0.0f;
 371              		.loc 3 36 9 is_stmt 1 view .LVU141
  36:Lib/compute/pid/pid_Increment.hpp ****         _e_prev = _e_prev2 = 0.0f;
 372              		.loc 3 36 14 is_stmt 0 view .LVU142
 373 0164 C3ED5E7A 		vstr.32	s15, [r3, #376]
  37:Lib/compute/pid/pid_Increment.hpp ****         _delta_u = 0.0f;
 374              		.loc 3 37 9 is_stmt 1 view .LVU143
  37:Lib/compute/pid/pid_Increment.hpp ****         _delta_u = 0.0f;
 375              		.loc 3 37 28 is_stmt 0 view .LVU144
 376 0168 C3F88021 		str	r2, [r3, #384]	@ float
  37:Lib/compute/pid/pid_Increment.hpp ****         _delta_u = 0.0f;
 377              		.loc 3 37 17 view .LVU145
 378 016c C3F87C21 		str	r2, [r3, #380]	@ float
 379              		.loc 3 38 9 is_stmt 1 view .LVU146
 380              		.loc 3 38 18 is_stmt 0 view .LVU147
 381 0170 C3F88421 		str	r2, [r3, #388]	@ float
 382              	.LVL11:
 383              		.loc 3 38 18 view .LVU148
 384              	.LBE98:
 385              	.LBE97:
 386              	.LBE96:
 387              	.LBB99:
 388              	.LBI99:
  10:Lib/compute/pid/pid.hpp ****         float max = 1.0f, float min = -1.0f)
 389              		.loc 4 10 5 is_stmt 1 view .LVU149
 390              	.LBB100:
 391              	.LBB101:
  12:Lib/compute/pid/pid.hpp ****           _error(0.0f), _prev_error(0.0f), P_OUT(0.0f), I_OUT(0.0f), D_OUT(0.0f),
 392              		.loc 4 12 11 is_stmt 0 view .LVU150
 393 0174 C3F88821 		str	r2, [r3, #392]	@ float
  12:Lib/compute/pid/pid.hpp ****           _error(0.0f), _prev_error(0.0f), P_OUT(0.0f), I_OUT(0.0f), D_OUT(0.0f),
 394              		.loc 4 12 20 view .LVU151
 395 0178 C3F88C21 		str	r2, [r3, #396]	@ float
  12:Lib/compute/pid/pid.hpp ****           _error(0.0f), _prev_error(0.0f), P_OUT(0.0f), I_OUT(0.0f), D_OUT(0.0f),
 396              		.loc 4 12 29 view .LVU152
 397 017c C3F89021 		str	r2, [r3, #400]	@ float
  12:Lib/compute/pid/pid.hpp ****           _error(0.0f), _prev_error(0.0f), P_OUT(0.0f), I_OUT(0.0f), D_OUT(0.0f),
 398              		.loc 4 12 38 view .LVU153
 399 0180 C3F894E1 		str	lr, [r3, #404]	@ float
  12:Lib/compute/pid/pid.hpp ****           _error(0.0f), _prev_error(0.0f), P_OUT(0.0f), I_OUT(0.0f), D_OUT(0.0f),
 400              		.loc 4 12 47 view .LVU154
 401 0184 C3F898C1 		str	ip, [r3, #408]	@ float
  12:Lib/compute/pid/pid.hpp ****           _error(0.0f), _prev_error(0.0f), P_OUT(0.0f), I_OUT(0.0f), D_OUT(0.0f),
 402              		.loc 4 12 61 view .LVU155
 403 0188 C3F89C71 		str	r7, [r3, #412]	@ float
  12:Lib/compute/pid/pid.hpp ****           _error(0.0f), _prev_error(0.0f), P_OUT(0.0f), I_OUT(0.0f), D_OUT(0.0f),
 404              		.loc 4 12 72 view .LVU156
 405 018c C3F8A041 		str	r4, [r3, #416]	@ float
  13:Lib/compute/pid/pid.hpp ****           _output(0.0f), max_out_flag(false) {}
 406              		.loc 4 13 11 view .LVU157
ARM GAS  /tmp/cc0AM0z6.s 			page 15


 407 0190 C3F8A421 		str	r2, [r3, #420]	@ float
  13:Lib/compute/pid/pid.hpp ****           _output(0.0f), max_out_flag(false) {}
 408              		.loc 4 13 25 view .LVU158
 409 0194 C3F8A821 		str	r2, [r3, #424]	@ float
  13:Lib/compute/pid/pid.hpp ****           _output(0.0f), max_out_flag(false) {}
 410              		.loc 4 13 44 view .LVU159
 411 0198 C3F8AC21 		str	r2, [r3, #428]	@ float
  13:Lib/compute/pid/pid.hpp ****           _output(0.0f), max_out_flag(false) {}
 412              		.loc 4 13 57 view .LVU160
 413 019c C3F8B021 		str	r2, [r3, #432]	@ float
  13:Lib/compute/pid/pid.hpp ****           _output(0.0f), max_out_flag(false) {}
 414              		.loc 4 13 70 view .LVU161
 415 01a0 C3F8B421 		str	r2, [r3, #436]	@ float
 416              		.loc 4 14 11 view .LVU162
 417 01a4 C3F8B821 		str	r2, [r3, #440]	@ float
 418              		.loc 4 14 26 view .LVU163
 419 01a8 83F8BC11 		strb	r1, [r3, #444]
 420              	.LVL12:
 421              		.loc 4 14 26 view .LVU164
 422              	.LBE101:
 423              	.LBE100:
 424              	.LBE99:
 425              	.LBB102:
 426              	.LBI102:
 427              		.file 5 "My_Top/Motor_Control/DcMotor_ClosedLoop.hpp"
   1:My_Top/Motor_Control/DcMotor_ClosedLoop.hpp **** #pragma once
   2:My_Top/Motor_Control/DcMotor_ClosedLoop.hpp **** #include "pid.hpp"
   3:My_Top/Motor_Control/DcMotor_ClosedLoop.hpp **** #include "pid_Increment.hpp"
   4:My_Top/Motor_Control/DcMotor_ClosedLoop.hpp **** #include "pll.hpp"
   5:My_Top/Motor_Control/DcMotor_ClosedLoop.hpp **** #include "kth_read.hpp"
   6:My_Top/Motor_Control/DcMotor_ClosedLoop.hpp **** #include "ex_math.hpp"
   7:My_Top/Motor_Control/DcMotor_ClosedLoop.hpp **** #include "bsp.hpp"
   8:My_Top/Motor_Control/DcMotor_ClosedLoop.hpp **** #include "XBLW24C64.hpp"
   9:My_Top/Motor_Control/DcMotor_ClosedLoop.hpp **** #include "my_dronecan.hpp"
  10:My_Top/Motor_Control/DcMotor_ClosedLoop.hpp **** 
  11:My_Top/Motor_Control/DcMotor_ClosedLoop.hpp **** #define max_chl_num 8 //µ£ĆÕż¦ķĆÜķüōµĢ░
  12:My_Top/Motor_Control/DcMotor_ClosedLoop.hpp **** 
  13:My_Top/Motor_Control/DcMotor_ClosedLoop.hpp **** enum Work_Mode
  14:My_Top/Motor_Control/DcMotor_ClosedLoop.hpp **** {
  15:My_Top/Motor_Control/DcMotor_ClosedLoop.hpp ****     open_loop = 0,//Õ╝ĆńÄ»µ©ĪÕ╝Å
  16:My_Top/Motor_Control/DcMotor_ClosedLoop.hpp ****     speed = 1,//ķĆ¤Õ║”µ©ĪÕ╝Å
  17:My_Top/Motor_Control/DcMotor_ClosedLoop.hpp ****     position = 2,//õĮŹńĮ«µ©ĪÕ╝Å
  18:My_Top/Motor_Control/DcMotor_ClosedLoop.hpp **** 
  19:My_Top/Motor_Control/DcMotor_ClosedLoop.hpp ****     EncoderCalibration = 99,//ń╝¢ńĀüÕÖ©µĀĪÕćåµ©ĪÕ╝Å
  20:My_Top/Motor_Control/DcMotor_ClosedLoop.hpp ****     null_mode = 100,        //µŚĀµ©ĪÕ╝Å
  21:My_Top/Motor_Control/DcMotor_ClosedLoop.hpp **** };
  22:My_Top/Motor_Control/DcMotor_ClosedLoop.hpp **** 
  23:My_Top/Motor_Control/DcMotor_ClosedLoop.hpp **** 
  24:My_Top/Motor_Control/DcMotor_ClosedLoop.hpp **** class DC_Motor
  25:My_Top/Motor_Control/DcMotor_ClosedLoop.hpp **** {
  26:My_Top/Motor_Control/DcMotor_ClosedLoop.hpp **** public:
  27:My_Top/Motor_Control/DcMotor_ClosedLoop.hpp ****     DC_Motor(const MotorPWM_Config *motor_config, KTH7111 *encoder,PID_Increment *pid_inc_param ,PI
 428              		.loc 5 27 5 is_stmt 1 view .LVU165
 429              	.LBB103:
 430              	.LBB104:
  28:My_Top/Motor_Control/DcMotor_ClosedLoop.hpp ****         : _motor_config(motor_config), _encoder(encoder), pid_speed_incparam(pid_inc_param) ,pid_lo
 431              		.loc 5 28 110 is_stmt 0 view .LVU166
ARM GAS  /tmp/cc0AM0z6.s 			page 16


 432 01ac 83F8C011 		strb	r1, [r3, #448]
 433 01b0 4FF0010C 		mov	ip, #1
 434 01b4 83F8C1C1 		strb	ip, [r3, #449]
 435 01b8 83F8C211 		strb	r1, [r3, #450]
 436 01bc DFED735A 		vldr.32	s11, .L3+52
 437 01c0 C3ED715A 		vstr.32	s11, [r3, #452]
 438 01c4 C3F8C821 		str	r2, [r3, #456]	@ float
 439 01c8 C3F8CC21 		str	r2, [r3, #460]	@ float
 440 01cc C3F8D021 		str	r2, [r3, #464]	@ float
 441 01d0 C3F8E821 		str	r2, [r3, #488]	@ float
 442 01d4 C3F8EC21 		str	r2, [r3, #492]	@ float
 443              		.loc 5 28 40 view .LVU167
 444 01d8 C3F8F831 		str	r3, [r3, #504]
 445              		.loc 5 28 59 view .LVU168
 446 01dc 03F15004 		add	r4, r3, #80
 447 01e0 C3F8FC41 		str	r4, [r3, #508]
 448              		.loc 5 28 94 view .LVU169
 449 01e4 03F17404 		add	r4, r3, #116
 450 01e8 C3F80042 		str	r4, [r3, #512]
 451              		.loc 5 28 110 view .LVU170
 452 01ec FF24     		movs	r4, #255
 453 01ee A3F80842 		strh	r4, [r3, #520]	@ movhi
 454 01f2 DFF8A4E1 		ldr	lr, .L3+64
 455 01f6 C3F80CE2 		str	lr, [r3, #524]	@ float
 456 01fa C3F810E2 		str	lr, [r3, #528]	@ float
 457 01fe 83F81412 		strb	r1, [r3, #532]
 458              		.loc 5 28 11 view .LVU171
 459 0202 C3F86482 		str	r8, [r3, #612]
 460              		.loc 5 28 110 view .LVU172
 461 0206 83F868C2 		strb	ip, [r3, #616]
 462 020a C3F88422 		str	r2, [r3, #644]	@ float
 463 020e C3F88822 		str	r2, [r3, #648]	@ float
 464              	.LVL13:
 465              	.LBB105:
 466              	.LBI105:
 467              		.file 6 "Lib/compute/pid/pll.hpp"
   1:Lib/compute/pid/pll.hpp **** #pragma once
   2:Lib/compute/pid/pll.hpp **** #include "ex_math.hpp"
   3:Lib/compute/pid/pll.hpp **** 
   4:Lib/compute/pid/pll.hpp **** #include "bsp.hpp"
   5:Lib/compute/pid/pll.hpp **** 
   6:Lib/compute/pid/pll.hpp **** 
   7:Lib/compute/pid/pll.hpp **** #define Motor_RPM (315) //ńöĄµ£║µ£ĆÕż¦ĶĮ¼ķĆ¤ Õ«×µĄŗńöĄµ£║µ£Ćķ½ś5.252Õ£ł/s =315rpm
   8:Lib/compute/pid/pll.hpp **** // #define Motor_PolesNub (7) //µ×üÕ»╣µĢ░ ???
   9:Lib/compute/pid/pll.hpp **** // #define Motor_Fe (Motor_RPM*Motor_PolesNub/60) //
  10:Lib/compute/pid/pll.hpp **** // #define Wn_min  (M_2PI*Motor_Fe/10) //µ£ĆÕ░ÅĶć¬ńäČķóæńÄć = 2pi*Fe/10 = 219.911482 
  11:Lib/compute/pid/pll.hpp **** 
  12:Lib/compute/pid/pll.hpp **** 
  13:Lib/compute/pid/pll.hpp **** #define Stepper_Max_RPS (Motor_RPM / 60.0f) //ńöĄµ£║µ£ĆÕż¦ĶĮ¼ķĆ¤ µ»Åń¦ÆĶĮ¼ńÜäÕ£łµĢ░
  14:Lib/compute/pid/pll.hpp **** #define Wn_min  (M_2PI * Stepper_Max_RPS / 10) // µ£ĆÕ░ÅÕĖ”Õ«Į 3.30
  15:Lib/compute/pid/pll.hpp **** 
  16:Lib/compute/pid/pll.hpp **** #define Wn_max  (M_2PI*PLL_FREQ_HZ/10) //µ£ĆÕż¦Ķć¬ńäČķóæńÄć = 2pi*ķććµĀĘÕæ©µ£¤/10   2513.2 
  17:Lib/compute/pid/pll.hpp **** #define Ts_min  (3.0/(PLL_ZETA*Wn_max)*1000) //µ£ĆÕ░ÅµöČµĢøµŚČķŚ┤ Ts = 3/(╬Č*Wn_max) = 1.688ms 
  18:Lib/compute/pid/pll.hpp **** #define Ts_max  (3.0/(PLL_ZETA*Wn_min)*1000) //µ£ĆÕż¦µöČµĢøµŚČķŚ┤ Ts = 3/(╬Č*Wn_min) =19.2954ms /12
  19:Lib/compute/pid/pll.hpp **** 
  20:Lib/compute/pid/pll.hpp **** 
  21:Lib/compute/pid/pll.hpp **** #define PLL_FREQ_HZ   (4000)  //ķććµĀĘķóæńÄćÕ┐ģķĪ╗ Ōēź ÕĖ”Õ«ĮķóæńÄćńÜä 2 ÕĆŹ’╝īÕÉ”ÕłÖõ┐ĪÕÅĘõ╝ÜµĘĘÕÅ
ARM GAS  /tmp/cc0AM0z6.s 			page 17


  22:Lib/compute/pid/pll.hpp **** #define PLL_FREQ_Dt   (1.0/PLL_FREQ_HZ)
  23:Lib/compute/pid/pll.hpp **** #define PLL_ts_temp   (100) //µöČµĢøµŚČķŚ┤ ÕŹĢõĮŹms 
  24:Lib/compute/pid/pll.hpp **** #define PLL_ts  constraint_value(PLL_ts_temp, Ts_min, Ts_max) //ń║”µØ¤µöČµĢøµŚČķŚ┤Õ£©µ£ĆÕ░ÅÕÆīµ£ĆÕż
  25:Lib/compute/pid/pll.hpp **** 
  26:Lib/compute/pid/pll.hpp **** // #define PLL_ts 1 
  27:Lib/compute/pid/pll.hpp **** #define PLL_ZETA (0.707) //ķś╗Õ░╝µ»ö
  28:Lib/compute/pid/pll.hpp **** #define PLL_Wn   (3.0/(PLL_ZETA*PLL_ts*0.001)) //223.33hzĶć¬ńäČķóæńÄć Ķ«Īń«ŚÕģ¼Õ╝Å wn = 3/(╬Č*ts)  
  29:Lib/compute/pid/pll.hpp **** #define FOC_PLL_KP    (2*PLL_ZETA*PLL_Wn) //PIÕÅéµĢ░Ķ«Īń«ŚÕģ¼Õ╝Å kp = 2╬ČŽēn = 310.9548 
  30:Lib/compute/pid/pll.hpp **** #define FOC_PLL_KI    (PLL_Wn*PLL_Wn) //PIÕÅéµĢ░Ķ«Īń«ŚÕģ¼Õ╝Å ki = Žēn┬▓ = 48361.06 
  31:Lib/compute/pid/pll.hpp **** 
  32:Lib/compute/pid/pll.hpp **** 
  33:Lib/compute/pid/pll.hpp **** 
  34:Lib/compute/pid/pll.hpp **** struct PLL_Parameter
  35:Lib/compute/pid/pll.hpp **** {
  36:Lib/compute/pid/pll.hpp ****     PLL_Parameter(double kp, double ki) : foc_pll_kp(kp), foc_pll_ki(ki) {}
 468              		.loc 6 36 5 is_stmt 1 view .LVU173
 469              	.LBB106:
 470              	.LBB107:
 471              		.loc 6 36 43 is_stmt 0 view .LVU174
 472 0212 9FED516B 		vldr.64	d6, .L3
 473 0216 83EDA46B 		vstr.64	d6, [r3, #656]
 474              		.loc 6 36 59 view .LVU175
 475 021a 9FED517B 		vldr.64	d7, .L3+8
 476 021e 83EDA67B 		vstr.64	d7, [r3, #664]
 477              	.LVL14:
 478              		.loc 6 36 59 view .LVU176
 479              	.LBE107:
 480              	.LBE106:
 481              	.LBE105:
 482              	.LBE104:
 483              	.LBE103:
 484              	.LBE102:
 485              	.LBB108:
 486              	.LBI108:
  27:My_Top/Motor_Control/DcMotor_ClosedLoop.hpp ****         : _motor_config(motor_config), _encoder(encoder), pid_speed_incparam(pid_inc_param) ,pid_lo
 487              		.loc 5 27 5 is_stmt 1 view .LVU177
 488              	.LBB109:
 489              	.LBB110:
 490              		.loc 5 28 110 is_stmt 0 view .LVU178
 491 0222 83F8A012 		strb	r1, [r3, #672]
 492 0226 83F8A1C2 		strb	ip, [r3, #673]
 493 022a 83F8A212 		strb	r1, [r3, #674]
 494 022e C3EDA95A 		vstr.32	s11, [r3, #676]
 495 0232 C3F8A822 		str	r2, [r3, #680]	@ float
 496 0236 C3F8AC22 		str	r2, [r3, #684]	@ float
 497 023a C3F8B022 		str	r2, [r3, #688]	@ float
 498 023e C3F8C822 		str	r2, [r3, #712]	@ float
 499 0242 C3F8CC22 		str	r2, [r3, #716]	@ float
 500              		.loc 5 28 40 view .LVU179
 501 0246 03F11407 		add	r7, r3, #20
 502 024a C3F8D872 		str	r7, [r3, #728]
 503              		.loc 5 28 59 view .LVU180
 504 024e 03F1AC07 		add	r7, r3, #172
 505 0252 C3F8DC72 		str	r7, [r3, #732]
 506              		.loc 5 28 94 view .LVU181
 507 0256 03F1D007 		add	r7, r3, #208
 508 025a C3F8E072 		str	r7, [r3, #736]
ARM GAS  /tmp/cc0AM0z6.s 			page 18


 509              		.loc 5 28 110 view .LVU182
 510 025e A3F8E842 		strh	r4, [r3, #744]	@ movhi
 511 0262 C3F8ECE2 		str	lr, [r3, #748]	@ float
 512 0266 C3F8F0E2 		str	lr, [r3, #752]	@ float
 513 026a 83F8F412 		strb	r1, [r3, #756]
 514              		.loc 5 28 11 view .LVU183
 515 026e C3F84463 		str	r6, [r3, #836]
 516              		.loc 5 28 110 view .LVU184
 517 0272 83F848C3 		strb	ip, [r3, #840]
 518 0276 C3F86423 		str	r2, [r3, #868]	@ float
 519 027a C3F86823 		str	r2, [r3, #872]	@ float
 520              	.LVL15:
 521              	.LBB111:
 522              	.LBI111:
 523              		.loc 6 36 5 is_stmt 1 view .LVU185
 524              	.LBB112:
 525              	.LBB113:
 526              		.loc 6 36 43 is_stmt 0 view .LVU186
 527 027e 83EDDC6B 		vstr.64	d6, [r3, #880]
 528              		.loc 6 36 59 view .LVU187
 529 0282 83EDDE7B 		vstr.64	d7, [r3, #888]
 530              	.LVL16:
 531              		.loc 6 36 59 view .LVU188
 532              	.LBE113:
 533              	.LBE112:
 534              	.LBE111:
 535              	.LBE110:
 536              	.LBE109:
 537              	.LBE108:
 538              	.LBB114:
 539              	.LBI114:
  27:My_Top/Motor_Control/DcMotor_ClosedLoop.hpp ****         : _motor_config(motor_config), _encoder(encoder), pid_speed_incparam(pid_inc_param) ,pid_lo
 540              		.loc 5 27 5 is_stmt 1 view .LVU189
 541              	.LBB115:
 542              	.LBB116:
 543              		.loc 5 28 110 is_stmt 0 view .LVU190
 544 0286 83F88013 		strb	r1, [r3, #896]
 545 028a 83F881C3 		strb	ip, [r3, #897]
 546 028e 83F88213 		strb	r1, [r3, #898]
 547 0292 C3EDE15A 		vstr.32	s11, [r3, #900]
 548 0296 C3F88823 		str	r2, [r3, #904]	@ float
 549 029a C3F88C23 		str	r2, [r3, #908]	@ float
 550 029e C3F89023 		str	r2, [r3, #912]	@ float
 551 02a2 C3F8A823 		str	r2, [r3, #936]	@ float
 552 02a6 C3F8AC23 		str	r2, [r3, #940]	@ float
 553              		.loc 5 28 40 view .LVU191
 554 02aa 03F12806 		add	r6, r3, #40
 555 02ae C3F8B863 		str	r6, [r3, #952]
 556              		.loc 5 28 59 view .LVU192
 557 02b2 03F58476 		add	r6, r3, #264
 558 02b6 C3F8BC63 		str	r6, [r3, #956]
 559              		.loc 5 28 94 view .LVU193
 560 02ba 03F59676 		add	r6, r3, #300
 561 02be C3F8C063 		str	r6, [r3, #960]
 562              		.loc 5 28 110 view .LVU194
 563 02c2 A3F8C843 		strh	r4, [r3, #968]	@ movhi
 564 02c6 C3F8CCE3 		str	lr, [r3, #972]	@ float
ARM GAS  /tmp/cc0AM0z6.s 			page 19


 565 02ca C3F8D0E3 		str	lr, [r3, #976]	@ float
 566 02ce 83F8D413 		strb	r1, [r3, #980]
 567              		.loc 5 28 11 view .LVU195
 568 02d2 C3F82404 		str	r0, [r3, #1060]
 569              		.loc 5 28 110 view .LVU196
 570 02d6 83F828C4 		strb	ip, [r3, #1064]
 571 02da 03F24440 		addw	r0, r3, #1092
 572 02de 0260     		str	r2, [r0]	@ float
 573 02e0 03F58960 		add	r0, r3, #1096
 574 02e4 0260     		str	r2, [r0]	@ float
 575              	.LVL17:
 576              	.LBB117:
 577              	.LBI117:
 578              		.loc 6 36 5 is_stmt 1 view .LVU197
 579              	.LBB118:
 580              	.LBB119:
 581              		.loc 6 36 43 is_stmt 0 view .LVU198
 582 02e6 03F58A60 		add	r0, r3, #1104
 583 02ea 80ED006B 		vstr.64	d6, [r0]
 584              		.loc 6 36 59 view .LVU199
 585 02ee 03F58C60 		add	r0, r3, #1120
 586 02f2 00ED027B 		vstr.64	d7, [r0, #-8]
 587              	.LVL18:
 588              		.loc 6 36 59 view .LVU200
 589              	.LBE119:
 590              	.LBE118:
 591              	.LBE117:
 592              	.LBE116:
 593              	.LBE115:
 594              	.LBE114:
 595              	.LBB120:
 596              	.LBI120:
  27:My_Top/Motor_Control/DcMotor_ClosedLoop.hpp ****         : _motor_config(motor_config), _encoder(encoder), pid_speed_incparam(pid_inc_param) ,pid_lo
 597              		.loc 5 27 5 is_stmt 1 view .LVU201
 598              	.LBB121:
 599              	.LBB122:
 600              		.loc 5 28 110 is_stmt 0 view .LVU202
 601 02f6 83F86014 		strb	r1, [r3, #1120]
 602 02fa 83F861C4 		strb	ip, [r3, #1121]
 603 02fe 83F86214 		strb	r1, [r3, #1122]
 604 0302 C0ED015A 		vstr.32	s11, [r0, #4]
 605 0306 8260     		str	r2, [r0, #8]	@ float
 606 0308 C260     		str	r2, [r0, #12]	@ float
 607 030a 0261     		str	r2, [r0, #16]	@ float
 608 030c 8262     		str	r2, [r0, #40]	@ float
 609 030e C262     		str	r2, [r0, #44]	@ float
 610              		.loc 5 28 40 view .LVU203
 611 0310 03F13C06 		add	r6, r3, #60
 612 0314 C3F89864 		str	r6, [r3, #1176]
 613              		.loc 5 28 59 view .LVU204
 614 0318 03F5B276 		add	r6, r3, #356
 615 031c C3F89C64 		str	r6, [r3, #1180]
 616              		.loc 5 28 94 view .LVU205
 617 0320 03F5C476 		add	r6, r3, #392
 618 0324 C3F8A064 		str	r6, [r3, #1184]
 619              		.loc 5 28 110 view .LVU206
 620 0328 A3F8A844 		strh	r4, [r3, #1192]	@ movhi
ARM GAS  /tmp/cc0AM0z6.s 			page 20


 621 032c C0F84CE0 		str	lr, [r0, #76]	@ float
 622 0330 C0F850E0 		str	lr, [r0, #80]	@ float
 623 0334 83F8B414 		strb	r1, [r3, #1204]
 624              		.loc 5 28 11 view .LVU207
 625 0338 C3F80455 		str	r5, [r3, #1284]
 626              		.loc 5 28 110 view .LVU208
 627 033c 83F808C5 		strb	ip, [r3, #1288]
 628 0340 C0F8C420 		str	r2, [r0, #196]	@ float
 629 0344 C0F8C820 		str	r2, [r0, #200]	@ float
 630              	.LVL19:
 631              	.LBB123:
 632              	.LBI123:
 633              		.loc 6 36 5 is_stmt 1 view .LVU209
 634              	.LBB124:
 635              	.LBB125:
 636              		.loc 6 36 43 is_stmt 0 view .LVU210
 637 0348 80ED346B 		vstr.64	d6, [r0, #208]
 638              		.loc 6 36 59 view .LVU211
 639 034c 80ED367B 		vstr.64	d7, [r0, #216]
 640              	.LVL20:
 641              		.loc 6 36 59 view .LVU212
 642              	.LBE125:
 643              	.LBE124:
 644              	.LBE123:
 645              	.LBE122:
 646              	.LBE121:
 647              	.LBE120:
 648              		.loc 1 223 1 view .LVU213
 649 0350 BDE8F081 		pop	{r4, r5, r6, r7, r8, pc}
 650              	.L4:
 651 0354 AFF30080 		.align	3
 652              	.L3:
 653 0358 00000000 		.word	0
 654 035c 00004E40 		.word	1078853632
 655 0360 75DF86D0 		.word	-796467339
 656 0364 2C229C40 		.word	1083974188
 657 0368 00000000 		.word	.LANCHOR0
 658 036c 00000000 		.word	M2_PWM
 659 0370 00000000 		.word	M3_PWM
 660 0374 00000000 		.word	M4_PWM
 661 0378 6F128339 		.word	964891247
 662 037c CDCC4C3F 		.word	1061997773
 663 0380 CDCC4CBF 		.word	-1085485875
 664 0384 0000A041 		.word	1101004800
 665 0388 0000A0C1 		.word	-1046478848
 666 038c 00401C46 		.word	1176256512
 667 0390 00000000 		.word	M1_PWM
 668 0394 6F12833A 		.word	981668463
 669 0398 000080BF 		.word	-1082130432
 670              		.cfi_endproc
 671              	.LFE1506:
 673              		.section	.text._ZN3PID6updateEf,"axG",%progbits,_ZN3PID6updateEf,comdat
 674              		.align	1
 675              		.weak	_ZN3PID6updateEf
 676              		.syntax unified
 677              		.thumb
 678              		.thumb_func
ARM GAS  /tmp/cc0AM0z6.s 			page 21


 680              	_ZN3PID6updateEf:
 681              	.LVL21:
 682              	.LFB3:
  15:Lib/compute/pid/pid.hpp **** 
  16:Lib/compute/pid/pid.hpp ****     float _kp; // µ»öõŠŗÕó×ńøŖ
  17:Lib/compute/pid/pid.hpp ****     float _ki; // ń¦»ÕłåÕó×ńøŖ
  18:Lib/compute/pid/pid.hpp ****     float _kd; // ÕŠ«ÕłåÕó×ńøŖ
  19:Lib/compute/pid/pid.hpp ****     float _dt; // ķććµĀĘµŚČķŚ┤
  20:Lib/compute/pid/pid.hpp ****     float _i_max; //
  21:Lib/compute/pid/pid.hpp **** 
  22:Lib/compute/pid/pid.hpp ****     float _max; // ĶŠōÕć║õĖŖķÖÉ
  23:Lib/compute/pid/pid.hpp ****     float _min; // ĶŠōÕć║õĖŗķÖÉ
  24:Lib/compute/pid/pid.hpp ****     float _error; // ÕĮōÕēŹĶ»»ÕĘ«
  25:Lib/compute/pid/pid.hpp ****     float _prev_error; // õĖŖõĖĆµ¼ĪĶ»»ÕĘ«
  26:Lib/compute/pid/pid.hpp **** 
  27:Lib/compute/pid/pid.hpp **** 
  28:Lib/compute/pid/pid.hpp ****     float update(float error)
 683              		.loc 4 28 11 is_stmt 1 view -0
 684              		.cfi_startproc
 685              		@ args = 0, pretend = 0, frame = 0
 686              		@ frame_needed = 0, uses_anonymous_args = 0
 687              		@ link register save eliminated.
  29:Lib/compute/pid/pid.hpp ****     {
  30:Lib/compute/pid/pid.hpp ****         _error = error;
 688              		.loc 4 30 9 view .LVU215
 689              		.loc 4 30 16 is_stmt 0 view .LVU216
 690 0000 80ED070A 		vstr.32	s0, [r0, #28]
  31:Lib/compute/pid/pid.hpp **** 
  32:Lib/compute/pid/pid.hpp ****         P_OUT = _kp * _error; 
 691              		.loc 4 32 9 is_stmt 1 view .LVU217
 692              		.loc 4 32 17 is_stmt 0 view .LVU218
 693 0004 D0ED007A 		vldr.32	s15, [r0]
 694              		.loc 4 32 21 view .LVU219
 695 0008 67EE807A 		vmul.f32	s15, s15, s0
 696              		.loc 4 32 15 view .LVU220
 697 000c C0ED097A 		vstr.32	s15, [r0, #36]
  33:Lib/compute/pid/pid.hpp **** 
  34:Lib/compute/pid/pid.hpp ****         I_OUT += _ki * _error*_dt;
 698              		.loc 4 34 9 is_stmt 1 view .LVU221
 699 0010 D0ED0A6A 		vldr.32	s13, [r0, #40]
 700              		.loc 4 34 18 is_stmt 0 view .LVU222
 701 0014 90ED017A 		vldr.32	s14, [r0, #4]
 702              		.loc 4 34 22 view .LVU223
 703 0018 27EE007A 		vmul.f32	s14, s14, s0
 704              		.loc 4 34 31 view .LVU224
 705 001c 90ED036A 		vldr.32	s12, [r0, #12]
 706              		.loc 4 34 30 view .LVU225
 707 0020 27EE067A 		vmul.f32	s14, s14, s12
 708              		.loc 4 34 15 view .LVU226
 709 0024 76EE876A 		vadd.f32	s13, s13, s14
 710 0028 C0ED0A6A 		vstr.32	s13, [r0, #40]
  35:Lib/compute/pid/pid.hpp ****         if (I_OUT>=_i_max) I_OUT = _i_max;
 711              		.loc 4 35 9 is_stmt 1 view .LVU227
 712              		.loc 4 35 20 is_stmt 0 view .LVU228
 713 002c 90ED047A 		vldr.32	s14, [r0, #16]
 714              		.loc 4 35 9 view .LVU229
 715 0030 F4EEC76A 		vcmpe.f32	s13, s14
ARM GAS  /tmp/cc0AM0z6.s 			page 22


 716 0034 F1EE10FA 		vmrs	APSR_nzcv, FPSCR
 717 0038 01DB     		blt	.L6
 718              		.loc 4 35 28 is_stmt 1 discriminator 1 view .LVU230
 719              		.loc 4 35 34 is_stmt 0 discriminator 1 view .LVU231
 720 003a 80ED0A7A 		vstr.32	s14, [r0, #40]
 721              	.L6:
  36:Lib/compute/pid/pid.hpp ****         if (I_OUT<=-_i_max) I_OUT = -_i_max;
 722              		.loc 4 36 9 is_stmt 1 view .LVU232
 723              		.loc 4 36 13 is_stmt 0 view .LVU233
 724 003e D0ED0A6A 		vldr.32	s13, [r0, #40]
 725              		.loc 4 36 20 view .LVU234
 726 0042 B1EE477A 		vneg.f32	s14, s14
 727              		.loc 4 36 9 view .LVU235
 728 0046 F4EEC76A 		vcmpe.f32	s13, s14
 729 004a F1EE10FA 		vmrs	APSR_nzcv, FPSCR
 730 004e 01D8     		bhi	.L8
 731              		.loc 4 36 29 is_stmt 1 discriminator 1 view .LVU236
 732              		.loc 4 36 35 is_stmt 0 discriminator 1 view .LVU237
 733 0050 80ED0A7A 		vstr.32	s14, [r0, #40]
 734              	.L8:
  37:Lib/compute/pid/pid.hpp **** 
  38:Lib/compute/pid/pid.hpp ****         D_OUT = _kd * (_error - _prev_error)/_dt;
 735              		.loc 4 38 9 is_stmt 1 view .LVU238
 736              		.loc 4 38 17 is_stmt 0 view .LVU239
 737 0054 D0ED026A 		vldr.32	s13, [r0, #8]
 738              		.loc 4 38 33 view .LVU240
 739 0058 90ED087A 		vldr.32	s14, [r0, #32]
 740              		.loc 4 38 31 view .LVU241
 741 005c 30EE477A 		vsub.f32	s14, s0, s14
 742              		.loc 4 38 21 view .LVU242
 743 0060 66EE876A 		vmul.f32	s13, s13, s14
 744              		.loc 4 38 45 view .LVU243
 745 0064 86EE867A 		vdiv.f32	s14, s13, s12
 746              		.loc 4 38 15 view .LVU244
 747 0068 80ED0B7A 		vstr.32	s14, [r0, #44]
  39:Lib/compute/pid/pid.hpp ****         // Calculate output
  40:Lib/compute/pid/pid.hpp ****         _output = P_OUT + I_OUT + D_OUT; //???
 748              		.loc 4 40 9 is_stmt 1 view .LVU245
 749              		.loc 4 40 27 is_stmt 0 view .LVU246
 750 006c D0ED0A6A 		vldr.32	s13, [r0, #40]
 751              		.loc 4 40 25 view .LVU247
 752 0070 77EEA67A 		vadd.f32	s15, s15, s13
 753              		.loc 4 40 33 view .LVU248
 754 0074 77EE277A 		vadd.f32	s15, s14, s15
 755              		.loc 4 40 17 view .LVU249
 756 0078 C0ED0C7A 		vstr.32	s15, [r0, #48]
  41:Lib/compute/pid/pid.hpp **** 
  42:Lib/compute/pid/pid.hpp ****         // Clamp output
  43:Lib/compute/pid/pid.hpp ****         if (_output > _max)
 757              		.loc 4 43 9 is_stmt 1 view .LVU250
 758              		.loc 4 43 23 is_stmt 0 view .LVU251
 759 007c 90ED057A 		vldr.32	s14, [r0, #20]
 760              		.loc 4 43 9 view .LVU252
 761 0080 F4EEC77A 		vcmpe.f32	s15, s14
 762 0084 F1EE10FA 		vmrs	APSR_nzcv, FPSCR
 763 0088 06DD     		ble	.L18
  44:Lib/compute/pid/pid.hpp ****         {
ARM GAS  /tmp/cc0AM0z6.s 			page 23


  45:Lib/compute/pid/pid.hpp ****             _output = _max;
 764              		.loc 4 45 13 is_stmt 1 view .LVU253
 765              		.loc 4 45 21 is_stmt 0 view .LVU254
 766 008a 80ED0C7A 		vstr.32	s14, [r0, #48]
 767              	.L12:
  46:Lib/compute/pid/pid.hpp ****             // max_out_flag = true; // Ķ«ŠńĮ«ĶŠōÕć║õĖŖķÖÉµĀćÕ┐ŚõĮŹ 
  47:Lib/compute/pid/pid.hpp ****         }else if (_output < _min)
  48:Lib/compute/pid/pid.hpp ****         {
  49:Lib/compute/pid/pid.hpp ****             _output = _min;
  50:Lib/compute/pid/pid.hpp ****             // max_out_flag = true; // Ķ«ŠńĮ«ĶŠōÕć║õĖŖķÖÉµĀćÕ┐ŚõĮŹ
  51:Lib/compute/pid/pid.hpp ****         }
  52:Lib/compute/pid/pid.hpp ****         _prev_error = _error;
 768              		.loc 4 52 9 is_stmt 1 view .LVU255
 769              		.loc 4 52 21 is_stmt 0 view .LVU256
 770 008e 80ED080A 		vstr.32	s0, [r0, #32]
  53:Lib/compute/pid/pid.hpp **** 
  54:Lib/compute/pid/pid.hpp ****         return _output;
 771              		.loc 4 54 9 is_stmt 1 view .LVU257
  55:Lib/compute/pid/pid.hpp ****     }
 772              		.loc 4 55 5 is_stmt 0 view .LVU258
 773 0092 90ED0C0A 		vldr.32	s0, [r0, #48]
 774              	.LVL22:
 775              		.loc 4 55 5 view .LVU259
 776 0096 7047     		bx	lr
 777              	.LVL23:
 778              	.L18:
  47:Lib/compute/pid/pid.hpp ****         {
 779              		.loc 4 47 15 is_stmt 1 view .LVU260
  47:Lib/compute/pid/pid.hpp ****         {
 780              		.loc 4 47 29 is_stmt 0 view .LVU261
 781 0098 90ED067A 		vldr.32	s14, [r0, #24]
  47:Lib/compute/pid/pid.hpp ****         {
 782              		.loc 4 47 15 view .LVU262
 783 009c F4EEC77A 		vcmpe.f32	s15, s14
 784 00a0 F1EE10FA 		vmrs	APSR_nzcv, FPSCR
 785 00a4 F3D5     		bpl	.L12
  49:Lib/compute/pid/pid.hpp ****             // max_out_flag = true; // Ķ«ŠńĮ«ĶŠōÕć║õĖŖķÖÉµĀćÕ┐ŚõĮŹ
 786              		.loc 4 49 13 is_stmt 1 view .LVU263
  49:Lib/compute/pid/pid.hpp ****             // max_out_flag = true; // Ķ«ŠńĮ«ĶŠōÕć║õĖŖķÖÉµĀćÕ┐ŚõĮŹ
 787              		.loc 4 49 21 is_stmt 0 view .LVU264
 788 00a6 80ED0C7A 		vstr.32	s14, [r0, #48]
 789 00aa F0E7     		b	.L12
 790              		.cfi_endproc
 791              	.LFE3:
 793              		.section	.text._ZN13PID_Increment6updateEf,"axG",%progbits,_ZN13PID_Increment6updateEf,comdat
 794              		.align	1
 795              		.weak	_ZN13PID_Increment6updateEf
 796              		.syntax unified
 797              		.thumb
 798              		.thumb_func
 800              	_ZN13PID_Increment6updateEf:
 801              	.LVL24:
 802              	.LFB11:
  39:Lib/compute/pid/pid_Increment.hpp ****     }
  40:Lib/compute/pid/pid_Increment.hpp **** 
  41:Lib/compute/pid/pid_Increment.hpp ****     // ============================================================
  42:Lib/compute/pid/pid_Increment.hpp ****     // µĀĖÕ┐āµø┤µ¢░ÕćĮµĢ░
ARM GAS  /tmp/cc0AM0z6.s 			page 24


  43:Lib/compute/pid/pid_Increment.hpp ****     // @error: ÕĮōÕēŹĶ»»ÕĘ« e(k)
  44:Lib/compute/pid/pid_Increment.hpp ****     // @return: ķÖÉÕ╣ģÕÉÄńÜäĶŠōÕć║ÕĆ╝ u(k)
  45:Lib/compute/pid/pid_Increment.hpp ****     // ============================================================
  46:Lib/compute/pid/pid_Increment.hpp ****     float update(float error) 
 803              		.loc 3 46 11 is_stmt 1 view -0
 804              		.cfi_startproc
 805              		@ args = 0, pretend = 0, frame = 0
 806              		@ frame_needed = 0, uses_anonymous_args = 0
 807              		@ link register save eliminated.
  47:Lib/compute/pid/pid_Increment.hpp ****     {                         
  48:Lib/compute/pid/pid_Increment.hpp ****         
  49:Lib/compute/pid/pid_Increment.hpp ****         // ╬öu = Kp * (e - e_prev) + Ki * T * e + (Kd / T) * (e - 2*e_prev + e_prev2)
  50:Lib/compute/pid/pid_Increment.hpp ****         float p_term = _kp * (error - _e_prev);
 808              		.loc 3 50 9 view .LVU266
 809              		.loc 3 50 24 is_stmt 0 view .LVU267
 810 0000 D0ED007A 		vldr.32	s15, [r0]
 811              		.loc 3 50 39 view .LVU268
 812 0004 90ED066A 		vldr.32	s12, [r0, #24]
 813              		.loc 3 50 37 view .LVU269
 814 0008 30EE467A 		vsub.f32	s14, s0, s12
 815              		.loc 3 50 15 view .LVU270
 816 000c 67EE877A 		vmul.f32	s15, s15, s14
 817              	.LVL25:
  51:Lib/compute/pid/pid_Increment.hpp ****         float i_term = _ki * _dt * error;
 818              		.loc 3 51 9 is_stmt 1 view .LVU271
 819              		.loc 3 51 24 is_stmt 0 view .LVU272
 820 0010 90ED017A 		vldr.32	s14, [r0, #4]
 821              		.loc 3 51 30 view .LVU273
 822 0014 D0ED036A 		vldr.32	s13, [r0, #12]
 823              		.loc 3 51 28 view .LVU274
 824 0018 27EE267A 		vmul.f32	s14, s14, s13
 825              		.loc 3 51 15 view .LVU275
 826 001c 27EE007A 		vmul.f32	s14, s14, s0
 827              	.LVL26:
  52:Lib/compute/pid/pid_Increment.hpp ****         float d_term = (_kd / _dt) * (error - 2.0f * _e_prev + _e_prev2);
 828              		.loc 3 52 9 is_stmt 1 view .LVU276
 829              		.loc 3 52 25 is_stmt 0 view .LVU277
 830 0020 90ED025A 		vldr.32	s10, [r0, #8]
 831              		.loc 3 52 29 view .LVU278
 832 0024 C5EE265A 		vdiv.f32	s11, s10, s13
 833              		.loc 3 52 52 view .LVU279
 834 0028 76EE066A 		vadd.f32	s13, s12, s12
 835              		.loc 3 52 45 view .LVU280
 836 002c 70EE666A 		vsub.f32	s13, s0, s13
 837              		.loc 3 52 64 view .LVU281
 838 0030 90ED075A 		vldr.32	s10, [r0, #28]
 839              		.loc 3 52 62 view .LVU282
 840 0034 76EE856A 		vadd.f32	s13, s13, s10
 841              		.loc 3 52 15 view .LVU283
 842 0038 65EEA66A 		vmul.f32	s13, s11, s13
 843              	.LVL27:
  53:Lib/compute/pid/pid_Increment.hpp **** 
  54:Lib/compute/pid/pid_Increment.hpp ****         _delta_u = p_term + i_term + d_term; // Ķ«Īń«ŚÕó×ķćÅ
 844              		.loc 3 54 9 is_stmt 1 view .LVU284
 845              		.loc 3 54 27 is_stmt 0 view .LVU285
 846 003c 77EE877A 		vadd.f32	s15, s15, s14
 847              	.LVL28:
ARM GAS  /tmp/cc0AM0z6.s 			page 25


 848              		.loc 3 54 36 view .LVU286
 849 0040 77EEA67A 		vadd.f32	s15, s15, s13
 850              		.loc 3 54 18 view .LVU287
 851 0044 C0ED087A 		vstr.32	s15, [r0, #32]
  55:Lib/compute/pid/pid_Increment.hpp **** 
  56:Lib/compute/pid/pid_Increment.hpp ****         // ķÖÉÕ╣ģÕó×ķćÅĶŠōÕć║
  57:Lib/compute/pid/pid_Increment.hpp ****         if (_delta_u > _max)
 852              		.loc 3 57 9 is_stmt 1 view .LVU288
 853              		.loc 3 57 24 is_stmt 0 view .LVU289
 854 0048 90ED047A 		vldr.32	s14, [r0, #16]
 855              	.LVL29:
 856              		.loc 3 57 9 view .LVU290
 857 004c F4EEC77A 		vcmpe.f32	s15, s14
 858 0050 F1EE10FA 		vmrs	APSR_nzcv, FPSCR
 859 0054 08DD     		ble	.L26
  58:Lib/compute/pid/pid_Increment.hpp ****             _delta_u = _max;
 860              		.loc 3 58 13 is_stmt 1 view .LVU291
 861              		.loc 3 58 22 is_stmt 0 view .LVU292
 862 0056 80ED087A 		vstr.32	s14, [r0, #32]
 863              	.L22:
  59:Lib/compute/pid/pid_Increment.hpp ****         else if (_delta_u < _min)
  60:Lib/compute/pid/pid_Increment.hpp ****             _delta_u = _min;
  61:Lib/compute/pid/pid_Increment.hpp **** 
  62:Lib/compute/pid/pid_Increment.hpp ****         // µø┤µ¢░Ķ»»ÕĘ«ÕÄåÕÅ▓
  63:Lib/compute/pid/pid_Increment.hpp ****         _e_prev2 = _e_prev; //µø┤µ¢░õĖŖõĖŖµ¼ĪĶ»»ÕĘ«
 864              		.loc 3 63 9 is_stmt 1 view .LVU293
 865              		.loc 3 63 18 is_stmt 0 view .LVU294
 866 005a 80ED076A 		vstr.32	s12, [r0, #28]
  64:Lib/compute/pid/pid_Increment.hpp ****         _e_prev  = error; //µø┤µ¢░õĖŖõĖĆµ¼ĪĶ»»ÕĘ«
 867              		.loc 3 64 9 is_stmt 1 view .LVU295
 868              		.loc 3 64 18 is_stmt 0 view .LVU296
 869 005e 80ED060A 		vstr.32	s0, [r0, #24]
  65:Lib/compute/pid/pid_Increment.hpp **** 
  66:Lib/compute/pid/pid_Increment.hpp ****         return _delta_u; // Ķ┐öÕø×Õó×ķćÅĶŠōÕć║
 870              		.loc 3 66 9 is_stmt 1 view .LVU297
  67:Lib/compute/pid/pid_Increment.hpp ****     }
 871              		.loc 3 67 5 is_stmt 0 view .LVU298
 872 0062 90ED080A 		vldr.32	s0, [r0, #32]
 873              	.LVL30:
 874              		.loc 3 67 5 view .LVU299
 875 0066 7047     		bx	lr
 876              	.LVL31:
 877              	.L26:
  59:Lib/compute/pid/pid_Increment.hpp ****             _delta_u = _min;
 878              		.loc 3 59 14 is_stmt 1 view .LVU300
  59:Lib/compute/pid/pid_Increment.hpp ****             _delta_u = _min;
 879              		.loc 3 59 29 is_stmt 0 view .LVU301
 880 0068 90ED057A 		vldr.32	s14, [r0, #20]
  59:Lib/compute/pid/pid_Increment.hpp ****             _delta_u = _min;
 881              		.loc 3 59 14 view .LVU302
 882 006c F4EEC77A 		vcmpe.f32	s15, s14
 883 0070 F1EE10FA 		vmrs	APSR_nzcv, FPSCR
 884 0074 F1D5     		bpl	.L22
  60:Lib/compute/pid/pid_Increment.hpp **** 
 885              		.loc 3 60 13 is_stmt 1 view .LVU303
  60:Lib/compute/pid/pid_Increment.hpp **** 
 886              		.loc 3 60 22 is_stmt 0 view .LVU304
ARM GAS  /tmp/cc0AM0z6.s 			page 26


 887 0076 80ED087A 		vstr.32	s14, [r0, #32]
 888 007a EEE7     		b	.L22
 889              		.cfi_endproc
 890              	.LFE11:
 892              		.text
 893              		.align	1
 894              		.global	_ZN8DC_Motor9test_lajiEv
 895              		.syntax unified
 896              		.thumb
 897              		.thumb_func
 899              	_ZN8DC_Motor9test_lajiEv:
 900              	.LVL32:
 901              	.LFB1347:
  33:My_Top/Motor_Control/DcMotor_ClosedLoop.cpp ****    
 902              		.loc 1 33 1 is_stmt 1 view -0
 903              		.cfi_startproc
 904              		@ args = 0, pretend = 0, frame = 0
 905              		@ frame_needed = 0, uses_anonymous_args = 0
  33:My_Top/Motor_Control/DcMotor_ClosedLoop.cpp ****    
 906              		.loc 1 33 1 is_stmt 0 view .LVU306
 907 039c 10B5     		push	{r4, lr}
 908              		.cfi_def_cfa_offset 8
 909              		.cfi_offset 4, -8
 910              		.cfi_offset 14, -4
  35:My_Top/Motor_Control/DcMotor_ClosedLoop.cpp ****     __HAL_TIM_SET_COMPARE(&htim1, TIM_CHANNEL_1, 100);//Ķ«ŠńĮ«õĖŖµĪźĶćéÕŹĀń®║µ»ö 
 911              		.loc 1 35 5 is_stmt 1 view .LVU307
  35:My_Top/Motor_Control/DcMotor_ClosedLoop.cpp ****     __HAL_TIM_SET_COMPARE(&htim1, TIM_CHANNEL_1, 100);//Ķ«ŠńĮ«õĖŖµĪźĶćéÕŹĀń®║µ»ö 
 912              		.loc 1 35 5 view .LVU308
 913 039e 0C4C     		ldr	r4, .L29
 914 03a0 2268     		ldr	r2, [r4]
 915 03a2 6423     		movs	r3, #100
 916 03a4 D362     		str	r3, [r2, #44]
  35:My_Top/Motor_Control/DcMotor_ClosedLoop.cpp ****     __HAL_TIM_SET_COMPARE(&htim1, TIM_CHANNEL_1, 100);//Ķ«ŠńĮ«õĖŖµĪźĶćéÕŹĀń®║µ»ö 
 917              		.loc 1 35 5 view .LVU309
 918 03a6 E360     		str	r3, [r4, #12]
  35:My_Top/Motor_Control/DcMotor_ClosedLoop.cpp ****     __HAL_TIM_SET_COMPARE(&htim1, TIM_CHANNEL_1, 100);//Ķ«ŠńĮ«õĖŖµĪźĶćéÕŹĀń®║µ»ö 
 919              		.loc 1 35 5 view .LVU310
  36:My_Top/Motor_Control/DcMotor_ClosedLoop.cpp ****     __HAL_TIM_SET_COMPARE(&htim1, TIM_CHANNEL_2, 100);//Ķ«ŠńĮ«õĖŗµĪźĶćéÕŹĀń®║µ»ö
 920              		.loc 1 36 5 view .LVU311
 921 03a8 5363     		str	r3, [r2, #52]
  37:My_Top/Motor_Control/DcMotor_ClosedLoop.cpp ****     HAL_TIM_PWM_Start(&htim1, TIM_CHANNEL_1);
 922              		.loc 1 37 5 view .LVU312
 923 03aa 9363     		str	r3, [r2, #56]
  38:My_Top/Motor_Control/DcMotor_ClosedLoop.cpp ****     HAL_TIMEx_PWMN_Start(&htim1, TIM_CHANNEL_1);
 924              		.loc 1 38 5 view .LVU313
  38:My_Top/Motor_Control/DcMotor_ClosedLoop.cpp ****     HAL_TIMEx_PWMN_Start(&htim1, TIM_CHANNEL_1);
 925              		.loc 1 38 22 is_stmt 0 view .LVU314
 926 03ac 0021     		movs	r1, #0
 927 03ae 2046     		mov	r0, r4
 928              	.LVL33:
  38:My_Top/Motor_Control/DcMotor_ClosedLoop.cpp ****     HAL_TIMEx_PWMN_Start(&htim1, TIM_CHANNEL_1);
 929              		.loc 1 38 22 view .LVU315
 930 03b0 FFF7FEFF 		bl	HAL_TIM_PWM_Start
 931              	.LVL34:
  39:My_Top/Motor_Control/DcMotor_ClosedLoop.cpp ****     HAL_TIM_PWM_Start(&htim1, TIM_CHANNEL_2);
 932              		.loc 1 39 5 is_stmt 1 view .LVU316
  39:My_Top/Motor_Control/DcMotor_ClosedLoop.cpp ****     HAL_TIM_PWM_Start(&htim1, TIM_CHANNEL_2);
ARM GAS  /tmp/cc0AM0z6.s 			page 27


 933              		.loc 1 39 25 is_stmt 0 view .LVU317
 934 03b4 0021     		movs	r1, #0
 935 03b6 2046     		mov	r0, r4
 936 03b8 FFF7FEFF 		bl	HAL_TIMEx_PWMN_Start
 937              	.LVL35:
  40:My_Top/Motor_Control/DcMotor_ClosedLoop.cpp ****     HAL_TIMEx_PWMN_Start(&htim1, TIM_CHANNEL_2);
 938              		.loc 1 40 5 is_stmt 1 view .LVU318
  40:My_Top/Motor_Control/DcMotor_ClosedLoop.cpp ****     HAL_TIMEx_PWMN_Start(&htim1, TIM_CHANNEL_2);
 939              		.loc 1 40 22 is_stmt 0 view .LVU319
 940 03bc 0421     		movs	r1, #4
 941 03be 2046     		mov	r0, r4
 942 03c0 FFF7FEFF 		bl	HAL_TIM_PWM_Start
 943              	.LVL36:
  41:My_Top/Motor_Control/DcMotor_ClosedLoop.cpp **** }
 944              		.loc 1 41 5 is_stmt 1 view .LVU320
  41:My_Top/Motor_Control/DcMotor_ClosedLoop.cpp **** }
 945              		.loc 1 41 25 is_stmt 0 view .LVU321
 946 03c4 0421     		movs	r1, #4
 947 03c6 2046     		mov	r0, r4
 948 03c8 FFF7FEFF 		bl	HAL_TIMEx_PWMN_Start
 949              	.LVL37:
  42:My_Top/Motor_Control/DcMotor_ClosedLoop.cpp **** 
 950              		.loc 1 42 1 view .LVU322
 951 03cc 10BD     		pop	{r4, pc}
 952              	.L30:
 953 03ce 00BF     		.align	2
 954              	.L29:
 955 03d0 00000000 		.word	htim1
 956              		.cfi_endproc
 957              	.LFE1347:
 959              		.align	1
 960              		.global	_ZN8DC_Motor8Motor_ENEb
 961              		.syntax unified
 962              		.thumb
 963              		.thumb_func
 965              	_ZN8DC_Motor8Motor_ENEb:
 966              	.LVL38:
 967              	.LFB1351:
 128:My_Top/Motor_Control/DcMotor_ClosedLoop.cpp ****     if (en == _motor_is_on_last) return;  // ńŖČµĆüµ▓ĪÕÅś’╝īĶĘ│Ķ┐ć
 968              		.loc 1 128 1 is_stmt 1 view -0
 969              		.cfi_startproc
 970              		@ args = 0, pretend = 0, frame = 0
 971              		@ frame_needed = 0, uses_anonymous_args = 0
 129:My_Top/Motor_Control/DcMotor_ClosedLoop.cpp ****     _motor_is_on_last = en;
 972              		.loc 1 129 5 view .LVU324
 129:My_Top/Motor_Control/DcMotor_ClosedLoop.cpp ****     _motor_is_on_last = en;
 973              		.loc 1 129 15 is_stmt 0 view .LVU325
 974 03d4 90F85430 		ldrb	r3, [r0, #84]	@ zero_extendqisi2
 129:My_Top/Motor_Control/DcMotor_ClosedLoop.cpp ****     _motor_is_on_last = en;
 975              		.loc 1 129 5 view .LVU326
 976 03d8 8B42     		cmp	r3, r1
 977 03da 36D0     		beq	.L35
 128:My_Top/Motor_Control/DcMotor_ClosedLoop.cpp ****     if (en == _motor_is_on_last) return;  // ńŖČµĆüµ▓ĪÕÅś’╝īĶĘ│Ķ┐ć
 978              		.loc 1 128 1 view .LVU327
 979 03dc 10B5     		push	{r4, lr}
 980              		.cfi_def_cfa_offset 8
 981              		.cfi_offset 4, -8
ARM GAS  /tmp/cc0AM0z6.s 			page 28


 982              		.cfi_offset 14, -4
 983 03de 0446     		mov	r4, r0
 130:My_Top/Motor_Control/DcMotor_ClosedLoop.cpp **** 
 984              		.loc 1 130 5 is_stmt 1 view .LVU328
 130:My_Top/Motor_Control/DcMotor_ClosedLoop.cpp **** 
 985              		.loc 1 130 23 is_stmt 0 view .LVU329
 986 03e0 80F85410 		strb	r1, [r0, #84]
 132:My_Top/Motor_Control/DcMotor_ClosedLoop.cpp ****     {
 987              		.loc 1 132 5 is_stmt 1 view .LVU330
 988 03e4 C1B1     		cbz	r1, .L33
 134:My_Top/Motor_Control/DcMotor_ClosedLoop.cpp ****         HAL_TIMEx_PWMN_Start(_motor_config->htim, _motor_config->ch_hin1);
 989              		.loc 1 134 9 view .LVU331
 134:My_Top/Motor_Control/DcMotor_ClosedLoop.cpp ****         HAL_TIMEx_PWMN_Start(_motor_config->htim, _motor_config->ch_hin1);
 990              		.loc 1 134 27 is_stmt 0 view .LVU332
 991 03e6 D0F8A430 		ldr	r3, [r0, #164]
 134:My_Top/Motor_Control/DcMotor_ClosedLoop.cpp ****         HAL_TIMEx_PWMN_Start(_motor_config->htim, _motor_config->ch_hin1);
 992              		.loc 1 134 26 view .LVU333
 993 03ea 9968     		ldr	r1, [r3, #8]
 994              	.LVL39:
 134:My_Top/Motor_Control/DcMotor_ClosedLoop.cpp ****         HAL_TIMEx_PWMN_Start(_motor_config->htim, _motor_config->ch_hin1);
 995              		.loc 1 134 26 view .LVU334
 996 03ec 1868     		ldr	r0, [r3]
 997              	.LVL40:
 134:My_Top/Motor_Control/DcMotor_ClosedLoop.cpp ****         HAL_TIMEx_PWMN_Start(_motor_config->htim, _motor_config->ch_hin1);
 998              		.loc 1 134 26 view .LVU335
 999 03ee FFF7FEFF 		bl	HAL_TIM_PWM_Start
 1000              	.LVL41:
 135:My_Top/Motor_Control/DcMotor_ClosedLoop.cpp ****         HAL_TIM_PWM_Start(_motor_config->htim, _motor_config->ch_hin2);
 1001              		.loc 1 135 9 is_stmt 1 view .LVU336
 135:My_Top/Motor_Control/DcMotor_ClosedLoop.cpp ****         HAL_TIM_PWM_Start(_motor_config->htim, _motor_config->ch_hin2);
 1002              		.loc 1 135 30 is_stmt 0 view .LVU337
 1003 03f2 D4F8A430 		ldr	r3, [r4, #164]
 135:My_Top/Motor_Control/DcMotor_ClosedLoop.cpp ****         HAL_TIM_PWM_Start(_motor_config->htim, _motor_config->ch_hin2);
 1004              		.loc 1 135 29 view .LVU338
 1005 03f6 9968     		ldr	r1, [r3, #8]
 1006 03f8 1868     		ldr	r0, [r3]
 1007 03fa FFF7FEFF 		bl	HAL_TIMEx_PWMN_Start
 1008              	.LVL42:
 136:My_Top/Motor_Control/DcMotor_ClosedLoop.cpp ****         HAL_TIMEx_PWMN_Start(_motor_config->htim, _motor_config->ch_hin2);
 1009              		.loc 1 136 9 is_stmt 1 view .LVU339
 136:My_Top/Motor_Control/DcMotor_ClosedLoop.cpp ****         HAL_TIMEx_PWMN_Start(_motor_config->htim, _motor_config->ch_hin2);
 1010              		.loc 1 136 27 is_stmt 0 view .LVU340
 1011 03fe D4F8A430 		ldr	r3, [r4, #164]
 136:My_Top/Motor_Control/DcMotor_ClosedLoop.cpp ****         HAL_TIMEx_PWMN_Start(_motor_config->htim, _motor_config->ch_hin2);
 1012              		.loc 1 136 26 view .LVU341
 1013 0402 D968     		ldr	r1, [r3, #12]
 1014 0404 1868     		ldr	r0, [r3]
 1015 0406 FFF7FEFF 		bl	HAL_TIM_PWM_Start
 1016              	.LVL43:
 137:My_Top/Motor_Control/DcMotor_ClosedLoop.cpp ****     }else
 1017              		.loc 1 137 9 is_stmt 1 view .LVU342
 137:My_Top/Motor_Control/DcMotor_ClosedLoop.cpp ****     }else
 1018              		.loc 1 137 30 is_stmt 0 view .LVU343
 1019 040a D4F8A430 		ldr	r3, [r4, #164]
 137:My_Top/Motor_Control/DcMotor_ClosedLoop.cpp ****     }else
 1020              		.loc 1 137 29 view .LVU344
 1021 040e D968     		ldr	r1, [r3, #12]
ARM GAS  /tmp/cc0AM0z6.s 			page 29


 1022 0410 1868     		ldr	r0, [r3]
 1023 0412 FFF7FEFF 		bl	HAL_TIMEx_PWMN_Start
 1024              	.LVL44:
 1025              	.L31:
 145:My_Top/Motor_Control/DcMotor_ClosedLoop.cpp **** 
 1026              		.loc 1 145 1 view .LVU345
 1027 0416 10BD     		pop	{r4, pc}
 1028              	.LVL45:
 1029              	.L33:
 140:My_Top/Motor_Control/DcMotor_ClosedLoop.cpp ****         HAL_TIMEx_PWMN_Stop(_motor_config->htim, _motor_config->ch_hin1);
 1030              		.loc 1 140 9 is_stmt 1 view .LVU346
 140:My_Top/Motor_Control/DcMotor_ClosedLoop.cpp ****         HAL_TIMEx_PWMN_Stop(_motor_config->htim, _motor_config->ch_hin1);
 1031              		.loc 1 140 26 is_stmt 0 view .LVU347
 1032 0418 D0F8A430 		ldr	r3, [r0, #164]
 140:My_Top/Motor_Control/DcMotor_ClosedLoop.cpp ****         HAL_TIMEx_PWMN_Stop(_motor_config->htim, _motor_config->ch_hin1);
 1033              		.loc 1 140 25 view .LVU348
 1034 041c 9968     		ldr	r1, [r3, #8]
 1035              	.LVL46:
 140:My_Top/Motor_Control/DcMotor_ClosedLoop.cpp ****         HAL_TIMEx_PWMN_Stop(_motor_config->htim, _motor_config->ch_hin1);
 1036              		.loc 1 140 25 view .LVU349
 1037 041e 1868     		ldr	r0, [r3]
 1038              	.LVL47:
 140:My_Top/Motor_Control/DcMotor_ClosedLoop.cpp ****         HAL_TIMEx_PWMN_Stop(_motor_config->htim, _motor_config->ch_hin1);
 1039              		.loc 1 140 25 view .LVU350
 1040 0420 FFF7FEFF 		bl	HAL_TIM_PWM_Stop
 1041              	.LVL48:
 141:My_Top/Motor_Control/DcMotor_ClosedLoop.cpp ****         HAL_TIM_PWM_Stop(_motor_config->htim, _motor_config->ch_hin2);
 1042              		.loc 1 141 9 is_stmt 1 view .LVU351
 141:My_Top/Motor_Control/DcMotor_ClosedLoop.cpp ****         HAL_TIM_PWM_Stop(_motor_config->htim, _motor_config->ch_hin2);
 1043              		.loc 1 141 29 is_stmt 0 view .LVU352
 1044 0424 D4F8A430 		ldr	r3, [r4, #164]
 141:My_Top/Motor_Control/DcMotor_ClosedLoop.cpp ****         HAL_TIM_PWM_Stop(_motor_config->htim, _motor_config->ch_hin2);
 1045              		.loc 1 141 28 view .LVU353
 1046 0428 9968     		ldr	r1, [r3, #8]
 1047 042a 1868     		ldr	r0, [r3]
 1048 042c FFF7FEFF 		bl	HAL_TIMEx_PWMN_Stop
 1049              	.LVL49:
 142:My_Top/Motor_Control/DcMotor_ClosedLoop.cpp ****         HAL_TIMEx_PWMN_Stop(_motor_config->htim, _motor_config->ch_hin2);
 1050              		.loc 1 142 9 is_stmt 1 view .LVU354
 142:My_Top/Motor_Control/DcMotor_ClosedLoop.cpp ****         HAL_TIMEx_PWMN_Stop(_motor_config->htim, _motor_config->ch_hin2);
 1051              		.loc 1 142 26 is_stmt 0 view .LVU355
 1052 0430 D4F8A430 		ldr	r3, [r4, #164]
 142:My_Top/Motor_Control/DcMotor_ClosedLoop.cpp ****         HAL_TIMEx_PWMN_Stop(_motor_config->htim, _motor_config->ch_hin2);
 1053              		.loc 1 142 25 view .LVU356
 1054 0434 D968     		ldr	r1, [r3, #12]
 1055 0436 1868     		ldr	r0, [r3]
 1056 0438 FFF7FEFF 		bl	HAL_TIM_PWM_Stop
 1057              	.LVL50:
 143:My_Top/Motor_Control/DcMotor_ClosedLoop.cpp ****     }
 1058              		.loc 1 143 9 is_stmt 1 view .LVU357
 143:My_Top/Motor_Control/DcMotor_ClosedLoop.cpp ****     }
 1059              		.loc 1 143 29 is_stmt 0 view .LVU358
 1060 043c D4F8A430 		ldr	r3, [r4, #164]
 143:My_Top/Motor_Control/DcMotor_ClosedLoop.cpp ****     }
 1061              		.loc 1 143 28 view .LVU359
 1062 0440 D968     		ldr	r1, [r3, #12]
 1063 0442 1868     		ldr	r0, [r3]
ARM GAS  /tmp/cc0AM0z6.s 			page 30


 1064 0444 FFF7FEFF 		bl	HAL_TIMEx_PWMN_Stop
 1065              	.LVL51:
 1066 0448 E5E7     		b	.L31
 1067              	.LVL52:
 1068              	.L35:
 1069              		.cfi_def_cfa_offset 0
 1070              		.cfi_restore 4
 1071              		.cfi_restore 14
 143:My_Top/Motor_Control/DcMotor_ClosedLoop.cpp ****     }
 1072              		.loc 1 143 28 view .LVU360
 1073 044a 7047     		bx	lr
 1074              		.cfi_endproc
 1075              	.LFE1351:
 1077              		.align	1
 1078              		.global	_ZN8DC_Motor19Set_Motor_FrequencyEv
 1079              		.syntax unified
 1080              		.thumb
 1081              		.thumb_func
 1083              	_ZN8DC_Motor19Set_Motor_FrequencyEv:
 1084              	.LVL53:
 1085              	.LFB1349:
  70:My_Top/Motor_Control/DcMotor_ClosedLoop.cpp ****     bool new_dir = false;
 1086              		.loc 1 70 1 is_stmt 1 view -0
 1087              		.cfi_startproc
 1088              		@ args = 0, pretend = 0, frame = 0
 1089              		@ frame_needed = 0, uses_anonymous_args = 0
  70:My_Top/Motor_Control/DcMotor_ClosedLoop.cpp ****     bool new_dir = false;
 1090              		.loc 1 70 1 is_stmt 0 view .LVU362
 1091 044c 38B5     		push	{r3, r4, r5, lr}
 1092              		.cfi_def_cfa_offset 16
 1093              		.cfi_offset 3, -16
 1094              		.cfi_offset 4, -12
 1095              		.cfi_offset 5, -8
 1096              		.cfi_offset 14, -4
 1097 044e 2DED028B 		vpush.64	{d8}
 1098              		.cfi_def_cfa_offset 24
 1099              		.cfi_offset 80, -24
 1100              		.cfi_offset 81, -20
 1101 0452 0446     		mov	r4, r0
  71:My_Top/Motor_Control/DcMotor_ClosedLoop.cpp ****     uint32_t arr = 0;
 1102              		.loc 1 71 5 is_stmt 1 view .LVU363
 1103              	.LVL54:
  72:My_Top/Motor_Control/DcMotor_ClosedLoop.cpp ****     uint16_t Fre = (uint16_t)motor_freq;//ĶĮ¼µĢ┤µĢ░Ķ«Īń«Ś
 1104              		.loc 1 72 5 view .LVU364
  73:My_Top/Motor_Control/DcMotor_ClosedLoop.cpp ****     float up_duty = constraint_value(motor_up_duty, 0.0f, 1.0f); //ķÖÉÕłČÕŹĀń®║µ»öÕ£©0~1õ╣ŗķŚ┤
 1105              		.loc 1 73 5 view .LVU365
  73:My_Top/Motor_Control/DcMotor_ClosedLoop.cpp ****     float up_duty = constraint_value(motor_up_duty, 0.0f, 1.0f); //ķÖÉÕłČÕŹĀń®║µ»öÕ£©0~1õ╣ŗķŚ┤
 1106              		.loc 1 73 30 is_stmt 0 view .LVU366
 1107 0454 D0ED017A 		vldr.32	s15, [r0, #4]
  73:My_Top/Motor_Control/DcMotor_ClosedLoop.cpp ****     float up_duty = constraint_value(motor_up_duty, 0.0f, 1.0f); //ķÖÉÕłČÕŹĀń®║µ»öÕ£©0~1õ╣ŗķŚ┤
 1108              		.loc 1 73 14 view .LVU367
 1109 0458 FCEEE77A 		vcvt.u32.f32	s15, s15
 1110 045c 17EE903A 		vmov	r3, s15	@ int
 1111 0460 9DB2     		uxth	r5, r3
 1112              	.LVL55:
  74:My_Top/Motor_Control/DcMotor_ClosedLoop.cpp ****     float down_duty = constraint_value(motor_down_duty, 0.0f, 1.0f); //ķÖÉÕłČÕŹĀń®║µ»öÕ£©0~1õ╣ŗķŚ┤
 1113              		.loc 1 74 5 is_stmt 1 view .LVU368
ARM GAS  /tmp/cc0AM0z6.s 			page 31


  74:My_Top/Motor_Control/DcMotor_ClosedLoop.cpp ****     float down_duty = constraint_value(motor_down_duty, 0.0f, 1.0f); //ķÖÉÕłČÕŹĀń®║µ»öÕ£©0~1õ╣ŗķŚ┤
 1114              		.loc 1 74 21 is_stmt 0 view .LVU369
 1115 0462 90ED028A 		vldr.32	s16, [r0, #8]
 1116 0466 B5EEC08A 		vcmpe.f32	s16, #0
 1117 046a F1EE10FA 		vmrs	APSR_nzcv, FPSCR
 1118 046e 09D4     		bmi	.L62
  74:My_Top/Motor_Control/DcMotor_ClosedLoop.cpp ****     float down_duty = constraint_value(motor_down_duty, 0.0f, 1.0f); //ķÖÉÕłČÕŹĀń®║µ»öÕ£©0~1õ╣ŗķŚ┤
 1119              		.loc 1 74 21 discriminator 2 view .LVU370
 1120 0470 F7EE007A 		vmov.f32	s15, #1.0e+0
 1121 0474 B4EEE78A 		vcmpe.f32	s16, s15
 1122 0478 F1EE10FA 		vmrs	APSR_nzcv, FPSCR
 1123 047c 04DD     		ble	.L39
  74:My_Top/Motor_Control/DcMotor_ClosedLoop.cpp ****     float down_duty = constraint_value(motor_down_duty, 0.0f, 1.0f); //ķÖÉÕłČÕŹĀń®║µ»öÕ£©0~1õ╣ŗķŚ┤
 1124              		.loc 1 74 21 discriminator 4 view .LVU371
 1125 047e B0EE678A 		vmov.f32	s16, s15
 1126 0482 01E0     		b	.L39
 1127              	.L62:
  74:My_Top/Motor_Control/DcMotor_ClosedLoop.cpp ****     float down_duty = constraint_value(motor_down_duty, 0.0f, 1.0f); //ķÖÉÕłČÕŹĀń®║µ»öÕ£©0~1õ╣ŗķŚ┤
 1128              		.loc 1 74 21 discriminator 1 view .LVU372
 1129 0484 9FED898A 		vldr.32	s16, .L71
 1130              	.L39:
 1131              	.LVL56:
  75:My_Top/Motor_Control/DcMotor_ClosedLoop.cpp **** 
 1132              		.loc 1 75 5 is_stmt 1 view .LVU373
  75:My_Top/Motor_Control/DcMotor_ClosedLoop.cpp **** 
 1133              		.loc 1 75 23 is_stmt 0 view .LVU374
 1134 0488 D4ED038A 		vldr.32	s17, [r4, #12]
 1135 048c F5EEC08A 		vcmpe.f32	s17, #0
 1136 0490 F1EE10FA 		vmrs	APSR_nzcv, FPSCR
 1137 0494 09D4     		bmi	.L63
  75:My_Top/Motor_Control/DcMotor_ClosedLoop.cpp **** 
 1138              		.loc 1 75 23 discriminator 2 view .LVU375
 1139 0496 F7EE007A 		vmov.f32	s15, #1.0e+0
 1140 049a F4EEE78A 		vcmpe.f32	s17, s15
 1141 049e F1EE10FA 		vmrs	APSR_nzcv, FPSCR
 1142 04a2 04DD     		ble	.L41
  75:My_Top/Motor_Control/DcMotor_ClosedLoop.cpp **** 
 1143              		.loc 1 75 23 discriminator 4 view .LVU376
 1144 04a4 F0EE678A 		vmov.f32	s17, s15
 1145 04a8 01E0     		b	.L41
 1146              	.L63:
  75:My_Top/Motor_Control/DcMotor_ClosedLoop.cpp **** 
 1147              		.loc 1 75 23 discriminator 1 view .LVU377
 1148 04aa DFED808A 		vldr.32	s17, .L71
 1149              	.L41:
 1150              	.LVL57:
  77:My_Top/Motor_Control/DcMotor_ClosedLoop.cpp ****     Fre_last = Fre;
 1151              		.loc 1 77 5 is_stmt 1 view .LVU378
  77:My_Top/Motor_Control/DcMotor_ClosedLoop.cpp ****     Fre_last = Fre;
 1152              		.loc 1 77 16 is_stmt 0 view .LVU379
 1153 04ae B4F84830 		ldrh	r3, [r4, #72]
  77:My_Top/Motor_Control/DcMotor_ClosedLoop.cpp ****     Fre_last = Fre;
 1154              		.loc 1 77 5 view .LVU380
 1155 04b2 AB42     		cmp	r3, r5
 1156 04b4 15D0     		beq	.L69
 1157              	.L43:
  78:My_Top/Motor_Control/DcMotor_ClosedLoop.cpp ****     up_duty_last = up_duty;
ARM GAS  /tmp/cc0AM0z6.s 			page 32


 1158              		.loc 1 78 5 is_stmt 1 view .LVU381
  78:My_Top/Motor_Control/DcMotor_ClosedLoop.cpp ****     up_duty_last = up_duty;
 1159              		.loc 1 78 14 is_stmt 0 view .LVU382
 1160 04b6 A4F84850 		strh	r5, [r4, #72]	@ movhi
  79:My_Top/Motor_Control/DcMotor_ClosedLoop.cpp ****     down_duty_last = down_duty;
 1161              		.loc 1 79 5 is_stmt 1 view .LVU383
  79:My_Top/Motor_Control/DcMotor_ClosedLoop.cpp ****     down_duty_last = down_duty;
 1162              		.loc 1 79 18 is_stmt 0 view .LVU384
 1163 04ba 84ED138A 		vstr.32	s16, [r4, #76]
  80:My_Top/Motor_Control/DcMotor_ClosedLoop.cpp **** 
 1164              		.loc 1 80 5 is_stmt 1 view .LVU385
  80:My_Top/Motor_Control/DcMotor_ClosedLoop.cpp **** 
 1165              		.loc 1 80 20 is_stmt 0 view .LVU386
 1166 04be C4ED148A 		vstr.32	s17, [r4, #80]
  82:My_Top/Motor_Control/DcMotor_ClosedLoop.cpp ****     else {Motor_EN(true);}
 1167              		.loc 1 82 5 is_stmt 1 view .LVU387
 1168 04c2 EDB1     		cbz	r5, .L70
  83:My_Top/Motor_Control/DcMotor_ClosedLoop.cpp **** 
 1169              		.loc 1 83 11 view .LVU388
  83:My_Top/Motor_Control/DcMotor_ClosedLoop.cpp **** 
 1170              		.loc 1 83 19 is_stmt 0 view .LVU389
 1171 04c4 0121     		movs	r1, #1
 1172 04c6 2046     		mov	r0, r4
 1173              	.LVL58:
  83:My_Top/Motor_Control/DcMotor_ClosedLoop.cpp **** 
 1174              		.loc 1 83 19 view .LVU390
 1175 04c8 FFF7FEFF 		bl	_ZN8DC_Motor8Motor_ENEb
 1176              	.LVL59:
  85:My_Top/Motor_Control/DcMotor_ClosedLoop.cpp ****     if (arr >= 65535) arr = 65535;
 1177              		.loc 1 85 5 is_stmt 1 view .LVU391
  85:My_Top/Motor_Control/DcMotor_ClosedLoop.cpp ****     if (arr >= 65535) arr = 65535;
 1178              		.loc 1 85 11 is_stmt 0 view .LVU392
 1179 04cc A36D     		ldr	r3, [r4, #88]
  85:My_Top/Motor_Control/DcMotor_ClosedLoop.cpp ****     if (arr >= 65535) arr = 65535;
 1180              		.loc 1 85 9 view .LVU393
 1181 04ce B3FBF5F3 		udiv	r3, r3, r5
 1182              	.LVL60:
  86:My_Top/Motor_Control/DcMotor_ClosedLoop.cpp ****     else if (arr <= 1) arr = 1;
 1183              		.loc 1 86 5 is_stmt 1 view .LVU394
 1184 04d2 4FF6FE72 		movw	r2, #65534
 1185 04d6 9342     		cmp	r3, r2
 1186 04d8 17D8     		bhi	.L64
  87:My_Top/Motor_Control/DcMotor_ClosedLoop.cpp **** 
 1187              		.loc 1 87 10 view .LVU395
 1188 04da 012B     		cmp	r3, #1
 1189 04dc 17D8     		bhi	.L46
  87:My_Top/Motor_Control/DcMotor_ClosedLoop.cpp **** 
 1190              		.loc 1 87 28 is_stmt 0 discriminator 1 view .LVU396
 1191 04de 0123     		movs	r3, #1
 1192              	.LVL61:
  87:My_Top/Motor_Control/DcMotor_ClosedLoop.cpp **** 
 1193              		.loc 1 87 28 discriminator 1 view .LVU397
 1194 04e0 15E0     		b	.L46
 1195              	.LVL62:
 1196              	.L69:
  77:My_Top/Motor_Control/DcMotor_ClosedLoop.cpp ****     Fre_last = Fre;
 1197              		.loc 1 77 39 discriminator 1 view .LVU398
ARM GAS  /tmp/cc0AM0z6.s 			page 33


 1198 04e2 D4ED137A 		vldr.32	s15, [r4, #76]
  77:My_Top/Motor_Control/DcMotor_ClosedLoop.cpp ****     Fre_last = Fre;
 1199              		.loc 1 77 25 discriminator 1 view .LVU399
 1200 04e6 F4EE487A 		vcmp.f32	s15, s16
 1201 04ea F1EE10FA 		vmrs	APSR_nzcv, FPSCR
 1202 04ee E2D1     		bne	.L43
  77:My_Top/Motor_Control/DcMotor_ClosedLoop.cpp ****     Fre_last = Fre;
 1203              		.loc 1 77 68 discriminator 2 view .LVU400
 1204 04f0 D4ED147A 		vldr.32	s15, [r4, #80]
  77:My_Top/Motor_Control/DcMotor_ClosedLoop.cpp ****     Fre_last = Fre;
 1205              		.loc 1 77 52 discriminator 2 view .LVU401
 1206 04f4 F4EE687A 		vcmp.f32	s15, s17
 1207 04f8 F1EE10FA 		vmrs	APSR_nzcv, FPSCR
 1208 04fc DBD1     		bne	.L43
 1209 04fe D1E0     		b	.L38
 1210              	.L70:
  82:My_Top/Motor_Control/DcMotor_ClosedLoop.cpp ****     else {Motor_EN(true);}
 1211              		.loc 1 82 20 is_stmt 1 discriminator 1 view .LVU402
  82:My_Top/Motor_Control/DcMotor_ClosedLoop.cpp ****     else {Motor_EN(true);}
 1212              		.loc 1 82 28 is_stmt 0 discriminator 1 view .LVU403
 1213 0500 0021     		movs	r1, #0
 1214 0502 2046     		mov	r0, r4
 1215              	.LVL63:
  82:My_Top/Motor_Control/DcMotor_ClosedLoop.cpp ****     else {Motor_EN(true);}
 1216              		.loc 1 82 28 discriminator 1 view .LVU404
 1217 0504 FFF7FEFF 		bl	_ZN8DC_Motor8Motor_ENEb
 1218              	.LVL64:
  82:My_Top/Motor_Control/DcMotor_ClosedLoop.cpp ****     else {Motor_EN(true);}
 1219              		.loc 1 82 37 is_stmt 1 discriminator 1 view .LVU405
  82:My_Top/Motor_Control/DcMotor_ClosedLoop.cpp ****     else {Motor_EN(true);}
 1220              		.loc 1 82 37 is_stmt 0 view .LVU406
 1221 0508 CCE0     		b	.L38
 1222              	.LVL65:
 1223              	.L64:
  86:My_Top/Motor_Control/DcMotor_ClosedLoop.cpp ****     else if (arr <= 1) arr = 1;
 1224              		.loc 1 86 27 discriminator 1 view .LVU407
 1225 050a 4FF6FF73 		movw	r3, #65535
 1226              	.LVL66:
 1227              	.L46:
  89:My_Top/Motor_Control/DcMotor_ClosedLoop.cpp ****     __HAL_TIM_SET_AUTORELOAD(_motor_config->htim, (uint16_t)(arr - 1));//Ķ«ŠńĮ«Õæ©µ£¤ 
 1228              		.loc 1 89 5 is_stmt 1 view .LVU408
 1229 050e D4F8A420 		ldr	r2, [r4, #164]
  89:My_Top/Motor_Control/DcMotor_ClosedLoop.cpp ****     __HAL_TIM_SET_AUTORELOAD(_motor_config->htim, (uint16_t)(arr - 1));//Ķ«ŠńĮ«Õæ©µ£¤ 
 1230              		.loc 1 89 20 is_stmt 0 view .LVU409
 1231 0512 1268     		ldr	r2, [r2]
  89:My_Top/Motor_Control/DcMotor_ClosedLoop.cpp ****     __HAL_TIM_SET_AUTORELOAD(_motor_config->htim, (uint16_t)(arr - 1));//Ķ«ŠńĮ«Õæ©µ£¤ 
 1232              		.loc 1 89 26 view .LVU410
 1233 0514 1268     		ldr	r2, [r2]
  89:My_Top/Motor_Control/DcMotor_ClosedLoop.cpp ****     __HAL_TIM_SET_AUTORELOAD(_motor_config->htim, (uint16_t)(arr - 1));//Ķ«ŠńĮ«Õæ©µ£¤ 
 1234              		.loc 1 89 40 view .LVU411
 1235 0516 0021     		movs	r1, #0
 1236 0518 5162     		str	r1, [r2, #36]
  90:My_Top/Motor_Control/DcMotor_ClosedLoop.cpp ****     __HAL_TIM_SET_COMPARE(_motor_config->htim, _motor_config->ch_hin1, (uint32_t)(arr*up_duty));//Ķ
 1237              		.loc 1 90 5 is_stmt 1 view .LVU412
  90:My_Top/Motor_Control/DcMotor_ClosedLoop.cpp ****     __HAL_TIM_SET_COMPARE(_motor_config->htim, _motor_config->ch_hin1, (uint32_t)(arr*up_duty));//Ķ
 1238              		.loc 1 90 5 view .LVU413
 1239 051a 5A1E     		subs	r2, r3, #1
ARM GAS  /tmp/cc0AM0z6.s 			page 34


 1240 051c 92B2     		uxth	r2, r2
 1241 051e D4F8A410 		ldr	r1, [r4, #164]
 1242 0522 0968     		ldr	r1, [r1]
 1243 0524 0968     		ldr	r1, [r1]
 1244 0526 CA62     		str	r2, [r1, #44]
  90:My_Top/Motor_Control/DcMotor_ClosedLoop.cpp ****     __HAL_TIM_SET_COMPARE(_motor_config->htim, _motor_config->ch_hin1, (uint32_t)(arr*up_duty));//Ķ
 1245              		.loc 1 90 5 view .LVU414
 1246 0528 D4F8A410 		ldr	r1, [r4, #164]
 1247 052c 0968     		ldr	r1, [r1]
 1248 052e CA60     		str	r2, [r1, #12]
  90:My_Top/Motor_Control/DcMotor_ClosedLoop.cpp ****     __HAL_TIM_SET_COMPARE(_motor_config->htim, _motor_config->ch_hin1, (uint32_t)(arr*up_duty));//Ķ
 1249              		.loc 1 90 5 view .LVU415
  91:My_Top/Motor_Control/DcMotor_ClosedLoop.cpp ****     __HAL_TIM_SET_COMPARE(_motor_config->htim, _motor_config->ch_hin2, (uint32_t)(arr*down_duty));/
 1250              		.loc 1 91 5 view .LVU416
 1251 0530 D4F8A410 		ldr	r1, [r4, #164]
 1252 0534 8A68     		ldr	r2, [r1, #8]
 1253 0536 102A     		cmp	r2, #16
 1254 0538 4BD8     		bhi	.L47
 1255 053a DFE802F0 		tbb	[pc, r2]
 1256              	.L49:
 1257 053e 09       		.byte	(.L53-.L49)/2
 1258 053f 4A       		.byte	(.L47-.L49)/2
 1259 0540 4A       		.byte	(.L47-.L49)/2
 1260 0541 4A       		.byte	(.L47-.L49)/2
 1261 0542 16       		.byte	(.L52-.L49)/2
 1262 0543 4A       		.byte	(.L47-.L49)/2
 1263 0544 4A       		.byte	(.L47-.L49)/2
 1264 0545 4A       		.byte	(.L47-.L49)/2
 1265 0546 23       		.byte	(.L51-.L49)/2
 1266 0547 4A       		.byte	(.L47-.L49)/2
 1267 0548 4A       		.byte	(.L47-.L49)/2
 1268 0549 4A       		.byte	(.L47-.L49)/2
 1269 054a 30       		.byte	(.L50-.L49)/2
 1270 054b 4A       		.byte	(.L47-.L49)/2
 1271 054c 4A       		.byte	(.L47-.L49)/2
 1272 054d 4A       		.byte	(.L47-.L49)/2
 1273 054e 3D       		.byte	(.L48-.L49)/2
 1274 054f 00       		.p2align 1
 1275              	.L53:
  91:My_Top/Motor_Control/DcMotor_ClosedLoop.cpp ****     __HAL_TIM_SET_COMPARE(_motor_config->htim, _motor_config->ch_hin2, (uint32_t)(arr*down_duty));/
 1276              		.loc 1 91 5 is_stmt 0 discriminator 1 view .LVU417
 1277 0550 07EE903A 		vmov	s15, r3	@ int
 1278 0554 F8EE677A 		vcvt.f32.u32	s15, s15
 1279 0558 67EE887A 		vmul.f32	s15, s15, s16
 1280 055c 0A68     		ldr	r2, [r1]
 1281 055e 1268     		ldr	r2, [r2]
 1282 0560 FCEEE77A 		vcvt.u32.f32	s15, s15
 1283 0564 C2ED0D7A 		vstr.32	s15, [r2, #52]	@ int
 1284 0568 3FE0     		b	.L54
 1285              	.L52:
  91:My_Top/Motor_Control/DcMotor_ClosedLoop.cpp ****     __HAL_TIM_SET_COMPARE(_motor_config->htim, _motor_config->ch_hin2, (uint32_t)(arr*down_duty));/
 1286              		.loc 1 91 5 discriminator 3 view .LVU418
 1287 056a 07EE903A 		vmov	s15, r3	@ int
 1288 056e F8EE677A 		vcvt.f32.u32	s15, s15
 1289 0572 67EE887A 		vmul.f32	s15, s15, s16
 1290 0576 0A68     		ldr	r2, [r1]
 1291 0578 1268     		ldr	r2, [r2]
ARM GAS  /tmp/cc0AM0z6.s 			page 35


 1292 057a FCEEE77A 		vcvt.u32.f32	s15, s15
 1293 057e C2ED0E7A 		vstr.32	s15, [r2, #56]	@ int
 1294 0582 32E0     		b	.L54
 1295              	.L51:
  91:My_Top/Motor_Control/DcMotor_ClosedLoop.cpp ****     __HAL_TIM_SET_COMPARE(_motor_config->htim, _motor_config->ch_hin2, (uint32_t)(arr*down_duty));/
 1296              		.loc 1 91 5 discriminator 5 view .LVU419
 1297 0584 07EE903A 		vmov	s15, r3	@ int
 1298 0588 F8EE677A 		vcvt.f32.u32	s15, s15
 1299 058c 67EE887A 		vmul.f32	s15, s15, s16
 1300 0590 0A68     		ldr	r2, [r1]
 1301 0592 1268     		ldr	r2, [r2]
 1302 0594 FCEEE77A 		vcvt.u32.f32	s15, s15
 1303 0598 C2ED0F7A 		vstr.32	s15, [r2, #60]	@ int
 1304 059c 25E0     		b	.L54
 1305              	.L50:
  91:My_Top/Motor_Control/DcMotor_ClosedLoop.cpp ****     __HAL_TIM_SET_COMPARE(_motor_config->htim, _motor_config->ch_hin2, (uint32_t)(arr*down_duty));/
 1306              		.loc 1 91 5 discriminator 7 view .LVU420
 1307 059e 07EE903A 		vmov	s15, r3	@ int
 1308 05a2 F8EE677A 		vcvt.f32.u32	s15, s15
 1309 05a6 67EE887A 		vmul.f32	s15, s15, s16
 1310 05aa 0A68     		ldr	r2, [r1]
 1311 05ac 1268     		ldr	r2, [r2]
 1312 05ae FCEEE77A 		vcvt.u32.f32	s15, s15
 1313 05b2 C2ED107A 		vstr.32	s15, [r2, #64]	@ int
 1314 05b6 18E0     		b	.L54
 1315              	.L48:
  91:My_Top/Motor_Control/DcMotor_ClosedLoop.cpp ****     __HAL_TIM_SET_COMPARE(_motor_config->htim, _motor_config->ch_hin2, (uint32_t)(arr*down_duty));/
 1316              		.loc 1 91 5 discriminator 9 view .LVU421
 1317 05b8 07EE903A 		vmov	s15, r3	@ int
 1318 05bc F8EE677A 		vcvt.f32.u32	s15, s15
 1319 05c0 67EE887A 		vmul.f32	s15, s15, s16
 1320 05c4 0A68     		ldr	r2, [r1]
 1321 05c6 1268     		ldr	r2, [r2]
 1322 05c8 FCEEE77A 		vcvt.u32.f32	s15, s15
 1323 05cc C2ED127A 		vstr.32	s15, [r2, #72]	@ int
 1324 05d0 0BE0     		b	.L54
 1325              	.L47:
  91:My_Top/Motor_Control/DcMotor_ClosedLoop.cpp ****     __HAL_TIM_SET_COMPARE(_motor_config->htim, _motor_config->ch_hin2, (uint32_t)(arr*down_duty));/
 1326              		.loc 1 91 5 discriminator 10 view .LVU422
 1327 05d2 07EE903A 		vmov	s15, r3	@ int
 1328 05d6 F8EE677A 		vcvt.f32.u32	s15, s15
 1329 05da 67EE887A 		vmul.f32	s15, s15, s16
 1330 05de 0A68     		ldr	r2, [r1]
 1331 05e0 1268     		ldr	r2, [r2]
 1332 05e2 FCEEE77A 		vcvt.u32.f32	s15, s15
 1333 05e6 C2ED137A 		vstr.32	s15, [r2, #76]	@ int
 1334              	.L54:
  92:My_Top/Motor_Control/DcMotor_ClosedLoop.cpp **** }
 1335              		.loc 1 92 5 is_stmt 1 view .LVU423
 1336 05ea D4F8A410 		ldr	r1, [r4, #164]
 1337 05ee CA68     		ldr	r2, [r1, #12]
 1338 05f0 102A     		cmp	r2, #16
 1339 05f2 4BD8     		bhi	.L55
 1340 05f4 DFE802F0 		tbb	[pc, r2]
 1341              	.L57:
 1342 05f8 09       		.byte	(.L61-.L57)/2
 1343 05f9 4A       		.byte	(.L55-.L57)/2
ARM GAS  /tmp/cc0AM0z6.s 			page 36


 1344 05fa 4A       		.byte	(.L55-.L57)/2
 1345 05fb 4A       		.byte	(.L55-.L57)/2
 1346 05fc 16       		.byte	(.L60-.L57)/2
 1347 05fd 4A       		.byte	(.L55-.L57)/2
 1348 05fe 4A       		.byte	(.L55-.L57)/2
 1349 05ff 4A       		.byte	(.L55-.L57)/2
 1350 0600 23       		.byte	(.L59-.L57)/2
 1351 0601 4A       		.byte	(.L55-.L57)/2
 1352 0602 4A       		.byte	(.L55-.L57)/2
 1353 0603 4A       		.byte	(.L55-.L57)/2
 1354 0604 30       		.byte	(.L58-.L57)/2
 1355 0605 4A       		.byte	(.L55-.L57)/2
 1356 0606 4A       		.byte	(.L55-.L57)/2
 1357 0607 4A       		.byte	(.L55-.L57)/2
 1358 0608 3D       		.byte	(.L56-.L57)/2
 1359 0609 00       		.p2align 1
 1360              	.L61:
  92:My_Top/Motor_Control/DcMotor_ClosedLoop.cpp **** }
 1361              		.loc 1 92 5 is_stmt 0 discriminator 1 view .LVU424
 1362 060a 07EE903A 		vmov	s15, r3	@ int
 1363 060e F8EE677A 		vcvt.f32.u32	s15, s15
 1364 0612 67EEA87A 		vmul.f32	s15, s15, s17
 1365 0616 0B68     		ldr	r3, [r1]
 1366              	.LVL67:
  92:My_Top/Motor_Control/DcMotor_ClosedLoop.cpp **** }
 1367              		.loc 1 92 5 discriminator 1 view .LVU425
 1368 0618 1B68     		ldr	r3, [r3]
 1369 061a FCEEE77A 		vcvt.u32.f32	s15, s15
 1370 061e C3ED0D7A 		vstr.32	s15, [r3, #52]	@ int
 1371 0622 3FE0     		b	.L38
 1372              	.LVL68:
 1373              	.L60:
  92:My_Top/Motor_Control/DcMotor_ClosedLoop.cpp **** }
 1374              		.loc 1 92 5 discriminator 3 view .LVU426
 1375 0624 07EE903A 		vmov	s15, r3	@ int
 1376 0628 F8EE677A 		vcvt.f32.u32	s15, s15
 1377 062c 67EEA87A 		vmul.f32	s15, s15, s17
 1378 0630 0B68     		ldr	r3, [r1]
 1379              	.LVL69:
  92:My_Top/Motor_Control/DcMotor_ClosedLoop.cpp **** }
 1380              		.loc 1 92 5 discriminator 3 view .LVU427
 1381 0632 1B68     		ldr	r3, [r3]
 1382 0634 FCEEE77A 		vcvt.u32.f32	s15, s15
 1383 0638 C3ED0E7A 		vstr.32	s15, [r3, #56]	@ int
 1384 063c 32E0     		b	.L38
 1385              	.LVL70:
 1386              	.L59:
  92:My_Top/Motor_Control/DcMotor_ClosedLoop.cpp **** }
 1387              		.loc 1 92 5 discriminator 5 view .LVU428
 1388 063e 07EE903A 		vmov	s15, r3	@ int
 1389 0642 F8EE677A 		vcvt.f32.u32	s15, s15
 1390 0646 67EEA87A 		vmul.f32	s15, s15, s17
 1391 064a 0B68     		ldr	r3, [r1]
 1392              	.LVL71:
  92:My_Top/Motor_Control/DcMotor_ClosedLoop.cpp **** }
 1393              		.loc 1 92 5 discriminator 5 view .LVU429
 1394 064c 1B68     		ldr	r3, [r3]
ARM GAS  /tmp/cc0AM0z6.s 			page 37


 1395 064e FCEEE77A 		vcvt.u32.f32	s15, s15
 1396 0652 C3ED0F7A 		vstr.32	s15, [r3, #60]	@ int
 1397 0656 25E0     		b	.L38
 1398              	.LVL72:
 1399              	.L58:
  92:My_Top/Motor_Control/DcMotor_ClosedLoop.cpp **** }
 1400              		.loc 1 92 5 discriminator 7 view .LVU430
 1401 0658 07EE903A 		vmov	s15, r3	@ int
 1402 065c F8EE677A 		vcvt.f32.u32	s15, s15
 1403 0660 67EEA87A 		vmul.f32	s15, s15, s17
 1404 0664 0B68     		ldr	r3, [r1]
 1405              	.LVL73:
  92:My_Top/Motor_Control/DcMotor_ClosedLoop.cpp **** }
 1406              		.loc 1 92 5 discriminator 7 view .LVU431
 1407 0666 1B68     		ldr	r3, [r3]
 1408 0668 FCEEE77A 		vcvt.u32.f32	s15, s15
 1409 066c C3ED107A 		vstr.32	s15, [r3, #64]	@ int
 1410 0670 18E0     		b	.L38
 1411              	.LVL74:
 1412              	.L56:
  92:My_Top/Motor_Control/DcMotor_ClosedLoop.cpp **** }
 1413              		.loc 1 92 5 discriminator 9 view .LVU432
 1414 0672 07EE903A 		vmov	s15, r3	@ int
 1415 0676 F8EE677A 		vcvt.f32.u32	s15, s15
 1416 067a 67EEA87A 		vmul.f32	s15, s15, s17
 1417 067e 0B68     		ldr	r3, [r1]
 1418              	.LVL75:
  92:My_Top/Motor_Control/DcMotor_ClosedLoop.cpp **** }
 1419              		.loc 1 92 5 discriminator 9 view .LVU433
 1420 0680 1B68     		ldr	r3, [r3]
 1421 0682 FCEEE77A 		vcvt.u32.f32	s15, s15
 1422 0686 C3ED127A 		vstr.32	s15, [r3, #72]	@ int
 1423 068a 0BE0     		b	.L38
 1424              	.LVL76:
 1425              	.L55:
  92:My_Top/Motor_Control/DcMotor_ClosedLoop.cpp **** }
 1426              		.loc 1 92 5 discriminator 10 view .LVU434
 1427 068c 07EE903A 		vmov	s15, r3	@ int
 1428 0690 F8EE677A 		vcvt.f32.u32	s15, s15
 1429 0694 67EEA87A 		vmul.f32	s15, s15, s17
 1430 0698 0B68     		ldr	r3, [r1]
 1431              	.LVL77:
  92:My_Top/Motor_Control/DcMotor_ClosedLoop.cpp **** }
 1432              		.loc 1 92 5 discriminator 10 view .LVU435
 1433 069a 1B68     		ldr	r3, [r3]
 1434 069c FCEEE77A 		vcvt.u32.f32	s15, s15
 1435 06a0 C3ED137A 		vstr.32	s15, [r3, #76]	@ int
 1436              	.LVL78:
 1437              	.L38:
  93:My_Top/Motor_Control/DcMotor_ClosedLoop.cpp **** 
 1438              		.loc 1 93 1 view .LVU436
 1439 06a4 BDEC028B 		vldm	sp!, {d8}
 1440              		.cfi_restore 80
 1441              		.cfi_restore 81
 1442              		.cfi_def_cfa_offset 16
 1443              	.LVL79:
  93:My_Top/Motor_Control/DcMotor_ClosedLoop.cpp **** 
ARM GAS  /tmp/cc0AM0z6.s 			page 38


 1444              		.loc 1 93 1 view .LVU437
 1445 06a8 38BD     		pop	{r3, r4, r5, pc}
 1446              	.LVL80:
 1447              	.L72:
  93:My_Top/Motor_Control/DcMotor_ClosedLoop.cpp **** 
 1448              		.loc 1 93 1 view .LVU438
 1449 06aa 00BF     		.align	2
 1450              	.L71:
 1451 06ac 00000000 		.word	0
 1452              		.cfi_endproc
 1453              	.LFE1349:
 1455              		.align	1
 1456              		.global	_ZN8DC_Motor18Set_Motor_Glo_DutyEv
 1457              		.syntax unified
 1458              		.thumb
 1459              		.thumb_func
 1461              	_ZN8DC_Motor18Set_Motor_Glo_DutyEv:
 1462              	.LVL81:
 1463              	.LFB1350:
  98:My_Top/Motor_Control/DcMotor_ClosedLoop.cpp ****     float duty = constraint_value(updown_duty, -1.0f, 1.0f);
 1464              		.loc 1 98 1 is_stmt 1 view -0
 1465              		.cfi_startproc
 1466              		@ args = 0, pretend = 0, frame = 0
 1467              		@ frame_needed = 0, uses_anonymous_args = 0
  98:My_Top/Motor_Control/DcMotor_ClosedLoop.cpp ****     float duty = constraint_value(updown_duty, -1.0f, 1.0f);
 1468              		.loc 1 98 1 is_stmt 0 view .LVU440
 1469 06b0 10B5     		push	{r4, lr}
 1470              		.cfi_def_cfa_offset 8
 1471              		.cfi_offset 4, -8
 1472              		.cfi_offset 14, -4
 1473 06b2 0446     		mov	r4, r0
  99:My_Top/Motor_Control/DcMotor_ClosedLoop.cpp **** 
 1474              		.loc 1 99 5 is_stmt 1 view .LVU441
  99:My_Top/Motor_Control/DcMotor_ClosedLoop.cpp **** 
 1475              		.loc 1 99 18 is_stmt 0 view .LVU442
 1476 06b4 D0ED047A 		vldr.32	s15, [r0, #16]
 1477 06b8 BFEE007A 		vmov.f32	s14, #-1.0e+0
 1478 06bc F4EEC77A 		vcmpe.f32	s15, s14
 1479 06c0 F1EE10FA 		vmrs	APSR_nzcv, FPSCR
 1480 06c4 0FD4     		bmi	.L82
  99:My_Top/Motor_Control/DcMotor_ClosedLoop.cpp **** 
 1481              		.loc 1 99 18 discriminator 2 view .LVU443
 1482 06c6 B7EE007A 		vmov.f32	s14, #1.0e+0
 1483 06ca F4EEC77A 		vcmpe.f32	s15, s14
 1484 06ce F1EE10FA 		vmrs	APSR_nzcv, FPSCR
 1485 06d2 02DD     		ble	.L89
  99:My_Top/Motor_Control/DcMotor_ClosedLoop.cpp **** 
 1486              		.loc 1 99 18 discriminator 7 view .LVU444
 1487 06d4 F7EE007A 		vmov.f32	s15, #1.0e+0
 1488 06d8 07E0     		b	.L74
 1489              	.L89:
 1490              	.LVL82:
 101:My_Top/Motor_Control/DcMotor_ClosedLoop.cpp ****     {
 1491              		.loc 1 101 5 is_stmt 1 view .LVU445
 1492 06da F5EE407A 		vcmp.f32	s15, #0
 1493 06de F1EE10FA 		vmrs	APSR_nzcv, FPSCR
 1494 06e2 0BD0     		beq	.L75
ARM GAS  /tmp/cc0AM0z6.s 			page 39


 1495 06e4 01E0     		b	.L74
 1496              	.LVL83:
 1497              	.L82:
  99:My_Top/Motor_Control/DcMotor_ClosedLoop.cpp **** 
 1498              		.loc 1 99 18 is_stmt 0 discriminator 1 view .LVU446
 1499 06e6 FFEE007A 		vmov.f32	s15, #-1.0e+0
 1500              	.L74:
 101:My_Top/Motor_Control/DcMotor_ClosedLoop.cpp ****     {
 1501              		.loc 1 101 30 discriminator 1 view .LVU447
 1502 06ea B0EEE77A 		vabs.f32	s14, s15
 101:My_Top/Motor_Control/DcMotor_ClosedLoop.cpp ****     {
 1503              		.loc 1 101 22 discriminator 1 view .LVU448
 1504 06ee DFED186A 		vldr.32	s13, .L91
 1505 06f2 B4EEE67A 		vcmpe.f32	s14, s13
 1506 06f6 F1EE10FA 		vmrs	APSR_nzcv, FPSCR
 1507 06fa 0AD5     		bpl	.L86
 1508              	.L75:
 103:My_Top/Motor_Control/DcMotor_ClosedLoop.cpp ****         Motor_EN(false);
 1509              		.loc 1 103 9 is_stmt 1 view .LVU449
 103:My_Top/Motor_Control/DcMotor_ClosedLoop.cpp ****         Motor_EN(false);
 1510              		.loc 1 103 41 is_stmt 0 view .LVU450
 1511 06fc 0023     		movs	r3, #0
 1512 06fe E360     		str	r3, [r4, #12]	@ float
 103:My_Top/Motor_Control/DcMotor_ClosedLoop.cpp ****         Motor_EN(false);
 1513              		.loc 1 103 23 view .LVU451
 1514 0700 A360     		str	r3, [r4, #8]	@ float
 104:My_Top/Motor_Control/DcMotor_ClosedLoop.cpp ****     }else if (duty > 0.0f) 
 1515              		.loc 1 104 9 is_stmt 1 view .LVU452
 104:My_Top/Motor_Control/DcMotor_ClosedLoop.cpp ****     }else if (duty > 0.0f) 
 1516              		.loc 1 104 17 is_stmt 0 view .LVU453
 1517 0702 0021     		movs	r1, #0
 1518 0704 2046     		mov	r0, r4
 1519              	.LVL84:
 104:My_Top/Motor_Control/DcMotor_ClosedLoop.cpp ****     }else if (duty > 0.0f) 
 1520              		.loc 1 104 17 view .LVU454
 1521 0706 FFF7FEFF 		bl	_ZN8DC_Motor8Motor_ENEb
 1522              	.LVL85:
 1523              	.L78:
 117:My_Top/Motor_Control/DcMotor_ClosedLoop.cpp **** }
 1524              		.loc 1 117 5 is_stmt 1 view .LVU455
 117:My_Top/Motor_Control/DcMotor_ClosedLoop.cpp **** }
 1525              		.loc 1 117 24 is_stmt 0 view .LVU456
 1526 070a 2046     		mov	r0, r4
 1527 070c FFF7FEFF 		bl	_ZN8DC_Motor19Set_Motor_FrequencyEv
 1528              	.LVL86:
 118:My_Top/Motor_Control/DcMotor_ClosedLoop.cpp **** 
 1529              		.loc 1 118 1 view .LVU457
 1530 0710 10BD     		pop	{r4, pc}
 1531              	.LVL87:
 1532              	.L86:
 105:My_Top/Motor_Control/DcMotor_ClosedLoop.cpp ****     {
 1533              		.loc 1 105 11 is_stmt 1 view .LVU458
 1534 0712 F5EEC07A 		vcmpe.f32	s15, #0
 1535 0716 F1EE10FA 		vmrs	APSR_nzcv, FPSCR
 1536 071a 0FDC     		bgt	.L90
 110:My_Top/Motor_Control/DcMotor_ClosedLoop.cpp ****     {
 1537              		.loc 1 110 11 view .LVU459
ARM GAS  /tmp/cc0AM0z6.s 			page 40


 1538 071c F5EEC07A 		vcmpe.f32	s15, #0
 1539 0720 F1EE10FA 		vmrs	APSR_nzcv, FPSCR
 1540 0724 F1D5     		bpl	.L78
 112:My_Top/Motor_Control/DcMotor_ClosedLoop.cpp ****         motor_down_duty = -duty;
 1541              		.loc 1 112 9 view .LVU460
 112:My_Top/Motor_Control/DcMotor_ClosedLoop.cpp ****         motor_down_duty = -duty;
 1542              		.loc 1 112 23 is_stmt 0 view .LVU461
 1543 0726 0023     		movs	r3, #0
 1544 0728 A360     		str	r3, [r4, #8]	@ float
 113:My_Top/Motor_Control/DcMotor_ClosedLoop.cpp ****         Motor_EN(true);
 1545              		.loc 1 113 9 is_stmt 1 view .LVU462
 113:My_Top/Motor_Control/DcMotor_ClosedLoop.cpp ****         Motor_EN(true);
 1546              		.loc 1 113 27 is_stmt 0 view .LVU463
 1547 072a F1EE677A 		vneg.f32	s15, s15
 113:My_Top/Motor_Control/DcMotor_ClosedLoop.cpp ****         Motor_EN(true);
 1548              		.loc 1 113 25 view .LVU464
 1549 072e C4ED037A 		vstr.32	s15, [r4, #12]
 114:My_Top/Motor_Control/DcMotor_ClosedLoop.cpp ****     }
 1550              		.loc 1 114 9 is_stmt 1 view .LVU465
 114:My_Top/Motor_Control/DcMotor_ClosedLoop.cpp ****     }
 1551              		.loc 1 114 17 is_stmt 0 view .LVU466
 1552 0732 0121     		movs	r1, #1
 1553 0734 2046     		mov	r0, r4
 1554              	.LVL88:
 114:My_Top/Motor_Control/DcMotor_ClosedLoop.cpp ****     }
 1555              		.loc 1 114 17 view .LVU467
 1556 0736 FFF7FEFF 		bl	_ZN8DC_Motor8Motor_ENEb
 1557              	.LVL89:
 1558 073a E6E7     		b	.L78
 1559              	.LVL90:
 1560              	.L90:
 107:My_Top/Motor_Control/DcMotor_ClosedLoop.cpp ****         motor_down_duty = 0.0f;
 1561              		.loc 1 107 9 is_stmt 1 view .LVU468
 107:My_Top/Motor_Control/DcMotor_ClosedLoop.cpp ****         motor_down_duty = 0.0f;
 1562              		.loc 1 107 23 is_stmt 0 view .LVU469
 1563 073c C4ED027A 		vstr.32	s15, [r4, #8]
 108:My_Top/Motor_Control/DcMotor_ClosedLoop.cpp ****         Motor_EN(true);
 1564              		.loc 1 108 9 is_stmt 1 view .LVU470
 108:My_Top/Motor_Control/DcMotor_ClosedLoop.cpp ****         Motor_EN(true);
 1565              		.loc 1 108 25 is_stmt 0 view .LVU471
 1566 0740 0023     		movs	r3, #0
 1567 0742 E360     		str	r3, [r4, #12]	@ float
 109:My_Top/Motor_Control/DcMotor_ClosedLoop.cpp ****     }else if (duty < 0.0f) 
 1568              		.loc 1 109 9 is_stmt 1 view .LVU472
 109:My_Top/Motor_Control/DcMotor_ClosedLoop.cpp ****     }else if (duty < 0.0f) 
 1569              		.loc 1 109 17 is_stmt 0 view .LVU473
 1570 0744 0121     		movs	r1, #1
 1571 0746 2046     		mov	r0, r4
 1572              	.LVL91:
 109:My_Top/Motor_Control/DcMotor_ClosedLoop.cpp ****     }else if (duty < 0.0f) 
 1573              		.loc 1 109 17 view .LVU474
 1574 0748 FFF7FEFF 		bl	_ZN8DC_Motor8Motor_ENEb
 1575              	.LVL92:
 1576 074c DDE7     		b	.L78
 1577              	.L92:
 1578 074e 00BF     		.align	2
 1579              	.L91:
ARM GAS  /tmp/cc0AM0z6.s 			page 41


 1580 0750 BD378635 		.word	897988541
 1581              		.cfi_endproc
 1582              	.LFE1350:
 1584              		.align	1
 1585              		.global	_ZN8DC_Motor16My_DC_Motor_InitEv
 1586              		.syntax unified
 1587              		.thumb
 1588              		.thumb_func
 1590              	_ZN8DC_Motor16My_DC_Motor_InitEv:
 1591              	.LVL93:
 1592              	.LFB1348:
  46:My_Top/Motor_Control/DcMotor_ClosedLoop.cpp ****     uint32_t sysclk = HAL_RCC_GetSysClockFreq();
 1593              		.loc 1 46 1 is_stmt 1 view -0
 1594              		.cfi_startproc
 1595              		@ args = 0, pretend = 0, frame = 0
 1596              		@ frame_needed = 0, uses_anonymous_args = 0
  46:My_Top/Motor_Control/DcMotor_ClosedLoop.cpp ****     uint32_t sysclk = HAL_RCC_GetSysClockFreq();
 1597              		.loc 1 46 1 is_stmt 0 view .LVU476
 1598 0754 10B5     		push	{r4, lr}
 1599              		.cfi_def_cfa_offset 8
 1600              		.cfi_offset 4, -8
 1601              		.cfi_offset 14, -4
 1602 0756 2DED028B 		vpush.64	{d8}
 1603              		.cfi_def_cfa_offset 16
 1604              		.cfi_offset 80, -16
 1605              		.cfi_offset 81, -12
 1606 075a 0446     		mov	r4, r0
  47:My_Top/Motor_Control/DcMotor_ClosedLoop.cpp ****     timer_clock_freq_ = sysclk / (_motor_config->htim->Instance->PSC + 1);
 1607              		.loc 1 47 5 is_stmt 1 view .LVU477
  47:My_Top/Motor_Control/DcMotor_ClosedLoop.cpp ****     timer_clock_freq_ = sysclk / (_motor_config->htim->Instance->PSC + 1);
 1608              		.loc 1 47 46 is_stmt 0 view .LVU478
 1609 075c FFF7FEFF 		bl	HAL_RCC_GetSysClockFreq
 1610              	.LVL94:
  48:My_Top/Motor_Control/DcMotor_ClosedLoop.cpp **** 
 1611              		.loc 1 48 5 is_stmt 1 view .LVU479
  48:My_Top/Motor_Control/DcMotor_ClosedLoop.cpp **** 
 1612              		.loc 1 48 35 is_stmt 0 view .LVU480
 1613 0760 D4F8A430 		ldr	r3, [r4, #164]
  48:My_Top/Motor_Control/DcMotor_ClosedLoop.cpp **** 
 1614              		.loc 1 48 50 view .LVU481
 1615 0764 1B68     		ldr	r3, [r3]
  48:My_Top/Motor_Control/DcMotor_ClosedLoop.cpp **** 
 1616              		.loc 1 48 56 view .LVU482
 1617 0766 1B68     		ldr	r3, [r3]
  48:My_Top/Motor_Control/DcMotor_ClosedLoop.cpp **** 
 1618              		.loc 1 48 66 view .LVU483
 1619 0768 9B6A     		ldr	r3, [r3, #40]
  48:My_Top/Motor_Control/DcMotor_ClosedLoop.cpp **** 
 1620              		.loc 1 48 70 view .LVU484
 1621 076a 0133     		adds	r3, r3, #1
  48:My_Top/Motor_Control/DcMotor_ClosedLoop.cpp **** 
 1622              		.loc 1 48 32 view .LVU485
 1623 076c B0FBF3F0 		udiv	r0, r0, r3
 1624              	.LVL95:
  48:My_Top/Motor_Control/DcMotor_ClosedLoop.cpp **** 
 1625              		.loc 1 48 23 view .LVU486
 1626 0770 A065     		str	r0, [r4, #88]
ARM GAS  /tmp/cc0AM0z6.s 			page 42


  50:My_Top/Motor_Control/DcMotor_ClosedLoop.cpp ****     error_lpf.init(0.7);
 1627              		.loc 1 50 5 is_stmt 1 view .LVU487
  50:My_Top/Motor_Control/DcMotor_ClosedLoop.cpp ****     error_lpf.init(0.7);
 1628              		.loc 1 50 19 is_stmt 0 view .LVU488
 1629 0772 9FED178A 		vldr.32	s16, .L95
 1630 0776 B0EE480A 		vmov.f32	s0, s16
 1631 077a 04F15C00 		add	r0, r4, #92
 1632 077e FFF7FEFF 		bl	_ZN13LowpassFilter4initEf
 1633              	.LVL96:
  51:My_Top/Motor_Control/DcMotor_ClosedLoop.cpp ****     speed_avg.init(5);
 1634              		.loc 1 51 5 is_stmt 1 view .LVU489
  51:My_Top/Motor_Control/DcMotor_ClosedLoop.cpp ****     speed_avg.init(5);
 1635              		.loc 1 51 19 is_stmt 0 view .LVU490
 1636 0782 B0EE480A 		vmov.f32	s0, s16
 1637 0786 04F16400 		add	r0, r4, #100
 1638 078a FFF7FEFF 		bl	_ZN13LowpassFilter4initEf
 1639              	.LVL97:
  52:My_Top/Motor_Control/DcMotor_ClosedLoop.cpp ****     adc_val_avg.init(100);//ADCķććµĀĘÕĆ╝µ╗żµ│ó //67µ×üķÖÉ
 1640              		.loc 1 52 5 is_stmt 1 view .LVU491
  52:My_Top/Motor_Control/DcMotor_ClosedLoop.cpp ****     adc_val_avg.init(100);//ADCķććµĀĘÕĆ╝µ╗żµ│ó //67µ×üķÖÉ
 1641              		.loc 1 52 19 is_stmt 0 view .LVU492
 1642 078e 0521     		movs	r1, #5
 1643 0790 04F16C00 		add	r0, r4, #108
 1644 0794 FFF7FEFF 		bl	_ZN9AvgFilter4initEh
 1645              	.LVL98:
  53:My_Top/Motor_Control/DcMotor_ClosedLoop.cpp **** 
 1646              		.loc 1 53 5 is_stmt 1 view .LVU493
  53:My_Top/Motor_Control/DcMotor_ClosedLoop.cpp **** 
 1647              		.loc 1 53 21 is_stmt 0 view .LVU494
 1648 0798 6421     		movs	r1, #100
 1649 079a 04F18800 		add	r0, r4, #136
 1650 079e FFF7FEFF 		bl	_ZN9AvgFilter4initEh
 1651              	.LVL99:
  56:My_Top/Motor_Control/DcMotor_ClosedLoop.cpp **** 
 1652              		.loc 1 56 5 is_stmt 1 view .LVU495
  56:My_Top/Motor_Control/DcMotor_ClosedLoop.cpp **** 
 1653              		.loc 1 56 23 is_stmt 0 view .LVU496
 1654 07a2 2046     		mov	r0, r4
 1655 07a4 FFF7FEFF 		bl	_ZN8DC_Motor18Set_Motor_Glo_DutyEv
 1656              	.LVL100:
  59:My_Top/Motor_Control/DcMotor_ClosedLoop.cpp ****     vTaskDelay(pdMS_TO_TICKS(1));  // ńŁē 1ms Õģģµ╗Ī
 1657              		.loc 1 59 5 is_stmt 1 view .LVU497
  59:My_Top/Motor_Control/DcMotor_ClosedLoop.cpp ****     vTaskDelay(pdMS_TO_TICKS(1));  // ńŁē 1ms Õģģµ╗Ī
 1658              		.loc 1 59 13 is_stmt 0 view .LVU498
 1659 07a8 0121     		movs	r1, #1
 1660 07aa 2046     		mov	r0, r4
 1661 07ac FFF7FEFF 		bl	_ZN8DC_Motor8Motor_ENEb
 1662              	.LVL101:
  60:My_Top/Motor_Control/DcMotor_ClosedLoop.cpp ****     Motor_EN(false); // Õģ│ķŚŁPWMĶŠōÕć║
 1663              		.loc 1 60 5 is_stmt 1 view .LVU499
  60:My_Top/Motor_Control/DcMotor_ClosedLoop.cpp ****     Motor_EN(false); // Õģ│ķŚŁPWMĶŠōÕć║
 1664              		.loc 1 60 15 is_stmt 0 view .LVU500
 1665 07b0 0120     		movs	r0, #1
 1666 07b2 FFF7FEFF 		bl	vTaskDelay
 1667              	.LVL102:
  61:My_Top/Motor_Control/DcMotor_ClosedLoop.cpp **** 
 1668              		.loc 1 61 5 is_stmt 1 view .LVU501
ARM GAS  /tmp/cc0AM0z6.s 			page 43


  61:My_Top/Motor_Control/DcMotor_ClosedLoop.cpp **** 
 1669              		.loc 1 61 13 is_stmt 0 view .LVU502
 1670 07b6 0021     		movs	r1, #0
 1671 07b8 2046     		mov	r0, r4
 1672 07ba FFF7FEFF 		bl	_ZN8DC_Motor8Motor_ENEb
 1673              	.LVL103:
  63:My_Top/Motor_Control/DcMotor_ClosedLoop.cpp ****     control_init_flag = true;
 1674              		.loc 1 63 5 is_stmt 1 view .LVU503
  63:My_Top/Motor_Control/DcMotor_ClosedLoop.cpp ****     control_init_flag = true;
 1675              		.loc 1 63 27 is_stmt 0 view .LVU504
 1676 07be 6178     		ldrb	r1, [r4, #1]	@ zero_extendqisi2
 1677 07c0 A06B     		ldr	r0, [r4, #56]
 1678 07c2 FFF7FEFF 		bl	_ZN7KTH711112KTH7111_InitEb
 1679              	.LVL104:
  64:My_Top/Motor_Control/DcMotor_ClosedLoop.cpp **** }
 1680              		.loc 1 64 5 is_stmt 1 view .LVU505
  64:My_Top/Motor_Control/DcMotor_ClosedLoop.cpp **** }
 1681              		.loc 1 64 23 is_stmt 0 view .LVU506
 1682 07c6 0123     		movs	r3, #1
 1683 07c8 A370     		strb	r3, [r4, #2]
  65:My_Top/Motor_Control/DcMotor_ClosedLoop.cpp **** 
 1684              		.loc 1 65 1 view .LVU507
 1685 07ca BDEC028B 		vldm	sp!, {d8}
 1686              		.cfi_restore 80
 1687              		.cfi_restore 81
 1688              		.cfi_def_cfa_offset 8
 1689 07ce 10BD     		pop	{r4, pc}
 1690              	.LVL105:
 1691              	.L96:
  65:My_Top/Motor_Control/DcMotor_ClosedLoop.cpp **** 
 1692              		.loc 1 65 1 view .LVU508
 1693              		.align	2
 1694              	.L95:
 1695 07d0 3333333F 		.word	1060320051
 1696              		.cfi_endproc
 1697              	.LFE1348:
 1699              		.align	1
 1700              		.global	_ZN8DC_Motor28Update_Speed_Angle_LPFAndPLLEv
 1701              		.syntax unified
 1702              		.thumb
 1703              		.thumb_func
 1705              	_ZN8DC_Motor28Update_Speed_Angle_LPFAndPLLEv:
 1706              	.LVL106:
 1707              	.LFB1352:
 149:My_Top/Motor_Control/DcMotor_ClosedLoop.cpp ****     // ķØÖµĆüÕÅśķćÅ’╝īńö©õ║ÄõĖ┤µŚČÕŁśÕé©Ķ¦ÆÕ║”ÕĆ╝ÕÆīõĖŖõĖĆµ¼ĪńÜäĶ¦ÆÕ║”ÕĆ╝
 1708              		.loc 1 149 1 is_stmt 1 view -0
 1709              		.cfi_startproc
 1710              		@ args = 0, pretend = 0, frame = 0
 1711              		@ frame_needed = 0, uses_anonymous_args = 0
 149:My_Top/Motor_Control/DcMotor_ClosedLoop.cpp ****     // ķØÖµĆüÕÅśķćÅ’╝īńö©õ║ÄõĖ┤µŚČÕŁśÕé©Ķ¦ÆÕ║”ÕĆ╝ÕÆīõĖŖõĖĆµ¼ĪńÜäĶ¦ÆÕ║”ÕĆ╝
 1712              		.loc 1 149 1 is_stmt 0 view .LVU510
 1713 07d4 38B5     		push	{r3, r4, r5, lr}
 1714              		.cfi_def_cfa_offset 16
 1715              		.cfi_offset 3, -16
 1716              		.cfi_offset 4, -12
 1717              		.cfi_offset 5, -8
 1718              		.cfi_offset 14, -4
ARM GAS  /tmp/cc0AM0z6.s 			page 44


 1719 07d6 0446     		mov	r4, r0
 151:My_Top/Motor_Control/DcMotor_ClosedLoop.cpp ****     static float theta_m_offic_temp = 0.0;
 1720              		.loc 1 151 5 is_stmt 1 view .LVU511
 152:My_Top/Motor_Control/DcMotor_ClosedLoop.cpp **** 
 1721              		.loc 1 152 5 view .LVU512
 154:My_Top/Motor_Control/DcMotor_ClosedLoop.cpp ****     fudu_test = _encoder->Get_KTH7111_Radian();//ĶÄĘÕÅ¢ń╝¢ńĀüÕÖ©Ķ¦ÆÕ║”
 1722              		.loc 1 154 5 view .LVU513
 154:My_Top/Motor_Control/DcMotor_ClosedLoop.cpp ****     fudu_test = _encoder->Get_KTH7111_Radian();//ĶÄĘÕÅ¢ń╝¢ńĀüÕÖ©Ķ¦ÆÕ║”
 1723              		.loc 1 154 36 is_stmt 0 view .LVU514
 1724 07d8 806B     		ldr	r0, [r0, #56]
 1725              	.LVL107:
 154:My_Top/Motor_Control/DcMotor_ClosedLoop.cpp ****     fudu_test = _encoder->Get_KTH7111_Radian();//ĶÄĘÕÅ¢ń╝¢ńĀüÕÖ©Ķ¦ÆÕ║”
 1726              		.loc 1 154 36 view .LVU515
 1727 07da FFF7FEFF 		bl	_ZN7KTH711121KTH7111_Send_JIAO_CMDEv
 1728              	.LVL108:
 155:My_Top/Motor_Control/DcMotor_ClosedLoop.cpp **** 
 1729              		.loc 1 155 5 is_stmt 1 view .LVU516
 155:My_Top/Motor_Control/DcMotor_ClosedLoop.cpp **** 
 1730              		.loc 1 155 45 is_stmt 0 view .LVU517
 1731 07de A06B     		ldr	r0, [r4, #56]
 1732 07e0 FFF7FEFF 		bl	_ZN7KTH711118Get_KTH7111_RadianEv
 1733              	.LVL109:
 155:My_Top/Motor_Control/DcMotor_ClosedLoop.cpp **** 
 1734              		.loc 1 155 15 discriminator 1 view .LVU518
 1735 07e4 584B     		ldr	r3, .L109+16
 1736 07e6 83ED000A 		vstr.32	s0, [r3]
 157:My_Top/Motor_Control/DcMotor_ClosedLoop.cpp ****     
 1737              		.loc 1 157 5 is_stmt 1 view .LVU519
 157:My_Top/Motor_Control/DcMotor_ClosedLoop.cpp ****     
 1738              		.loc 1 157 13 is_stmt 0 view .LVU520
 1739 07ea 84ED050A 		vstr.32	s0, [r4, #20]
 159:My_Top/Motor_Control/DcMotor_ClosedLoop.cpp ****     {
 1740              		.loc 1 159 5 is_stmt 1 view .LVU521
 1741              	.LBB126:
 159:My_Top/Motor_Control/DcMotor_ClosedLoop.cpp ****     {
 1742              		.loc 1 159 9 is_stmt 0 view .LVU522
 1743 07ee 94F8A830 		ldrb	r3, [r4, #168]	@ zero_extendqisi2
 159:My_Top/Motor_Control/DcMotor_ClosedLoop.cpp ****     {
 1744              		.loc 1 159 5 view .LVU523
 1745 07f2 002B     		cmp	r3, #0
 1746 07f4 40F08480 		bne	.L98
 1747              	.LBB127:
 161:My_Top/Motor_Control/DcMotor_ClosedLoop.cpp ****       //µ¢╣Õ╝Å1 õĮÄķĆÜµ╗żµ│ó µø┤µ¢░µ£║µó░Ķ¦ÆÕ║”ķĆ¤Õ║”
 1748              		.loc 1 161 7 is_stmt 1 view .LVU524
 1749              	.LBB128:
 161:My_Top/Motor_Control/DcMotor_ClosedLoop.cpp ****       //µ¢╣Õ╝Å1 õĮÄķĆÜµ╗żµ│ó µø┤µ¢░µ£║µó░Ķ¦ÆÕ║”ķĆ¤Õ║”
 1750              		.loc 1 161 17 view .LVU525
 1751 07f8 10EE100A 		vmov	r0, s0
 1752 07fc FFF7FEFF 		bl	__aeabi_f2d
 1753              	.LVL110:
 1754 0800 4DA3     		adr	r3, .L109
 1755 0802 D3E90023 		ldrd	r2, [r3]
 1756 0806 FFF7FEFF 		bl	__aeabi_dadd
 1757              	.LVL111:
 1758 080a FFF7FEFF 		bl	__aeabi_d2f
 1759              	.LVL112:
 1760 080e DFED4F0A 		vldr.32	s1, .L109+20
ARM GAS  /tmp/cc0AM0z6.s 			page 45


 1761 0812 00EE100A 		vmov	s0, r0
 1762 0816 FFF7FEFF 		bl	fmodf
 1763              	.LVL113:
 161:My_Top/Motor_Control/DcMotor_ClosedLoop.cpp ****       //µ¢╣Õ╝Å1 õĮÄķĆÜµ╗żµ│ó µø┤µ¢░µ£║µó░Ķ¦ÆÕ║”ķĆ¤Õ║”
 1764              		.loc 1 161 17 discriminator 1 view .LVU526
 1765 081a B5EEC00A 		vcmpe.f32	s0, #0
 1766 081e F1EE10FA 		vmrs	APSR_nzcv, FPSCR
 1767 0822 63D4     		bmi	.L107
 1768              	.LVL114:
 1769              	.L99:
 161:My_Top/Motor_Control/DcMotor_ClosedLoop.cpp ****       //µ¢╣Õ╝Å1 õĮÄķĆÜµ╗żµ│ó µø┤µ¢░µ£║µó░Ķ¦ÆÕ║”ķĆ¤Õ║”
 1770              		.loc 1 161 17 discriminator 3 view .LVU527
 1771 0824 10EE100A 		vmov	r0, s0
 1772 0828 FFF7FEFF 		bl	__aeabi_f2d
 1773              	.LVL115:
 161:My_Top/Motor_Control/DcMotor_ClosedLoop.cpp ****       //µ¢╣Õ╝Å1 õĮÄķĆÜµ╗żµ│ó µø┤µ¢░µ£║µó░Ķ¦ÆÕ║”ķĆ¤Õ║”
 1774              		.loc 1 161 17 is_stmt 0 discriminator 3 view .LVU528
 1775 082c 42A3     		adr	r3, .L109
 1776 082e D3E90023 		ldrd	r2, [r3]
 1777 0832 FFF7FEFF 		bl	__aeabi_dsub
 1778              	.LVL116:
 1779              	.LBE128:
 1780 0836 FFF7FEFF 		bl	__aeabi_d2f
 1781              	.LVL117:
 1782 083a 07EE900A 		vmov	s15, r0
 161:My_Top/Motor_Control/DcMotor_ClosedLoop.cpp ****       //µ¢╣Õ╝Å1 õĮÄķĆÜµ╗żµ│ó µø┤µ¢░µ£║µó░Ķ¦ÆÕ║”ķĆ¤Õ║”
 1783              		.loc 1 161 15 discriminator 3 view .LVU529
 1784 083e 6061     		str	r0, [r4, #20]	@ float
 163:My_Top/Motor_Control/DcMotor_ClosedLoop.cpp ****       theta_m_last = theta_m; // µø┤µ¢░õĖŖõĖĆµ¼ĪńÜäµ£║µó░Ķ¦ÆÕ║”
 1785              		.loc 1 163 7 is_stmt 1 view .LVU530
 163:My_Top/Motor_Control/DcMotor_ClosedLoop.cpp ****       theta_m_last = theta_m; // µø┤µ¢░õĖŖõĖĆµ¼ĪńÜäµ£║µó░Ķ¦ÆÕ║”
 1786              		.loc 1 163 38 is_stmt 0 view .LVU531
 1787 0840 94ED2B7A 		vldr.32	s14, [r4, #172]
 163:My_Top/Motor_Control/DcMotor_ClosedLoop.cpp ****       theta_m_last = theta_m; // µø┤µ¢░õĖŖõĖĆµ¼ĪńÜäµ£║µó░Ķ¦ÆÕ║”
 1788              		.loc 1 163 36 view .LVU532
 1789 0844 37EEC77A 		vsub.f32	s14, s15, s14
 163:My_Top/Motor_Control/DcMotor_ClosedLoop.cpp ****       theta_m_last = theta_m; // µø┤µ¢░õĖŖõĖĆµ¼ĪńÜäµ£║µó░Ķ¦ÆÕ║”
 1790              		.loc 1 163 26 view .LVU533
 1791 0848 414B     		ldr	r3, .L109+24
 1792 084a 83ED007A 		vstr.32	s14, [r3]
 164:My_Top/Motor_Control/DcMotor_ClosedLoop.cpp ****       theta_m_offic = wrap_to_PI(theta_m_offic_temp);// Õ░åÕĘ«ÕĆ╝Ķ¦äµĢ┤Õł░ [-PI, PI) Õī║ķŚ┤
 1793              		.loc 1 164 7 is_stmt 1 view .LVU534
 164:My_Top/Motor_Control/DcMotor_ClosedLoop.cpp ****       theta_m_offic = wrap_to_PI(theta_m_offic_temp);// Õ░åÕĘ«ÕĆ╝Ķ¦äµĢ┤Õł░ [-PI, PI) Õī║ķŚ┤
 1794              		.loc 1 164 20 is_stmt 0 view .LVU535
 1795 084e C4F8AC00 		str	r0, [r4, #172]	@ float
 165:My_Top/Motor_Control/DcMotor_ClosedLoop.cpp **** 
 1796              		.loc 1 165 7 is_stmt 1 view .LVU536
 1797              	.LBB129:
 165:My_Top/Motor_Control/DcMotor_ClosedLoop.cpp **** 
 1798              		.loc 1 165 23 view .LVU537
 1799 0852 17EE100A 		vmov	r0, s14
 1800 0856 FFF7FEFF 		bl	__aeabi_f2d
 1801              	.LVL118:
 1802 085a 37A3     		adr	r3, .L109
 1803 085c D3E90023 		ldrd	r2, [r3]
 1804 0860 FFF7FEFF 		bl	__aeabi_dadd
 1805              	.LVL119:
ARM GAS  /tmp/cc0AM0z6.s 			page 46


 1806 0864 FFF7FEFF 		bl	__aeabi_d2f
 1807              	.LVL120:
 1808 0868 DFED380A 		vldr.32	s1, .L109+20
 1809 086c 00EE100A 		vmov	s0, r0
 1810 0870 FFF7FEFF 		bl	fmodf
 1811              	.LVL121:
 165:My_Top/Motor_Control/DcMotor_ClosedLoop.cpp **** 
 1812              		.loc 1 165 23 discriminator 1 view .LVU538
 1813 0874 B5EEC00A 		vcmpe.f32	s0, #0
 1814 0878 F1EE10FA 		vmrs	APSR_nzcv, FPSCR
 1815 087c 3BD4     		bmi	.L108
 1816              	.LVL122:
 1817              	.L101:
 165:My_Top/Motor_Control/DcMotor_ClosedLoop.cpp **** 
 1818              		.loc 1 165 23 discriminator 3 view .LVU539
 1819 087e 10EE100A 		vmov	r0, s0
 1820 0882 FFF7FEFF 		bl	__aeabi_f2d
 1821              	.LVL123:
 165:My_Top/Motor_Control/DcMotor_ClosedLoop.cpp **** 
 1822              		.loc 1 165 23 is_stmt 0 discriminator 3 view .LVU540
 1823 0886 2CA3     		adr	r3, .L109
 1824 0888 D3E90023 		ldrd	r2, [r3]
 1825 088c FFF7FEFF 		bl	__aeabi_dsub
 1826              	.LVL124:
 1827              	.LBE129:
 1828 0890 FFF7FEFF 		bl	__aeabi_d2f
 1829              	.LVL125:
 1830 0894 00EE100A 		vmov	s0, r0
 165:My_Top/Motor_Control/DcMotor_ClosedLoop.cpp **** 
 1831              		.loc 1 165 21 discriminator 3 view .LVU541
 1832 0898 C4F8B000 		str	r0, [r4, #176]	@ float
 167:My_Top/Motor_Control/DcMotor_ClosedLoop.cpp ****       theta_m_speed = theta_m_offic_filtered*DC_VELOCITY_LOOP_FREQ_HZ;//speed=ĶĘ»ń©ŗ/t 
 1833              		.loc 1 167 7 is_stmt 1 view .LVU542
 167:My_Top/Motor_Control/DcMotor_ClosedLoop.cpp ****       theta_m_speed = theta_m_offic_filtered*DC_VELOCITY_LOOP_FREQ_HZ;//speed=ĶĘ»ń©ŗ/t 
 1834              		.loc 1 167 48 is_stmt 0 view .LVU543
 1835 089c 04F16400 		add	r0, r4, #100
 1836 08a0 FFF7FEFF 		bl	_ZN13LowpassFilter6filterEf
 1837              	.LVL126:
 167:My_Top/Motor_Control/DcMotor_ClosedLoop.cpp ****       theta_m_speed = theta_m_offic_filtered*DC_VELOCITY_LOOP_FREQ_HZ;//speed=ĶĘ»ń©ŗ/t 
 1838              		.loc 1 167 30 discriminator 1 view .LVU544
 1839 08a4 84ED2D0A 		vstr.32	s0, [r4, #180]
 168:My_Top/Motor_Control/DcMotor_ClosedLoop.cpp ****       theta_av_speed = speed_avg.filter(theta_m_speed);//Õ»╣ķĆ¤Õ║”Ķ┐øĶĪīÕ╣│ÕØćÕĆ╝µ╗żµ│ó
 1840              		.loc 1 168 7 is_stmt 1 view .LVU545
 168:My_Top/Motor_Control/DcMotor_ClosedLoop.cpp ****       theta_av_speed = speed_avg.filter(theta_m_speed);//Õ»╣ķĆ¤Õ║”Ķ┐øĶĪīÕ╣│ÕØćÕĆ╝µ╗żµ│ó
 1841              		.loc 1 168 45 is_stmt 0 view .LVU546
 1842 08a8 DFED2A7A 		vldr.32	s15, .L109+28
 1843 08ac 20EE270A 		vmul.f32	s0, s0, s15
 168:My_Top/Motor_Control/DcMotor_ClosedLoop.cpp ****       theta_av_speed = speed_avg.filter(theta_m_speed);//Õ»╣ķĆ¤Õ║”Ķ┐øĶĪīÕ╣│ÕØćÕĆ╝µ╗żµ│ó
 1844              		.loc 1 168 21 view .LVU547
 1845 08b0 84ED2E0A 		vstr.32	s0, [r4, #184]
 169:My_Top/Motor_Control/DcMotor_ClosedLoop.cpp ****       filtered_speed = speed_lpf.filter(theta_av_speed);//Õ»╣ķĆ¤Õ║”Ķ┐øĶĪīõĮÄķĆÜµ╗żµ│ó
 1846              		.loc 1 169 7 is_stmt 1 view .LVU548
 169:My_Top/Motor_Control/DcMotor_ClosedLoop.cpp ****       filtered_speed = speed_lpf.filter(theta_av_speed);//Õ»╣ķĆ¤Õ║”Ķ┐øĶĪīõĮÄķĆÜµ╗żµ│ó
 1847              		.loc 1 169 40 is_stmt 0 view .LVU549
 1848 08b4 04F16C00 		add	r0, r4, #108
 1849 08b8 FFF7FEFF 		bl	_ZN9AvgFilter6filterEf
 1850              	.LVL127:
ARM GAS  /tmp/cc0AM0z6.s 			page 47


 169:My_Top/Motor_Control/DcMotor_ClosedLoop.cpp ****       filtered_speed = speed_lpf.filter(theta_av_speed);//Õ»╣ķĆ¤Õ║”Ķ┐øĶĪīõĮÄķĆÜµ╗żµ│ó
 1851              		.loc 1 169 22 discriminator 1 view .LVU550
 1852 08bc 84ED2F0A 		vstr.32	s0, [r4, #188]
 170:My_Top/Motor_Control/DcMotor_ClosedLoop.cpp ****       reg_final = theta_m; //Õ░åµ£║µó░Ķ¦ÆÕ║”ĶĄŗÕĆ╝ń╗Öµ£Ćń╗łĶ¦ÆÕ║”
 1853              		.loc 1 170 7 is_stmt 1 view .LVU551
 170:My_Top/Motor_Control/DcMotor_ClosedLoop.cpp ****       reg_final = theta_m; //Õ░åµ£║µó░Ķ¦ÆÕ║”ĶĄŗÕĆ╝ń╗Öµ£Ćń╗łĶ¦ÆÕ║”
 1854              		.loc 1 170 40 is_stmt 0 view .LVU552
 1855 08c0 04F15C00 		add	r0, r4, #92
 1856 08c4 FFF7FEFF 		bl	_ZN13LowpassFilter6filterEf
 1857              	.LVL128:
 1858 08c8 10EE105A 		vmov	r5, s0
 170:My_Top/Motor_Control/DcMotor_ClosedLoop.cpp ****       reg_final = theta_m; //Õ░åµ£║µó░Ķ¦ÆÕ║”ĶĄŗÕĆ╝ń╗Öµ£Ćń╗łĶ¦ÆÕ║”
 1859              		.loc 1 170 22 discriminator 1 view .LVU553
 1860 08cc 84ED300A 		vstr.32	s0, [r4, #192]
 171:My_Top/Motor_Control/DcMotor_ClosedLoop.cpp ****       theta_deg_final = rad2deg(reg_final); //Õ░åÕ╝¦Õ║”ĶĮ¼µŹóõĖ║360Õ║”
 1861              		.loc 1 171 7 is_stmt 1 view .LVU554
 171:My_Top/Motor_Control/DcMotor_ClosedLoop.cpp ****       theta_deg_final = rad2deg(reg_final); //Õ░åÕ╝¦Õ║”ĶĮ¼µŹóõĖ║360Õ║”
 1862              		.loc 1 171 19 is_stmt 0 view .LVU555
 1863 08d0 6069     		ldr	r0, [r4, #20]	@ float
 171:My_Top/Motor_Control/DcMotor_ClosedLoop.cpp ****       theta_deg_final = rad2deg(reg_final); //Õ░åÕ╝¦Õ║”ĶĮ¼µŹóõĖ║360Õ║”
 1864              		.loc 1 171 17 view .LVU556
 1865 08d2 A061     		str	r0, [r4, #24]	@ float
 172:My_Top/Motor_Control/DcMotor_ClosedLoop.cpp ****       Angular_velocity_final = filtered_speed;  //Õ░åµ£Ćń╗łķĆ¤Õ║”ĶĄŗÕĆ╝ń╗Öµ£Ćń╗łĶ¦ÆķĆ¤Õ║”
 1866              		.loc 1 172 7 is_stmt 1 view .LVU557
 172:My_Top/Motor_Control/DcMotor_ClosedLoop.cpp ****       Angular_velocity_final = filtered_speed;  //Õ░åµ£Ćń╗łķĆ¤Õ║”ĶĄŗÕĆ╝ń╗Öµ£Ćń╗łĶ¦ÆķĆ¤Õ║”
 1867              		.loc 1 172 25 is_stmt 0 view .LVU558
 1868 08d4 FFF7FEFF 		bl	__aeabi_f2d
 1869              	.LVL129:
 1870 08d8 19A3     		adr	r3, .L109+8
 1871 08da D3E90023 		ldrd	r2, [r3]
 1872 08de FFF7FEFF 		bl	__aeabi_dmul
 1873              	.LVL130:
 1874 08e2 FFF7FEFF 		bl	__aeabi_d2f
 1875              	.LVL131:
 172:My_Top/Motor_Control/DcMotor_ClosedLoop.cpp ****       Angular_velocity_final = filtered_speed;  //Õ░åµ£Ćń╗łķĆ¤Õ║”ĶĄŗÕĆ╝ń╗Öµ£Ćń╗łĶ¦ÆķĆ¤Õ║”
 1876              		.loc 1 172 23 view .LVU559
 1877 08e6 E061     		str	r0, [r4, #28]	@ float
 173:My_Top/Motor_Control/DcMotor_ClosedLoop.cpp ****       
 1878              		.loc 1 173 7 is_stmt 1 view .LVU560
 173:My_Top/Motor_Control/DcMotor_ClosedLoop.cpp ****       
 1879              		.loc 1 173 30 is_stmt 0 view .LVU561
 1880 08e8 2562     		str	r5, [r4, #32]	@ float
 1881              	.LVL132:
 1882              	.L97:
 173:My_Top/Motor_Control/DcMotor_ClosedLoop.cpp ****       
 1883              		.loc 1 173 30 view .LVU562
 1884              	.LBE127:
 1885              	.LBE126:
 184:My_Top/Motor_Control/DcMotor_ClosedLoop.cpp **** 
 1886              		.loc 1 184 1 view .LVU563
 1887 08ea 38BD     		pop	{r3, r4, r5, pc}
 1888              	.LVL133:
 1889              	.L107:
 1890              	.LBB133:
 1891              	.LBB132:
 1892              	.LBB130:
 161:My_Top/Motor_Control/DcMotor_ClosedLoop.cpp ****       //µ¢╣Õ╝Å1 õĮÄķĆÜµ╗żµ│ó µø┤µ¢░µ£║µó░Ķ¦ÆÕ║”ķĆ¤Õ║”
ARM GAS  /tmp/cc0AM0z6.s 			page 48


 1893              		.loc 1 161 17 is_stmt 1 discriminator 1 view .LVU564
 1894 08ec DFED177A 		vldr.32	s15, .L109+20
 1895 08f0 30EE270A 		vadd.f32	s0, s0, s15
 1896              	.LVL134:
 161:My_Top/Motor_Control/DcMotor_ClosedLoop.cpp ****       //µ¢╣Õ╝Å1 õĮÄķĆÜµ╗żµ│ó µø┤µ¢░µ£║µó░Ķ¦ÆÕ║”ķĆ¤Õ║”
 1897              		.loc 1 161 17 is_stmt 0 discriminator 1 view .LVU565
 1898 08f4 96E7     		b	.L99
 1899              	.LVL135:
 1900              	.L108:
 161:My_Top/Motor_Control/DcMotor_ClosedLoop.cpp ****       //µ¢╣Õ╝Å1 õĮÄķĆÜµ╗żµ│ó µø┤µ¢░µ£║µó░Ķ¦ÆÕ║”ķĆ¤Õ║”
 1901              		.loc 1 161 17 discriminator 1 view .LVU566
 1902              	.LBE130:
 1903              	.LBB131:
 165:My_Top/Motor_Control/DcMotor_ClosedLoop.cpp **** 
 1904              		.loc 1 165 23 is_stmt 1 discriminator 1 view .LVU567
 1905 08f6 DFED157A 		vldr.32	s15, .L109+20
 1906 08fa 30EE270A 		vadd.f32	s0, s0, s15
 1907              	.LVL136:
 165:My_Top/Motor_Control/DcMotor_ClosedLoop.cpp **** 
 1908              		.loc 1 165 23 is_stmt 0 discriminator 1 view .LVU568
 1909 08fe BEE7     		b	.L101
 1910              	.LVL137:
 1911              	.L98:
 165:My_Top/Motor_Control/DcMotor_ClosedLoop.cpp **** 
 1912              		.loc 1 165 23 discriminator 1 view .LVU569
 1913              	.LBE131:
 1914              	.LBE132:
 175:My_Top/Motor_Control/DcMotor_ClosedLoop.cpp ****     {
 1915              		.loc 1 175 11 is_stmt 1 view .LVU570
 178:My_Top/Motor_Control/DcMotor_ClosedLoop.cpp ****       reg_final = _pll_reg_out; //Õ░åPLLķöüńøĖńÄ»ńÜäĶŠōÕć║Ķ¦ÆÕ║”ĶĄŗÕĆ╝ń╗Öµ£Ćń╗łĶ¦ÆÕ║”
 1916              		.loc 1 178 7 view .LVU571
 178:My_Top/Motor_Control/DcMotor_ClosedLoop.cpp ****       reg_final = _pll_reg_out; //Õ░åPLLķöüńøĖńÄ»ńÜäĶŠōÕć║Ķ¦ÆÕ║”ĶĄŗÕĆ╝ń╗Öµ£Ćń╗łĶ¦ÆÕ║”
 1917              		.loc 1 178 18 is_stmt 0 view .LVU572
 1918 0900 04F1D002 		add	r2, r4, #208
 1919 0904 04F1C801 		add	r1, r4, #200
 1920 0908 04F1C400 		add	r0, r4, #196
 1921 090c DFED120A 		vldr.32	s1, .L109+32
 1922 0910 FFF7FEFF 		bl	_Z11foc_pll_runffPfS_P13PLL_Parameter
 1923              	.LVL138:
 179:My_Top/Motor_Control/DcMotor_ClosedLoop.cpp ****       theta_deg_final = rad2deg(reg_final); //Õ░åÕ╝¦Õ║”ĶĮ¼µŹóõĖ║360Õ║”
 1924              		.loc 1 179 7 is_stmt 1 view .LVU573
 179:My_Top/Motor_Control/DcMotor_ClosedLoop.cpp ****       theta_deg_final = rad2deg(reg_final); //Õ░åÕ╝¦Õ║”ĶĮ¼µŹóõĖ║360Õ║”
 1925              		.loc 1 179 19 is_stmt 0 view .LVU574
 1926 0914 D4F8C400 		ldr	r0, [r4, #196]	@ float
 179:My_Top/Motor_Control/DcMotor_ClosedLoop.cpp ****       theta_deg_final = rad2deg(reg_final); //Õ░åÕ╝¦Õ║”ĶĮ¼µŹóõĖ║360Õ║”
 1927              		.loc 1 179 17 view .LVU575
 1928 0918 A061     		str	r0, [r4, #24]	@ float
 180:My_Top/Motor_Control/DcMotor_ClosedLoop.cpp ****       Angular_velocity_final = _pll_Angular_velocity; //Õ░åµ£Ćń╗łķĆ¤Õ║”ĶĄŗÕĆ╝ń╗Öµ£Ćń╗łĶ¦ÆķĆ¤Õ║”
 1929              		.loc 1 180 7 is_stmt 1 view .LVU576
 180:My_Top/Motor_Control/DcMotor_ClosedLoop.cpp ****       Angular_velocity_final = _pll_Angular_velocity; //Õ░åµ£Ćń╗łķĆ¤Õ║”ĶĄŗÕĆ╝ń╗Öµ£Ćń╗łĶ¦ÆķĆ¤Õ║”
 1930              		.loc 1 180 25 is_stmt 0 view .LVU577
 1931 091a FFF7FEFF 		bl	__aeabi_f2d
 1932              	.LVL139:
 1933 091e 08A3     		adr	r3, .L109+8
 1934 0920 D3E90023 		ldrd	r2, [r3]
 1935 0924 FFF7FEFF 		bl	__aeabi_dmul
 1936              	.LVL140:
ARM GAS  /tmp/cc0AM0z6.s 			page 49


 1937 0928 FFF7FEFF 		bl	__aeabi_d2f
 1938              	.LVL141:
 180:My_Top/Motor_Control/DcMotor_ClosedLoop.cpp ****       Angular_velocity_final = _pll_Angular_velocity; //Õ░åµ£Ćń╗łķĆ¤Õ║”ĶĄŗÕĆ╝ń╗Öµ£Ćń╗łĶ¦ÆķĆ¤Õ║”
 1939              		.loc 1 180 23 view .LVU578
 1940 092c E061     		str	r0, [r4, #28]	@ float
 181:My_Top/Motor_Control/DcMotor_ClosedLoop.cpp ****     }
 1941              		.loc 1 181 7 is_stmt 1 view .LVU579
 181:My_Top/Motor_Control/DcMotor_ClosedLoop.cpp ****     }
 1942              		.loc 1 181 32 is_stmt 0 view .LVU580
 1943 092e D4F8C830 		ldr	r3, [r4, #200]	@ float
 181:My_Top/Motor_Control/DcMotor_ClosedLoop.cpp ****     }
 1944              		.loc 1 181 30 view .LVU581
 1945 0932 2362     		str	r3, [r4, #32]	@ float
 1946              	.LBE133:
 184:My_Top/Motor_Control/DcMotor_ClosedLoop.cpp **** 
 1947              		.loc 1 184 1 view .LVU582
 1948 0934 D9E7     		b	.L97
 1949              	.L110:
 1950 0936 00BF     		.align	3
 1951              	.L109:
 1952 0938 182D4454 		.word	1413754136
 1953 093c FB210940 		.word	1074340347
 1954 0940 F8C1631A 		.word	442745336
 1955 0944 DCA54C40 		.word	1078765020
 1956 0948 40050000 		.word	.LANCHOR0+1344
 1957 094c DB0FC940 		.word	1086918619
 1958 0950 44050000 		.word	.LANCHOR0+1348
 1959 0954 00007A45 		.word	1165623296
 1960 0958 6F128339 		.word	964891247
 1961              		.cfi_endproc
 1962              	.LFE1352:
 1964              		.align	1
 1965              		.global	_ZN8DC_Motor10Speed_LoopEv
 1966              		.syntax unified
 1967              		.thumb
 1968              		.thumb_func
 1970              	_ZN8DC_Motor10Speed_LoopEv:
 1971              	.LVL142:
 1972              	.LFB1353:
 188:My_Top/Motor_Control/DcMotor_ClosedLoop.cpp ****     float _delta_pwm = 0.0f; //Ķ«Īń«ŚPIDÕó×ķćÅ
 1973              		.loc 1 188 1 is_stmt 1 view -0
 1974              		.cfi_startproc
 1975              		@ args = 0, pretend = 0, frame = 0
 1976              		@ frame_needed = 0, uses_anonymous_args = 0
 188:My_Top/Motor_Control/DcMotor_ClosedLoop.cpp ****     float _delta_pwm = 0.0f; //Ķ«Īń«ŚPIDÕó×ķćÅ
 1977              		.loc 1 188 1 is_stmt 0 view .LVU584
 1978 095c 10B5     		push	{r4, lr}
 1979              		.cfi_def_cfa_offset 8
 1980              		.cfi_offset 4, -8
 1981              		.cfi_offset 14, -4
 1982 095e 0446     		mov	r4, r0
 189:My_Top/Motor_Control/DcMotor_ClosedLoop.cpp ****     float error_speed = _target_speed - Angular_velocity_final; //Ķ«Īń«ŚķĆ¤Õ║”Ķ»»ÕĘ«
 1983              		.loc 1 189 5 is_stmt 1 view .LVU585
 1984              	.LVL143:
 190:My_Top/Motor_Control/DcMotor_ClosedLoop.cpp **** 
 1985              		.loc 1 190 5 view .LVU586
 190:My_Top/Motor_Control/DcMotor_ClosedLoop.cpp **** 
ARM GAS  /tmp/cc0AM0z6.s 			page 50


 1986              		.loc 1 190 25 is_stmt 0 view .LVU587
 1987 0960 90ED0A0A 		vldr.32	s0, [r0, #40]
 190:My_Top/Motor_Control/DcMotor_ClosedLoop.cpp **** 
 1988              		.loc 1 190 41 view .LVU588
 1989 0964 D0ED087A 		vldr.32	s15, [r0, #32]
 1990              	.LVL144:
 192:My_Top/Motor_Control/DcMotor_ClosedLoop.cpp ****     updown_duty += _delta_pwm; //µø┤µ¢░ńöĄµ£║ķóæńÄć
 1991              		.loc 1 192 5 is_stmt 1 view .LVU589
 192:My_Top/Motor_Control/DcMotor_ClosedLoop.cpp ****     updown_duty += _delta_pwm; //µø┤µ¢░ńöĄµ£║ķóæńÄć
 1992              		.loc 1 192 44 is_stmt 0 view .LVU590
 1993 0968 30EE670A 		vsub.f32	s0, s0, s15
 1994              	.LVL145:
 192:My_Top/Motor_Control/DcMotor_ClosedLoop.cpp ****     updown_duty += _delta_pwm; //µø┤µ¢░ńöĄµ£║ķóæńÄć
 1995              		.loc 1 192 44 view .LVU591
 1996 096c C06B     		ldr	r0, [r0, #60]
 1997              	.LVL146:
 192:My_Top/Motor_Control/DcMotor_ClosedLoop.cpp ****     updown_duty += _delta_pwm; //µø┤µ¢░ńöĄµ£║ķóæńÄć
 1998              		.loc 1 192 44 view .LVU592
 1999 096e FFF7FEFF 		bl	_ZN13PID_Increment6updateEf
 2000              	.LVL147:
 193:My_Top/Motor_Control/DcMotor_ClosedLoop.cpp ****     Set_Motor_Glo_Duty(); //Ķ«ŠńĮ«ńöĄµ£║Õģ©Õ▒ĆÕŹĀń®║µ»ö
 2001              		.loc 1 193 5 is_stmt 1 view .LVU593
 2002 0972 D4ED047A 		vldr.32	s15, [r4, #16]
 193:My_Top/Motor_Control/DcMotor_ClosedLoop.cpp ****     Set_Motor_Glo_Duty(); //Ķ«ŠńĮ«ńöĄµ£║Õģ©Õ▒ĆÕŹĀń®║µ»ö
 2003              		.loc 1 193 17 is_stmt 0 view .LVU594
 2004 0976 77EE807A 		vadd.f32	s15, s15, s0
 2005 097a C4ED047A 		vstr.32	s15, [r4, #16]
 194:My_Top/Motor_Control/DcMotor_ClosedLoop.cpp **** }
 2006              		.loc 1 194 5 is_stmt 1 view .LVU595
 194:My_Top/Motor_Control/DcMotor_ClosedLoop.cpp **** }
 2007              		.loc 1 194 23 is_stmt 0 view .LVU596
 2008 097e 2046     		mov	r0, r4
 2009 0980 FFF7FEFF 		bl	_ZN8DC_Motor18Set_Motor_Glo_DutyEv
 2010              	.LVL148:
 195:My_Top/Motor_Control/DcMotor_ClosedLoop.cpp **** 
 2011              		.loc 1 195 1 view .LVU597
 2012 0984 10BD     		pop	{r4, pc}
 195:My_Top/Motor_Control/DcMotor_ClosedLoop.cpp **** 
 2013              		.loc 1 195 1 view .LVU598
 2014              		.cfi_endproc
 2015              	.LFE1353:
 2017              		.align	1
 2018              		.global	_ZN8DC_Motor13Location_LoopEv
 2019              		.syntax unified
 2020              		.thumb
 2021              		.thumb_func
 2023              	_ZN8DC_Motor13Location_LoopEv:
 2024              	.LVL149:
 2025              	.LFB1354:
 199:My_Top/Motor_Control/DcMotor_ClosedLoop.cpp ****     float _delta_fre = 0.0f;
 2026              		.loc 1 199 1 is_stmt 1 view -0
 2027              		.cfi_startproc
 2028              		@ args = 0, pretend = 0, frame = 0
 2029              		@ frame_needed = 0, uses_anonymous_args = 0
 199:My_Top/Motor_Control/DcMotor_ClosedLoop.cpp ****     float _delta_fre = 0.0f;
 2030              		.loc 1 199 1 is_stmt 0 view .LVU600
 2031 0986 D0B5     		push	{r4, r6, r7, lr}
ARM GAS  /tmp/cc0AM0z6.s 			page 51


 2032              		.cfi_def_cfa_offset 16
 2033              		.cfi_offset 4, -16
 2034              		.cfi_offset 6, -12
 2035              		.cfi_offset 7, -8
 2036              		.cfi_offset 14, -4
 2037 0988 0446     		mov	r4, r0
 200:My_Top/Motor_Control/DcMotor_ClosedLoop.cpp ****     float _target_error_location = deg2rad(_target_location2) - reg_final; //Ķ«Īń«ŚõĮŹńĮ«Ķ»»ÕĘ«
 2038              		.loc 1 200 5 is_stmt 1 view .LVU601
 2039              	.LVL150:
 201:My_Top/Motor_Control/DcMotor_ClosedLoop.cpp ****     _target_speed = pid_location->update(_target_error_location); //
 2040              		.loc 1 201 5 view .LVU602
 201:My_Top/Motor_Control/DcMotor_ClosedLoop.cpp ****     _target_speed = pid_location->update(_target_error_location); //
 2041              		.loc 1 201 36 is_stmt 0 view .LVU603
 2042 098a C06A     		ldr	r0, [r0, #44]	@ float
 2043              	.LVL151:
 201:My_Top/Motor_Control/DcMotor_ClosedLoop.cpp ****     _target_speed = pid_location->update(_target_error_location); //
 2044              		.loc 1 201 36 view .LVU604
 2045 098c FFF7FEFF 		bl	__aeabi_f2d
 2046              	.LVL152:
 2047 0990 0FA3     		adr	r3, .L115
 2048 0992 D3E90023 		ldrd	r2, [r3]
 2049 0996 FFF7FEFF 		bl	__aeabi_dmul
 2050              	.LVL153:
 2051 099a 0646     		mov	r6, r0
 2052 099c 0F46     		mov	r7, r1
 201:My_Top/Motor_Control/DcMotor_ClosedLoop.cpp ****     _target_speed = pid_location->update(_target_error_location); //
 2053              		.loc 1 201 65 view .LVU605
 2054 099e A069     		ldr	r0, [r4, #24]	@ float
 2055 09a0 FFF7FEFF 		bl	__aeabi_f2d
 2056              	.LVL154:
 2057 09a4 0246     		mov	r2, r0
 2058 09a6 0B46     		mov	r3, r1
 201:My_Top/Motor_Control/DcMotor_ClosedLoop.cpp ****     _target_speed = pid_location->update(_target_error_location); //
 2059              		.loc 1 201 63 view .LVU606
 2060 09a8 3046     		mov	r0, r6
 2061 09aa 3946     		mov	r1, r7
 2062 09ac FFF7FEFF 		bl	__aeabi_dsub
 2063              	.LVL155:
 201:My_Top/Motor_Control/DcMotor_ClosedLoop.cpp ****     _target_speed = pid_location->update(_target_error_location); //
 2064              		.loc 1 201 11 view .LVU607
 2065 09b0 FFF7FEFF 		bl	__aeabi_d2f
 2066              	.LVL156:
 202:My_Top/Motor_Control/DcMotor_ClosedLoop.cpp ****     Speed_Loop(); //õĮŹńĮ«ńÄ»Õåģķā©Ķ░āńö©ķĆ¤Õ║”ńÄ»µÄ¦ÕłČ
 2067              		.loc 1 202 5 is_stmt 1 view .LVU608
 202:My_Top/Motor_Control/DcMotor_ClosedLoop.cpp ****     Speed_Loop(); //õĮŹńĮ«ńÄ»Õåģķā©Ķ░āńö©ķĆ¤Õ║”ńÄ»µÄ¦ÕłČ
 2068              		.loc 1 202 41 is_stmt 0 view .LVU609
 2069 09b4 00EE100A 		vmov	s0, r0
 2070 09b8 206C     		ldr	r0, [r4, #64]
 2071              	.LVL157:
 202:My_Top/Motor_Control/DcMotor_ClosedLoop.cpp ****     Speed_Loop(); //õĮŹńĮ«ńÄ»Õåģķā©Ķ░āńö©ķĆ¤Õ║”ńÄ»µÄ¦ÕłČ
 2072              		.loc 1 202 41 view .LVU610
 2073 09ba FFF7FEFF 		bl	_ZN3PID6updateEf
 2074              	.LVL158:
 202:My_Top/Motor_Control/DcMotor_ClosedLoop.cpp ****     Speed_Loop(); //õĮŹńĮ«ńÄ»Õåģķā©Ķ░āńö©ķĆ¤Õ║”ńÄ»µÄ¦ÕłČ
 2075              		.loc 1 202 19 discriminator 1 view .LVU611
 2076 09be 84ED0A0A 		vstr.32	s0, [r4, #40]
 203:My_Top/Motor_Control/DcMotor_ClosedLoop.cpp **** }
ARM GAS  /tmp/cc0AM0z6.s 			page 52


 2077              		.loc 1 203 5 is_stmt 1 view .LVU612
 203:My_Top/Motor_Control/DcMotor_ClosedLoop.cpp **** }
 2078              		.loc 1 203 15 is_stmt 0 view .LVU613
 2079 09c2 2046     		mov	r0, r4
 2080 09c4 FFF7FEFF 		bl	_ZN8DC_Motor10Speed_LoopEv
 2081              	.LVL159:
 204:My_Top/Motor_Control/DcMotor_ClosedLoop.cpp **** 
 2082              		.loc 1 204 1 view .LVU614
 2083 09c8 D0BD     		pop	{r4, r6, r7, pc}
 2084              	.LVL160:
 2085              	.L116:
 204:My_Top/Motor_Control/DcMotor_ClosedLoop.cpp **** 
 2086              		.loc 1 204 1 view .LVU615
 2087 09ca 00BFAFF3 		.align	3
 2087      0080
 2088              	.L115:
 2089 09d0 399D52A2 		.word	-1571644103
 2090 09d4 46DF913F 		.word	1066524486
 2091              		.cfi_endproc
 2092              	.LFE1354:
 2094              		.align	1
 2095              		.global	_ZN8DC_Motor15Thermistor_TempEv
 2096              		.syntax unified
 2097              		.thumb
 2098              		.thumb_func
 2100              	_ZN8DC_Motor15Thermistor_TempEv:
 2101              	.LVL161:
 2102              	.LFB1355:
 211:My_Top/Motor_Control/DcMotor_ClosedLoop.cpp ****     float adc_av_val = 0.0f;
 2103              		.loc 1 211 1 is_stmt 1 view -0
 2104              		.cfi_startproc
 2105              		@ args = 0, pretend = 0, frame = 0
 2106              		@ frame_needed = 0, uses_anonymous_args = 0
 211:My_Top/Motor_Control/DcMotor_ClosedLoop.cpp ****     float adc_av_val = 0.0f;
 2107              		.loc 1 211 1 is_stmt 0 view .LVU617
 2108 09d8 D0B5     		push	{r4, r6, r7, lr}
 2109              		.cfi_def_cfa_offset 16
 2110              		.cfi_offset 4, -16
 2111              		.cfi_offset 6, -12
 2112              		.cfi_offset 7, -8
 2113              		.cfi_offset 14, -4
 2114 09da 2DED028B 		vpush.64	{d8}
 2115              		.cfi_def_cfa_offset 24
 2116              		.cfi_offset 80, -24
 2117              		.cfi_offset 81, -20
 2118 09de 0446     		mov	r4, r0
 212:My_Top/Motor_Control/DcMotor_ClosedLoop.cpp ****     
 2119              		.loc 1 212 5 is_stmt 1 view .LVU618
 2120              	.LVL162:
 214:My_Top/Motor_Control/DcMotor_ClosedLoop.cpp ****     // ADC ÕĆ╝Õ╝éÕĖĖ’╝łµé¼ń®║/µ£¬µÄźńāŁµĢÅńöĄķś╗ ĶĘ│Ķ┐ćĶ«Īń«Ś
 2121              		.loc 1 214 5 view .LVU619
 214:My_Top/Motor_Control/DcMotor_ClosedLoop.cpp ****     // ADC ÕĆ╝Õ╝éÕĖĖ’╝łµé¼ń®║/µ£¬µÄźńāŁµĢÅńöĄķś╗ ĶĘ│Ķ┐ćĶ«Īń«Ś
 2122              		.loc 1 214 54 is_stmt 0 view .LVU620
 2123 09e0 D0F8A430 		ldr	r3, [r0, #164]
 214:My_Top/Motor_Control/DcMotor_ClosedLoop.cpp ****     // ADC ÕĆ╝Õ╝éÕĖĖ’╝łµé¼ń®║/µ£¬µÄźńāŁµĢÅńöĄķś╗ ĶĘ│Ķ┐ćĶ«Īń«Ś
 2124              		.loc 1 214 69 view .LVU621
 2125 09e4 93F82220 		ldrb	r2, [r3, #34]	@ zero_extendqisi2
ARM GAS  /tmp/cc0AM0z6.s 			page 53


 214:My_Top/Motor_Control/DcMotor_ClosedLoop.cpp ****     // ADC ÕĆ╝Õ╝éÕĖĖ’╝łµé¼ń®║/µ£¬µÄźńāŁµĢÅńöĄķś╗ ĶĘ│Ķ┐ćĶ«Īń«Ś
 2126              		.loc 1 214 80 view .LVU622
 2127 09e8 394B     		ldr	r3, .L121+24
 2128 09ea 03EB4203 		add	r3, r3, r2, lsl #1
 2129 09ee B3F84835 		ldrh	r3, [r3, #1352]
 2130 09f2 00EE103A 		vmov	s0, r3	@ int
 214:My_Top/Motor_Control/DcMotor_ClosedLoop.cpp ****     // ADC ÕĆ╝Õ╝éÕĖĖ’╝łµé¼ń®║/µ£¬µÄźńāŁµĢÅńöĄķś╗ ĶĘ│Ķ┐ćĶ«Īń«Ś
 2131              		.loc 1 214 36 view .LVU623
 2132 09f6 B8EE400A 		vcvt.f32.u32	s0, s0
 2133 09fa 8830     		adds	r0, r0, #136
 2134              	.LVL163:
 214:My_Top/Motor_Control/DcMotor_ClosedLoop.cpp ****     // ADC ÕĆ╝Õ╝éÕĖĖ’╝łµé¼ń®║/µ£¬µÄźńāŁµĢÅńöĄķś╗ ĶĘ│Ķ┐ćĶ«Īń«Ś
 2135              		.loc 1 214 36 view .LVU624
 2136 09fc FFF7FEFF 		bl	_ZN9AvgFilter6filterEf
 2137              	.LVL164:
 216:My_Top/Motor_Control/DcMotor_ClosedLoop.cpp **** 
 2138              		.loc 1 216 5 is_stmt 1 view .LVU625
 2139 0a00 F2EE047A 		vmov.f32	s15, #1.0e+1
 2140 0a04 B4EEE70A 		vcmpe.f32	s0, s15
 2141 0a08 F1EE10FA 		vmrs	APSR_nzcv, FPSCR
 2142 0a0c 08D4     		bmi	.L117
 2143 0a0e B0EE408A 		vmov.f32	s16, s0
 216:My_Top/Motor_Control/DcMotor_ClosedLoop.cpp **** 
 2144              		.loc 1 216 28 is_stmt 0 discriminator 2 view .LVU626
 2145 0a12 DFED307A 		vldr.32	s15, .L121+28
 2146 0a16 B4EEE70A 		vcmpe.f32	s0, s15
 2147 0a1a F1EE10FA 		vmrs	APSR_nzcv, FPSCR
 2148 0a1e 02DD     		ble	.L120
 2149              	.LVL165:
 2150              	.L117:
 2151              		.loc 1 223 1 view .LVU627
 2152 0a20 BDEC028B 		vldm	sp!, {d8}
 2153              		.cfi_remember_state
 2154              		.cfi_restore 80
 2155              		.cfi_restore 81
 2156              		.cfi_def_cfa_offset 16
 2157 0a24 D0BD     		pop	{r4, r6, r7, pc}
 2158              	.LVL166:
 2159              	.L120:
 2160              		.cfi_restore_state
 218:My_Top/Motor_Control/DcMotor_ClosedLoop.cpp **** 
 2161              		.loc 1 218 5 is_stmt 1 view .LVU628
 218:My_Top/Motor_Control/DcMotor_ClosedLoop.cpp **** 
 2162              		.loc 1 218 29 is_stmt 0 view .LVU629
 2163 0a26 DFED2C7A 		vldr.32	s15, .L121+32
 2164 0a2a 77EEC07A 		vsub.f32	s15, s15, s0
 2165 0a2e 17EE900A 		vmov	r0, s15
 2166 0a32 FFF7FEFF 		bl	__aeabi_f2d
 2167              	.LVL167:
 218:My_Top/Motor_Control/DcMotor_ClosedLoop.cpp **** 
 2168              		.loc 1 218 23 view .LVU630
 2169 0a36 0022     		movs	r2, #0
 2170 0a38 284B     		ldr	r3, .L121+36
 2171 0a3a FFF7FEFF 		bl	__aeabi_dmul
 2172              	.LVL168:
 2173 0a3e 0646     		mov	r6, r0
 2174 0a40 0F46     		mov	r7, r1
ARM GAS  /tmp/cc0AM0z6.s 			page 54


 218:My_Top/Motor_Control/DcMotor_ClosedLoop.cpp **** 
 2175              		.loc 1 218 44 view .LVU631
 2176 0a42 18EE100A 		vmov	r0, s16
 2177 0a46 FFF7FEFF 		bl	__aeabi_f2d
 2178              	.LVL169:
 2179 0a4a 0246     		mov	r2, r0
 2180 0a4c 0B46     		mov	r3, r1
 218:My_Top/Motor_Control/DcMotor_ClosedLoop.cpp **** 
 2181              		.loc 1 218 42 view .LVU632
 2182 0a4e 3046     		mov	r0, r6
 2183 0a50 3946     		mov	r1, r7
 2184 0a52 FFF7FEFF 		bl	__aeabi_ddiv
 2185              	.LVL170:
 2186 0a56 FFF7FEFF 		bl	__aeabi_d2f
 2187              	.LVL171:
 218:My_Top/Motor_Control/DcMotor_ClosedLoop.cpp **** 
 2188              		.loc 1 218 17 view .LVU633
 2189 0a5a 2063     		str	r0, [r4, #48]	@ float
 220:My_Top/Motor_Control/DcMotor_ClosedLoop.cpp ****     
 2190              		.loc 1 220 5 is_stmt 1 view .LVU634
 220:My_Top/Motor_Control/DcMotor_ClosedLoop.cpp ****     
 2191              		.loc 1 220 37 is_stmt 0 view .LVU635
 2192 0a5c FFF7FEFF 		bl	__aeabi_f2d
 2193              	.LVL172:
 220:My_Top/Motor_Control/DcMotor_ClosedLoop.cpp ****     
 2194              		.loc 1 220 36 view .LVU636
 2195 0a60 0022     		movs	r2, #0
 2196 0a62 1E4B     		ldr	r3, .L121+36
 2197 0a64 FFF7FEFF 		bl	__aeabi_ddiv
 2198              	.LVL173:
 2199 0a68 41EC100B 		vmov	d0, r0, r1
 2200 0a6c FFF7FEFF 		bl	log
 2201              	.LVL174:
 2202 0a70 51EC100B 		vmov	r0, r1, d0
 220:My_Top/Motor_Control/DcMotor_ClosedLoop.cpp ****     
 2203              		.loc 1 220 59 discriminator 1 view .LVU637
 2204 0a74 10A3     		adr	r3, .L121
 2205 0a76 D3E90023 		ldrd	r2, [r3]
 2206 0a7a FFF7FEFF 		bl	__aeabi_ddiv
 2207              	.LVL175:
 220:My_Top/Motor_Control/DcMotor_ClosedLoop.cpp ****     
 2208              		.loc 1 220 31 discriminator 1 view .LVU638
 2209 0a7e 10A3     		adr	r3, .L121+8
 2210 0a80 D3E90023 		ldrd	r2, [r3]
 2211 0a84 FFF7FEFF 		bl	__aeabi_dadd
 2212              	.LVL176:
 220:My_Top/Motor_Control/DcMotor_ClosedLoop.cpp ****     
 2213              		.loc 1 220 61 discriminator 1 view .LVU639
 2214 0a88 FFF7FEFF 		bl	__aeabi_d2f
 2215              	.LVL177:
 2216 0a8c 07EE900A 		vmov	s15, r0
 2217              	.LVL178:
 222:My_Top/Motor_Control/DcMotor_ClosedLoop.cpp **** }
 2218              		.loc 1 222 5 is_stmt 1 view .LVU640
 222:My_Top/Motor_Control/DcMotor_ClosedLoop.cpp **** }
 2219              		.loc 1 222 26 is_stmt 0 view .LVU641
 2220 0a90 B7EE007A 		vmov.f32	s14, #1.0e+0
ARM GAS  /tmp/cc0AM0z6.s 			page 55


 2221 0a94 C7EE277A 		vdiv.f32	s15, s14, s15
 2222 0a98 17EE900A 		vmov	r0, s15
 2223              	.LVL179:
 222:My_Top/Motor_Control/DcMotor_ClosedLoop.cpp **** }
 2224              		.loc 1 222 26 view .LVU642
 2225 0a9c FFF7FEFF 		bl	__aeabi_f2d
 2226              	.LVL180:
 222:My_Top/Motor_Control/DcMotor_ClosedLoop.cpp **** }
 2227              		.loc 1 222 35 view .LVU643
 2228 0aa0 09A3     		adr	r3, .L121+16
 2229 0aa2 D3E90023 		ldrd	r2, [r3]
 2230 0aa6 FFF7FEFF 		bl	__aeabi_dsub
 2231              	.LVL181:
 2232 0aaa FFF7FEFF 		bl	__aeabi_d2f
 2233              	.LVL182:
 222:My_Top/Motor_Control/DcMotor_ClosedLoop.cpp **** }
 2234              		.loc 1 222 18 view .LVU644
 2235 0aae 6063     		str	r0, [r4, #52]	@ float
 2236 0ab0 B6E7     		b	.L117
 2237              	.L122:
 2238 0ab2 00BFAFF3 		.align	3
 2238      0080
 2239              	.L121:
 2240 0ab8 00000000 		.word	0
 2241 0abc 00DCAE40 		.word	1085201408
 2242 0ac0 AA9D755E 		.word	1584766378
 2243 0ac4 034B6B3F 		.word	1063996163
 2244 0ac8 66666666 		.word	1717986918
 2245 0acc 66327140 		.word	1081160294
 2246 0ad0 00000000 		.word	.LANCHOR0
 2247 0ad4 00607F45 		.word	1165975552
 2248 0ad8 00008045 		.word	1166016512
 2249 0adc 00002440 		.word	1076101120
 2250              		.cfi_endproc
 2251              	.LFE1355:
 2253              		.align	1
 2254              		.syntax unified
 2255              		.thumb
 2256              		.thumb_func
 2258              	_GLOBAL__sub_I__ZN8DC_Motor14selected_motorE:
 2259              	.LFB1507:
 2260              		.loc 1 223 1 is_stmt 1 view -0
 2261              		.cfi_startproc
 2262              		@ args = 0, pretend = 0, frame = 0
 2263              		@ frame_needed = 0, uses_anonymous_args = 0
 2264 0ae0 08B5     		push	{r3, lr}
 2265              		.cfi_def_cfa_offset 8
 2266              		.cfi_offset 3, -8
 2267              		.cfi_offset 14, -4
 2268              		.loc 1 223 1 is_stmt 0 view .LVU646
 2269 0ae2 FFF78DFA 		bl	_Z41__static_initialization_and_destruction_0v
 2270              	.LVL183:
 2271 0ae6 08BD     		pop	{r3, pc}
 2272              		.cfi_endproc
 2273              	.LFE1507:
 2275              		.section	.init_array,"aw",%init_array
 2276              		.align	2
ARM GAS  /tmp/cc0AM0z6.s 			page 56


 2277 0000 00000000 		.word	_GLOBAL__sub_I__ZN8DC_Motor14selected_motorE(target1)
 2278              		.global	M4
 2279              		.global	M3
 2280              		.global	M2
 2281              		.global	M1
 2282              		.global	pid_loc_M4
 2283              		.global	pid_spd_M4
 2284              		.global	pid_loc_M3
 2285              		.global	pid_spd_M3
 2286              		.global	pid_loc_M2
 2287              		.global	pid_spd_M2
 2288              		.global	pid_loc_M1
 2289              		.global	pid_spd_M1
 2290              		.global	kth7111_M4
 2291              		.global	kth7111_M3
 2292              		.global	kth7111_M2
 2293              		.global	kth7111_M1
 2294              		.global	_ZN8DC_Motor9ADC_ValueE
 2295              		.global	_ZN8DC_Motor14selected_motorE
 2296              		.bss
 2297              		.align	3
 2298              		.set	.LANCHOR0,. + 0
 2301              	kth7111_M1:
 2302 0000 00000000 		.space	20
 2302      00000000 
 2302      00000000 
 2302      00000000 
 2302      00000000 
 2305              	kth7111_M2:
 2306 0014 00000000 		.space	20
 2306      00000000 
 2306      00000000 
 2306      00000000 
 2306      00000000 
 2309              	kth7111_M3:
 2310 0028 00000000 		.space	20
 2310      00000000 
 2310      00000000 
 2310      00000000 
 2310      00000000 
 2313              	kth7111_M4:
 2314 003c 00000000 		.space	20
 2314      00000000 
 2314      00000000 
 2314      00000000 
 2314      00000000 
 2317              	pid_spd_M1:
 2318 0050 00000000 		.space	36
 2318      00000000 
 2318      00000000 
 2318      00000000 
 2318      00000000 
 2321              	pid_loc_M1:
 2322 0074 00000000 		.space	56
 2322      00000000 
 2322      00000000 
 2322      00000000 
ARM GAS  /tmp/cc0AM0z6.s 			page 57


 2322      00000000 
 2325              	pid_spd_M2:
 2326 00ac 00000000 		.space	36
 2326      00000000 
 2326      00000000 
 2326      00000000 
 2326      00000000 
 2329              	pid_loc_M2:
 2330 00d0 00000000 		.space	56
 2330      00000000 
 2330      00000000 
 2330      00000000 
 2330      00000000 
 2333              	pid_spd_M3:
 2334 0108 00000000 		.space	36
 2334      00000000 
 2334      00000000 
 2334      00000000 
 2334      00000000 
 2337              	pid_loc_M3:
 2338 012c 00000000 		.space	56
 2338      00000000 
 2338      00000000 
 2338      00000000 
 2338      00000000 
 2341              	pid_spd_M4:
 2342 0164 00000000 		.space	36
 2342      00000000 
 2342      00000000 
 2342      00000000 
 2342      00000000 
 2345              	pid_loc_M4:
 2346 0188 00000000 		.space	56
 2346      00000000 
 2346      00000000 
 2346      00000000 
 2346      00000000 
 2349              	M1:
 2350 01c0 00000000 		.space	224
 2350      00000000 
 2350      00000000 
 2350      00000000 
 2350      00000000 
 2353              	M2:
 2354 02a0 00000000 		.space	224
 2354      00000000 
 2354      00000000 
 2354      00000000 
 2354      00000000 
 2357              	M3:
 2358 0380 00000000 		.space	224
 2358      00000000 
 2358      00000000 
 2358      00000000 
 2358      00000000 
 2361              	M4:
 2362 0460 00000000 		.space	224
ARM GAS  /tmp/cc0AM0z6.s 			page 58


 2362      00000000 
 2362      00000000 
 2362      00000000 
 2362      00000000 
 2365              	_ZZN8DC_Motor28Update_Speed_Angle_LPFAndPLLEvE9fudu_test:
 2366 0540 00000000 		.space	4
 2369              	_ZZN8DC_Motor28Update_Speed_Angle_LPFAndPLLEvE18theta_m_offic_temp:
 2370 0544 00000000 		.space	4
 2373              	_ZN8DC_Motor9ADC_ValueE:
 2374 0548 00000000 		.space	16
 2374      00000000 
 2374      00000000 
 2374      00000000 
 2377              	_ZN8DC_Motor14selected_motorE:
 2378 0558 00       		.space	1
 2379              		.text
 2380              	.Letext0:
 2381              		.file 7 "/opt/arm-gnu-toolchain-14.2/arm-none-eabi/include/machine/_default_types.h"
 2382              		.file 8 "/opt/arm-gnu-toolchain-14.2/arm-none-eabi/include/sys/_stdint.h"
 2383              		.file 9 "/opt/arm-gnu-toolchain-14.2/arm-none-eabi/include/c++/14.2.1/cmath"
 2384              		.file 10 "/opt/arm-gnu-toolchain-14.2/arm-none-eabi/include/c++/14.2.1/type_traits"
 2385              		.file 11 "/opt/arm-gnu-toolchain-14.2/arm-none-eabi/include/c++/14.2.1/debug/debug.h"
 2386              		.file 12 "/opt/arm-gnu-toolchain-14.2/arm-none-eabi/include/c++/14.2.1/bits/std_abs.h"
 2387              		.file 13 "/opt/arm-gnu-toolchain-14.2/arm-none-eabi/include/c++/14.2.1/bits/predefined_ops.h"
 2388              		.file 14 "/opt/arm-gnu-toolchain-14.2/arm-none-eabi/include/math.h"
 2389              		.file 15 "/opt/arm-gnu-toolchain-14.2/arm-none-eabi/include/c++/14.2.1/arm-none-eabi/thumb/v7e-m+f
 2390              		.file 16 "/opt/arm-gnu-toolchain-14.2/arm-none-eabi/include/c++/14.2.1/math.h"
 2391              		.file 17 "Lib/compute/ex_math.hpp"
 2392              		.file 18 "Drivers/CMSIS/Device/ST/STM32G4xx/Include/stm32g474xx.h"
 2393              		.file 19 "Drivers/STM32G4xx_HAL_Driver/Inc/stm32g4xx_hal_def.h"
 2394              		.file 20 "Drivers/STM32G4xx_HAL_Driver/Inc/stm32g4xx_hal_dma.h"
 2395              		.file 21 "Drivers/STM32G4xx_HAL_Driver/Inc/stm32g4xx_hal_spi.h"
 2396              		.file 22 "Drivers/STM32G4xx_HAL_Driver/Inc/stm32g4xx_hal_tim.h"
 2397              		.file 23 "My_Top/System/bsp.hpp"
 2398              		.file 24 "Core/Inc/tim.h"
 2399              		.file 25 "Middlewares/Third_Party/FreeRTOS/Source/portable/GCC/ARM_CM4F/portmacro.h"
 2400              		.file 26 "Drivers/STM32G4xx_HAL_Driver/Inc/stm32g4xx_hal_tim_ex.h"
 2401              		.file 27 "Middlewares/Third_Party/FreeRTOS/Source/include/task.h"
 2402              		.file 28 "Drivers/STM32G4xx_HAL_Driver/Inc/stm32g4xx_hal_rcc.h"
ARM GAS  /tmp/cc0AM0z6.s 			page 59


DEFINED SYMBOLS
                            *ABS*:00000000 DcMotor_ClosedLoop.cpp
     /tmp/cc0AM0z6.s:20     .text:00000000 $t
     /tmp/cc0AM0z6.s:25     .text:00000000 _Z41__static_initialization_and_destruction_0v
     /tmp/cc0AM0z6.s:653    .text:00000358 $d
     /tmp/cc0AM0z6.s:674    .text._ZN3PID6updateEf:00000000 $t
     /tmp/cc0AM0z6.s:680    .text._ZN3PID6updateEf:00000000 _ZN3PID6updateEf
     /tmp/cc0AM0z6.s:794    .text._ZN13PID_Increment6updateEf:00000000 $t
     /tmp/cc0AM0z6.s:800    .text._ZN13PID_Increment6updateEf:00000000 _ZN13PID_Increment6updateEf
     /tmp/cc0AM0z6.s:893    .text:0000039c $t
     /tmp/cc0AM0z6.s:899    .text:0000039c _ZN8DC_Motor9test_lajiEv
     /tmp/cc0AM0z6.s:955    .text:000003d0 $d
     /tmp/cc0AM0z6.s:959    .text:000003d4 $t
     /tmp/cc0AM0z6.s:965    .text:000003d4 _ZN8DC_Motor8Motor_ENEb
     /tmp/cc0AM0z6.s:1083   .text:0000044c _ZN8DC_Motor19Set_Motor_FrequencyEv
     /tmp/cc0AM0z6.s:1257   .text:0000053e $d
     /tmp/cc0AM0z6.s:1342   .text:000005f8 $d
     /tmp/cc0AM0z6.s:1451   .text:000006ac $d
     /tmp/cc0AM0z6.s:1455   .text:000006b0 $t
     /tmp/cc0AM0z6.s:1461   .text:000006b0 _ZN8DC_Motor18Set_Motor_Glo_DutyEv
     /tmp/cc0AM0z6.s:1580   .text:00000750 $d
     /tmp/cc0AM0z6.s:1584   .text:00000754 $t
     /tmp/cc0AM0z6.s:1590   .text:00000754 _ZN8DC_Motor16My_DC_Motor_InitEv
     /tmp/cc0AM0z6.s:1695   .text:000007d0 $d
     /tmp/cc0AM0z6.s:1699   .text:000007d4 $t
     /tmp/cc0AM0z6.s:1705   .text:000007d4 _ZN8DC_Motor28Update_Speed_Angle_LPFAndPLLEv
     /tmp/cc0AM0z6.s:1952   .text:00000938 $d
     /tmp/cc0AM0z6.s:1964   .text:0000095c $t
     /tmp/cc0AM0z6.s:1970   .text:0000095c _ZN8DC_Motor10Speed_LoopEv
     /tmp/cc0AM0z6.s:2023   .text:00000986 _ZN8DC_Motor13Location_LoopEv
     /tmp/cc0AM0z6.s:2089   .text:000009d0 $d
     /tmp/cc0AM0z6.s:2094   .text:000009d8 $t
     /tmp/cc0AM0z6.s:2100   .text:000009d8 _ZN8DC_Motor15Thermistor_TempEv
     /tmp/cc0AM0z6.s:2240   .text:00000ab8 $d
     /tmp/cc0AM0z6.s:2253   .text:00000ae0 $t
     /tmp/cc0AM0z6.s:2258   .text:00000ae0 _GLOBAL__sub_I__ZN8DC_Motor14selected_motorE
     /tmp/cc0AM0z6.s:2276   .init_array:00000000 $d
     /tmp/cc0AM0z6.s:2361   .bss:00000460 M4
     /tmp/cc0AM0z6.s:2357   .bss:00000380 M3
     /tmp/cc0AM0z6.s:2353   .bss:000002a0 M2
     /tmp/cc0AM0z6.s:2349   .bss:000001c0 M1
     /tmp/cc0AM0z6.s:2345   .bss:00000188 pid_loc_M4
     /tmp/cc0AM0z6.s:2341   .bss:00000164 pid_spd_M4
     /tmp/cc0AM0z6.s:2337   .bss:0000012c pid_loc_M3
     /tmp/cc0AM0z6.s:2333   .bss:00000108 pid_spd_M3
     /tmp/cc0AM0z6.s:2329   .bss:000000d0 pid_loc_M2
     /tmp/cc0AM0z6.s:2325   .bss:000000ac pid_spd_M2
     /tmp/cc0AM0z6.s:2321   .bss:00000074 pid_loc_M1
     /tmp/cc0AM0z6.s:2317   .bss:00000050 pid_spd_M1
     /tmp/cc0AM0z6.s:2313   .bss:0000003c kth7111_M4
     /tmp/cc0AM0z6.s:2309   .bss:00000028 kth7111_M3
     /tmp/cc0AM0z6.s:2305   .bss:00000014 kth7111_M2
     /tmp/cc0AM0z6.s:2301   .bss:00000000 kth7111_M1
     /tmp/cc0AM0z6.s:2373   .bss:00000548 _ZN8DC_Motor9ADC_ValueE
     /tmp/cc0AM0z6.s:2377   .bss:00000558 _ZN8DC_Motor14selected_motorE
     /tmp/cc0AM0z6.s:2297   .bss:00000000 $d
     /tmp/cc0AM0z6.s:2365   .bss:00000540 _ZZN8DC_Motor28Update_Speed_Angle_LPFAndPLLEvE9fudu_test
ARM GAS  /tmp/cc0AM0z6.s 			page 60


     /tmp/cc0AM0z6.s:2369   .bss:00000544 _ZZN8DC_Motor28Update_Speed_Angle_LPFAndPLLEvE18theta_m_offic_temp
     /tmp/cc0AM0z6.s:1274   .text:0000054f $d
     /tmp/cc0AM0z6.s:1274   .text:00000550 $t
     /tmp/cc0AM0z6.s:1359   .text:00000609 $d
     /tmp/cc0AM0z6.s:1359   .text:0000060a $t

UNDEFINED SYMBOLS
M2_PWM
M3_PWM
M4_PWM
M1_PWM
HAL_TIM_PWM_Start
HAL_TIMEx_PWMN_Start
htim1
HAL_TIM_PWM_Stop
HAL_TIMEx_PWMN_Stop
HAL_RCC_GetSysClockFreq
_ZN13LowpassFilter4initEf
_ZN9AvgFilter4initEh
vTaskDelay
_ZN7KTH711112KTH7111_InitEb
_ZN7KTH711121KTH7111_Send_JIAO_CMDEv
_ZN7KTH711118Get_KTH7111_RadianEv
__aeabi_f2d
__aeabi_dadd
__aeabi_d2f
fmodf
__aeabi_dsub
_ZN13LowpassFilter6filterEf
_ZN9AvgFilter6filterEf
__aeabi_dmul
_Z11foc_pll_runffPfS_P13PLL_Parameter
__aeabi_ddiv
log
