ARM GAS  /tmp/ccBC5zcM.s 			page 1


   1              		.cpu cortex-m4
   2              		.arch armv7e-m
   3              		.fpu fpv4-sp-d16
   4              		.eabi_attribute 27, 1
   5              		.eabi_attribute 28, 1
   6              		.eabi_attribute 20, 1
   7              		.eabi_attribute 21, 1
   8              		.eabi_attribute 23, 3
   9              		.eabi_attribute 24, 1
  10              		.eabi_attribute 25, 1
  11              		.eabi_attribute 26, 1
  12              		.eabi_attribute 30, 1
  13              		.eabi_attribute 34, 1
  14              		.eabi_attribute 18, 4
  15              		.file	"DcMotor_ClosedLoop.cpp"
  16              		.text
  17              	.Ltext0:
  18              		.cfi_sections	.debug_frame
  19              		.file 1 "My_Top/Motor_Control/DcMotor_ClosedLoop.cpp"
  20              		.section	.text._ZN13PID_Increment6updateEf,"axG",%progbits,_ZN13PID_Increment6updateEf,comdat
  21              		.align	1
  22              		.weak	_ZN13PID_Increment6updateEf
  23              		.syntax unified
  24              		.thumb
  25              		.thumb_func
  27              	_ZN13PID_Increment6updateEf:
  28              	.LVL0:
  29              	.LFB11:
  30              		.file 2 "Lib/compute/pid/pid_Increment.hpp"
   1:Lib/compute/pid/pid_Increment.hpp **** #pragma once
   2:Lib/compute/pid/pid_Increment.hpp **** 
   3:Lib/compute/pid/pid_Increment.hpp **** // ============================================================
   4:Lib/compute/pid/pid_Increment.hpp **** // Õó×ķćÅÕ╝Å PID µÄ¦ÕłČÕÖ©
   5:Lib/compute/pid/pid_Increment.hpp **** //
   6:Lib/compute/pid/pid_Increment.hpp **** // Õģ¼Õ╝Å:
   7:Lib/compute/pid/pid_Increment.hpp **** //   ╬öu(k) = Kp * (e(k) - e(k-1))
   8:Lib/compute/pid/pid_Increment.hpp **** //         + Ki * T * e(k)
   9:Lib/compute/pid/pid_Increment.hpp **** //         + (Kd / T) * (e(k) - 2*e(k-1) + e(k-2))
  10:Lib/compute/pid/pid_Increment.hpp **** //
  11:Lib/compute/pid/pid_Increment.hpp **** //   u(k) = u(k-1) + ╬öu(k)
  12:Lib/compute/pid/pid_Increment.hpp **** //
  13:Lib/compute/pid/pid_Increment.hpp **** // ÕģČõĖŁ T = dt’╝łķććµĀĘÕæ©µ£¤’╝ē
  14:Lib/compute/pid/pid_Increment.hpp **** // ============================================================
  15:Lib/compute/pid/pid_Increment.hpp **** 
  16:Lib/compute/pid/pid_Increment.hpp **** 
  17:Lib/compute/pid/pid_Increment.hpp **** class PID_Increment
  18:Lib/compute/pid/pid_Increment.hpp **** {
  19:Lib/compute/pid/pid_Increment.hpp **** public:
  20:Lib/compute/pid/pid_Increment.hpp ****     float _kp, _ki, _kd;
  21:Lib/compute/pid/pid_Increment.hpp ****     PID_Increment(void) //Õ«Üõ╣ēµŚČµŚĀÕÅéńÜäµ×äķĆĀÕćĮµĢ░µĀ╝Õ╝Å
  22:Lib/compute/pid/pid_Increment.hpp ****     {
  23:Lib/compute/pid/pid_Increment.hpp ****         _kp = _ki = _kd = _dt = 0.0f;
  24:Lib/compute/pid/pid_Increment.hpp ****         _max = _min = 0.0f;
  25:Lib/compute/pid/pid_Increment.hpp ****         _e_prev = _e_prev2 = 0.0f;
  26:Lib/compute/pid/pid_Increment.hpp ****         _delta_u = 0.0f;
  27:Lib/compute/pid/pid_Increment.hpp ****     }
  28:Lib/compute/pid/pid_Increment.hpp **** 
ARM GAS  /tmp/ccBC5zcM.s 			page 2


  29:Lib/compute/pid/pid_Increment.hpp ****     PID_Increment(float kp, float ki, float kd, float dt, float max, float min) //Õ«Üõ╣ēµŚČÕĖ”ÕÅéńÜ
  30:Lib/compute/pid/pid_Increment.hpp ****     {
  31:Lib/compute/pid/pid_Increment.hpp ****         _kp = kp;
  32:Lib/compute/pid/pid_Increment.hpp ****         _ki = ki;
  33:Lib/compute/pid/pid_Increment.hpp ****         _kd = kd;
  34:Lib/compute/pid/pid_Increment.hpp ****         _dt = dt;
  35:Lib/compute/pid/pid_Increment.hpp ****         _max = max;
  36:Lib/compute/pid/pid_Increment.hpp ****         _min = min;
  37:Lib/compute/pid/pid_Increment.hpp ****         _e_prev = _e_prev2 = 0.0f;
  38:Lib/compute/pid/pid_Increment.hpp ****         _delta_u = 0.0f;
  39:Lib/compute/pid/pid_Increment.hpp ****     }
  40:Lib/compute/pid/pid_Increment.hpp **** 
  41:Lib/compute/pid/pid_Increment.hpp ****     // ============================================================
  42:Lib/compute/pid/pid_Increment.hpp ****     // µĀĖÕ┐āµø┤µ¢░ÕćĮµĢ░
  43:Lib/compute/pid/pid_Increment.hpp ****     // @error: ÕĮōÕēŹĶ»»ÕĘ« e(k)
  44:Lib/compute/pid/pid_Increment.hpp ****     // @return: ķÖÉÕ╣ģÕÉÄńÜäĶŠōÕć║ÕĆ╝ u(k)
  45:Lib/compute/pid/pid_Increment.hpp ****     // ============================================================
  46:Lib/compute/pid/pid_Increment.hpp ****     float update(float error) 
  31              		.loc 2 46 11 view -0
  32              		.cfi_startproc
  33              		@ args = 0, pretend = 0, frame = 0
  34              		@ frame_needed = 0, uses_anonymous_args = 0
  35              		@ link register save eliminated.
  47:Lib/compute/pid/pid_Increment.hpp ****     {                         
  48:Lib/compute/pid/pid_Increment.hpp ****         
  49:Lib/compute/pid/pid_Increment.hpp ****         // ╬öu = Kp * (e - e_prev) + Ki * T * e + (Kd / T) * (e - 2*e_prev + e_prev2)
  50:Lib/compute/pid/pid_Increment.hpp ****         float p_term = _kp * (error - _e_prev);
  36              		.loc 2 50 9 view .LVU1
  37              		.loc 2 50 24 is_stmt 0 view .LVU2
  38 0000 D0ED007A 		vldr.32	s15, [r0]
  39              		.loc 2 50 39 view .LVU3
  40 0004 90ED066A 		vldr.32	s12, [r0, #24]
  41              		.loc 2 50 37 view .LVU4
  42 0008 30EE467A 		vsub.f32	s14, s0, s12
  43              		.loc 2 50 15 view .LVU5
  44 000c 67EE877A 		vmul.f32	s15, s15, s14
  45              	.LVL1:
  51:Lib/compute/pid/pid_Increment.hpp ****         float i_term = _ki * _dt * error;
  46              		.loc 2 51 9 is_stmt 1 view .LVU6
  47              		.loc 2 51 24 is_stmt 0 view .LVU7
  48 0010 90ED017A 		vldr.32	s14, [r0, #4]
  49              		.loc 2 51 30 view .LVU8
  50 0014 D0ED036A 		vldr.32	s13, [r0, #12]
  51              		.loc 2 51 28 view .LVU9
  52 0018 27EE267A 		vmul.f32	s14, s14, s13
  53              		.loc 2 51 15 view .LVU10
  54 001c 27EE007A 		vmul.f32	s14, s14, s0
  55              	.LVL2:
  52:Lib/compute/pid/pid_Increment.hpp ****         float d_term = (_kd / _dt) * (error - 2.0f * _e_prev + _e_prev2);
  56              		.loc 2 52 9 is_stmt 1 view .LVU11
  57              		.loc 2 52 25 is_stmt 0 view .LVU12
  58 0020 90ED025A 		vldr.32	s10, [r0, #8]
  59              		.loc 2 52 29 view .LVU13
  60 0024 C5EE265A 		vdiv.f32	s11, s10, s13
  61              		.loc 2 52 52 view .LVU14
  62 0028 76EE066A 		vadd.f32	s13, s12, s12
  63              		.loc 2 52 45 view .LVU15
ARM GAS  /tmp/ccBC5zcM.s 			page 3


  64 002c 70EE666A 		vsub.f32	s13, s0, s13
  65              		.loc 2 52 64 view .LVU16
  66 0030 90ED075A 		vldr.32	s10, [r0, #28]
  67              		.loc 2 52 62 view .LVU17
  68 0034 76EE856A 		vadd.f32	s13, s13, s10
  69              		.loc 2 52 15 view .LVU18
  70 0038 65EEA66A 		vmul.f32	s13, s11, s13
  71              	.LVL3:
  53:Lib/compute/pid/pid_Increment.hpp **** 
  54:Lib/compute/pid/pid_Increment.hpp ****         _delta_u = p_term + i_term + d_term; // Ķ«Īń«ŚÕó×ķćÅ
  72              		.loc 2 54 9 is_stmt 1 view .LVU19
  73              		.loc 2 54 27 is_stmt 0 view .LVU20
  74 003c 77EE877A 		vadd.f32	s15, s15, s14
  75              	.LVL4:
  76              		.loc 2 54 36 view .LVU21
  77 0040 77EEA67A 		vadd.f32	s15, s15, s13
  78              		.loc 2 54 18 view .LVU22
  79 0044 C0ED087A 		vstr.32	s15, [r0, #32]
  55:Lib/compute/pid/pid_Increment.hpp **** 
  56:Lib/compute/pid/pid_Increment.hpp ****         // ķÖÉÕ╣ģÕó×ķćÅĶŠōÕć║
  57:Lib/compute/pid/pid_Increment.hpp ****         if (_delta_u > _max)
  80              		.loc 2 57 9 is_stmt 1 view .LVU23
  81              		.loc 2 57 24 is_stmt 0 view .LVU24
  82 0048 90ED047A 		vldr.32	s14, [r0, #16]
  83              	.LVL5:
  84              		.loc 2 57 9 view .LVU25
  85 004c F4EEC77A 		vcmpe.f32	s15, s14
  86 0050 F1EE10FA 		vmrs	APSR_nzcv, FPSCR
  87 0054 08DD     		ble	.L8
  58:Lib/compute/pid/pid_Increment.hpp ****             _delta_u = _max;
  88              		.loc 2 58 13 is_stmt 1 view .LVU26
  89              		.loc 2 58 22 is_stmt 0 view .LVU27
  90 0056 80ED087A 		vstr.32	s14, [r0, #32]
  91              	.L4:
  59:Lib/compute/pid/pid_Increment.hpp ****         else if (_delta_u < _min)
  60:Lib/compute/pid/pid_Increment.hpp ****             _delta_u = _min;
  61:Lib/compute/pid/pid_Increment.hpp **** 
  62:Lib/compute/pid/pid_Increment.hpp ****         // µø┤µ¢░Ķ»»ÕĘ«ÕÄåÕÅ▓
  63:Lib/compute/pid/pid_Increment.hpp ****         _e_prev2 = _e_prev; //µø┤µ¢░õĖŖõĖŖµ¼ĪĶ»»ÕĘ«
  92              		.loc 2 63 9 is_stmt 1 view .LVU28
  93              		.loc 2 63 18 is_stmt 0 view .LVU29
  94 005a 80ED076A 		vstr.32	s12, [r0, #28]
  64:Lib/compute/pid/pid_Increment.hpp ****         _e_prev  = error; //µø┤µ¢░õĖŖõĖĆµ¼ĪĶ»»ÕĘ«
  95              		.loc 2 64 9 is_stmt 1 view .LVU30
  96              		.loc 2 64 18 is_stmt 0 view .LVU31
  97 005e 80ED060A 		vstr.32	s0, [r0, #24]
  65:Lib/compute/pid/pid_Increment.hpp **** 
  66:Lib/compute/pid/pid_Increment.hpp ****         return _delta_u; // Ķ┐öÕø×Õó×ķćÅĶŠōÕć║
  98              		.loc 2 66 9 is_stmt 1 view .LVU32
  67:Lib/compute/pid/pid_Increment.hpp ****     }
  99              		.loc 2 67 5 is_stmt 0 view .LVU33
 100 0062 90ED080A 		vldr.32	s0, [r0, #32]
 101              	.LVL6:
 102              		.loc 2 67 5 view .LVU34
 103 0066 7047     		bx	lr
 104              	.LVL7:
 105              	.L8:
ARM GAS  /tmp/ccBC5zcM.s 			page 4


  59:Lib/compute/pid/pid_Increment.hpp ****             _delta_u = _min;
 106              		.loc 2 59 14 is_stmt 1 view .LVU35
  59:Lib/compute/pid/pid_Increment.hpp ****             _delta_u = _min;
 107              		.loc 2 59 29 is_stmt 0 view .LVU36
 108 0068 90ED057A 		vldr.32	s14, [r0, #20]
  59:Lib/compute/pid/pid_Increment.hpp ****             _delta_u = _min;
 109              		.loc 2 59 14 view .LVU37
 110 006c F4EEC77A 		vcmpe.f32	s15, s14
 111 0070 F1EE10FA 		vmrs	APSR_nzcv, FPSCR
 112 0074 F1D5     		bpl	.L4
  60:Lib/compute/pid/pid_Increment.hpp **** 
 113              		.loc 2 60 13 is_stmt 1 view .LVU38
  60:Lib/compute/pid/pid_Increment.hpp **** 
 114              		.loc 2 60 22 is_stmt 0 view .LVU39
 115 0076 80ED087A 		vstr.32	s14, [r0, #32]
 116 007a EEE7     		b	.L4
 117              		.cfi_endproc
 118              	.LFE11:
 120              		.section	.text._ZN8DC_MotorC2EPK15MotorPWM_ConfigP7KTH7111P13PID_IncrementP3PIDP3LQR,"axG",%progbi
 121              		.align	1
 122              		.weak	_ZN8DC_MotorC2EPK15MotorPWM_ConfigP7KTH7111P13PID_IncrementP3PIDP3LQR
 123              		.syntax unified
 124              		.thumb
 125              		.thumb_func
 127              	_ZN8DC_MotorC2EPK15MotorPWM_ConfigP7KTH7111P13PID_IncrementP3PIDP3LQR:
 128              	.LVL8:
 129              	.LFB1350:
 130              		.file 3 "My_Top/Motor_Control/DcMotor_ClosedLoop.hpp"
   1:My_Top/Motor_Control/DcMotor_ClosedLoop.hpp **** #pragma once
   2:My_Top/Motor_Control/DcMotor_ClosedLoop.hpp **** #include "pid.hpp"
   3:My_Top/Motor_Control/DcMotor_ClosedLoop.hpp **** #include "pid_Increment.hpp"
   4:My_Top/Motor_Control/DcMotor_ClosedLoop.hpp **** #include "pll.hpp"
   5:My_Top/Motor_Control/DcMotor_ClosedLoop.hpp **** #include "LQR.hpp"
   6:My_Top/Motor_Control/DcMotor_ClosedLoop.hpp **** #include "kth_read.hpp"
   7:My_Top/Motor_Control/DcMotor_ClosedLoop.hpp **** #include "ex_math.hpp"
   8:My_Top/Motor_Control/DcMotor_ClosedLoop.hpp **** #include "bsp.hpp"
   9:My_Top/Motor_Control/DcMotor_ClosedLoop.hpp **** #include "XBLW24C64.hpp"
  10:My_Top/Motor_Control/DcMotor_ClosedLoop.hpp **** #include "my_dronecan.hpp"
  11:My_Top/Motor_Control/DcMotor_ClosedLoop.hpp **** 
  12:My_Top/Motor_Control/DcMotor_ClosedLoop.hpp **** #define max_chl_num 8 //µ£ĆÕż¦ķĆÜķüōµĢ░
  13:My_Top/Motor_Control/DcMotor_ClosedLoop.hpp **** 
  14:My_Top/Motor_Control/DcMotor_ClosedLoop.hpp **** enum Work_Mode
  15:My_Top/Motor_Control/DcMotor_ClosedLoop.hpp **** {
  16:My_Top/Motor_Control/DcMotor_ClosedLoop.hpp ****     open_loop = 0,//Õ╝ĆńÄ»µ©ĪÕ╝Å
  17:My_Top/Motor_Control/DcMotor_ClosedLoop.hpp ****     speed = 1,//ķĆ¤Õ║”µ©ĪÕ╝Å
  18:My_Top/Motor_Control/DcMotor_ClosedLoop.hpp ****     position = 2,//õĮŹńĮ«µ©ĪÕ╝Å
  19:My_Top/Motor_Control/DcMotor_ClosedLoop.hpp **** 
  20:My_Top/Motor_Control/DcMotor_ClosedLoop.hpp ****     EncoderCalibration = 99,//ń╝¢ńĀüÕÖ©µĀĪÕćåµ©ĪÕ╝Å
  21:My_Top/Motor_Control/DcMotor_ClosedLoop.hpp ****     null_mode = 100,        //µŚĀµ©ĪÕ╝Å
  22:My_Top/Motor_Control/DcMotor_ClosedLoop.hpp **** };
  23:My_Top/Motor_Control/DcMotor_ClosedLoop.hpp **** 
  24:My_Top/Motor_Control/DcMotor_ClosedLoop.hpp **** 
  25:My_Top/Motor_Control/DcMotor_ClosedLoop.hpp **** class DC_Motor
  26:My_Top/Motor_Control/DcMotor_ClosedLoop.hpp **** {
  27:My_Top/Motor_Control/DcMotor_ClosedLoop.hpp **** public:
  28:My_Top/Motor_Control/DcMotor_ClosedLoop.hpp ****     DC_Motor(const MotorPWM_Config *motor_config, KTH7111 *encoder,
 131              		.loc 3 28 5 is_stmt 1 view -0
ARM GAS  /tmp/ccBC5zcM.s 			page 5


 132              		.cfi_startproc
 133              		@ args = 8, pretend = 0, frame = 0
 134              		@ frame_needed = 0, uses_anonymous_args = 0
 135              		.loc 3 28 5 is_stmt 0 view .LVU41
 136 0000 30B5     		push	{r4, r5, lr}
 137              		.cfi_def_cfa_offset 12
 138              		.cfi_offset 4, -12
 139              		.cfi_offset 5, -8
 140              		.cfi_offset 14, -4
 141              	.LBB67:
  29:My_Top/Motor_Control/DcMotor_ClosedLoop.hpp ****             PID_Increment *pid_inc_param ,PID *pid,LQR *lqr)
  30:My_Top/Motor_Control/DcMotor_ClosedLoop.hpp ****             : _motor_config(motor_config), _encoder(encoder), 
  31:My_Top/Motor_Control/DcMotor_ClosedLoop.hpp ****             pid_speed_incparam(pid_inc_param) ,pid_location(pid),_lqr(lqr)
 142              		.loc 3 31 74 view .LVU42
 143 0002 0024     		movs	r4, #0
 144 0004 0470     		strb	r4, [r0]
 145 0006 0125     		movs	r5, #1
 146 0008 4570     		strb	r5, [r0, #1]
 147 000a 8470     		strb	r4, [r0, #2]
 148 000c DFF878E0 		ldr	lr, .L11+16
 149 0010 C0F804E0 		str	lr, [r0, #4]	@ float
 150 0014 4FF0000E 		mov	lr, #0
 151 0018 C0F808E0 		str	lr, [r0, #8]	@ float
 152 001c C0F80CE0 		str	lr, [r0, #12]	@ float
 153 0020 C0F810E0 		str	lr, [r0, #16]	@ float
 154 0024 C0F82CE0 		str	lr, [r0, #44]	@ float
 155 0028 C0F830E0 		str	lr, [r0, #48]	@ float
  30:My_Top/Motor_Control/DcMotor_ClosedLoop.hpp ****             pid_speed_incparam(pid_inc_param) ,pid_location(pid),_lqr(lqr)
 156              		.loc 3 30 44 view .LVU43
 157 002c C263     		str	r2, [r0, #60]
 158              		.loc 3 31 13 view .LVU44
 159 002e 0364     		str	r3, [r0, #64]
 160              		.loc 3 31 48 view .LVU45
 161 0030 039B     		ldr	r3, [sp, #12]
 162              	.LVL9:
 163              		.loc 3 31 48 view .LVU46
 164 0032 4364     		str	r3, [r0, #68]
 165              		.loc 3 31 66 view .LVU47
 166 0034 049B     		ldr	r3, [sp, #16]
 167 0036 8364     		str	r3, [r0, #72]
 168              		.loc 3 31 74 view .LVU48
 169 0038 FF23     		movs	r3, #255
 170 003a A0F85030 		strh	r3, [r0, #80]	@ movhi
 171 003e 104B     		ldr	r3, .L11+8
 172 0040 4365     		str	r3, [r0, #84]	@ float
 173 0042 8365     		str	r3, [r0, #88]	@ float
 174 0044 80F85C40 		strb	r4, [r0, #92]
 175 0048 80F85D40 		strb	r4, [r0, #93]
 176 004c A0F85E40 		strh	r4, [r0, #94]	@ movhi
 177 0050 C0F860E0 		str	lr, [r0, #96]	@ float
  30:My_Top/Motor_Control/DcMotor_ClosedLoop.hpp ****             pid_speed_incparam(pid_inc_param) ,pid_location(pid),_lqr(lqr)
 178              		.loc 3 30 15 view .LVU49
 179 0054 C0F8B010 		str	r1, [r0, #176]
 180              		.loc 3 31 74 view .LVU50
 181 0058 80F8B450 		strb	r5, [r0, #180]
 182 005c C0F8CCE0 		str	lr, [r0, #204]	@ float
 183 0060 C0F8D0E0 		str	lr, [r0, #208]	@ float
ARM GAS  /tmp/ccBC5zcM.s 			page 6


 184              	.LVL10:
 185              	.LBB68:
 186              	.LBI68:
 187              		.file 4 "Lib/compute/pid/pll.hpp"
   1:Lib/compute/pid/pll.hpp **** #pragma once
   2:Lib/compute/pid/pll.hpp **** #include "ex_math.hpp"
   3:Lib/compute/pid/pll.hpp **** 
   4:Lib/compute/pid/pll.hpp **** #include "bsp.hpp"
   5:Lib/compute/pid/pll.hpp **** 
   6:Lib/compute/pid/pll.hpp **** 
   7:Lib/compute/pid/pll.hpp **** #define Motor_RPM (12) //ńöĄµ£║µ£ĆÕż¦ĶĮ¼ķĆ¤ Õ«×µĄŗńöĄµ£║µ£Ćķ½ś0.2Õ£ł/s =12rpm
   8:Lib/compute/pid/pll.hpp **** // #define Motor_PolesNub (7) //µ×üÕ»╣µĢ░ ???
   9:Lib/compute/pid/pll.hpp **** // #define Motor_Fe (Motor_RPM*Motor_PolesNub/60) //
  10:Lib/compute/pid/pll.hpp **** // #define Wn_min  (M_2PI*Motor_Fe/10) //µ£ĆÕ░ÅĶć¬ńäČķóæńÄć = 2pi*Fe/10 = 219.911482 
  11:Lib/compute/pid/pll.hpp **** 
  12:Lib/compute/pid/pll.hpp **** 
  13:Lib/compute/pid/pll.hpp **** #define Stepper_Max_RPS (Motor_RPM / 60.0f) //ńöĄµ£║µ£ĆÕż¦ĶĮ¼ķĆ¤ µ»Åń¦ÆĶĮ¼ńÜäÕ£łµĢ░
  14:Lib/compute/pid/pll.hpp **** #define Wn_min  (M_2PI * Stepper_Max_RPS / 10) // µ£ĆÕ░ÅÕĖ”Õ«Į 3.30
  15:Lib/compute/pid/pll.hpp **** 
  16:Lib/compute/pid/pll.hpp **** #define Wn_max  (M_2PI*DC_VELOCITY_UP_FREQ_HZ/10) //µ£ĆÕż¦Ķć¬ńäČķóæńÄć = 2pi*ķććµĀĘÕæ©µ£¤/10   2513
  17:Lib/compute/pid/pll.hpp **** #define Ts_min  (3.0/(PLL_ZETA*Wn_max)*1000) //µ£ĆÕ░ÅµöČµĢøµŚČķŚ┤ Ts = 3/(╬Č*Wn_max) = 1.688ms 
  18:Lib/compute/pid/pll.hpp **** #define Ts_max  (3.0/(PLL_ZETA*Wn_min)*1000) //µ£ĆÕż¦µöČµĢøµŚČķŚ┤ Ts = 3/(╬Č*Wn_min) =19.2954ms /12
  19:Lib/compute/pid/pll.hpp **** 
  20:Lib/compute/pid/pll.hpp **** #define PLL_FREQ_Dt   (1.0/DC_VELOCITY_UP_FREQ_HZ)//ķććµĀĘÕæ©µ£¤
  21:Lib/compute/pid/pll.hpp **** #define PLL_ts_temp   (100) //µöČµĢøµŚČķŚ┤ ÕŹĢõĮŹms 
  22:Lib/compute/pid/pll.hpp **** #define PLL_ts  constraint_value(PLL_ts_temp, Ts_min, Ts_max) //ń║”µØ¤µöČµĢøµŚČķŚ┤Õ£©µ£ĆÕ░ÅÕÆīµ£ĆÕż
  23:Lib/compute/pid/pll.hpp **** 
  24:Lib/compute/pid/pll.hpp **** // #define PLL_ts 1 
  25:Lib/compute/pid/pll.hpp **** #define PLL_ZETA (0.707) //ķś╗Õ░╝µ»ö
  26:Lib/compute/pid/pll.hpp **** #define PLL_Wn   (3.0/(PLL_ZETA*PLL_ts*0.001)) //223.33hzĶć¬ńäČķóæńÄć Ķ«Īń«ŚÕģ¼Õ╝Å wn = 3/(╬Č*ts)  
  27:Lib/compute/pid/pll.hpp **** #define FOC_PLL_KP    (2*PLL_ZETA*PLL_Wn) //PIÕÅéµĢ░Ķ«Īń«ŚÕģ¼Õ╝Å kp = 2╬ČŽēn = 310.9548 
  28:Lib/compute/pid/pll.hpp **** #define FOC_PLL_KI    (PLL_Wn*PLL_Wn) //PIÕÅéµĢ░Ķ«Īń«ŚÕģ¼Õ╝Å ki = Žēn┬▓ = 48361.06 
  29:Lib/compute/pid/pll.hpp **** 
  30:Lib/compute/pid/pll.hpp **** 
  31:Lib/compute/pid/pll.hpp **** 
  32:Lib/compute/pid/pll.hpp **** struct PLL_Parameter
  33:Lib/compute/pid/pll.hpp **** {
  34:Lib/compute/pid/pll.hpp ****     PLL_Parameter(double kp, double ki) : foc_pll_kp(kp), foc_pll_ki(ki) {}
 188              		.loc 4 34 5 is_stmt 1 view .LVU51
 189              	.LBB69:
 190              	.LBB70:
 191              		.loc 4 34 43 is_stmt 0 view .LVU52
 192 0064 0022     		movs	r2, #0
 193              	.LVL11:
 194              		.loc 4 34 43 view .LVU53
 195 0066 074B     		ldr	r3, .L11+12
 196 0068 C0E93623 		strd	r2, [r0, #216]
 197              		.loc 4 34 59 view .LVU54
 198 006c 02A3     		adr	r3, .L11
 199 006e D3E90023 		ldrd	r2, [r3]
 200 0072 C0E93823 		strd	r2, [r0, #224]
 201              	.LVL12:
 202              		.loc 4 34 59 view .LVU55
 203              	.LBE70:
 204              	.LBE69:
 205              	.LBE68:
 206              	.LBE67:
ARM GAS  /tmp/ccBC5zcM.s 			page 7


  32:My_Top/Motor_Control/DcMotor_ClosedLoop.hpp ****             {}//µ×äķĆĀÕćĮµĢ░
 207              		.loc 3 32 14 view .LVU56
 208 0076 30BD     		pop	{r4, r5, pc}
 209              	.LVL13:
 210              	.L12:
 211              		.loc 3 32 14 view .LVU57
 212              		.align	3
 213              	.L11:
 214 0078 75DF86D0 		.word	-796467339
 215 007c 2C229C40 		.word	1083974188
 216 0080 000080BF 		.word	-1082130432
 217 0084 00004E40 		.word	1078853632
 218 0088 00401C46 		.word	1176256512
 219              		.cfi_endproc
 220              	.LFE1350:
 222              		.weak	_ZN8DC_MotorC1EPK15MotorPWM_ConfigP7KTH7111P13PID_IncrementP3PIDP3LQR
 223              		.thumb_set _ZN8DC_MotorC1EPK15MotorPWM_ConfigP7KTH7111P13PID_IncrementP3PIDP3LQR,_ZN8DC_MotorC2EPK
 224              		.text
 225              		.align	1
 226              		.syntax unified
 227              		.thumb
 228              		.thumb_func
 230              	_Z41__static_initialization_and_destruction_0v:
 231              	.LFB1512:
   1:My_Top/Motor_Control/DcMotor_ClosedLoop.cpp **** #include "DcMotor_ClosedLoop.hpp"
   2:My_Top/Motor_Control/DcMotor_ClosedLoop.cpp **** #include "Motor_Param.hpp"
   3:My_Top/Motor_Control/DcMotor_ClosedLoop.cpp **** 
   4:My_Top/Motor_Control/DcMotor_ClosedLoop.cpp **** 
   5:My_Top/Motor_Control/DcMotor_ClosedLoop.cpp **** // 7.17Õæ©õ║öµø┤µ¢░LQRµ£ĆõĮ│ÕÅéµĢ░3SÕōŹÕ║öń©│Õ«ÜÕĆ╝
   6:My_Top/Motor_Control/DcMotor_ClosedLoop.cpp **** uint8_t DC_Motor::selected_motor = 0;// ķØÖµĆüµłÉÕæśÕ«Üõ╣ē
   7:My_Top/Motor_Control/DcMotor_ClosedLoop.cpp **** uint16_t DC_Motor::ADC_Value[max_chl_num] = {0};// ķØÖµĆüµłÉÕæśÕ«Üõ╣ē
   8:My_Top/Motor_Control/DcMotor_ClosedLoop.cpp **** 
   9:My_Top/Motor_Control/DcMotor_ClosedLoop.cpp **** 
  10:My_Top/Motor_Control/DcMotor_ClosedLoop.cpp **** KTH7111 kth7111_M1(&M1_PWM); //ń╝¢ńĀüÕÖ©Õ»╣Ķ▒Ī’╝ī
  11:My_Top/Motor_Control/DcMotor_ClosedLoop.cpp **** KTH7111 kth7111_M2(&M2_PWM); //ń╝¢ńĀüÕÖ©Õ»╣Ķ▒Ī
  12:My_Top/Motor_Control/DcMotor_ClosedLoop.cpp **** KTH7111 kth7111_M3(&M3_PWM); //ń╝¢ńĀüÕÖ©Õ»╣Ķ▒Ī’╝ī
  13:My_Top/Motor_Control/DcMotor_ClosedLoop.cpp **** KTH7111 kth7111_M4(&M4_PWM); //ń╝¢ńĀüÕÖ©Õ»╣Ķ▒Ī
  14:My_Top/Motor_Control/DcMotor_ClosedLoop.cpp **** 
  15:My_Top/Motor_Control/DcMotor_ClosedLoop.cpp **** PID_Increment pid_spd_M1
  16:My_Top/Motor_Control/DcMotor_ClosedLoop.cpp **** (
  17:My_Top/Motor_Control/DcMotor_ClosedLoop.cpp ****     MOTOR_DEFAULT_PARAM.speed_pid.kp,
  18:My_Top/Motor_Control/DcMotor_ClosedLoop.cpp ****     MOTOR_DEFAULT_PARAM.speed_pid.ki,
  19:My_Top/Motor_Control/DcMotor_ClosedLoop.cpp ****     MOTOR_DEFAULT_PARAM.speed_pid.kd,
  20:My_Top/Motor_Control/DcMotor_ClosedLoop.cpp **** 
  21:My_Top/Motor_Control/DcMotor_ClosedLoop.cpp ****     1.0/DC_VELOCITY_LOOP_FREQ_HZ,
  22:My_Top/Motor_Control/DcMotor_ClosedLoop.cpp **** 
  23:My_Top/Motor_Control/DcMotor_ClosedLoop.cpp ****     MOTOR_DEFAULT_PARAM.limit.max_duty,
  24:My_Top/Motor_Control/DcMotor_ClosedLoop.cpp ****     MOTOR_DEFAULT_PARAM.limit.min_duty
  25:My_Top/Motor_Control/DcMotor_ClosedLoop.cpp **** );
  26:My_Top/Motor_Control/DcMotor_ClosedLoop.cpp **** 
  27:My_Top/Motor_Control/DcMotor_ClosedLoop.cpp **** PID pid_loc_M1
  28:My_Top/Motor_Control/DcMotor_ClosedLoop.cpp **** (
  29:My_Top/Motor_Control/DcMotor_ClosedLoop.cpp ****     MOTOR_DEFAULT_PARAM.location_pid.kp,
  30:My_Top/Motor_Control/DcMotor_ClosedLoop.cpp ****     MOTOR_DEFAULT_PARAM.location_pid.ki,
  31:My_Top/Motor_Control/DcMotor_ClosedLoop.cpp ****     MOTOR_DEFAULT_PARAM.location_pid.kd,
  32:My_Top/Motor_Control/DcMotor_ClosedLoop.cpp **** 
  33:My_Top/Motor_Control/DcMotor_ClosedLoop.cpp ****     1.0/DC_POSITION_LOOP_FREQ_HZ,
ARM GAS  /tmp/ccBC5zcM.s 			page 8


  34:My_Top/Motor_Control/DcMotor_ClosedLoop.cpp **** 
  35:My_Top/Motor_Control/DcMotor_ClosedLoop.cpp ****     MOTOR_DEFAULT_PARAM.limit.i_ratio *
  36:My_Top/Motor_Control/DcMotor_ClosedLoop.cpp ****     MOTOR_DEFAULT_PARAM.limit.max_duty,
  37:My_Top/Motor_Control/DcMotor_ClosedLoop.cpp **** 
  38:My_Top/Motor_Control/DcMotor_ClosedLoop.cpp ****     MOTOR_DEFAULT_PARAM.limit.max_speed,
  39:My_Top/Motor_Control/DcMotor_ClosedLoop.cpp ****     MOTOR_DEFAULT_PARAM.limit.min_speed
  40:My_Top/Motor_Control/DcMotor_ClosedLoop.cpp **** );
  41:My_Top/Motor_Control/DcMotor_ClosedLoop.cpp **** LQR lqr_M1
  42:My_Top/Motor_Control/DcMotor_ClosedLoop.cpp **** (
  43:My_Top/Motor_Control/DcMotor_ClosedLoop.cpp ****     MOTOR_DEFAULT_PARAM.lqr.k1,
  44:My_Top/Motor_Control/DcMotor_ClosedLoop.cpp ****     MOTOR_DEFAULT_PARAM.lqr.k2,
  45:My_Top/Motor_Control/DcMotor_ClosedLoop.cpp ****     MOTOR_DEFAULT_PARAM.lqr.max_speed,
  46:My_Top/Motor_Control/DcMotor_ClosedLoop.cpp ****     MOTOR_DEFAULT_PARAM.lqr.min_speed
  47:My_Top/Motor_Control/DcMotor_ClosedLoop.cpp **** );
  48:My_Top/Motor_Control/DcMotor_ClosedLoop.cpp **** 
  49:My_Top/Motor_Control/DcMotor_ClosedLoop.cpp **** 
  50:My_Top/Motor_Control/DcMotor_ClosedLoop.cpp **** 
  51:My_Top/Motor_Control/DcMotor_ClosedLoop.cpp **** 
  52:My_Top/Motor_Control/DcMotor_ClosedLoop.cpp **** PID_Increment pid_spd_M2
  53:My_Top/Motor_Control/DcMotor_ClosedLoop.cpp **** (
  54:My_Top/Motor_Control/DcMotor_ClosedLoop.cpp ****     MOTOR_DEFAULT_PARAM.speed_pid.kp,
  55:My_Top/Motor_Control/DcMotor_ClosedLoop.cpp ****     MOTOR_DEFAULT_PARAM.speed_pid.ki,
  56:My_Top/Motor_Control/DcMotor_ClosedLoop.cpp ****     MOTOR_DEFAULT_PARAM.speed_pid.kd,
  57:My_Top/Motor_Control/DcMotor_ClosedLoop.cpp **** 
  58:My_Top/Motor_Control/DcMotor_ClosedLoop.cpp ****     1.0/DC_VELOCITY_LOOP_FREQ_HZ,
  59:My_Top/Motor_Control/DcMotor_ClosedLoop.cpp **** 
  60:My_Top/Motor_Control/DcMotor_ClosedLoop.cpp ****     MOTOR_DEFAULT_PARAM.limit.max_duty,
  61:My_Top/Motor_Control/DcMotor_ClosedLoop.cpp ****     MOTOR_DEFAULT_PARAM.limit.min_duty
  62:My_Top/Motor_Control/DcMotor_ClosedLoop.cpp **** );
  63:My_Top/Motor_Control/DcMotor_ClosedLoop.cpp **** 
  64:My_Top/Motor_Control/DcMotor_ClosedLoop.cpp **** PID pid_loc_M2
  65:My_Top/Motor_Control/DcMotor_ClosedLoop.cpp **** (
  66:My_Top/Motor_Control/DcMotor_ClosedLoop.cpp ****     MOTOR_DEFAULT_PARAM.location_pid.kp,
  67:My_Top/Motor_Control/DcMotor_ClosedLoop.cpp ****     MOTOR_DEFAULT_PARAM.location_pid.ki,
  68:My_Top/Motor_Control/DcMotor_ClosedLoop.cpp ****     MOTOR_DEFAULT_PARAM.location_pid.kd,
  69:My_Top/Motor_Control/DcMotor_ClosedLoop.cpp **** 
  70:My_Top/Motor_Control/DcMotor_ClosedLoop.cpp ****     1.0/DC_POSITION_LOOP_FREQ_HZ,
  71:My_Top/Motor_Control/DcMotor_ClosedLoop.cpp **** 
  72:My_Top/Motor_Control/DcMotor_ClosedLoop.cpp ****     MOTOR_DEFAULT_PARAM.limit.i_ratio *
  73:My_Top/Motor_Control/DcMotor_ClosedLoop.cpp ****     MOTOR_DEFAULT_PARAM.limit.max_duty,
  74:My_Top/Motor_Control/DcMotor_ClosedLoop.cpp **** 
  75:My_Top/Motor_Control/DcMotor_ClosedLoop.cpp ****     MOTOR_DEFAULT_PARAM.limit.max_speed,
  76:My_Top/Motor_Control/DcMotor_ClosedLoop.cpp ****     MOTOR_DEFAULT_PARAM.limit.min_speed
  77:My_Top/Motor_Control/DcMotor_ClosedLoop.cpp **** );
  78:My_Top/Motor_Control/DcMotor_ClosedLoop.cpp **** 
  79:My_Top/Motor_Control/DcMotor_ClosedLoop.cpp **** LQR lqr_M2
  80:My_Top/Motor_Control/DcMotor_ClosedLoop.cpp **** (
  81:My_Top/Motor_Control/DcMotor_ClosedLoop.cpp ****     MOTOR_DEFAULT_PARAM.lqr.k1,
  82:My_Top/Motor_Control/DcMotor_ClosedLoop.cpp ****     MOTOR_DEFAULT_PARAM.lqr.k2,
  83:My_Top/Motor_Control/DcMotor_ClosedLoop.cpp ****     MOTOR_DEFAULT_PARAM.lqr.max_speed,
  84:My_Top/Motor_Control/DcMotor_ClosedLoop.cpp ****     MOTOR_DEFAULT_PARAM.lqr.min_speed
  85:My_Top/Motor_Control/DcMotor_ClosedLoop.cpp **** );
  86:My_Top/Motor_Control/DcMotor_ClosedLoop.cpp **** 
  87:My_Top/Motor_Control/DcMotor_ClosedLoop.cpp **** 
  88:My_Top/Motor_Control/DcMotor_ClosedLoop.cpp **** 
  89:My_Top/Motor_Control/DcMotor_ClosedLoop.cpp **** 
  90:My_Top/Motor_Control/DcMotor_ClosedLoop.cpp **** 
ARM GAS  /tmp/ccBC5zcM.s 			page 9


  91:My_Top/Motor_Control/DcMotor_ClosedLoop.cpp **** 
  92:My_Top/Motor_Control/DcMotor_ClosedLoop.cpp **** PID_Increment pid_spd_M3
  93:My_Top/Motor_Control/DcMotor_ClosedLoop.cpp **** (
  94:My_Top/Motor_Control/DcMotor_ClosedLoop.cpp ****     MOTOR_DEFAULT_PARAM.speed_pid.kp,
  95:My_Top/Motor_Control/DcMotor_ClosedLoop.cpp ****     MOTOR_DEFAULT_PARAM.speed_pid.ki,
  96:My_Top/Motor_Control/DcMotor_ClosedLoop.cpp ****     MOTOR_DEFAULT_PARAM.speed_pid.kd,
  97:My_Top/Motor_Control/DcMotor_ClosedLoop.cpp **** 
  98:My_Top/Motor_Control/DcMotor_ClosedLoop.cpp ****     1.0/DC_VELOCITY_LOOP_FREQ_HZ,
  99:My_Top/Motor_Control/DcMotor_ClosedLoop.cpp **** 
 100:My_Top/Motor_Control/DcMotor_ClosedLoop.cpp ****     MOTOR_DEFAULT_PARAM.limit.max_duty,
 101:My_Top/Motor_Control/DcMotor_ClosedLoop.cpp ****     MOTOR_DEFAULT_PARAM.limit.min_duty
 102:My_Top/Motor_Control/DcMotor_ClosedLoop.cpp **** );
 103:My_Top/Motor_Control/DcMotor_ClosedLoop.cpp **** 
 104:My_Top/Motor_Control/DcMotor_ClosedLoop.cpp **** PID pid_loc_M3
 105:My_Top/Motor_Control/DcMotor_ClosedLoop.cpp **** (
 106:My_Top/Motor_Control/DcMotor_ClosedLoop.cpp ****     MOTOR_DEFAULT_PARAM.location_pid.kp,
 107:My_Top/Motor_Control/DcMotor_ClosedLoop.cpp ****     MOTOR_DEFAULT_PARAM.location_pid.ki,
 108:My_Top/Motor_Control/DcMotor_ClosedLoop.cpp ****     MOTOR_DEFAULT_PARAM.location_pid.kd,
 109:My_Top/Motor_Control/DcMotor_ClosedLoop.cpp **** 
 110:My_Top/Motor_Control/DcMotor_ClosedLoop.cpp ****     1.0/DC_POSITION_LOOP_FREQ_HZ,
 111:My_Top/Motor_Control/DcMotor_ClosedLoop.cpp **** 
 112:My_Top/Motor_Control/DcMotor_ClosedLoop.cpp ****     MOTOR_DEFAULT_PARAM.limit.i_ratio *
 113:My_Top/Motor_Control/DcMotor_ClosedLoop.cpp ****     MOTOR_DEFAULT_PARAM.limit.max_duty,
 114:My_Top/Motor_Control/DcMotor_ClosedLoop.cpp **** 
 115:My_Top/Motor_Control/DcMotor_ClosedLoop.cpp ****     MOTOR_DEFAULT_PARAM.limit.max_speed,
 116:My_Top/Motor_Control/DcMotor_ClosedLoop.cpp ****     MOTOR_DEFAULT_PARAM.limit.min_speed
 117:My_Top/Motor_Control/DcMotor_ClosedLoop.cpp **** );
 118:My_Top/Motor_Control/DcMotor_ClosedLoop.cpp **** 
 119:My_Top/Motor_Control/DcMotor_ClosedLoop.cpp **** LQR lqr_M3
 120:My_Top/Motor_Control/DcMotor_ClosedLoop.cpp **** (
 121:My_Top/Motor_Control/DcMotor_ClosedLoop.cpp ****     MOTOR_DEFAULT_PARAM.lqr.k1,
 122:My_Top/Motor_Control/DcMotor_ClosedLoop.cpp ****     MOTOR_DEFAULT_PARAM.lqr.k2,
 123:My_Top/Motor_Control/DcMotor_ClosedLoop.cpp ****     MOTOR_DEFAULT_PARAM.lqr.max_speed,
 124:My_Top/Motor_Control/DcMotor_ClosedLoop.cpp ****     MOTOR_DEFAULT_PARAM.lqr.min_speed
 125:My_Top/Motor_Control/DcMotor_ClosedLoop.cpp **** );
 126:My_Top/Motor_Control/DcMotor_ClosedLoop.cpp **** 
 127:My_Top/Motor_Control/DcMotor_ClosedLoop.cpp **** 
 128:My_Top/Motor_Control/DcMotor_ClosedLoop.cpp **** 
 129:My_Top/Motor_Control/DcMotor_ClosedLoop.cpp **** 
 130:My_Top/Motor_Control/DcMotor_ClosedLoop.cpp **** 
 131:My_Top/Motor_Control/DcMotor_ClosedLoop.cpp **** PID_Increment pid_spd_M4
 132:My_Top/Motor_Control/DcMotor_ClosedLoop.cpp **** (
 133:My_Top/Motor_Control/DcMotor_ClosedLoop.cpp ****     MOTOR_DEFAULT_PARAM.speed_pid.kp,
 134:My_Top/Motor_Control/DcMotor_ClosedLoop.cpp ****     MOTOR_DEFAULT_PARAM.speed_pid.ki,
 135:My_Top/Motor_Control/DcMotor_ClosedLoop.cpp ****     MOTOR_DEFAULT_PARAM.speed_pid.kd,
 136:My_Top/Motor_Control/DcMotor_ClosedLoop.cpp **** 
 137:My_Top/Motor_Control/DcMotor_ClosedLoop.cpp ****     1.0/DC_VELOCITY_LOOP_FREQ_HZ,
 138:My_Top/Motor_Control/DcMotor_ClosedLoop.cpp **** 
 139:My_Top/Motor_Control/DcMotor_ClosedLoop.cpp ****     MOTOR_DEFAULT_PARAM.limit.max_duty,
 140:My_Top/Motor_Control/DcMotor_ClosedLoop.cpp ****     MOTOR_DEFAULT_PARAM.limit.min_duty
 141:My_Top/Motor_Control/DcMotor_ClosedLoop.cpp **** );
 142:My_Top/Motor_Control/DcMotor_ClosedLoop.cpp **** 
 143:My_Top/Motor_Control/DcMotor_ClosedLoop.cpp **** PID pid_loc_M4
 144:My_Top/Motor_Control/DcMotor_ClosedLoop.cpp **** (
 145:My_Top/Motor_Control/DcMotor_ClosedLoop.cpp ****     MOTOR_DEFAULT_PARAM.location_pid.kp,
 146:My_Top/Motor_Control/DcMotor_ClosedLoop.cpp ****     MOTOR_DEFAULT_PARAM.location_pid.ki,
 147:My_Top/Motor_Control/DcMotor_ClosedLoop.cpp ****     MOTOR_DEFAULT_PARAM.location_pid.kd,
ARM GAS  /tmp/ccBC5zcM.s 			page 10


 148:My_Top/Motor_Control/DcMotor_ClosedLoop.cpp **** 
 149:My_Top/Motor_Control/DcMotor_ClosedLoop.cpp ****     1.0/DC_POSITION_LOOP_FREQ_HZ,
 150:My_Top/Motor_Control/DcMotor_ClosedLoop.cpp **** 
 151:My_Top/Motor_Control/DcMotor_ClosedLoop.cpp ****     MOTOR_DEFAULT_PARAM.limit.i_ratio *
 152:My_Top/Motor_Control/DcMotor_ClosedLoop.cpp ****     MOTOR_DEFAULT_PARAM.limit.max_duty,
 153:My_Top/Motor_Control/DcMotor_ClosedLoop.cpp **** 
 154:My_Top/Motor_Control/DcMotor_ClosedLoop.cpp ****     MOTOR_DEFAULT_PARAM.limit.max_speed,
 155:My_Top/Motor_Control/DcMotor_ClosedLoop.cpp ****     MOTOR_DEFAULT_PARAM.limit.min_speed
 156:My_Top/Motor_Control/DcMotor_ClosedLoop.cpp **** );
 157:My_Top/Motor_Control/DcMotor_ClosedLoop.cpp **** 
 158:My_Top/Motor_Control/DcMotor_ClosedLoop.cpp **** LQR lqr_M4
 159:My_Top/Motor_Control/DcMotor_ClosedLoop.cpp **** (
 160:My_Top/Motor_Control/DcMotor_ClosedLoop.cpp ****     MOTOR_DEFAULT_PARAM.lqr.k1,
 161:My_Top/Motor_Control/DcMotor_ClosedLoop.cpp ****     MOTOR_DEFAULT_PARAM.lqr.k2,
 162:My_Top/Motor_Control/DcMotor_ClosedLoop.cpp ****     MOTOR_DEFAULT_PARAM.lqr.max_speed,
 163:My_Top/Motor_Control/DcMotor_ClosedLoop.cpp ****     MOTOR_DEFAULT_PARAM.lqr.min_speed
 164:My_Top/Motor_Control/DcMotor_ClosedLoop.cpp **** );
 165:My_Top/Motor_Control/DcMotor_ClosedLoop.cpp **** 
 166:My_Top/Motor_Control/DcMotor_ClosedLoop.cpp **** 
 167:My_Top/Motor_Control/DcMotor_ClosedLoop.cpp **** 
 168:My_Top/Motor_Control/DcMotor_ClosedLoop.cpp **** DC_Motor M1(&M1_PWM, &kth7111_M1, &pid_spd_M1, &pid_loc_M1,&lqr_M1); //ńöĄµ£║1
 169:My_Top/Motor_Control/DcMotor_ClosedLoop.cpp **** DC_Motor M2(&M2_PWM, &kth7111_M2, &pid_spd_M2, &pid_loc_M2,&lqr_M2); //ńöĄµ£║2
 170:My_Top/Motor_Control/DcMotor_ClosedLoop.cpp **** DC_Motor M3(&M3_PWM, &kth7111_M3, &pid_spd_M3, &pid_loc_M3,&lqr_M3); //ńöĄµ£║3
 171:My_Top/Motor_Control/DcMotor_ClosedLoop.cpp **** DC_Motor M4(&M4_PWM, &kth7111_M4, &pid_spd_M4, &pid_loc_M4,&lqr_M4); //ńöĄµ£║4
 172:My_Top/Motor_Control/DcMotor_ClosedLoop.cpp **** 
 173:My_Top/Motor_Control/DcMotor_ClosedLoop.cpp **** 
 174:My_Top/Motor_Control/DcMotor_ClosedLoop.cpp **** 
 175:My_Top/Motor_Control/DcMotor_ClosedLoop.cpp **** void DC_Motor::test_laji()
 176:My_Top/Motor_Control/DcMotor_ClosedLoop.cpp **** {
 177:My_Top/Motor_Control/DcMotor_ClosedLoop.cpp ****    
 178:My_Top/Motor_Control/DcMotor_ClosedLoop.cpp ****     __HAL_TIM_SET_AUTORELOAD(&htim1, 100);//Ķ«ŠńĮ«Õæ©µ£¤ 
 179:My_Top/Motor_Control/DcMotor_ClosedLoop.cpp ****     __HAL_TIM_SET_COMPARE(&htim1, TIM_CHANNEL_1, 100);//Ķ«ŠńĮ«õĖŖµĪźĶćéÕŹĀń®║µ»ö 
 180:My_Top/Motor_Control/DcMotor_ClosedLoop.cpp ****     __HAL_TIM_SET_COMPARE(&htim1, TIM_CHANNEL_2, 100);//Ķ«ŠńĮ«õĖŗµĪźĶćéÕŹĀń®║µ»ö
 181:My_Top/Motor_Control/DcMotor_ClosedLoop.cpp ****     HAL_TIM_PWM_Start(&htim1, TIM_CHANNEL_1);
 182:My_Top/Motor_Control/DcMotor_ClosedLoop.cpp ****     HAL_TIMEx_PWMN_Start(&htim1, TIM_CHANNEL_1);
 183:My_Top/Motor_Control/DcMotor_ClosedLoop.cpp ****     HAL_TIM_PWM_Start(&htim1, TIM_CHANNEL_2);
 184:My_Top/Motor_Control/DcMotor_ClosedLoop.cpp ****     HAL_TIMEx_PWMN_Start(&htim1, TIM_CHANNEL_2);
 185:My_Top/Motor_Control/DcMotor_ClosedLoop.cpp **** }
 186:My_Top/Motor_Control/DcMotor_ClosedLoop.cpp **** 
 187:My_Top/Motor_Control/DcMotor_ClosedLoop.cpp **** void DC_Motor::My_DC_Motor_Reset()
 188:My_Top/Motor_Control/DcMotor_ClosedLoop.cpp **** {
 189:My_Top/Motor_Control/DcMotor_ClosedLoop.cpp ****     _target_location2 = rad2deg(reg_final); //ÕżŹõĮŹõĮŹńĮ«õĖ║ÕĮōÕēŹõĮŹńĮ«
 190:My_Top/Motor_Control/DcMotor_ClosedLoop.cpp ****     _target_speed = 0.0;
 191:My_Top/Motor_Control/DcMotor_ClosedLoop.cpp ****     updown_duty = 0.0;
 192:My_Top/Motor_Control/DcMotor_ClosedLoop.cpp ****     Motor_EN(false);
 193:My_Top/Motor_Control/DcMotor_ClosedLoop.cpp ****     pid_speed_incparam->reset(); //ÕżŹõĮŹpid
 194:My_Top/Motor_Control/DcMotor_ClosedLoop.cpp ****     pid_location->reset(); //ÕżŹõĮŹpid
 195:My_Top/Motor_Control/DcMotor_ClosedLoop.cpp **** }
 196:My_Top/Motor_Control/DcMotor_ClosedLoop.cpp **** 
 197:My_Top/Motor_Control/DcMotor_ClosedLoop.cpp **** 
 198:My_Top/Motor_Control/DcMotor_ClosedLoop.cpp **** 
 199:My_Top/Motor_Control/DcMotor_ClosedLoop.cpp **** 
 200:My_Top/Motor_Control/DcMotor_ClosedLoop.cpp **** void DC_Motor::My_DC_Motor_Init()
 201:My_Top/Motor_Control/DcMotor_ClosedLoop.cpp **** {
 202:My_Top/Motor_Control/DcMotor_ClosedLoop.cpp ****     uint32_t sysclk = HAL_RCC_GetSysClockFreq();
 203:My_Top/Motor_Control/DcMotor_ClosedLoop.cpp ****     timer_clock_freq_ = sysclk / (_motor_config->htim->Instance->PSC + 1);
 204:My_Top/Motor_Control/DcMotor_ClosedLoop.cpp **** 
ARM GAS  /tmp/ccBC5zcM.s 			page 11


 205:My_Top/Motor_Control/DcMotor_ClosedLoop.cpp ****     speed_lpf.init(0.7);
 206:My_Top/Motor_Control/DcMotor_ClosedLoop.cpp ****     error_lpf.init(0.7);
 207:My_Top/Motor_Control/DcMotor_ClosedLoop.cpp ****     speed_avg.init(5);
 208:My_Top/Motor_Control/DcMotor_ClosedLoop.cpp ****     adc_val_avg.init(100);//ADCķććµĀĘÕĆ╝µ╗żµ│ó //67µ×üķÖÉ
 209:My_Top/Motor_Control/DcMotor_ClosedLoop.cpp **** 
 210:My_Top/Motor_Control/DcMotor_ClosedLoop.cpp ****     // ===== ŌæĀ Ķ«ŠķóæńÄćÕÆīÕŹĀń®║µ»ö’╝ł0% ńö©õ║ÄÕģģńöĄ’╝ē =====
 211:My_Top/Motor_Control/DcMotor_ClosedLoop.cpp ****     Set_Motor_Glo_Duty();//Ķ«ŠńĮ«ńöĄµ£║Õģ©Õ▒ĆÕŹĀń®║µ»ö
 212:My_Top/Motor_Control/DcMotor_ClosedLoop.cpp **** 
 213:My_Top/Motor_Control/DcMotor_ClosedLoop.cpp ****     // ===== ŌæĪ Ķć¬õĖŠńöĄÕ«╣ķóäÕģģńöĄ’╝ÜCCR=0 ŌåÆ õĖŗń«ĪÕ»╝ķĆÜ ŌåÆ ńöĄÕ«╣ÕģģńöĄ =====
 214:My_Top/Motor_Control/DcMotor_ClosedLoop.cpp ****     Motor_EN(true);  // µēōÕ╝ĆPWMĶŠōÕć║
 215:My_Top/Motor_Control/DcMotor_ClosedLoop.cpp ****     vTaskDelay(pdMS_TO_TICKS(1));  // ńŁē 1ms Õģģµ╗Ī
 216:My_Top/Motor_Control/DcMotor_ClosedLoop.cpp ****     Motor_EN(false); // Õģ│ķŚŁPWMĶŠōÕć║
 217:My_Top/Motor_Control/DcMotor_ClosedLoop.cpp ****     _encoder->KTH7111_Init(motor_encoder_dir);
 218:My_Top/Motor_Control/DcMotor_ClosedLoop.cpp ****     control_init_flag = true;
 219:My_Top/Motor_Control/DcMotor_ClosedLoop.cpp **** }
 220:My_Top/Motor_Control/DcMotor_ClosedLoop.cpp **** 
 221:My_Top/Motor_Control/DcMotor_ClosedLoop.cpp **** 
 222:My_Top/Motor_Control/DcMotor_ClosedLoop.cpp **** 
 223:My_Top/Motor_Control/DcMotor_ClosedLoop.cpp **** void DC_Motor::Set_Motor_Frequency() //ÕŹĢńŗ¼Ķ«ŠńĮ«ńöĄµ£║ķóæńÄćÕÆīÕŹĀń®║µ»ö
 224:My_Top/Motor_Control/DcMotor_ClosedLoop.cpp **** {
 225:My_Top/Motor_Control/DcMotor_ClosedLoop.cpp ****     bool new_dir = false;
 226:My_Top/Motor_Control/DcMotor_ClosedLoop.cpp ****     uint32_t arr = 0;
 227:My_Top/Motor_Control/DcMotor_ClosedLoop.cpp ****     uint16_t Fre = (uint16_t)motor_freq;//ĶĮ¼µĢ┤µĢ░Ķ«Īń«Ś
 228:My_Top/Motor_Control/DcMotor_ClosedLoop.cpp ****     float up_duty = constraint_value(motor_up_duty, 0.0f, MOTOR_DEFAULT_PARAM.limit.max_duty); //ķÖ
 229:My_Top/Motor_Control/DcMotor_ClosedLoop.cpp ****     float down_duty = constraint_value(motor_down_duty, 0.0f, MOTOR_DEFAULT_PARAM.limit.max_duty); 
 230:My_Top/Motor_Control/DcMotor_ClosedLoop.cpp **** 
 231:My_Top/Motor_Control/DcMotor_ClosedLoop.cpp ****     if (Fre == Fre_last && up_duty == up_duty_last && down_duty == down_duty_last) return;// Õ”éµ×£
 232:My_Top/Motor_Control/DcMotor_ClosedLoop.cpp ****     Fre_last = Fre;
 233:My_Top/Motor_Control/DcMotor_ClosedLoop.cpp ****     up_duty_last = up_duty;
 234:My_Top/Motor_Control/DcMotor_ClosedLoop.cpp ****     down_duty_last = down_duty;
 235:My_Top/Motor_Control/DcMotor_ClosedLoop.cpp **** 
 236:My_Top/Motor_Control/DcMotor_ClosedLoop.cpp ****     if (Fre == 0 ){Motor_EN(false); return;}
 237:My_Top/Motor_Control/DcMotor_ClosedLoop.cpp ****     else {Motor_EN(true);}
 238:My_Top/Motor_Control/DcMotor_ClosedLoop.cpp **** 
 239:My_Top/Motor_Control/DcMotor_ClosedLoop.cpp ****     arr = timer_clock_freq_ / Fre;
 240:My_Top/Motor_Control/DcMotor_ClosedLoop.cpp ****     if (arr >= 65535) arr = 65535;
 241:My_Top/Motor_Control/DcMotor_ClosedLoop.cpp ****     else if (arr <= 1) arr = 1;
 242:My_Top/Motor_Control/DcMotor_ClosedLoop.cpp **** 
 243:My_Top/Motor_Control/DcMotor_ClosedLoop.cpp ****     _motor_config->htim->Instance->CNT = 0; // µĖģķøČĶ«ĪµĢ░ÕÖ©
 244:My_Top/Motor_Control/DcMotor_ClosedLoop.cpp ****     __HAL_TIM_SET_AUTORELOAD(_motor_config->htim, (uint16_t)(arr - 1));//Ķ«ŠńĮ«Õæ©µ£¤ 
 245:My_Top/Motor_Control/DcMotor_ClosedLoop.cpp ****     __HAL_TIM_SET_COMPARE(_motor_config->htim, _motor_config->ch_hin1, (uint32_t)(arr*up_duty));//Ķ
 246:My_Top/Motor_Control/DcMotor_ClosedLoop.cpp ****     __HAL_TIM_SET_COMPARE(_motor_config->htim, _motor_config->ch_hin2, (uint32_t)(arr*down_duty));/
 247:My_Top/Motor_Control/DcMotor_ClosedLoop.cpp **** }
 248:My_Top/Motor_Control/DcMotor_ClosedLoop.cpp **** 
 249:My_Top/Motor_Control/DcMotor_ClosedLoop.cpp **** 
 250:My_Top/Motor_Control/DcMotor_ClosedLoop.cpp **** 
 251:My_Top/Motor_Control/DcMotor_ClosedLoop.cpp **** void DC_Motor::Set_Motor_Glo_Duty() //Ķ«ŠńĮ«ńöĄµ£║Õģ©Õ▒ĆÕŹĀń®║µ»ö
 252:My_Top/Motor_Control/DcMotor_ClosedLoop.cpp **** {
 253:My_Top/Motor_Control/DcMotor_ClosedLoop.cpp ****     float duty = constraint_value(updown_duty, MOTOR_DEFAULT_PARAM.limit.min_duty, MOTOR_DEFAULT_PA
 254:My_Top/Motor_Control/DcMotor_ClosedLoop.cpp **** 
 255:My_Top/Motor_Control/DcMotor_ClosedLoop.cpp ****     if (duty == 0.0f || fabsf(duty) < 1e-6f)
 256:My_Top/Motor_Control/DcMotor_ClosedLoop.cpp ****     {
 257:My_Top/Motor_Control/DcMotor_ClosedLoop.cpp ****         motor_up_duty = motor_down_duty = 0.0f; //ńöĄµĄüµ×üÕż¦ ?????
 258:My_Top/Motor_Control/DcMotor_ClosedLoop.cpp ****         Motor_EN(false);
 259:My_Top/Motor_Control/DcMotor_ClosedLoop.cpp ****     }else if (duty > 0.0f) 
 260:My_Top/Motor_Control/DcMotor_ClosedLoop.cpp ****     {
 261:My_Top/Motor_Control/DcMotor_ClosedLoop.cpp ****         motor_up_duty = duty;
ARM GAS  /tmp/ccBC5zcM.s 			page 12


 262:My_Top/Motor_Control/DcMotor_ClosedLoop.cpp ****         motor_down_duty = 0.0f;
 263:My_Top/Motor_Control/DcMotor_ClosedLoop.cpp ****         Motor_EN(true);
 264:My_Top/Motor_Control/DcMotor_ClosedLoop.cpp ****     }else if (duty < 0.0f) 
 265:My_Top/Motor_Control/DcMotor_ClosedLoop.cpp ****     {
 266:My_Top/Motor_Control/DcMotor_ClosedLoop.cpp ****         motor_up_duty = 0.0f;
 267:My_Top/Motor_Control/DcMotor_ClosedLoop.cpp ****         motor_down_duty = -duty;
 268:My_Top/Motor_Control/DcMotor_ClosedLoop.cpp ****         Motor_EN(true);
 269:My_Top/Motor_Control/DcMotor_ClosedLoop.cpp ****     }
 270:My_Top/Motor_Control/DcMotor_ClosedLoop.cpp **** 
 271:My_Top/Motor_Control/DcMotor_ClosedLoop.cpp ****     Set_Motor_Frequency();
 272:My_Top/Motor_Control/DcMotor_ClosedLoop.cpp **** }
 273:My_Top/Motor_Control/DcMotor_ClosedLoop.cpp **** 
 274:My_Top/Motor_Control/DcMotor_ClosedLoop.cpp **** 
 275:My_Top/Motor_Control/DcMotor_ClosedLoop.cpp **** 
 276:My_Top/Motor_Control/DcMotor_ClosedLoop.cpp **** 
 277:My_Top/Motor_Control/DcMotor_ClosedLoop.cpp **** 
 278:My_Top/Motor_Control/DcMotor_ClosedLoop.cpp **** 
 279:My_Top/Motor_Control/DcMotor_ClosedLoop.cpp **** void DC_Motor::Motor_EN(bool en)
 280:My_Top/Motor_Control/DcMotor_ClosedLoop.cpp **** {
 281:My_Top/Motor_Control/DcMotor_ClosedLoop.cpp ****     if (en == _motor_is_on_last) return;  // ńŖČµĆüµ▓ĪÕÅś’╝īĶĘ│Ķ┐ć
 282:My_Top/Motor_Control/DcMotor_ClosedLoop.cpp ****     _motor_is_on_last = en;
 283:My_Top/Motor_Control/DcMotor_ClosedLoop.cpp **** 
 284:My_Top/Motor_Control/DcMotor_ClosedLoop.cpp ****     if (en)
 285:My_Top/Motor_Control/DcMotor_ClosedLoop.cpp ****     {
 286:My_Top/Motor_Control/DcMotor_ClosedLoop.cpp ****         HAL_TIM_PWM_Start(_motor_config->htim, _motor_config->ch_hin1);
 287:My_Top/Motor_Control/DcMotor_ClosedLoop.cpp ****         HAL_TIMEx_PWMN_Start(_motor_config->htim, _motor_config->ch_hin1);
 288:My_Top/Motor_Control/DcMotor_ClosedLoop.cpp ****         HAL_TIM_PWM_Start(_motor_config->htim, _motor_config->ch_hin2);
 289:My_Top/Motor_Control/DcMotor_ClosedLoop.cpp ****         HAL_TIMEx_PWMN_Start(_motor_config->htim, _motor_config->ch_hin2);
 290:My_Top/Motor_Control/DcMotor_ClosedLoop.cpp ****     }else
 291:My_Top/Motor_Control/DcMotor_ClosedLoop.cpp ****     {
 292:My_Top/Motor_Control/DcMotor_ClosedLoop.cpp ****         HAL_TIM_PWM_Stop(_motor_config->htim, _motor_config->ch_hin1);
 293:My_Top/Motor_Control/DcMotor_ClosedLoop.cpp ****         HAL_TIMEx_PWMN_Stop(_motor_config->htim, _motor_config->ch_hin1);
 294:My_Top/Motor_Control/DcMotor_ClosedLoop.cpp ****         HAL_TIM_PWM_Stop(_motor_config->htim, _motor_config->ch_hin2);
 295:My_Top/Motor_Control/DcMotor_ClosedLoop.cpp ****         HAL_TIMEx_PWMN_Stop(_motor_config->htim, _motor_config->ch_hin2);
 296:My_Top/Motor_Control/DcMotor_ClosedLoop.cpp ****     }
 297:My_Top/Motor_Control/DcMotor_ClosedLoop.cpp **** }
 298:My_Top/Motor_Control/DcMotor_ClosedLoop.cpp **** 
 299:My_Top/Motor_Control/DcMotor_ClosedLoop.cpp **** 
 300:My_Top/Motor_Control/DcMotor_ClosedLoop.cpp **** void DC_Motor::Update_Speed_Angle_LPFAndPLL() //µø┤µ¢░ķĆ¤Õ║”ÕÆīĶ¦ÆÕ║”
 301:My_Top/Motor_Control/DcMotor_ClosedLoop.cpp **** {
 302:My_Top/Motor_Control/DcMotor_ClosedLoop.cpp ****     // ķØÖµĆüÕÅśķćÅ’╝īńö©õ║ÄõĖ┤µŚČÕŁśÕé©Ķ¦ÆÕ║”ÕĆ╝ÕÆīõĖŖõĖĆµ¼ĪńÜäĶ¦ÆÕ║”ÕĆ╝
 303:My_Top/Motor_Control/DcMotor_ClosedLoop.cpp ****     static float fudu_test = 0.0f;
 304:My_Top/Motor_Control/DcMotor_ClosedLoop.cpp ****     static float theta_m_offic_temp = 0.0;
 305:My_Top/Motor_Control/DcMotor_ClosedLoop.cpp **** 
 306:My_Top/Motor_Control/DcMotor_ClosedLoop.cpp ****     _encoder->KTH7111_Send_JIAO_CMD();//ÕÅæķĆüĶ¦ÆÕ║”µīćõ╗ż
 307:My_Top/Motor_Control/DcMotor_ClosedLoop.cpp ****     fudu_test = _encoder->Get_KTH7111_Radian();//ĶÄĘÕÅ¢ń╝¢ńĀüÕÖ©Ķ¦ÆÕ║”
 308:My_Top/Motor_Control/DcMotor_ClosedLoop.cpp **** 
 309:My_Top/Motor_Control/DcMotor_ClosedLoop.cpp ****     if (LPFAndPLL == false) //õĮÄķĆÜµ╗żµ│óĶ¦ÆÕ║”
 310:My_Top/Motor_Control/DcMotor_ClosedLoop.cpp ****     {
 311:My_Top/Motor_Control/DcMotor_ClosedLoop.cpp ****       theta_m = wrap_to_PI(fudu_test);
 312:My_Top/Motor_Control/DcMotor_ClosedLoop.cpp ****       //µ¢╣Õ╝Å1 õĮÄķĆÜµ╗żµ│ó µø┤µ¢░µ£║µó░Ķ¦ÆÕ║”ķĆ¤Õ║”
 313:My_Top/Motor_Control/DcMotor_ClosedLoop.cpp ****       theta_m_offic_temp = theta_m - theta_m_last; 
 314:My_Top/Motor_Control/DcMotor_ClosedLoop.cpp ****       theta_m_last = theta_m; // µø┤µ¢░õĖŖõĖĆµ¼ĪńÜäµ£║µó░Ķ¦ÆÕ║”
 315:My_Top/Motor_Control/DcMotor_ClosedLoop.cpp ****       theta_m_offic = wrap_to_PI(theta_m_offic_temp);// Õ░åÕĘ«ÕĆ╝Ķ¦äµĢ┤Õł░ [-PI, PI) Õī║ķŚ┤
 316:My_Top/Motor_Control/DcMotor_ClosedLoop.cpp **** 
 317:My_Top/Motor_Control/DcMotor_ClosedLoop.cpp ****       theta_m_offic_filtered = error_lpf.filter(theta_m_offic);//Õ»╣Ķ»»ÕĘ«Ķ¦ÆÕ║”õĮÄķĆÜµ╗żµ│ó
 318:My_Top/Motor_Control/DcMotor_ClosedLoop.cpp ****       theta_m_speed = theta_m_offic_filtered*DC_VELOCITY_LOOP_FREQ_HZ;//speed=ĶĘ»ń©ŗ/t 
ARM GAS  /tmp/ccBC5zcM.s 			page 13


 319:My_Top/Motor_Control/DcMotor_ClosedLoop.cpp ****       theta_av_speed = speed_avg.filter(theta_m_speed);//Õ»╣ķĆ¤Õ║”Ķ┐øĶĪīÕ╣│ÕØćÕĆ╝µ╗żµ│ó
 320:My_Top/Motor_Control/DcMotor_ClosedLoop.cpp ****       filtered_speed = speed_lpf.filter(theta_av_speed);//Õ»╣ķĆ¤Õ║”Ķ┐øĶĪīõĮÄķĆÜµ╗żµ│ó
 321:My_Top/Motor_Control/DcMotor_ClosedLoop.cpp ****       reg_final = theta_m; //Õ░åµ£║µó░Ķ¦ÆÕ║”ĶĄŗÕĆ╝ń╗Öµ£Ćń╗łĶ¦ÆÕ║”
 322:My_Top/Motor_Control/DcMotor_ClosedLoop.cpp ****       theta_deg_final = rad2deg(reg_final); //Õ░åÕ╝¦Õ║”ĶĮ¼µŹóõĖ║360Õ║”
 323:My_Top/Motor_Control/DcMotor_ClosedLoop.cpp ****       Angular_velocity_final = filtered_speed;  //Õ░åµ£Ćń╗łķĆ¤Õ║”ĶĄŗÕĆ╝ń╗Öµ£Ćń╗łĶ¦ÆķĆ¤Õ║”
 324:My_Top/Motor_Control/DcMotor_ClosedLoop.cpp ****       
 325:My_Top/Motor_Control/DcMotor_ClosedLoop.cpp ****     }else if (LPFAndPLL == true)
 326:My_Top/Motor_Control/DcMotor_ClosedLoop.cpp ****     {
 327:My_Top/Motor_Control/DcMotor_ClosedLoop.cpp ****       // µ¢╣Õ╝Å2PLLķöüńøĖńÄ» µø┤µ¢░PLLķöüńøĖńÄ»ńÜäĶŠōÕć║Ķ¦ÆÕ║”ÕÆīĶ¦ÆķĆ¤Õ║”
 328:My_Top/Motor_Control/DcMotor_ClosedLoop.cpp ****       theta_m = fudu_test; // ĶÄĘÕÅ¢ÕÄ¤Õ¦ŗµ£║µó░Ķ¦ÆÕ║” Õ╝¦Õ║”
 329:My_Top/Motor_Control/DcMotor_ClosedLoop.cpp ****       foc_pll_run(theta_m,PLL_FREQ_Dt,&_pll_reg_out,&_pll_Angular_velocity,&_pll_conf); //µø┤µ¢░PLL
 330:My_Top/Motor_Control/DcMotor_ClosedLoop.cpp ****       reg_final = _pll_reg_out; //Õ░åPLLķöüńøĖńÄ»ńÜäĶŠōÕć║Ķ¦ÆÕ║”ĶĄŗÕĆ╝ń╗Öµ£Ćń╗łĶ¦ÆÕ║”
 331:My_Top/Motor_Control/DcMotor_ClosedLoop.cpp ****       theta_deg_final = rad2deg(reg_final); //Õ░åÕ╝¦Õ║”ĶĮ¼µŹóõĖ║360Õ║”
 332:My_Top/Motor_Control/DcMotor_ClosedLoop.cpp ****       Angular_velocity_final = _pll_Angular_velocity; //Õ░åµ£Ćń╗łķĆ¤Õ║”ĶĄŗÕĆ╝ń╗Öµ£Ćń╗łĶ¦ÆķĆ¤Õ║”
 333:My_Top/Motor_Control/DcMotor_ClosedLoop.cpp ****     }
 334:My_Top/Motor_Control/DcMotor_ClosedLoop.cpp **** 
 335:My_Top/Motor_Control/DcMotor_ClosedLoop.cpp **** }
 336:My_Top/Motor_Control/DcMotor_ClosedLoop.cpp **** 
 337:My_Top/Motor_Control/DcMotor_ClosedLoop.cpp **** 
 338:My_Top/Motor_Control/DcMotor_ClosedLoop.cpp **** void DC_Motor::Speed_Loop(void) //ķĆ¤Õ║”ńÄ»
 339:My_Top/Motor_Control/DcMotor_ClosedLoop.cpp **** {
 340:My_Top/Motor_Control/DcMotor_ClosedLoop.cpp ****     float _delta_pwm = 0.0f; //Ķ«Īń«ŚPIDÕó×ķćÅ
 341:My_Top/Motor_Control/DcMotor_ClosedLoop.cpp ****     float error_speed = _target_speed - Angular_velocity_final; //Ķ«Īń«ŚķĆ¤Õ║”Ķ»»ÕĘ«
 342:My_Top/Motor_Control/DcMotor_ClosedLoop.cpp **** 
 343:My_Top/Motor_Control/DcMotor_ClosedLoop.cpp ****     _delta_pwm = pid_speed_incparam->update(error_speed); //Ķ«Īń«ŚPIDÕó×ķćÅ
 344:My_Top/Motor_Control/DcMotor_ClosedLoop.cpp ****     updown_duty += _delta_pwm; //µø┤µ¢░ńöĄµ£║ÕŹĀń®║µ»ö
 345:My_Top/Motor_Control/DcMotor_ClosedLoop.cpp ****     Set_Motor_Glo_Duty(); //Ķ«ŠńĮ«ńöĄµ£║Õģ©Õ▒ĆÕŹĀń®║µ»ö
 346:My_Top/Motor_Control/DcMotor_ClosedLoop.cpp **** }
 347:My_Top/Motor_Control/DcMotor_ClosedLoop.cpp **** 
 348:My_Top/Motor_Control/DcMotor_ClosedLoop.cpp **** 
 349:My_Top/Motor_Control/DcMotor_ClosedLoop.cpp **** // void DC_Motor::Location_Loop(void) //õĮŹńĮ«ńÄ»
 350:My_Top/Motor_Control/DcMotor_ClosedLoop.cpp **** // {
 351:My_Top/Motor_Control/DcMotor_ClosedLoop.cpp **** //     float error = wrap_to_PI(deg2rad(_target_location2) - reg_final); //Ķ«Īń«ŚõĮŹńĮ«Ķ»»ÕĘ«
 352:My_Top/Motor_Control/DcMotor_ClosedLoop.cpp **** //     _target_speed = pid_location->update(error); //õ╝ĀÕģźÕ«×ķÖģĶ»»ÕĘ«ÕĆ╝
 353:My_Top/Motor_Control/DcMotor_ClosedLoop.cpp **** // }
 354:My_Top/Motor_Control/DcMotor_ClosedLoop.cpp **** 
 355:My_Top/Motor_Control/DcMotor_ClosedLoop.cpp **** 
 356:My_Top/Motor_Control/DcMotor_ClosedLoop.cpp **** 
 357:My_Top/Motor_Control/DcMotor_ClosedLoop.cpp **** // void DC_Motor::Location_Loop(void)
 358:My_Top/Motor_Control/DcMotor_ClosedLoop.cpp **** // {
 359:My_Top/Motor_Control/DcMotor_ClosedLoop.cpp **** //     float diff = _target_location2_cmd - _target_location2;
 360:My_Top/Motor_Control/DcMotor_ClosedLoop.cpp **** 
 361:My_Top/Motor_Control/DcMotor_ClosedLoop.cpp **** //     while (diff > 180.0f) diff -= 360.0f;    // µö╣µłÉ while’╝īńĪ«õ┐Ø diff Õ£© [-180, 180]
 362:My_Top/Motor_Control/DcMotor_ClosedLoop.cpp **** //     while (diff < -180.0f) diff += 360.0f;
 363:My_Top/Motor_Control/DcMotor_ClosedLoop.cpp **** 
 364:My_Top/Motor_Control/DcMotor_ClosedLoop.cpp **** //     if (diff > 60.0f) diff = 60.0f;
 365:My_Top/Motor_Control/DcMotor_ClosedLoop.cpp **** //     if (diff < -60.0f) diff = -60.0f;
 366:My_Top/Motor_Control/DcMotor_ClosedLoop.cpp **** //     _target_location2 += diff;
 367:My_Top/Motor_Control/DcMotor_ClosedLoop.cpp **** 
 368:My_Top/Motor_Control/DcMotor_ClosedLoop.cpp **** //     while (_target_location2 > 180.0f) _target_location2 -= 360.0f;
 369:My_Top/Motor_Control/DcMotor_ClosedLoop.cpp **** //     while (_target_location2 < -180.0f) _target_location2 += 360.0f;
 370:My_Top/Motor_Control/DcMotor_ClosedLoop.cpp **** 
 371:My_Top/Motor_Control/DcMotor_ClosedLoop.cpp **** //     float error = wrap_to_PI(deg2rad(_target_location2) - reg_final);
 372:My_Top/Motor_Control/DcMotor_ClosedLoop.cpp **** //     float raw_speed = pid_location->update(error);
 373:My_Top/Motor_Control/DcMotor_ClosedLoop.cpp **** //     _target_speed = raw_speed;
 374:My_Top/Motor_Control/DcMotor_ClosedLoop.cpp **** 
 375:My_Top/Motor_Control/DcMotor_ClosedLoop.cpp **** //     if (_target_speed > PID_Max_Speed) _target_speed = PID_Max_Speed;
ARM GAS  /tmp/ccBC5zcM.s 			page 14


 376:My_Top/Motor_Control/DcMotor_ClosedLoop.cpp **** //     if (_target_speed < PID_Min_Speed) _target_speed = PID_Min_Speed;
 377:My_Top/Motor_Control/DcMotor_ClosedLoop.cpp **** // }
 378:My_Top/Motor_Control/DcMotor_ClosedLoop.cpp **** 
 379:My_Top/Motor_Control/DcMotor_ClosedLoop.cpp **** 
 380:My_Top/Motor_Control/DcMotor_ClosedLoop.cpp **** 
 381:My_Top/Motor_Control/DcMotor_ClosedLoop.cpp **** 
 382:My_Top/Motor_Control/DcMotor_ClosedLoop.cpp **** 
 383:My_Top/Motor_Control/DcMotor_ClosedLoop.cpp **** void DC_Motor::Location_Loop(void)
 384:My_Top/Motor_Control/DcMotor_ClosedLoop.cpp **** {
 385:My_Top/Motor_Control/DcMotor_ClosedLoop.cpp ****     float pos_error = wrap_to_PI(deg2rad(_target_location2) - reg_final);  // Ķ«Īń«ŚÕĮōÕēŹõĮŹńĮ«Ķ»»
 386:My_Top/Motor_Control/DcMotor_ClosedLoop.cpp **** 
 387:My_Top/Motor_Control/DcMotor_ClosedLoop.cpp ****     float pos_abs = fabs(pos_error); // Ķ»»ÕĘ«õĮŹńĮ«ń╗ØÕ»╣ÕĆ╝
 388:My_Top/Motor_Control/DcMotor_ClosedLoop.cpp **** 
 389:My_Top/Motor_Control/DcMotor_ClosedLoop.cpp ****     float vel_abs = fabs(Angular_velocity_final); //ń£¤Õ«×ķĆ¤Õ║”ń╗ØÕ»╣ÕĆ╝
 390:My_Top/Motor_Control/DcMotor_ClosedLoop.cpp **** 
 391:My_Top/Motor_Control/DcMotor_ClosedLoop.cpp **** 
 392:My_Top/Motor_Control/DcMotor_ClosedLoop.cpp ****     if(position_done) // õĮŹńĮ«ńÄ»Õł░õĮŹ
 393:My_Top/Motor_Control/DcMotor_ClosedLoop.cpp ****     {
 394:My_Top/Motor_Control/DcMotor_ClosedLoop.cpp ****         if(pos_abs > deg2rad(0.6f))
 395:My_Top/Motor_Control/DcMotor_ClosedLoop.cpp ****         {
 396:My_Top/Motor_Control/DcMotor_ClosedLoop.cpp ****             position_done = false;
 397:My_Top/Motor_Control/DcMotor_ClosedLoop.cpp ****         }
 398:My_Top/Motor_Control/DcMotor_ClosedLoop.cpp ****     }else // õĮŹńĮ«ńÄ»µ£¬Õł░õĮŹ
 399:My_Top/Motor_Control/DcMotor_ClosedLoop.cpp ****     {
 400:My_Top/Motor_Control/DcMotor_ClosedLoop.cpp ****         if(pos_abs < deg2rad(0.3f) &&vel_abs < deg2rad(4.0f))
 401:My_Top/Motor_Control/DcMotor_ClosedLoop.cpp ****         {
 402:My_Top/Motor_Control/DcMotor_ClosedLoop.cpp ****             position_ok_cnt++;//Ķ┐×ń╗Ł10µ¼Īµ╗ĪĶČ│µØĪõ╗Č’╝īĶ«żõĖ║õĮŹńĮ«Õł░õĮŹ
 403:My_Top/Motor_Control/DcMotor_ClosedLoop.cpp ****             if(position_ok_cnt >= 10)
 404:My_Top/Motor_Control/DcMotor_ClosedLoop.cpp ****             {
 405:My_Top/Motor_Control/DcMotor_ClosedLoop.cpp ****                 position_done = true;
 406:My_Top/Motor_Control/DcMotor_ClosedLoop.cpp ****             }
 407:My_Top/Motor_Control/DcMotor_ClosedLoop.cpp ****         }else
 408:My_Top/Motor_Control/DcMotor_ClosedLoop.cpp ****         {
 409:My_Top/Motor_Control/DcMotor_ClosedLoop.cpp ****             position_ok_cnt = 0;
 410:My_Top/Motor_Control/DcMotor_ClosedLoop.cpp ****         }
 411:My_Top/Motor_Control/DcMotor_ClosedLoop.cpp ****     }
 412:My_Top/Motor_Control/DcMotor_ClosedLoop.cpp **** 
 413:My_Top/Motor_Control/DcMotor_ClosedLoop.cpp **** 
 414:My_Top/Motor_Control/DcMotor_ClosedLoop.cpp ****     if(position_done)  // õĮŹńĮ«ńÄ»Õł░õĮŹ’╝īÕü£µŁóĶŠōÕć║ķĆ¤Õ║”
 415:My_Top/Motor_Control/DcMotor_ClosedLoop.cpp ****     {
 416:My_Top/Motor_Control/DcMotor_ClosedLoop.cpp ****         _target_speed = 0.0f;
 417:My_Top/Motor_Control/DcMotor_ClosedLoop.cpp ****         target_speed_last = 0.0f;
 418:My_Top/Motor_Control/DcMotor_ClosedLoop.cpp ****         return;
 419:My_Top/Motor_Control/DcMotor_ClosedLoop.cpp ****     }
 420:My_Top/Motor_Control/DcMotor_ClosedLoop.cpp **** 
 421:My_Top/Motor_Control/DcMotor_ClosedLoop.cpp ****     float vel_error = -Angular_velocity_final;  //Ķ«Īń«ŚķĆ¤Õ║”Ķ»»ÕĘ«
 422:My_Top/Motor_Control/DcMotor_ClosedLoop.cpp ****     _target_speed = _lqr->update(pos_error, vel_error);  // LQRĶŠōÕć║ńø«µĀćķĆ¤Õ║”
 423:My_Top/Motor_Control/DcMotor_ClosedLoop.cpp ****     //ķĆ¤Õ║”ÕÅśÕī¢µ¢£ÕØĪ
 424:My_Top/Motor_Control/DcMotor_ClosedLoop.cpp ****     float lqr_speed = _lqr->update(pos_error, vel_error);  // LQRĶŠōÕć║ńø«µĀćķĆ¤Õ║”
 425:My_Top/Motor_Control/DcMotor_ClosedLoop.cpp ****     float speed_delta = lqr_speed - target_speed_last;
 426:My_Top/Motor_Control/DcMotor_ClosedLoop.cpp ****     if(speed_delta > 0.002f)
 427:My_Top/Motor_Control/DcMotor_ClosedLoop.cpp ****     {
 428:My_Top/Motor_Control/DcMotor_ClosedLoop.cpp ****         speed_delta = 0.002f;
 429:My_Top/Motor_Control/DcMotor_ClosedLoop.cpp ****     }
 430:My_Top/Motor_Control/DcMotor_ClosedLoop.cpp ****     else if(speed_delta < -0.002f)
 431:My_Top/Motor_Control/DcMotor_ClosedLoop.cpp ****     {
 432:My_Top/Motor_Control/DcMotor_ClosedLoop.cpp ****         speed_delta = -0.002f;
ARM GAS  /tmp/ccBC5zcM.s 			page 15


 433:My_Top/Motor_Control/DcMotor_ClosedLoop.cpp ****     }
 434:My_Top/Motor_Control/DcMotor_ClosedLoop.cpp **** 
 435:My_Top/Motor_Control/DcMotor_ClosedLoop.cpp ****     target_speed_last += speed_delta;
 436:My_Top/Motor_Control/DcMotor_ClosedLoop.cpp **** 
 437:My_Top/Motor_Control/DcMotor_ClosedLoop.cpp ****     _target_speed = target_speed_last;
 438:My_Top/Motor_Control/DcMotor_ClosedLoop.cpp **** 
 439:My_Top/Motor_Control/DcMotor_ClosedLoop.cpp **** }
 440:My_Top/Motor_Control/DcMotor_ClosedLoop.cpp **** 
 441:My_Top/Motor_Control/DcMotor_ClosedLoop.cpp **** 
 442:My_Top/Motor_Control/DcMotor_ClosedLoop.cpp **** 
 443:My_Top/Motor_Control/DcMotor_ClosedLoop.cpp **** 
 444:My_Top/Motor_Control/DcMotor_ClosedLoop.cpp **** 
 445:My_Top/Motor_Control/DcMotor_ClosedLoop.cpp **** void DC_Motor::Thermistor_Temp() //Ķ«Īń«ŚńāŁµĢÅńöĄķś╗µĖ®Õ║”
 446:My_Top/Motor_Control/DcMotor_ClosedLoop.cpp **** {
 447:My_Top/Motor_Control/DcMotor_ClosedLoop.cpp ****     float adc_av_val = 0.0f;
 448:My_Top/Motor_Control/DcMotor_ClosedLoop.cpp ****     
 449:My_Top/Motor_Control/DcMotor_ClosedLoop.cpp ****     adc_av_val = adc_val_avg.filter((float)ADC_Value[_motor_config->adc_channel]); //Õ»╣ADCÕĆ╝Ķ┐øĶĪ
 450:My_Top/Motor_Control/DcMotor_ClosedLoop.cpp ****     // ADC ÕĆ╝Õ╝éÕĖĖ’╝łµé¼ń®║/µ£¬µÄźńāŁµĢÅńöĄķś╗ ĶĘ│Ķ┐ćĶ«Īń«Ś
 451:My_Top/Motor_Control/DcMotor_ClosedLoop.cpp ****     if (adc_av_val < 10.0f || adc_av_val > 4086.0f) return;  // õ┐ØµīüõĖŖµ¼Īµ£ēµĢłµĖ®Õ║”’╝īõĖŹµø┤µ¢
 452:My_Top/Motor_Control/DcMotor_ClosedLoop.cpp **** 
 453:My_Top/Motor_Control/DcMotor_ClosedLoop.cpp ****     ADC_RES_Val = 10.0*(4096-adc_av_val) / adc_av_val; //Ķ«Īń«ŚADCÕĆ╝Õ»╣Õ║öńÜäńöĄķś╗ÕĆ╝Õż¦Õ░Å
 454:My_Top/Motor_Control/DcMotor_ClosedLoop.cpp **** 
 455:My_Top/Motor_Control/DcMotor_ClosedLoop.cpp ****     float inv_T = 1.0f / T0_K + log(ADC_RES_Val / NTC_R0) / NTC_B; //Ķ«Īń«ŚµĖ®Õ║”ńÜäÕĆÆµĢ░ ÕŹĢõĮŹÕ╝
 456:My_Top/Motor_Control/DcMotor_ClosedLoop.cpp ****     
 457:My_Top/Motor_Control/DcMotor_ClosedLoop.cpp ****     ADC_Temp_Val = (1.0f / inv_T) - T0;  //ĶĮ¼µŹóõĖ║µæäµ░ÅÕ║”µĖ®Õ║”
 458:My_Top/Motor_Control/DcMotor_ClosedLoop.cpp **** }
 232              		.loc 1 458 1 is_stmt 1 view -0
 233              		.cfi_startproc
 234              		@ args = 0, pretend = 0, frame = 0
 235              		@ frame_needed = 0, uses_anonymous_args = 0
 236 0000 F0B5     		push	{r4, r5, r6, r7, lr}
 237              		.cfi_def_cfa_offset 20
 238              		.cfi_offset 4, -20
 239              		.cfi_offset 5, -16
 240              		.cfi_offset 6, -12
 241              		.cfi_offset 7, -8
 242              		.cfi_offset 14, -4
 243 0002 83B0     		sub	sp, sp, #12
 244              		.cfi_def_cfa_offset 32
 245              	.LVL14:
 246              	.LBB71:
 247              	.LBI71:
 248              		.file 5 "My_Top/System/kth_read.hpp"
   1:My_Top/System/kth_read.hpp **** #pragma once
   2:My_Top/System/kth_read.hpp **** 
   3:My_Top/System/kth_read.hpp **** #include <stdbool.h>
   4:My_Top/System/kth_read.hpp **** #include "spi.h"
   5:My_Top/System/kth_read.hpp **** #include "FreeRTOS.h"
   6:My_Top/System/kth_read.hpp **** #include "task.h"
   7:My_Top/System/kth_read.hpp **** #include "bsp.hpp"
   8:My_Top/System/kth_read.hpp **** 
   9:My_Top/System/kth_read.hpp **** #define KTH7111_PRECISION (65535.0f) // 2^16-1’╝īń╝¢ńĀüÕÖ©ÕłåĶŠ©ńÄć
  10:My_Top/System/kth_read.hpp **** #define RAW_TO_RAD  (6.28318530717f / KTH7111_PRECISION)// ń╝¢ńĀüÕÖ©ÕÄ¤Õ¦ŗÕĆ╝ĶĮ¼Õ╝¦Õ║”ń│╗µĢ░’╝Ü2ŽĆ 
  11:My_Top/System/kth_read.hpp **** #define RAD_TO_DEG  (180.0f / 3.14159265358979323846f)// Õ╝¦Õ║”ĶĮ¼Ķ¦ÆÕ║”ń│╗µĢ░’╝Ü180 / ŽĆ Ōēł 57.29
  12:My_Top/System/kth_read.hpp **** #include "ex_math.hpp" 
  13:My_Top/System/kth_read.hpp **** 
  14:My_Top/System/kth_read.hpp **** enum ANLC_Status
ARM GAS  /tmp/ccBC5zcM.s 			page 16


  15:My_Top/System/kth_read.hpp **** {
  16:My_Top/System/kth_read.hpp ****     NotStarted = 0,   // µ£¬Õ╝ĆÕ¦ŗĶć¬µĀĪÕćå
  17:My_Top/System/kth_read.hpp ****     InProgress = 1,   // µĀĪÕćåĶ┐øĶĪīõĖŁ
  18:My_Top/System/kth_read.hpp ****     Failed     = 2,   // µĀĪÕćåÕż▒Ķ┤ź
  19:My_Top/System/kth_read.hpp ****     Completed  = 3    // µĀĪÕćåÕ«īµłÉ
  20:My_Top/System/kth_read.hpp **** };
  21:My_Top/System/kth_read.hpp **** 
  22:My_Top/System/kth_read.hpp **** class KTH7111
  23:My_Top/System/kth_read.hpp **** {
  24:My_Top/System/kth_read.hpp **** public:
  25:My_Top/System/kth_read.hpp **** 
  26:My_Top/System/kth_read.hpp **** 
  27:My_Top/System/kth_read.hpp **** 
  28:My_Top/System/kth_read.hpp ****     uint16_t single_turn; // ÕŹĢÕ£łÕÄ¤Õ¦ŗÕĆ╝16õĮŹ
  29:My_Top/System/kth_read.hpp ****     float theta;          // ĶĮ¼µŹóÕÉÄńÜäÕ╝¦Õ║”Ķ¦Æ (0 ~ 2ŽĆ)
  30:My_Top/System/kth_read.hpp ****     float angle;          // ĶĮ¼µŹóÕÉÄńÜäĶ¦ÆÕ║” (0 ~ 360)
  31:My_Top/System/kth_read.hpp ****     bool  encoder_dir; // ń╝¢ńĀüÕÖ©µ¢╣ÕÉæ
  32:My_Top/System/kth_read.hpp ****     KTH7111(const MotorPWM_Config *motor_config)
 249              		.loc 5 32 5 view .LVU59
 250              	.LBB72:
 251              	.LBB73:
  33:My_Top/System/kth_read.hpp ****     : _motor_config(motor_config),
  34:My_Top/System/kth_read.hpp ****       single_turn(0), theta(0.0f), angle(0.0f) {}
 252              		.loc 5 34 7 is_stmt 0 view .LVU60
 253 0004 A54C     		ldr	r4, .L15
 254 0006 0022     		movs	r2, #0
 255 0008 2280     		strh	r2, [r4]	@ movhi
 256              		.loc 5 34 23 view .LVU61
 257 000a 0023     		movs	r3, #0
 258 000c 6360     		str	r3, [r4, #4]	@ float
 259              		.loc 5 34 36 view .LVU62
 260 000e A360     		str	r3, [r4, #8]	@ float
  33:My_Top/System/kth_read.hpp ****     : _motor_config(motor_config),
 261              		.loc 5 33 7 view .LVU63
 262 0010 A349     		ldr	r1, .L15+4
 263 0012 2161     		str	r1, [r4, #16]
 264              	.LVL15:
  33:My_Top/System/kth_read.hpp ****     : _motor_config(motor_config),
 265              		.loc 5 33 7 view .LVU64
 266              	.LBE73:
 267              	.LBE72:
 268              	.LBE71:
 269              	.LBB74:
 270              	.LBI74:
  32:My_Top/System/kth_read.hpp ****     : _motor_config(motor_config),
 271              		.loc 5 32 5 is_stmt 1 view .LVU65
 272              	.LBB75:
 273              	.LBB76:
 274              		.loc 5 34 7 is_stmt 0 view .LVU66
 275 0014 A282     		strh	r2, [r4, #20]	@ movhi
 276              		.loc 5 34 23 view .LVU67
 277 0016 A361     		str	r3, [r4, #24]	@ float
 278              		.loc 5 34 36 view .LVU68
 279 0018 E361     		str	r3, [r4, #28]	@ float
  33:My_Top/System/kth_read.hpp ****     : _motor_config(motor_config),
 280              		.loc 5 33 7 view .LVU69
 281 001a A24F     		ldr	r7, .L15+8
ARM GAS  /tmp/ccBC5zcM.s 			page 17


 282 001c 6762     		str	r7, [r4, #36]
 283              	.LVL16:
  33:My_Top/System/kth_read.hpp ****     : _motor_config(motor_config),
 284              		.loc 5 33 7 view .LVU70
 285              	.LBE76:
 286              	.LBE75:
 287              	.LBE74:
 288              	.LBB77:
 289              	.LBI77:
  32:My_Top/System/kth_read.hpp ****     : _motor_config(motor_config),
 290              		.loc 5 32 5 is_stmt 1 view .LVU71
 291              	.LBB78:
 292              	.LBB79:
 293              		.loc 5 34 7 is_stmt 0 view .LVU72
 294 001e 2285     		strh	r2, [r4, #40]	@ movhi
 295              		.loc 5 34 23 view .LVU73
 296 0020 E362     		str	r3, [r4, #44]	@ float
 297              		.loc 5 34 36 view .LVU74
 298 0022 2363     		str	r3, [r4, #48]	@ float
  33:My_Top/System/kth_read.hpp ****     : _motor_config(motor_config),
 299              		.loc 5 33 7 view .LVU75
 300 0024 A04E     		ldr	r6, .L15+12
 301 0026 A663     		str	r6, [r4, #56]
 302              	.LVL17:
  33:My_Top/System/kth_read.hpp ****     : _motor_config(motor_config),
 303              		.loc 5 33 7 view .LVU76
 304              	.LBE79:
 305              	.LBE78:
 306              	.LBE77:
 307              	.LBB80:
 308              	.LBI80:
  32:My_Top/System/kth_read.hpp ****     : _motor_config(motor_config),
 309              		.loc 5 32 5 is_stmt 1 view .LVU77
 310              	.LBB81:
 311              	.LBB82:
 312              		.loc 5 34 7 is_stmt 0 view .LVU78
 313 0028 A287     		strh	r2, [r4, #60]	@ movhi
 314              		.loc 5 34 23 view .LVU79
 315 002a 2364     		str	r3, [r4, #64]	@ float
 316              		.loc 5 34 36 view .LVU80
 317 002c 6364     		str	r3, [r4, #68]	@ float
  33:My_Top/System/kth_read.hpp ****     : _motor_config(motor_config),
 318              		.loc 5 33 7 view .LVU81
 319 002e 9F4D     		ldr	r5, .L15+16
 320 0030 E564     		str	r5, [r4, #76]
 321              	.LVL18:
  33:My_Top/System/kth_read.hpp ****     : _motor_config(motor_config),
 322              		.loc 5 33 7 view .LVU82
 323              	.LBE82:
 324              	.LBE81:
 325              	.LBE80:
 326              	.LBB83:
 327              	.LBI83:
  29:Lib/compute/pid/pid_Increment.hpp ****     {
 328              		.loc 2 29 5 is_stmt 1 view .LVU83
 329              	.LBB84:
 330              	.LBB85:
ARM GAS  /tmp/ccBC5zcM.s 			page 18


  31:Lib/compute/pid/pid_Increment.hpp ****         _ki = ki;
 331              		.loc 2 31 9 view .LVU84
  31:Lib/compute/pid/pid_Increment.hpp ****         _ki = ki;
 332              		.loc 2 31 13 is_stmt 0 view .LVU85
 333 0032 9FED9F2A 		vldr.32	s4, .L15+20
 334 0036 84ED142A 		vstr.32	s4, [r4, #80]
  32:Lib/compute/pid/pid_Increment.hpp ****         _kd = kd;
 335              		.loc 2 32 9 is_stmt 1 view .LVU86
  32:Lib/compute/pid/pid_Increment.hpp ****         _kd = kd;
 336              		.loc 2 32 13 is_stmt 0 view .LVU87
 337 003a F3EE092A 		vmov.f32	s5, #2.5e+1
 338 003e C4ED152A 		vstr.32	s5, [r4, #84]
  33:Lib/compute/pid/pid_Increment.hpp ****         _dt = dt;
 339              		.loc 2 33 9 is_stmt 1 view .LVU88
  33:Lib/compute/pid/pid_Increment.hpp ****         _dt = dt;
 340              		.loc 2 33 13 is_stmt 0 view .LVU89
 341 0042 9FED9C3A 		vldr.32	s6, .L15+24
 342 0046 84ED163A 		vstr.32	s6, [r4, #88]
  34:Lib/compute/pid/pid_Increment.hpp ****         _max = max;
 343              		.loc 2 34 9 is_stmt 1 view .LVU90
  34:Lib/compute/pid/pid_Increment.hpp ****         _max = max;
 344              		.loc 2 34 13 is_stmt 0 view .LVU91
 345 004a DFED9B3A 		vldr.32	s7, .L15+28
 346 004e C4ED173A 		vstr.32	s7, [r4, #92]
  35:Lib/compute/pid/pid_Increment.hpp ****         _min = min;
 347              		.loc 2 35 9 is_stmt 1 view .LVU92
  35:Lib/compute/pid/pid_Increment.hpp ****         _min = min;
 348              		.loc 2 35 14 is_stmt 0 view .LVU93
 349 0052 9FED9A4A 		vldr.32	s8, .L15+32
 350 0056 84ED184A 		vstr.32	s8, [r4, #96]
  36:Lib/compute/pid/pid_Increment.hpp ****         _e_prev = _e_prev2 = 0.0f;
 351              		.loc 2 36 9 is_stmt 1 view .LVU94
  36:Lib/compute/pid/pid_Increment.hpp ****         _e_prev = _e_prev2 = 0.0f;
 352              		.loc 2 36 14 is_stmt 0 view .LVU95
 353 005a DFED994A 		vldr.32	s9, .L15+36
 354 005e C4ED194A 		vstr.32	s9, [r4, #100]
  37:Lib/compute/pid/pid_Increment.hpp ****         _delta_u = 0.0f;
 355              		.loc 2 37 9 is_stmt 1 view .LVU96
  37:Lib/compute/pid/pid_Increment.hpp ****         _delta_u = 0.0f;
 356              		.loc 2 37 28 is_stmt 0 view .LVU97
 357 0062 E366     		str	r3, [r4, #108]	@ float
  37:Lib/compute/pid/pid_Increment.hpp ****         _delta_u = 0.0f;
 358              		.loc 2 37 17 view .LVU98
 359 0064 A366     		str	r3, [r4, #104]	@ float
  38:Lib/compute/pid/pid_Increment.hpp ****     }
 360              		.loc 2 38 9 is_stmt 1 view .LVU99
  38:Lib/compute/pid/pid_Increment.hpp ****     }
 361              		.loc 2 38 18 is_stmt 0 view .LVU100
 362 0066 2367     		str	r3, [r4, #112]	@ float
 363              	.LVL19:
  38:Lib/compute/pid/pid_Increment.hpp ****     }
 364              		.loc 2 38 18 view .LVU101
 365              	.LBE85:
 366              	.LBE84:
 367              	.LBE83:
 368              	.LBB86:
 369              	.LBI86:
ARM GAS  /tmp/ccBC5zcM.s 			page 19


 370              		.file 6 "Lib/compute/pid/pid.hpp"
   1:Lib/compute/pid/pid.hpp **** #pragma once
   2:Lib/compute/pid/pid.hpp **** 
   3:Lib/compute/pid/pid.hpp **** #define PID_DtHZ (1.0f/16000.0f)
   4:Lib/compute/pid/pid.hpp **** 
   5:Lib/compute/pid/pid.hpp **** class PID
   6:Lib/compute/pid/pid.hpp **** {
   7:Lib/compute/pid/pid.hpp **** public:
   8:Lib/compute/pid/pid.hpp **** 
   9:Lib/compute/pid/pid.hpp **** // µ×äķĆĀÕćĮµĢ░’╝īÕĖ”ķ╗śĶ«żÕÅéµĢ░’╝īµ¢╣õŠ┐õĮ┐ńö©
  10:Lib/compute/pid/pid.hpp ****     PID(float kp = 0.0f, float ki = 0.0f, float kd = 0.0f, float dt = PID_DtHZ, float i_max = 0.66*
 371              		.loc 6 10 5 is_stmt 1 view .LVU102
 372              	.LBB87:
 373              	.LBB88:
  11:Lib/compute/pid/pid.hpp ****         float max = 1.0f, float min = -1.0f)
  12:Lib/compute/pid/pid.hpp ****         : _kp(kp), _ki(ki), _kd(kd), _dt(dt), _i_max(i_max),_max(max), _min(min),
 374              		.loc 6 12 11 is_stmt 0 view .LVU103
 375 0068 9FED965A 		vldr.32	s10, .L15+40
 376 006c 84ED1D5A 		vstr.32	s10, [r4, #116]
 377              		.loc 6 12 20 view .LVU104
 378 0070 A367     		str	r3, [r4, #120]	@ float
 379              		.loc 6 12 29 view .LVU105
 380 0072 E367     		str	r3, [r4, #124]	@ float
 381              		.loc 6 12 38 view .LVU106
 382 0074 DFED945A 		vldr.32	s11, .L15+44
 383 0078 C4ED205A 		vstr.32	s11, [r4, #128]
 384              		.loc 6 12 47 view .LVU107
 385 007c 9FED936A 		vldr.32	s12, .L15+48
 386 0080 84ED216A 		vstr.32	s12, [r4, #132]
 387              		.loc 6 12 61 view .LVU108
 388 0084 DFED926A 		vldr.32	s13, .L15+52
 389 0088 C4ED226A 		vstr.32	s13, [r4, #136]
 390              		.loc 6 12 72 view .LVU109
 391 008c 9FED917A 		vldr.32	s14, .L15+56
 392 0090 84ED237A 		vstr.32	s14, [r4, #140]
  13:Lib/compute/pid/pid.hpp ****           _error(0.0f), _prev_error(0.0f), P_OUT(0.0f), I_OUT(0.0f), D_OUT(0.0f),
 393              		.loc 6 13 11 view .LVU110
 394 0094 C4F89030 		str	r3, [r4, #144]	@ float
 395              		.loc 6 13 25 view .LVU111
 396 0098 C4F89430 		str	r3, [r4, #148]	@ float
 397              		.loc 6 13 44 view .LVU112
 398 009c C4F89830 		str	r3, [r4, #152]	@ float
 399              		.loc 6 13 57 view .LVU113
 400 00a0 C4F89C30 		str	r3, [r4, #156]	@ float
 401              		.loc 6 13 70 view .LVU114
 402 00a4 C4F8A030 		str	r3, [r4, #160]	@ float
  14:Lib/compute/pid/pid.hpp ****           _output(0.0f), max_out_flag(false) {}
 403              		.loc 6 14 11 view .LVU115
 404 00a8 C4F8A430 		str	r3, [r4, #164]	@ float
 405              		.loc 6 14 26 view .LVU116
 406 00ac 84F8A820 		strb	r2, [r4, #168]
 407              	.LVL20:
 408              		.loc 6 14 26 view .LVU117
 409              	.LBE88:
 410              	.LBE87:
 411              	.LBE86:
 412              	.LBB89:
ARM GAS  /tmp/ccBC5zcM.s 			page 20


 413              	.LBI89:
 414              		.file 7 "Lib/compute/pid/LQR.hpp"
   1:Lib/compute/pid/LQR.hpp **** #pragma once 
   2:Lib/compute/pid/LQR.hpp **** 
   3:Lib/compute/pid/LQR.hpp **** class LQR
   4:Lib/compute/pid/LQR.hpp **** {
   5:Lib/compute/pid/LQR.hpp **** public:
   6:Lib/compute/pid/LQR.hpp ****     float _k1;   // õĮŹńĮ«Ķ»»ÕĘ«Õó×ńøŖ’╝łń”╗ń║┐ń«ŚÕźĮ’╝ē
   7:Lib/compute/pid/LQR.hpp ****     float _k2;   // ķĆ¤Õ║”Ķ»»ÕĘ«Õó×ńøŖ’╝łń”╗ń║┐ń«ŚÕźĮ’╝ē
   8:Lib/compute/pid/LQR.hpp ****     float _max;  // ĶŠōÕć║õĖŖķÖÉ
   9:Lib/compute/pid/LQR.hpp ****     float _min;  // ĶŠōÕć║õĖŗķÖÉ
  10:Lib/compute/pid/LQR.hpp **** 
  11:Lib/compute/pid/LQR.hpp ****     // µ×äķĆĀÕćĮµĢ░’╝īÕĖ”ķ╗śĶ«żÕÅéµĢ░
  12:Lib/compute/pid/LQR.hpp ****     LQR(float k1 = 0.0f, float k2 = 0.0f, float max = 1.0f, float min = -1.0f)
 415              		.loc 7 12 5 is_stmt 1 view .LVU118
 416              	.LBB90:
 417              	.LBB91:
  13:Lib/compute/pid/LQR.hpp ****         : _k1(k1), _k2(k2), _max(max), _min(min), _output(0.0f) {}
 418              		.loc 7 13 11 is_stmt 0 view .LVU119
 419 00b0 F1EE067A 		vmov.f32	s15, #5.5e+0
 420 00b4 C4ED2B7A 		vstr.32	s15, [r4, #172]
 421              		.loc 7 13 20 view .LVU120
 422 00b8 DFF820E2 		ldr	lr, .L15+64
 423 00bc C4F8B0E0 		str	lr, [r4, #176]	@ float
 424              		.loc 7 13 29 view .LVU121
 425 00c0 DFF81CC2 		ldr	ip, .L15+68
 426 00c4 C4F8B4C0 		str	ip, [r4, #180]	@ float
 427              		.loc 7 13 40 view .LVU122
 428 00c8 8348     		ldr	r0, .L15+60
 429 00ca C4F8B800 		str	r0, [r4, #184]	@ float
 430              		.loc 7 13 51 view .LVU123
 431 00ce C4F8BC30 		str	r3, [r4, #188]	@ float
 432              	.LVL21:
 433              		.loc 7 13 51 view .LVU124
 434              	.LBE91:
 435              	.LBE90:
 436              	.LBE89:
 437              	.LBB92:
 438              	.LBI92:
  29:Lib/compute/pid/pid_Increment.hpp ****     {
 439              		.loc 2 29 5 is_stmt 1 view .LVU125
 440              	.LBB93:
 441              	.LBB94:
  31:Lib/compute/pid/pid_Increment.hpp ****         _ki = ki;
 442              		.loc 2 31 9 view .LVU126
  31:Lib/compute/pid/pid_Increment.hpp ****         _ki = ki;
 443              		.loc 2 31 13 is_stmt 0 view .LVU127
 444 00d2 84ED302A 		vstr.32	s4, [r4, #192]
  32:Lib/compute/pid/pid_Increment.hpp ****         _kd = kd;
 445              		.loc 2 32 9 is_stmt 1 view .LVU128
  32:Lib/compute/pid/pid_Increment.hpp ****         _kd = kd;
 446              		.loc 2 32 13 is_stmt 0 view .LVU129
 447 00d6 C4ED312A 		vstr.32	s5, [r4, #196]
  33:Lib/compute/pid/pid_Increment.hpp ****         _dt = dt;
 448              		.loc 2 33 9 is_stmt 1 view .LVU130
  33:Lib/compute/pid/pid_Increment.hpp ****         _dt = dt;
 449              		.loc 2 33 13 is_stmt 0 view .LVU131
ARM GAS  /tmp/ccBC5zcM.s 			page 21


 450 00da 84ED323A 		vstr.32	s6, [r4, #200]
  34:Lib/compute/pid/pid_Increment.hpp ****         _max = max;
 451              		.loc 2 34 9 is_stmt 1 view .LVU132
  34:Lib/compute/pid/pid_Increment.hpp ****         _max = max;
 452              		.loc 2 34 13 is_stmt 0 view .LVU133
 453 00de C4ED333A 		vstr.32	s7, [r4, #204]
  35:Lib/compute/pid/pid_Increment.hpp ****         _min = min;
 454              		.loc 2 35 9 is_stmt 1 view .LVU134
  35:Lib/compute/pid/pid_Increment.hpp ****         _min = min;
 455              		.loc 2 35 14 is_stmt 0 view .LVU135
 456 00e2 84ED344A 		vstr.32	s8, [r4, #208]
  36:Lib/compute/pid/pid_Increment.hpp ****         _e_prev = _e_prev2 = 0.0f;
 457              		.loc 2 36 9 is_stmt 1 view .LVU136
  36:Lib/compute/pid/pid_Increment.hpp ****         _e_prev = _e_prev2 = 0.0f;
 458              		.loc 2 36 14 is_stmt 0 view .LVU137
 459 00e6 C4ED354A 		vstr.32	s9, [r4, #212]
  37:Lib/compute/pid/pid_Increment.hpp ****         _delta_u = 0.0f;
 460              		.loc 2 37 9 is_stmt 1 view .LVU138
  37:Lib/compute/pid/pid_Increment.hpp ****         _delta_u = 0.0f;
 461              		.loc 2 37 28 is_stmt 0 view .LVU139
 462 00ea C4F8DC30 		str	r3, [r4, #220]	@ float
  37:Lib/compute/pid/pid_Increment.hpp ****         _delta_u = 0.0f;
 463              		.loc 2 37 17 view .LVU140
 464 00ee C4F8D830 		str	r3, [r4, #216]	@ float
  38:Lib/compute/pid/pid_Increment.hpp ****     }
 465              		.loc 2 38 9 is_stmt 1 view .LVU141
  38:Lib/compute/pid/pid_Increment.hpp ****     }
 466              		.loc 2 38 18 is_stmt 0 view .LVU142
 467 00f2 C4F8E030 		str	r3, [r4, #224]	@ float
 468              	.LVL22:
  38:Lib/compute/pid/pid_Increment.hpp ****     }
 469              		.loc 2 38 18 view .LVU143
 470              	.LBE94:
 471              	.LBE93:
 472              	.LBE92:
 473              	.LBB95:
 474              	.LBI95:
  10:Lib/compute/pid/pid.hpp ****         float max = 1.0f, float min = -1.0f)
 475              		.loc 6 10 5 is_stmt 1 view .LVU144
 476              	.LBB96:
 477              	.LBB97:
  12:Lib/compute/pid/pid.hpp ****           _error(0.0f), _prev_error(0.0f), P_OUT(0.0f), I_OUT(0.0f), D_OUT(0.0f),
 478              		.loc 6 12 11 is_stmt 0 view .LVU145
 479 00f6 84ED395A 		vstr.32	s10, [r4, #228]
  12:Lib/compute/pid/pid.hpp ****           _error(0.0f), _prev_error(0.0f), P_OUT(0.0f), I_OUT(0.0f), D_OUT(0.0f),
 480              		.loc 6 12 20 view .LVU146
 481 00fa C4F8E830 		str	r3, [r4, #232]	@ float
  12:Lib/compute/pid/pid.hpp ****           _error(0.0f), _prev_error(0.0f), P_OUT(0.0f), I_OUT(0.0f), D_OUT(0.0f),
 482              		.loc 6 12 29 view .LVU147
 483 00fe C4F8EC30 		str	r3, [r4, #236]	@ float
  12:Lib/compute/pid/pid.hpp ****           _error(0.0f), _prev_error(0.0f), P_OUT(0.0f), I_OUT(0.0f), D_OUT(0.0f),
 484              		.loc 6 12 38 view .LVU148
 485 0102 C4ED3C5A 		vstr.32	s11, [r4, #240]
  12:Lib/compute/pid/pid.hpp ****           _error(0.0f), _prev_error(0.0f), P_OUT(0.0f), I_OUT(0.0f), D_OUT(0.0f),
 486              		.loc 6 12 47 view .LVU149
 487 0106 84ED3D6A 		vstr.32	s12, [r4, #244]
  12:Lib/compute/pid/pid.hpp ****           _error(0.0f), _prev_error(0.0f), P_OUT(0.0f), I_OUT(0.0f), D_OUT(0.0f),
ARM GAS  /tmp/ccBC5zcM.s 			page 22


 488              		.loc 6 12 61 view .LVU150
 489 010a C4ED3E6A 		vstr.32	s13, [r4, #248]
  12:Lib/compute/pid/pid.hpp ****           _error(0.0f), _prev_error(0.0f), P_OUT(0.0f), I_OUT(0.0f), D_OUT(0.0f),
 490              		.loc 6 12 72 view .LVU151
 491 010e 84ED3F7A 		vstr.32	s14, [r4, #252]
  13:Lib/compute/pid/pid.hpp ****           _output(0.0f), max_out_flag(false) {}
 492              		.loc 6 13 11 view .LVU152
 493 0112 C4F80031 		str	r3, [r4, #256]	@ float
  13:Lib/compute/pid/pid.hpp ****           _output(0.0f), max_out_flag(false) {}
 494              		.loc 6 13 25 view .LVU153
 495 0116 C4F80431 		str	r3, [r4, #260]	@ float
  13:Lib/compute/pid/pid.hpp ****           _output(0.0f), max_out_flag(false) {}
 496              		.loc 6 13 44 view .LVU154
 497 011a C4F80831 		str	r3, [r4, #264]	@ float
  13:Lib/compute/pid/pid.hpp ****           _output(0.0f), max_out_flag(false) {}
 498              		.loc 6 13 57 view .LVU155
 499 011e C4F80C31 		str	r3, [r4, #268]	@ float
  13:Lib/compute/pid/pid.hpp ****           _output(0.0f), max_out_flag(false) {}
 500              		.loc 6 13 70 view .LVU156
 501 0122 C4F81031 		str	r3, [r4, #272]	@ float
 502              		.loc 6 14 11 view .LVU157
 503 0126 C4F81431 		str	r3, [r4, #276]	@ float
 504              		.loc 6 14 26 view .LVU158
 505 012a 84F81821 		strb	r2, [r4, #280]
 506              	.LVL23:
 507              		.loc 6 14 26 view .LVU159
 508              	.LBE97:
 509              	.LBE96:
 510              	.LBE95:
 511              	.LBB98:
 512              	.LBI98:
  12:Lib/compute/pid/LQR.hpp ****         : _k1(k1), _k2(k2), _max(max), _min(min), _output(0.0f) {}
 513              		.loc 7 12 5 is_stmt 1 view .LVU160
 514              	.LBB99:
 515              	.LBB100:
 516              		.loc 7 13 11 is_stmt 0 view .LVU161
 517 012e C4ED477A 		vstr.32	s15, [r4, #284]
 518              		.loc 7 13 20 view .LVU162
 519 0132 C4F820E1 		str	lr, [r4, #288]	@ float
 520              		.loc 7 13 29 view .LVU163
 521 0136 C4F824C1 		str	ip, [r4, #292]	@ float
 522              		.loc 7 13 40 view .LVU164
 523 013a C4F82801 		str	r0, [r4, #296]	@ float
 524              		.loc 7 13 51 view .LVU165
 525 013e C4F82C31 		str	r3, [r4, #300]	@ float
 526              	.LVL24:
 527              		.loc 7 13 51 view .LVU166
 528              	.LBE100:
 529              	.LBE99:
 530              	.LBE98:
 531              	.LBB101:
 532              	.LBI101:
  29:Lib/compute/pid/pid_Increment.hpp ****     {
 533              		.loc 2 29 5 is_stmt 1 view .LVU167
 534              	.LBB102:
 535              	.LBB103:
  31:Lib/compute/pid/pid_Increment.hpp ****         _ki = ki;
ARM GAS  /tmp/ccBC5zcM.s 			page 23


 536              		.loc 2 31 9 view .LVU168
  31:Lib/compute/pid/pid_Increment.hpp ****         _ki = ki;
 537              		.loc 2 31 13 is_stmt 0 view .LVU169
 538 0142 84ED4C2A 		vstr.32	s4, [r4, #304]
  32:Lib/compute/pid/pid_Increment.hpp ****         _kd = kd;
 539              		.loc 2 32 9 is_stmt 1 view .LVU170
  32:Lib/compute/pid/pid_Increment.hpp ****         _kd = kd;
 540              		.loc 2 32 13 is_stmt 0 view .LVU171
 541 0146 C4ED4D2A 		vstr.32	s5, [r4, #308]
  33:Lib/compute/pid/pid_Increment.hpp ****         _dt = dt;
 542              		.loc 2 33 9 is_stmt 1 view .LVU172
  33:Lib/compute/pid/pid_Increment.hpp ****         _dt = dt;
 543              		.loc 2 33 13 is_stmt 0 view .LVU173
 544 014a 84ED4E3A 		vstr.32	s6, [r4, #312]
  34:Lib/compute/pid/pid_Increment.hpp ****         _max = max;
 545              		.loc 2 34 9 is_stmt 1 view .LVU174
  34:Lib/compute/pid/pid_Increment.hpp ****         _max = max;
 546              		.loc 2 34 13 is_stmt 0 view .LVU175
 547 014e C4ED4F3A 		vstr.32	s7, [r4, #316]
  35:Lib/compute/pid/pid_Increment.hpp ****         _min = min;
 548              		.loc 2 35 9 is_stmt 1 view .LVU176
  35:Lib/compute/pid/pid_Increment.hpp ****         _min = min;
 549              		.loc 2 35 14 is_stmt 0 view .LVU177
 550 0152 84ED504A 		vstr.32	s8, [r4, #320]
  36:Lib/compute/pid/pid_Increment.hpp ****         _e_prev = _e_prev2 = 0.0f;
 551              		.loc 2 36 9 is_stmt 1 view .LVU178
  36:Lib/compute/pid/pid_Increment.hpp ****         _e_prev = _e_prev2 = 0.0f;
 552              		.loc 2 36 14 is_stmt 0 view .LVU179
 553 0156 C4ED514A 		vstr.32	s9, [r4, #324]
  37:Lib/compute/pid/pid_Increment.hpp ****         _delta_u = 0.0f;
 554              		.loc 2 37 9 is_stmt 1 view .LVU180
  37:Lib/compute/pid/pid_Increment.hpp ****         _delta_u = 0.0f;
 555              		.loc 2 37 28 is_stmt 0 view .LVU181
 556 015a C4F84C31 		str	r3, [r4, #332]	@ float
  37:Lib/compute/pid/pid_Increment.hpp ****         _delta_u = 0.0f;
 557              		.loc 2 37 17 view .LVU182
 558 015e C4F84831 		str	r3, [r4, #328]	@ float
  38:Lib/compute/pid/pid_Increment.hpp ****     }
 559              		.loc 2 38 9 is_stmt 1 view .LVU183
  38:Lib/compute/pid/pid_Increment.hpp ****     }
 560              		.loc 2 38 18 is_stmt 0 view .LVU184
 561 0162 C4F85031 		str	r3, [r4, #336]	@ float
 562              	.LVL25:
  38:Lib/compute/pid/pid_Increment.hpp ****     }
 563              		.loc 2 38 18 view .LVU185
 564              	.LBE103:
 565              	.LBE102:
 566              	.LBE101:
 567              	.LBB104:
 568              	.LBI104:
  10:Lib/compute/pid/pid.hpp ****         float max = 1.0f, float min = -1.0f)
 569              		.loc 6 10 5 is_stmt 1 view .LVU186
 570              	.LBB105:
 571              	.LBB106:
  12:Lib/compute/pid/pid.hpp ****           _error(0.0f), _prev_error(0.0f), P_OUT(0.0f), I_OUT(0.0f), D_OUT(0.0f),
 572              		.loc 6 12 11 is_stmt 0 view .LVU187
 573 0166 84ED555A 		vstr.32	s10, [r4, #340]
ARM GAS  /tmp/ccBC5zcM.s 			page 24


  12:Lib/compute/pid/pid.hpp ****           _error(0.0f), _prev_error(0.0f), P_OUT(0.0f), I_OUT(0.0f), D_OUT(0.0f),
 574              		.loc 6 12 20 view .LVU188
 575 016a C4F85831 		str	r3, [r4, #344]	@ float
  12:Lib/compute/pid/pid.hpp ****           _error(0.0f), _prev_error(0.0f), P_OUT(0.0f), I_OUT(0.0f), D_OUT(0.0f),
 576              		.loc 6 12 29 view .LVU189
 577 016e C4F85C31 		str	r3, [r4, #348]	@ float
  12:Lib/compute/pid/pid.hpp ****           _error(0.0f), _prev_error(0.0f), P_OUT(0.0f), I_OUT(0.0f), D_OUT(0.0f),
 578              		.loc 6 12 38 view .LVU190
 579 0172 C4ED585A 		vstr.32	s11, [r4, #352]
  12:Lib/compute/pid/pid.hpp ****           _error(0.0f), _prev_error(0.0f), P_OUT(0.0f), I_OUT(0.0f), D_OUT(0.0f),
 580              		.loc 6 12 47 view .LVU191
 581 0176 84ED596A 		vstr.32	s12, [r4, #356]
  12:Lib/compute/pid/pid.hpp ****           _error(0.0f), _prev_error(0.0f), P_OUT(0.0f), I_OUT(0.0f), D_OUT(0.0f),
 582              		.loc 6 12 61 view .LVU192
 583 017a C4ED5A6A 		vstr.32	s13, [r4, #360]
  12:Lib/compute/pid/pid.hpp ****           _error(0.0f), _prev_error(0.0f), P_OUT(0.0f), I_OUT(0.0f), D_OUT(0.0f),
 584              		.loc 6 12 72 view .LVU193
 585 017e 84ED5B7A 		vstr.32	s14, [r4, #364]
  13:Lib/compute/pid/pid.hpp ****           _output(0.0f), max_out_flag(false) {}
 586              		.loc 6 13 11 view .LVU194
 587 0182 C4F87031 		str	r3, [r4, #368]	@ float
  13:Lib/compute/pid/pid.hpp ****           _output(0.0f), max_out_flag(false) {}
 588              		.loc 6 13 25 view .LVU195
 589 0186 C4F87431 		str	r3, [r4, #372]	@ float
  13:Lib/compute/pid/pid.hpp ****           _output(0.0f), max_out_flag(false) {}
 590              		.loc 6 13 44 view .LVU196
 591 018a C4F87831 		str	r3, [r4, #376]	@ float
  13:Lib/compute/pid/pid.hpp ****           _output(0.0f), max_out_flag(false) {}
 592              		.loc 6 13 57 view .LVU197
 593 018e C4F87C31 		str	r3, [r4, #380]	@ float
  13:Lib/compute/pid/pid.hpp ****           _output(0.0f), max_out_flag(false) {}
 594              		.loc 6 13 70 view .LVU198
 595 0192 C4F88031 		str	r3, [r4, #384]	@ float
 596              		.loc 6 14 11 view .LVU199
 597 0196 C4F88431 		str	r3, [r4, #388]	@ float
 598              		.loc 6 14 26 view .LVU200
 599 019a 84F88821 		strb	r2, [r4, #392]
 600              	.LVL26:
 601              		.loc 6 14 26 view .LVU201
 602              	.LBE106:
 603              	.LBE105:
 604              	.LBE104:
 605              	.LBB107:
 606              	.LBI107:
  12:Lib/compute/pid/LQR.hpp ****         : _k1(k1), _k2(k2), _max(max), _min(min), _output(0.0f) {}
 607              		.loc 7 12 5 is_stmt 1 view .LVU202
 608              	.LBB108:
 609              	.LBB109:
 610              		.loc 7 13 11 is_stmt 0 view .LVU203
 611 019e C4ED637A 		vstr.32	s15, [r4, #396]
 612              		.loc 7 13 20 view .LVU204
 613 01a2 C4F890E1 		str	lr, [r4, #400]	@ float
 614              		.loc 7 13 29 view .LVU205
 615 01a6 C4F894C1 		str	ip, [r4, #404]	@ float
 616              		.loc 7 13 40 view .LVU206
 617 01aa C4F89801 		str	r0, [r4, #408]	@ float
 618              		.loc 7 13 51 view .LVU207
ARM GAS  /tmp/ccBC5zcM.s 			page 25


 619 01ae C4F89C31 		str	r3, [r4, #412]	@ float
 620              	.LVL27:
 621              		.loc 7 13 51 view .LVU208
 622              	.LBE109:
 623              	.LBE108:
 624              	.LBE107:
 625              	.LBB110:
 626              	.LBI110:
  29:Lib/compute/pid/pid_Increment.hpp ****     {
 627              		.loc 2 29 5 is_stmt 1 view .LVU209
 628              	.LBB111:
 629              	.LBB112:
  31:Lib/compute/pid/pid_Increment.hpp ****         _ki = ki;
 630              		.loc 2 31 9 view .LVU210
  31:Lib/compute/pid/pid_Increment.hpp ****         _ki = ki;
 631              		.loc 2 31 13 is_stmt 0 view .LVU211
 632 01b2 84ED682A 		vstr.32	s4, [r4, #416]
  32:Lib/compute/pid/pid_Increment.hpp ****         _kd = kd;
 633              		.loc 2 32 9 is_stmt 1 view .LVU212
  32:Lib/compute/pid/pid_Increment.hpp ****         _kd = kd;
 634              		.loc 2 32 13 is_stmt 0 view .LVU213
 635 01b6 C4ED692A 		vstr.32	s5, [r4, #420]
  33:Lib/compute/pid/pid_Increment.hpp ****         _dt = dt;
 636              		.loc 2 33 9 is_stmt 1 view .LVU214
  33:Lib/compute/pid/pid_Increment.hpp ****         _dt = dt;
 637              		.loc 2 33 13 is_stmt 0 view .LVU215
 638 01ba 84ED6A3A 		vstr.32	s6, [r4, #424]
  34:Lib/compute/pid/pid_Increment.hpp ****         _max = max;
 639              		.loc 2 34 9 is_stmt 1 view .LVU216
  34:Lib/compute/pid/pid_Increment.hpp ****         _max = max;
 640              		.loc 2 34 13 is_stmt 0 view .LVU217
 641 01be C4ED6B3A 		vstr.32	s7, [r4, #428]
  35:Lib/compute/pid/pid_Increment.hpp ****         _min = min;
 642              		.loc 2 35 9 is_stmt 1 view .LVU218
  35:Lib/compute/pid/pid_Increment.hpp ****         _min = min;
 643              		.loc 2 35 14 is_stmt 0 view .LVU219
 644 01c2 84ED6C4A 		vstr.32	s8, [r4, #432]
  36:Lib/compute/pid/pid_Increment.hpp ****         _e_prev = _e_prev2 = 0.0f;
 645              		.loc 2 36 9 is_stmt 1 view .LVU220
  36:Lib/compute/pid/pid_Increment.hpp ****         _e_prev = _e_prev2 = 0.0f;
 646              		.loc 2 36 14 is_stmt 0 view .LVU221
 647 01c6 C4ED6D4A 		vstr.32	s9, [r4, #436]
  37:Lib/compute/pid/pid_Increment.hpp ****         _delta_u = 0.0f;
 648              		.loc 2 37 9 is_stmt 1 view .LVU222
  37:Lib/compute/pid/pid_Increment.hpp ****         _delta_u = 0.0f;
 649              		.loc 2 37 28 is_stmt 0 view .LVU223
 650 01ca C4F8BC31 		str	r3, [r4, #444]	@ float
  37:Lib/compute/pid/pid_Increment.hpp ****         _delta_u = 0.0f;
 651              		.loc 2 37 17 view .LVU224
 652 01ce C4F8B831 		str	r3, [r4, #440]	@ float
  38:Lib/compute/pid/pid_Increment.hpp ****     }
 653              		.loc 2 38 9 is_stmt 1 view .LVU225
  38:Lib/compute/pid/pid_Increment.hpp ****     }
 654              		.loc 2 38 18 is_stmt 0 view .LVU226
 655 01d2 C4F8C031 		str	r3, [r4, #448]	@ float
 656              	.LVL28:
  38:Lib/compute/pid/pid_Increment.hpp ****     }
ARM GAS  /tmp/ccBC5zcM.s 			page 26


 657              		.loc 2 38 18 view .LVU227
 658              	.LBE112:
 659              	.LBE111:
 660              	.LBE110:
 661              	.LBB113:
 662              	.LBI113:
  10:Lib/compute/pid/pid.hpp ****         float max = 1.0f, float min = -1.0f)
 663              		.loc 6 10 5 is_stmt 1 view .LVU228
 664              	.LBB114:
 665              	.LBB115:
  12:Lib/compute/pid/pid.hpp ****           _error(0.0f), _prev_error(0.0f), P_OUT(0.0f), I_OUT(0.0f), D_OUT(0.0f),
 666              		.loc 6 12 11 is_stmt 0 view .LVU229
 667 01d6 84ED715A 		vstr.32	s10, [r4, #452]
  12:Lib/compute/pid/pid.hpp ****           _error(0.0f), _prev_error(0.0f), P_OUT(0.0f), I_OUT(0.0f), D_OUT(0.0f),
 668              		.loc 6 12 20 view .LVU230
 669 01da C4F8C831 		str	r3, [r4, #456]	@ float
  12:Lib/compute/pid/pid.hpp ****           _error(0.0f), _prev_error(0.0f), P_OUT(0.0f), I_OUT(0.0f), D_OUT(0.0f),
 670              		.loc 6 12 29 view .LVU231
 671 01de C4F8CC31 		str	r3, [r4, #460]	@ float
  12:Lib/compute/pid/pid.hpp ****           _error(0.0f), _prev_error(0.0f), P_OUT(0.0f), I_OUT(0.0f), D_OUT(0.0f),
 672              		.loc 6 12 38 view .LVU232
 673 01e2 C4ED745A 		vstr.32	s11, [r4, #464]
  12:Lib/compute/pid/pid.hpp ****           _error(0.0f), _prev_error(0.0f), P_OUT(0.0f), I_OUT(0.0f), D_OUT(0.0f),
 674              		.loc 6 12 47 view .LVU233
 675 01e6 84ED756A 		vstr.32	s12, [r4, #468]
  12:Lib/compute/pid/pid.hpp ****           _error(0.0f), _prev_error(0.0f), P_OUT(0.0f), I_OUT(0.0f), D_OUT(0.0f),
 676              		.loc 6 12 61 view .LVU234
 677 01ea C4ED766A 		vstr.32	s13, [r4, #472]
  12:Lib/compute/pid/pid.hpp ****           _error(0.0f), _prev_error(0.0f), P_OUT(0.0f), I_OUT(0.0f), D_OUT(0.0f),
 678              		.loc 6 12 72 view .LVU235
 679 01ee 84ED777A 		vstr.32	s14, [r4, #476]
  13:Lib/compute/pid/pid.hpp ****           _output(0.0f), max_out_flag(false) {}
 680              		.loc 6 13 11 view .LVU236
 681 01f2 C4F8E031 		str	r3, [r4, #480]	@ float
  13:Lib/compute/pid/pid.hpp ****           _output(0.0f), max_out_flag(false) {}
 682              		.loc 6 13 25 view .LVU237
 683 01f6 C4F8E431 		str	r3, [r4, #484]	@ float
  13:Lib/compute/pid/pid.hpp ****           _output(0.0f), max_out_flag(false) {}
 684              		.loc 6 13 44 view .LVU238
 685 01fa C4F8E831 		str	r3, [r4, #488]	@ float
  13:Lib/compute/pid/pid.hpp ****           _output(0.0f), max_out_flag(false) {}
 686              		.loc 6 13 57 view .LVU239
 687 01fe C4F8EC31 		str	r3, [r4, #492]	@ float
  13:Lib/compute/pid/pid.hpp ****           _output(0.0f), max_out_flag(false) {}
 688              		.loc 6 13 70 view .LVU240
 689 0202 C4F8F031 		str	r3, [r4, #496]	@ float
 690              		.loc 6 14 11 view .LVU241
 691 0206 C4F8F431 		str	r3, [r4, #500]	@ float
 692              		.loc 6 14 26 view .LVU242
 693 020a 84F8F821 		strb	r2, [r4, #504]
 694              	.LVL29:
 695              		.loc 6 14 26 view .LVU243
 696              	.LBE115:
 697              	.LBE114:
 698              	.LBE113:
 699              	.LBB116:
 700              	.LBI116:
ARM GAS  /tmp/ccBC5zcM.s 			page 27


  12:Lib/compute/pid/LQR.hpp ****         : _k1(k1), _k2(k2), _max(max), _min(min), _output(0.0f) {}
 701              		.loc 7 12 5 is_stmt 1 view .LVU244
 702              	.LBB117:
 703              	.LBB118:
 704              		.loc 7 13 11 is_stmt 0 view .LVU245
 705 020e C4ED7F7A 		vstr.32	s15, [r4, #508]
 706              		.loc 7 13 20 view .LVU246
 707 0212 C4F800E2 		str	lr, [r4, #512]	@ float
 708              		.loc 7 13 29 view .LVU247
 709 0216 C4F804C2 		str	ip, [r4, #516]	@ float
 710              		.loc 7 13 40 view .LVU248
 711 021a C4F80802 		str	r0, [r4, #520]	@ float
 712              		.loc 7 13 51 view .LVU249
 713 021e C4F80C32 		str	r3, [r4, #524]	@ float
 714              	.LVL30:
 715              		.loc 7 13 51 view .LVU250
 716              	.LBE118:
 717              	.LBE117:
 718              	.LBE116:
 168:My_Top/Motor_Control/DcMotor_ClosedLoop.cpp **** DC_Motor M2(&M2_PWM, &kth7111_M2, &pid_spd_M2, &pid_loc_M2,&lqr_M2); //ńöĄµ£║2
 719              		.loc 1 168 67 view .LVU251
 720 0222 04F1AC03 		add	r3, r4, #172
 721 0226 0193     		str	r3, [sp, #4]
 722 0228 04F17403 		add	r3, r4, #116
 723 022c 0093     		str	r3, [sp]
 724 022e 04F15003 		add	r3, r4, #80
 725 0232 2246     		mov	r2, r4
 726 0234 04F50470 		add	r0, r4, #528
 727 0238 FFF7FEFF 		bl	_ZN8DC_MotorC1EPK15MotorPWM_ConfigP7KTH7111P13PID_IncrementP3PIDP3LQR
 728              	.LVL31:
 169:My_Top/Motor_Control/DcMotor_ClosedLoop.cpp **** DC_Motor M3(&M3_PWM, &kth7111_M3, &pid_spd_M3, &pid_loc_M3,&lqr_M3); //ńöĄµ£║3
 729              		.loc 1 169 67 view .LVU252
 730 023c 04F58E73 		add	r3, r4, #284
 731 0240 0193     		str	r3, [sp, #4]
 732 0242 04F1E403 		add	r3, r4, #228
 733 0246 0093     		str	r3, [sp]
 734 0248 04F1C003 		add	r3, r4, #192
 735 024c 04F11402 		add	r2, r4, #20
 736 0250 3946     		mov	r1, r7
 737 0252 04F53E70 		add	r0, r4, #760
 738 0256 FFF7FEFF 		bl	_ZN8DC_MotorC1EPK15MotorPWM_ConfigP7KTH7111P13PID_IncrementP3PIDP3LQR
 739              	.LVL32:
 170:My_Top/Motor_Control/DcMotor_ClosedLoop.cpp **** DC_Motor M4(&M4_PWM, &kth7111_M4, &pid_spd_M4, &pid_loc_M4,&lqr_M4); //ńöĄµ£║4
 740              		.loc 1 170 67 view .LVU253
 741 025a 04F5C673 		add	r3, r4, #396
 742 025e 0193     		str	r3, [sp, #4]
 743 0260 04F5AA73 		add	r3, r4, #340
 744 0264 0093     		str	r3, [sp]
 745 0266 04F59873 		add	r3, r4, #304
 746 026a 04F12802 		add	r2, r4, #40
 747 026e 3146     		mov	r1, r6
 748 0270 04F57870 		add	r0, r4, #992
 749 0274 FFF7FEFF 		bl	_ZN8DC_MotorC1EPK15MotorPWM_ConfigP7KTH7111P13PID_IncrementP3PIDP3LQR
 750              	.LVL33:
 171:My_Top/Motor_Control/DcMotor_ClosedLoop.cpp **** 
 751              		.loc 1 171 67 view .LVU254
 752 0278 04F5FE73 		add	r3, r4, #508
ARM GAS  /tmp/ccBC5zcM.s 			page 28


 753 027c 0193     		str	r3, [sp, #4]
 754 027e 04F5E273 		add	r3, r4, #452
 755 0282 0093     		str	r3, [sp]
 756 0284 04F5D073 		add	r3, r4, #416
 757 0288 04F13C02 		add	r2, r4, #60
 758 028c 2946     		mov	r1, r5
 759 028e 04F59960 		add	r0, r4, #1224
 760 0292 FFF7FEFF 		bl	_ZN8DC_MotorC1EPK15MotorPWM_ConfigP7KTH7111P13PID_IncrementP3PIDP3LQR
 761              	.LVL34:
 762              		.loc 1 458 1 view .LVU255
 763 0296 03B0     		add	sp, sp, #12
 764              		.cfi_def_cfa_offset 20
 765              		@ sp needed
 766 0298 F0BD     		pop	{r4, r5, r6, r7, pc}
 767              	.L16:
 768 029a 00BF     		.align	2
 769              	.L15:
 770 029c 00000000 		.word	.LANCHOR0
 771 02a0 00000000 		.word	M1_PWM
 772 02a4 00000000 		.word	M2_PWM
 773 02a8 00000000 		.word	M3_PWM
 774 02ac 00000000 		.word	M4_PWM
 775 02b0 52B81E3F 		.word	1058977874
 776 02b4 CDCCCC3D 		.word	1036831949
 777 02b8 6F128339 		.word	964891247
 778 02bc EC51783F 		.word	1064849900
 779 02c0 EC5178BF 		.word	-1082633748
 780 02c4 9A99193F 		.word	1058642330
 781 02c8 6F12833A 		.word	981668463
 782 02cc F4FD143F 		.word	1058340340
 783 02d0 6666E63F 		.word	1072064102
 784 02d4 6666E6BF 		.word	-1075419546
 785 02d8 3333B3BF 		.word	-1078774989
 786 02dc 6666663F 		.word	1063675494
 787 02e0 3333B33F 		.word	1068708659
 788              		.cfi_endproc
 789              	.LFE1512:
 791              		.align	1
 792              		.global	_ZN8DC_Motor9test_lajiEv
 793              		.syntax unified
 794              		.thumb
 795              		.thumb_func
 797              	_ZN8DC_Motor9test_lajiEv:
 798              	.LVL35:
 799              	.LFB1352:
 176:My_Top/Motor_Control/DcMotor_ClosedLoop.cpp ****    
 800              		.loc 1 176 1 is_stmt 1 view -0
 801              		.cfi_startproc
 802              		@ args = 0, pretend = 0, frame = 0
 803              		@ frame_needed = 0, uses_anonymous_args = 0
 176:My_Top/Motor_Control/DcMotor_ClosedLoop.cpp ****    
 804              		.loc 1 176 1 is_stmt 0 view .LVU257
 805 02e4 10B5     		push	{r4, lr}
 806              		.cfi_def_cfa_offset 8
 807              		.cfi_offset 4, -8
 808              		.cfi_offset 14, -4
 178:My_Top/Motor_Control/DcMotor_ClosedLoop.cpp ****     __HAL_TIM_SET_COMPARE(&htim1, TIM_CHANNEL_1, 100);//Ķ«ŠńĮ«õĖŖµĪźĶćéÕŹĀń®║µ»ö 
ARM GAS  /tmp/ccBC5zcM.s 			page 29


 809              		.loc 1 178 5 is_stmt 1 view .LVU258
 178:My_Top/Motor_Control/DcMotor_ClosedLoop.cpp ****     __HAL_TIM_SET_COMPARE(&htim1, TIM_CHANNEL_1, 100);//Ķ«ŠńĮ«õĖŖµĪźĶćéÕŹĀń®║µ»ö 
 810              		.loc 1 178 5 view .LVU259
 811 02e6 0C4C     		ldr	r4, .L19
 812 02e8 2268     		ldr	r2, [r4]
 813 02ea 6423     		movs	r3, #100
 814 02ec D362     		str	r3, [r2, #44]
 178:My_Top/Motor_Control/DcMotor_ClosedLoop.cpp ****     __HAL_TIM_SET_COMPARE(&htim1, TIM_CHANNEL_1, 100);//Ķ«ŠńĮ«õĖŖµĪźĶćéÕŹĀń®║µ»ö 
 815              		.loc 1 178 5 view .LVU260
 816 02ee E360     		str	r3, [r4, #12]
 178:My_Top/Motor_Control/DcMotor_ClosedLoop.cpp ****     __HAL_TIM_SET_COMPARE(&htim1, TIM_CHANNEL_1, 100);//Ķ«ŠńĮ«õĖŖµĪźĶćéÕŹĀń®║µ»ö 
 817              		.loc 1 178 5 view .LVU261
 179:My_Top/Motor_Control/DcMotor_ClosedLoop.cpp ****     __HAL_TIM_SET_COMPARE(&htim1, TIM_CHANNEL_2, 100);//Ķ«ŠńĮ«õĖŗµĪźĶćéÕŹĀń®║µ»ö
 818              		.loc 1 179 5 view .LVU262
 819 02f0 5363     		str	r3, [r2, #52]
 180:My_Top/Motor_Control/DcMotor_ClosedLoop.cpp ****     HAL_TIM_PWM_Start(&htim1, TIM_CHANNEL_1);
 820              		.loc 1 180 5 view .LVU263
 821 02f2 9363     		str	r3, [r2, #56]
 181:My_Top/Motor_Control/DcMotor_ClosedLoop.cpp ****     HAL_TIMEx_PWMN_Start(&htim1, TIM_CHANNEL_1);
 822              		.loc 1 181 5 view .LVU264
 181:My_Top/Motor_Control/DcMotor_ClosedLoop.cpp ****     HAL_TIMEx_PWMN_Start(&htim1, TIM_CHANNEL_1);
 823              		.loc 1 181 22 is_stmt 0 view .LVU265
 824 02f4 0021     		movs	r1, #0
 825 02f6 2046     		mov	r0, r4
 826              	.LVL36:
 181:My_Top/Motor_Control/DcMotor_ClosedLoop.cpp ****     HAL_TIMEx_PWMN_Start(&htim1, TIM_CHANNEL_1);
 827              		.loc 1 181 22 view .LVU266
 828 02f8 FFF7FEFF 		bl	HAL_TIM_PWM_Start
 829              	.LVL37:
 182:My_Top/Motor_Control/DcMotor_ClosedLoop.cpp ****     HAL_TIM_PWM_Start(&htim1, TIM_CHANNEL_2);
 830              		.loc 1 182 5 is_stmt 1 view .LVU267
 182:My_Top/Motor_Control/DcMotor_ClosedLoop.cpp ****     HAL_TIM_PWM_Start(&htim1, TIM_CHANNEL_2);
 831              		.loc 1 182 25 is_stmt 0 view .LVU268
 832 02fc 0021     		movs	r1, #0
 833 02fe 2046     		mov	r0, r4
 834 0300 FFF7FEFF 		bl	HAL_TIMEx_PWMN_Start
 835              	.LVL38:
 183:My_Top/Motor_Control/DcMotor_ClosedLoop.cpp ****     HAL_TIMEx_PWMN_Start(&htim1, TIM_CHANNEL_2);
 836              		.loc 1 183 5 is_stmt 1 view .LVU269
 183:My_Top/Motor_Control/DcMotor_ClosedLoop.cpp ****     HAL_TIMEx_PWMN_Start(&htim1, TIM_CHANNEL_2);
 837              		.loc 1 183 22 is_stmt 0 view .LVU270
 838 0304 0421     		movs	r1, #4
 839 0306 2046     		mov	r0, r4
 840 0308 FFF7FEFF 		bl	HAL_TIM_PWM_Start
 841              	.LVL39:
 184:My_Top/Motor_Control/DcMotor_ClosedLoop.cpp **** }
 842              		.loc 1 184 5 is_stmt 1 view .LVU271
 184:My_Top/Motor_Control/DcMotor_ClosedLoop.cpp **** }
 843              		.loc 1 184 25 is_stmt 0 view .LVU272
 844 030c 0421     		movs	r1, #4
 845 030e 2046     		mov	r0, r4
 846 0310 FFF7FEFF 		bl	HAL_TIMEx_PWMN_Start
 847              	.LVL40:
 185:My_Top/Motor_Control/DcMotor_ClosedLoop.cpp **** 
 848              		.loc 1 185 1 view .LVU273
 849 0314 10BD     		pop	{r4, pc}
 850              	.L20:
ARM GAS  /tmp/ccBC5zcM.s 			page 30


 851 0316 00BF     		.align	2
 852              	.L19:
 853 0318 00000000 		.word	htim1
 854              		.cfi_endproc
 855              	.LFE1352:
 857              		.align	1
 858              		.global	_ZN8DC_Motor8Motor_ENEb
 859              		.syntax unified
 860              		.thumb
 861              		.thumb_func
 863              	_ZN8DC_Motor8Motor_ENEb:
 864              	.LVL41:
 865              	.LFB1357:
 280:My_Top/Motor_Control/DcMotor_ClosedLoop.cpp ****     if (en == _motor_is_on_last) return;  // ńŖČµĆüµ▓ĪÕÅś’╝īĶĘ│Ķ┐ć
 866              		.loc 1 280 1 is_stmt 1 view -0
 867              		.cfi_startproc
 868              		@ args = 0, pretend = 0, frame = 0
 869              		@ frame_needed = 0, uses_anonymous_args = 0
 281:My_Top/Motor_Control/DcMotor_ClosedLoop.cpp ****     _motor_is_on_last = en;
 870              		.loc 1 281 5 view .LVU275
 281:My_Top/Motor_Control/DcMotor_ClosedLoop.cpp ****     _motor_is_on_last = en;
 871              		.loc 1 281 15 is_stmt 0 view .LVU276
 872 031c 90F85C30 		ldrb	r3, [r0, #92]	@ zero_extendqisi2
 281:My_Top/Motor_Control/DcMotor_ClosedLoop.cpp ****     _motor_is_on_last = en;
 873              		.loc 1 281 5 view .LVU277
 874 0320 8B42     		cmp	r3, r1
 875 0322 36D0     		beq	.L25
 280:My_Top/Motor_Control/DcMotor_ClosedLoop.cpp ****     if (en == _motor_is_on_last) return;  // ńŖČµĆüµ▓ĪÕÅś’╝īĶĘ│Ķ┐ć
 876              		.loc 1 280 1 view .LVU278
 877 0324 10B5     		push	{r4, lr}
 878              		.cfi_def_cfa_offset 8
 879              		.cfi_offset 4, -8
 880              		.cfi_offset 14, -4
 881 0326 0446     		mov	r4, r0
 282:My_Top/Motor_Control/DcMotor_ClosedLoop.cpp **** 
 882              		.loc 1 282 5 is_stmt 1 view .LVU279
 282:My_Top/Motor_Control/DcMotor_ClosedLoop.cpp **** 
 883              		.loc 1 282 23 is_stmt 0 view .LVU280
 884 0328 80F85C10 		strb	r1, [r0, #92]
 284:My_Top/Motor_Control/DcMotor_ClosedLoop.cpp ****     {
 885              		.loc 1 284 5 is_stmt 1 view .LVU281
 886 032c C1B1     		cbz	r1, .L23
 286:My_Top/Motor_Control/DcMotor_ClosedLoop.cpp ****         HAL_TIMEx_PWMN_Start(_motor_config->htim, _motor_config->ch_hin1);
 887              		.loc 1 286 9 view .LVU282
 286:My_Top/Motor_Control/DcMotor_ClosedLoop.cpp ****         HAL_TIMEx_PWMN_Start(_motor_config->htim, _motor_config->ch_hin1);
 888              		.loc 1 286 27 is_stmt 0 view .LVU283
 889 032e D0F8B030 		ldr	r3, [r0, #176]
 286:My_Top/Motor_Control/DcMotor_ClosedLoop.cpp ****         HAL_TIMEx_PWMN_Start(_motor_config->htim, _motor_config->ch_hin1);
 890              		.loc 1 286 26 view .LVU284
 891 0332 9968     		ldr	r1, [r3, #8]
 892              	.LVL42:
 286:My_Top/Motor_Control/DcMotor_ClosedLoop.cpp ****         HAL_TIMEx_PWMN_Start(_motor_config->htim, _motor_config->ch_hin1);
 893              		.loc 1 286 26 view .LVU285
 894 0334 1868     		ldr	r0, [r3]
 895              	.LVL43:
 286:My_Top/Motor_Control/DcMotor_ClosedLoop.cpp ****         HAL_TIMEx_PWMN_Start(_motor_config->htim, _motor_config->ch_hin1);
 896              		.loc 1 286 26 view .LVU286
ARM GAS  /tmp/ccBC5zcM.s 			page 31


 897 0336 FFF7FEFF 		bl	HAL_TIM_PWM_Start
 898              	.LVL44:
 287:My_Top/Motor_Control/DcMotor_ClosedLoop.cpp ****         HAL_TIM_PWM_Start(_motor_config->htim, _motor_config->ch_hin2);
 899              		.loc 1 287 9 is_stmt 1 view .LVU287
 287:My_Top/Motor_Control/DcMotor_ClosedLoop.cpp ****         HAL_TIM_PWM_Start(_motor_config->htim, _motor_config->ch_hin2);
 900              		.loc 1 287 30 is_stmt 0 view .LVU288
 901 033a D4F8B030 		ldr	r3, [r4, #176]
 287:My_Top/Motor_Control/DcMotor_ClosedLoop.cpp ****         HAL_TIM_PWM_Start(_motor_config->htim, _motor_config->ch_hin2);
 902              		.loc 1 287 29 view .LVU289
 903 033e 9968     		ldr	r1, [r3, #8]
 904 0340 1868     		ldr	r0, [r3]
 905 0342 FFF7FEFF 		bl	HAL_TIMEx_PWMN_Start
 906              	.LVL45:
 288:My_Top/Motor_Control/DcMotor_ClosedLoop.cpp ****         HAL_TIMEx_PWMN_Start(_motor_config->htim, _motor_config->ch_hin2);
 907              		.loc 1 288 9 is_stmt 1 view .LVU290
 288:My_Top/Motor_Control/DcMotor_ClosedLoop.cpp ****         HAL_TIMEx_PWMN_Start(_motor_config->htim, _motor_config->ch_hin2);
 908              		.loc 1 288 27 is_stmt 0 view .LVU291
 909 0346 D4F8B030 		ldr	r3, [r4, #176]
 288:My_Top/Motor_Control/DcMotor_ClosedLoop.cpp ****         HAL_TIMEx_PWMN_Start(_motor_config->htim, _motor_config->ch_hin2);
 910              		.loc 1 288 26 view .LVU292
 911 034a D968     		ldr	r1, [r3, #12]
 912 034c 1868     		ldr	r0, [r3]
 913 034e FFF7FEFF 		bl	HAL_TIM_PWM_Start
 914              	.LVL46:
 289:My_Top/Motor_Control/DcMotor_ClosedLoop.cpp ****     }else
 915              		.loc 1 289 9 is_stmt 1 view .LVU293
 289:My_Top/Motor_Control/DcMotor_ClosedLoop.cpp ****     }else
 916              		.loc 1 289 30 is_stmt 0 view .LVU294
 917 0352 D4F8B030 		ldr	r3, [r4, #176]
 289:My_Top/Motor_Control/DcMotor_ClosedLoop.cpp ****     }else
 918              		.loc 1 289 29 view .LVU295
 919 0356 D968     		ldr	r1, [r3, #12]
 920 0358 1868     		ldr	r0, [r3]
 921 035a FFF7FEFF 		bl	HAL_TIMEx_PWMN_Start
 922              	.LVL47:
 923              	.L21:
 297:My_Top/Motor_Control/DcMotor_ClosedLoop.cpp **** 
 924              		.loc 1 297 1 view .LVU296
 925 035e 10BD     		pop	{r4, pc}
 926              	.LVL48:
 927              	.L23:
 292:My_Top/Motor_Control/DcMotor_ClosedLoop.cpp ****         HAL_TIMEx_PWMN_Stop(_motor_config->htim, _motor_config->ch_hin1);
 928              		.loc 1 292 9 is_stmt 1 view .LVU297
 292:My_Top/Motor_Control/DcMotor_ClosedLoop.cpp ****         HAL_TIMEx_PWMN_Stop(_motor_config->htim, _motor_config->ch_hin1);
 929              		.loc 1 292 26 is_stmt 0 view .LVU298
 930 0360 D0F8B030 		ldr	r3, [r0, #176]
 292:My_Top/Motor_Control/DcMotor_ClosedLoop.cpp ****         HAL_TIMEx_PWMN_Stop(_motor_config->htim, _motor_config->ch_hin1);
 931              		.loc 1 292 25 view .LVU299
 932 0364 9968     		ldr	r1, [r3, #8]
 933              	.LVL49:
 292:My_Top/Motor_Control/DcMotor_ClosedLoop.cpp ****         HAL_TIMEx_PWMN_Stop(_motor_config->htim, _motor_config->ch_hin1);
 934              		.loc 1 292 25 view .LVU300
 935 0366 1868     		ldr	r0, [r3]
 936              	.LVL50:
 292:My_Top/Motor_Control/DcMotor_ClosedLoop.cpp ****         HAL_TIMEx_PWMN_Stop(_motor_config->htim, _motor_config->ch_hin1);
 937              		.loc 1 292 25 view .LVU301
 938 0368 FFF7FEFF 		bl	HAL_TIM_PWM_Stop
ARM GAS  /tmp/ccBC5zcM.s 			page 32


 939              	.LVL51:
 293:My_Top/Motor_Control/DcMotor_ClosedLoop.cpp ****         HAL_TIM_PWM_Stop(_motor_config->htim, _motor_config->ch_hin2);
 940              		.loc 1 293 9 is_stmt 1 view .LVU302
 293:My_Top/Motor_Control/DcMotor_ClosedLoop.cpp ****         HAL_TIM_PWM_Stop(_motor_config->htim, _motor_config->ch_hin2);
 941              		.loc 1 293 29 is_stmt 0 view .LVU303
 942 036c D4F8B030 		ldr	r3, [r4, #176]
 293:My_Top/Motor_Control/DcMotor_ClosedLoop.cpp ****         HAL_TIM_PWM_Stop(_motor_config->htim, _motor_config->ch_hin2);
 943              		.loc 1 293 28 view .LVU304
 944 0370 9968     		ldr	r1, [r3, #8]
 945 0372 1868     		ldr	r0, [r3]
 946 0374 FFF7FEFF 		bl	HAL_TIMEx_PWMN_Stop
 947              	.LVL52:
 294:My_Top/Motor_Control/DcMotor_ClosedLoop.cpp ****         HAL_TIMEx_PWMN_Stop(_motor_config->htim, _motor_config->ch_hin2);
 948              		.loc 1 294 9 is_stmt 1 view .LVU305
 294:My_Top/Motor_Control/DcMotor_ClosedLoop.cpp ****         HAL_TIMEx_PWMN_Stop(_motor_config->htim, _motor_config->ch_hin2);
 949              		.loc 1 294 26 is_stmt 0 view .LVU306
 950 0378 D4F8B030 		ldr	r3, [r4, #176]
 294:My_Top/Motor_Control/DcMotor_ClosedLoop.cpp ****         HAL_TIMEx_PWMN_Stop(_motor_config->htim, _motor_config->ch_hin2);
 951              		.loc 1 294 25 view .LVU307
 952 037c D968     		ldr	r1, [r3, #12]
 953 037e 1868     		ldr	r0, [r3]
 954 0380 FFF7FEFF 		bl	HAL_TIM_PWM_Stop
 955              	.LVL53:
 295:My_Top/Motor_Control/DcMotor_ClosedLoop.cpp ****     }
 956              		.loc 1 295 9 is_stmt 1 view .LVU308
 295:My_Top/Motor_Control/DcMotor_ClosedLoop.cpp ****     }
 957              		.loc 1 295 29 is_stmt 0 view .LVU309
 958 0384 D4F8B030 		ldr	r3, [r4, #176]
 295:My_Top/Motor_Control/DcMotor_ClosedLoop.cpp ****     }
 959              		.loc 1 295 28 view .LVU310
 960 0388 D968     		ldr	r1, [r3, #12]
 961 038a 1868     		ldr	r0, [r3]
 962 038c FFF7FEFF 		bl	HAL_TIMEx_PWMN_Stop
 963              	.LVL54:
 964 0390 E5E7     		b	.L21
 965              	.LVL55:
 966              	.L25:
 967              		.cfi_def_cfa_offset 0
 968              		.cfi_restore 4
 969              		.cfi_restore 14
 295:My_Top/Motor_Control/DcMotor_ClosedLoop.cpp ****     }
 970              		.loc 1 295 28 view .LVU311
 971 0392 7047     		bx	lr
 972              		.cfi_endproc
 973              	.LFE1357:
 975              		.align	1
 976              		.global	_ZN8DC_Motor17My_DC_Motor_ResetEv
 977              		.syntax unified
 978              		.thumb
 979              		.thumb_func
 981              	_ZN8DC_Motor17My_DC_Motor_ResetEv:
 982              	.LVL56:
 983              	.LFB1353:
 188:My_Top/Motor_Control/DcMotor_ClosedLoop.cpp ****     _target_location2 = rad2deg(reg_final); //ÕżŹõĮŹõĮŹńĮ«õĖ║ÕĮōÕēŹõĮŹńĮ«
 984              		.loc 1 188 1 is_stmt 1 view -0
 985              		.cfi_startproc
 986              		@ args = 0, pretend = 0, frame = 0
ARM GAS  /tmp/ccBC5zcM.s 			page 33


 987              		@ frame_needed = 0, uses_anonymous_args = 0
 188:My_Top/Motor_Control/DcMotor_ClosedLoop.cpp ****     _target_location2 = rad2deg(reg_final); //ÕżŹõĮŹõĮŹńĮ«õĖ║ÕĮōÕēŹõĮŹńĮ«
 988              		.loc 1 188 1 is_stmt 0 view .LVU313
 989 0394 38B5     		push	{r3, r4, r5, lr}
 990              		.cfi_def_cfa_offset 16
 991              		.cfi_offset 3, -16
 992              		.cfi_offset 4, -12
 993              		.cfi_offset 5, -8
 994              		.cfi_offset 14, -4
 995 0396 0546     		mov	r5, r0
 189:My_Top/Motor_Control/DcMotor_ClosedLoop.cpp ****     _target_speed = 0.0;
 996              		.loc 1 189 5 is_stmt 1 view .LVU314
 189:My_Top/Motor_Control/DcMotor_ClosedLoop.cpp ****     _target_speed = 0.0;
 997              		.loc 1 189 25 is_stmt 0 view .LVU315
 998 0398 C069     		ldr	r0, [r0, #28]	@ float
 999              	.LVL57:
 189:My_Top/Motor_Control/DcMotor_ClosedLoop.cpp ****     _target_speed = 0.0;
 1000              		.loc 1 189 25 view .LVU316
 1001 039a FFF7FEFF 		bl	__aeabi_f2d
 1002              	.LVL58:
 1003 039e 0EA3     		adr	r3, .L30
 1004 03a0 D3E90023 		ldrd	r2, [r3]
 1005 03a4 FFF7FEFF 		bl	__aeabi_dmul
 1006              	.LVL59:
 1007 03a8 FFF7FEFF 		bl	__aeabi_d2f
 1008              	.LVL60:
 189:My_Top/Motor_Control/DcMotor_ClosedLoop.cpp ****     _target_speed = 0.0;
 1009              		.loc 1 189 23 view .LVU317
 1010 03ac 2863     		str	r0, [r5, #48]	@ float
 190:My_Top/Motor_Control/DcMotor_ClosedLoop.cpp ****     updown_duty = 0.0;
 1011              		.loc 1 190 5 is_stmt 1 view .LVU318
 190:My_Top/Motor_Control/DcMotor_ClosedLoop.cpp ****     updown_duty = 0.0;
 1012              		.loc 1 190 19 is_stmt 0 view .LVU319
 1013 03ae 0024     		movs	r4, #0
 1014 03b0 EC62     		str	r4, [r5, #44]	@ float
 191:My_Top/Motor_Control/DcMotor_ClosedLoop.cpp ****     Motor_EN(false);
 1015              		.loc 1 191 5 is_stmt 1 view .LVU320
 191:My_Top/Motor_Control/DcMotor_ClosedLoop.cpp ****     Motor_EN(false);
 1016              		.loc 1 191 17 is_stmt 0 view .LVU321
 1017 03b2 2C61     		str	r4, [r5, #16]	@ float
 192:My_Top/Motor_Control/DcMotor_ClosedLoop.cpp ****     pid_speed_incparam->reset(); //ÕżŹõĮŹpid
 1018              		.loc 1 192 5 is_stmt 1 view .LVU322
 192:My_Top/Motor_Control/DcMotor_ClosedLoop.cpp ****     pid_speed_incparam->reset(); //ÕżŹõĮŹpid
 1019              		.loc 1 192 13 is_stmt 0 view .LVU323
 1020 03b4 0021     		movs	r1, #0
 1021 03b6 2846     		mov	r0, r5
 1022 03b8 FFF7FEFF 		bl	_ZN8DC_Motor8Motor_ENEb
 1023              	.LVL61:
 193:My_Top/Motor_Control/DcMotor_ClosedLoop.cpp ****     pid_location->reset(); //ÕżŹõĮŹpid
 1024              		.loc 1 193 5 is_stmt 1 view .LVU324
 1025 03bc 2B6C     		ldr	r3, [r5, #64]
 1026              	.LVL62:
 1027              	.LBB119:
 1028              	.LBI119:
  68:Lib/compute/pid/pid_Increment.hpp **** 
  69:Lib/compute/pid/pid_Increment.hpp ****     // ============================================================
  70:Lib/compute/pid/pid_Increment.hpp ****     // ķćŹńĮ«Õåģķā©ńŖČµĆü’╝łµĖģķøČÕÄåÕÅ▓Ķ»»ÕĘ«ÕÆīń┤»Ķ«ĪĶŠōÕć║’╝ē
ARM GAS  /tmp/ccBC5zcM.s 			page 34


  71:Lib/compute/pid/pid_Increment.hpp ****     // ============================================================
  72:Lib/compute/pid/pid_Increment.hpp ****     void reset(void)
 1029              		.loc 2 72 10 view .LVU325
 1030              	.LBB120:
  73:Lib/compute/pid/pid_Increment.hpp ****     {
  74:Lib/compute/pid/pid_Increment.hpp ****         
  75:Lib/compute/pid/pid_Increment.hpp ****         _e_prev  = 0.0f;
 1031              		.loc 2 75 9 view .LVU326
 1032              		.loc 2 75 18 is_stmt 0 view .LVU327
 1033 03be 9C61     		str	r4, [r3, #24]	@ float
  76:Lib/compute/pid/pid_Increment.hpp ****         _e_prev2 = 0.0f;
 1034              		.loc 2 76 9 is_stmt 1 view .LVU328
 1035              		.loc 2 76 18 is_stmt 0 view .LVU329
 1036 03c0 DC61     		str	r4, [r3, #28]	@ float
  77:Lib/compute/pid/pid_Increment.hpp ****         _delta_u = 0.0f;
 1037              		.loc 2 77 9 is_stmt 1 view .LVU330
 1038              		.loc 2 77 18 is_stmt 0 view .LVU331
 1039 03c2 1C62     		str	r4, [r3, #32]	@ float
 1040              	.LVL63:
 1041              		.loc 2 77 18 view .LVU332
 1042              	.LBE120:
 1043              	.LBE119:
 194:My_Top/Motor_Control/DcMotor_ClosedLoop.cpp **** }
 1044              		.loc 1 194 5 is_stmt 1 view .LVU333
 1045 03c4 6B6C     		ldr	r3, [r5, #68]
 1046              	.LVL64:
 1047              	.LBB121:
 1048              	.LBI121:
  15:Lib/compute/pid/pid.hpp **** 
  16:Lib/compute/pid/pid.hpp ****     float _kp; // µ»öõŠŗÕó×ńøŖ
  17:Lib/compute/pid/pid.hpp ****     float _ki; // ń¦»ÕłåÕó×ńøŖ
  18:Lib/compute/pid/pid.hpp ****     float _kd; // ÕŠ«ÕłåÕó×ńøŖ
  19:Lib/compute/pid/pid.hpp ****     float _dt; // ķććµĀĘµŚČķŚ┤
  20:Lib/compute/pid/pid.hpp ****     float _i_max; //
  21:Lib/compute/pid/pid.hpp **** 
  22:Lib/compute/pid/pid.hpp ****     float _max; // ĶŠōÕć║õĖŖķÖÉ
  23:Lib/compute/pid/pid.hpp ****     float _min; // ĶŠōÕć║õĖŗķÖÉ
  24:Lib/compute/pid/pid.hpp ****     float _error; // ÕĮōÕēŹĶ»»ÕĘ«
  25:Lib/compute/pid/pid.hpp ****     float _prev_error; // õĖŖõĖĆµ¼ĪĶ»»ÕĘ«
  26:Lib/compute/pid/pid.hpp **** 
  27:Lib/compute/pid/pid.hpp **** 
  28:Lib/compute/pid/pid.hpp ****     float update(float error)
  29:Lib/compute/pid/pid.hpp ****     {
  30:Lib/compute/pid/pid.hpp ****         _error = error;
  31:Lib/compute/pid/pid.hpp **** 
  32:Lib/compute/pid/pid.hpp ****         P_OUT = _kp * _error; 
  33:Lib/compute/pid/pid.hpp **** 
  34:Lib/compute/pid/pid.hpp ****         I_OUT += _ki * _error*_dt;
  35:Lib/compute/pid/pid.hpp ****         if (I_OUT>=_i_max) I_OUT = _i_max;
  36:Lib/compute/pid/pid.hpp ****         if (I_OUT<=-_i_max) I_OUT = -_i_max;
  37:Lib/compute/pid/pid.hpp **** 
  38:Lib/compute/pid/pid.hpp ****         D_OUT = _kd * (_error - _prev_error)/_dt;
  39:Lib/compute/pid/pid.hpp ****         // Calculate output
  40:Lib/compute/pid/pid.hpp ****         _output = P_OUT + I_OUT + D_OUT; //???
  41:Lib/compute/pid/pid.hpp **** 
  42:Lib/compute/pid/pid.hpp ****         // Clamp output
  43:Lib/compute/pid/pid.hpp ****         if (_output > _max)
ARM GAS  /tmp/ccBC5zcM.s 			page 35


  44:Lib/compute/pid/pid.hpp ****         {
  45:Lib/compute/pid/pid.hpp ****             _output = _max;
  46:Lib/compute/pid/pid.hpp ****             // max_out_flag = true; // Ķ«ŠńĮ«ĶŠōÕć║õĖŖķÖÉµĀćÕ┐ŚõĮŹ 
  47:Lib/compute/pid/pid.hpp ****         }else if (_output < _min)
  48:Lib/compute/pid/pid.hpp ****         {
  49:Lib/compute/pid/pid.hpp ****             _output = _min;
  50:Lib/compute/pid/pid.hpp ****             // max_out_flag = true; // Ķ«ŠńĮ«ĶŠōÕć║õĖŖķÖÉµĀćÕ┐ŚõĮŹ
  51:Lib/compute/pid/pid.hpp ****         }
  52:Lib/compute/pid/pid.hpp ****         _prev_error = _error;
  53:Lib/compute/pid/pid.hpp **** 
  54:Lib/compute/pid/pid.hpp ****         return _output;
  55:Lib/compute/pid/pid.hpp ****     }
  56:Lib/compute/pid/pid.hpp **** 
  57:Lib/compute/pid/pid.hpp ****     void reset()
 1049              		.loc 6 57 10 view .LVU334
 1050              	.LBB122:
  58:Lib/compute/pid/pid.hpp ****     {
  59:Lib/compute/pid/pid.hpp ****         P_OUT = I_OUT = D_OUT = _output = _error =_prev_error = 0;
 1051              		.loc 6 59 9 view .LVU335
 1052              		.loc 6 59 63 is_stmt 0 view .LVU336
 1053 03c6 1C62     		str	r4, [r3, #32]	@ float
 1054              		.loc 6 59 50 view .LVU337
 1055 03c8 DC61     		str	r4, [r3, #28]	@ float
 1056              		.loc 6 59 41 view .LVU338
 1057 03ca 1C63     		str	r4, [r3, #48]	@ float
 1058              		.loc 6 59 31 view .LVU339
 1059 03cc DC62     		str	r4, [r3, #44]	@ float
 1060              		.loc 6 59 23 view .LVU340
 1061 03ce 9C62     		str	r4, [r3, #40]	@ float
 1062              		.loc 6 59 15 view .LVU341
 1063 03d0 5C62     		str	r4, [r3, #36]	@ float
 1064              	.LVL65:
 1065              		.loc 6 59 15 view .LVU342
 1066              	.LBE122:
 1067              	.LBE121:
 195:My_Top/Motor_Control/DcMotor_ClosedLoop.cpp **** 
 1068              		.loc 1 195 1 view .LVU343
 1069 03d2 38BD     		pop	{r3, r4, r5, pc}
 1070              	.LVL66:
 1071              	.L31:
 195:My_Top/Motor_Control/DcMotor_ClosedLoop.cpp **** 
 1072              		.loc 1 195 1 view .LVU344
 1073 03d4 AFF30080 		.align	3
 1074              	.L30:
 1075 03d8 F8C1631A 		.word	442745336
 1076 03dc DCA54C40 		.word	1078765020
 1077              		.cfi_endproc
 1078              	.LFE1353:
 1080              		.align	1
 1081              		.global	_ZN8DC_Motor19Set_Motor_FrequencyEv
 1082              		.syntax unified
 1083              		.thumb
 1084              		.thumb_func
 1086              	_ZN8DC_Motor19Set_Motor_FrequencyEv:
 1087              	.LVL67:
 1088              	.LFB1355:
 224:My_Top/Motor_Control/DcMotor_ClosedLoop.cpp ****     bool new_dir = false;
ARM GAS  /tmp/ccBC5zcM.s 			page 36


 1089              		.loc 1 224 1 is_stmt 1 view -0
 1090              		.cfi_startproc
 1091              		@ args = 0, pretend = 0, frame = 0
 1092              		@ frame_needed = 0, uses_anonymous_args = 0
 224:My_Top/Motor_Control/DcMotor_ClosedLoop.cpp ****     bool new_dir = false;
 1093              		.loc 1 224 1 is_stmt 0 view .LVU346
 1094 03e0 38B5     		push	{r3, r4, r5, lr}
 1095              		.cfi_def_cfa_offset 16
 1096              		.cfi_offset 3, -16
 1097              		.cfi_offset 4, -12
 1098              		.cfi_offset 5, -8
 1099              		.cfi_offset 14, -4
 1100 03e2 2DED028B 		vpush.64	{d8}
 1101              		.cfi_def_cfa_offset 24
 1102              		.cfi_offset 80, -24
 1103              		.cfi_offset 81, -20
 1104 03e6 0446     		mov	r4, r0
 225:My_Top/Motor_Control/DcMotor_ClosedLoop.cpp ****     uint32_t arr = 0;
 1105              		.loc 1 225 5 is_stmt 1 view .LVU347
 1106              	.LVL68:
 226:My_Top/Motor_Control/DcMotor_ClosedLoop.cpp ****     uint16_t Fre = (uint16_t)motor_freq;//ĶĮ¼µĢ┤µĢ░Ķ«Īń«Ś
 1107              		.loc 1 226 5 view .LVU348
 227:My_Top/Motor_Control/DcMotor_ClosedLoop.cpp ****     float up_duty = constraint_value(motor_up_duty, 0.0f, MOTOR_DEFAULT_PARAM.limit.max_duty); //ķÖ
 1108              		.loc 1 227 5 view .LVU349
 227:My_Top/Motor_Control/DcMotor_ClosedLoop.cpp ****     float up_duty = constraint_value(motor_up_duty, 0.0f, MOTOR_DEFAULT_PARAM.limit.max_duty); //ķÖ
 1109              		.loc 1 227 30 is_stmt 0 view .LVU350
 1110 03e8 D0ED017A 		vldr.32	s15, [r0, #4]
 227:My_Top/Motor_Control/DcMotor_ClosedLoop.cpp ****     float up_duty = constraint_value(motor_up_duty, 0.0f, MOTOR_DEFAULT_PARAM.limit.max_duty); //ķÖ
 1111              		.loc 1 227 14 view .LVU351
 1112 03ec FCEEE77A 		vcvt.u32.f32	s15, s15
 1113 03f0 17EE903A 		vmov	r3, s15	@ int
 1114 03f4 9DB2     		uxth	r5, r3
 1115              	.LVL69:
 228:My_Top/Motor_Control/DcMotor_ClosedLoop.cpp ****     float down_duty = constraint_value(motor_down_duty, 0.0f, MOTOR_DEFAULT_PARAM.limit.max_duty); 
 1116              		.loc 1 228 5 is_stmt 1 view .LVU352
 228:My_Top/Motor_Control/DcMotor_ClosedLoop.cpp ****     float down_duty = constraint_value(motor_down_duty, 0.0f, MOTOR_DEFAULT_PARAM.limit.max_duty); 
 1117              		.loc 1 228 21 is_stmt 0 view .LVU353
 1118 03f6 90ED028A 		vldr.32	s16, [r0, #8]
 1119 03fa B5EEC08A 		vcmpe.f32	s16, #0
 1120 03fe F1EE10FA 		vmrs	APSR_nzcv, FPSCR
 1121 0402 09D4     		bmi	.L56
 228:My_Top/Motor_Control/DcMotor_ClosedLoop.cpp ****     float down_duty = constraint_value(motor_down_duty, 0.0f, MOTOR_DEFAULT_PARAM.limit.max_duty); 
 1122              		.loc 1 228 21 discriminator 2 view .LVU354
 1123 0404 DFED8E7A 		vldr.32	s15, .L65
 1124 0408 B4EEE78A 		vcmpe.f32	s16, s15
 1125 040c F1EE10FA 		vmrs	APSR_nzcv, FPSCR
 1126 0410 04DD     		ble	.L33
 228:My_Top/Motor_Control/DcMotor_ClosedLoop.cpp ****     float down_duty = constraint_value(motor_down_duty, 0.0f, MOTOR_DEFAULT_PARAM.limit.max_duty); 
 1127              		.loc 1 228 21 discriminator 4 view .LVU355
 1128 0412 B0EE678A 		vmov.f32	s16, s15
 1129 0416 01E0     		b	.L33
 1130              	.L56:
 228:My_Top/Motor_Control/DcMotor_ClosedLoop.cpp ****     float down_duty = constraint_value(motor_down_duty, 0.0f, MOTOR_DEFAULT_PARAM.limit.max_duty); 
 1131              		.loc 1 228 21 discriminator 1 view .LVU356
 1132 0418 9FED8A8A 		vldr.32	s16, .L65+4
 1133              	.L33:
 1134              	.LVL70:
ARM GAS  /tmp/ccBC5zcM.s 			page 37


 229:My_Top/Motor_Control/DcMotor_ClosedLoop.cpp **** 
 1135              		.loc 1 229 5 is_stmt 1 view .LVU357
 229:My_Top/Motor_Control/DcMotor_ClosedLoop.cpp **** 
 1136              		.loc 1 229 23 is_stmt 0 view .LVU358
 1137 041c D4ED038A 		vldr.32	s17, [r4, #12]
 1138 0420 F5EEC08A 		vcmpe.f32	s17, #0
 1139 0424 F1EE10FA 		vmrs	APSR_nzcv, FPSCR
 1140 0428 09D4     		bmi	.L57
 229:My_Top/Motor_Control/DcMotor_ClosedLoop.cpp **** 
 1141              		.loc 1 229 23 discriminator 2 view .LVU359
 1142 042a DFED857A 		vldr.32	s15, .L65
 1143 042e F4EEE78A 		vcmpe.f32	s17, s15
 1144 0432 F1EE10FA 		vmrs	APSR_nzcv, FPSCR
 1145 0436 04DD     		ble	.L35
 229:My_Top/Motor_Control/DcMotor_ClosedLoop.cpp **** 
 1146              		.loc 1 229 23 discriminator 4 view .LVU360
 1147 0438 F0EE678A 		vmov.f32	s17, s15
 1148 043c 01E0     		b	.L35
 1149              	.L57:
 229:My_Top/Motor_Control/DcMotor_ClosedLoop.cpp **** 
 1150              		.loc 1 229 23 discriminator 1 view .LVU361
 1151 043e DFED818A 		vldr.32	s17, .L65+4
 1152              	.L35:
 1153              	.LVL71:
 231:My_Top/Motor_Control/DcMotor_ClosedLoop.cpp ****     Fre_last = Fre;
 1154              		.loc 1 231 5 is_stmt 1 view .LVU362
 231:My_Top/Motor_Control/DcMotor_ClosedLoop.cpp ****     Fre_last = Fre;
 1155              		.loc 1 231 16 is_stmt 0 view .LVU363
 1156 0442 B4F85030 		ldrh	r3, [r4, #80]
 231:My_Top/Motor_Control/DcMotor_ClosedLoop.cpp ****     Fre_last = Fre;
 1157              		.loc 1 231 5 view .LVU364
 1158 0446 AB42     		cmp	r3, r5
 1159 0448 15D0     		beq	.L63
 1160              	.L37:
 232:My_Top/Motor_Control/DcMotor_ClosedLoop.cpp ****     up_duty_last = up_duty;
 1161              		.loc 1 232 5 is_stmt 1 view .LVU365
 232:My_Top/Motor_Control/DcMotor_ClosedLoop.cpp ****     up_duty_last = up_duty;
 1162              		.loc 1 232 14 is_stmt 0 view .LVU366
 1163 044a A4F85050 		strh	r5, [r4, #80]	@ movhi
 233:My_Top/Motor_Control/DcMotor_ClosedLoop.cpp ****     down_duty_last = down_duty;
 1164              		.loc 1 233 5 is_stmt 1 view .LVU367
 233:My_Top/Motor_Control/DcMotor_ClosedLoop.cpp ****     down_duty_last = down_duty;
 1165              		.loc 1 233 18 is_stmt 0 view .LVU368
 1166 044e 84ED158A 		vstr.32	s16, [r4, #84]
 234:My_Top/Motor_Control/DcMotor_ClosedLoop.cpp **** 
 1167              		.loc 1 234 5 is_stmt 1 view .LVU369
 234:My_Top/Motor_Control/DcMotor_ClosedLoop.cpp **** 
 1168              		.loc 1 234 20 is_stmt 0 view .LVU370
 1169 0452 C4ED168A 		vstr.32	s17, [r4, #88]
 236:My_Top/Motor_Control/DcMotor_ClosedLoop.cpp ****     else {Motor_EN(true);}
 1170              		.loc 1 236 5 is_stmt 1 view .LVU371
 1171 0456 EDB1     		cbz	r5, .L64
 237:My_Top/Motor_Control/DcMotor_ClosedLoop.cpp **** 
 1172              		.loc 1 237 11 view .LVU372
 237:My_Top/Motor_Control/DcMotor_ClosedLoop.cpp **** 
 1173              		.loc 1 237 19 is_stmt 0 view .LVU373
 1174 0458 0121     		movs	r1, #1
ARM GAS  /tmp/ccBC5zcM.s 			page 38


 1175 045a 2046     		mov	r0, r4
 1176              	.LVL72:
 237:My_Top/Motor_Control/DcMotor_ClosedLoop.cpp **** 
 1177              		.loc 1 237 19 view .LVU374
 1178 045c FFF7FEFF 		bl	_ZN8DC_Motor8Motor_ENEb
 1179              	.LVL73:
 239:My_Top/Motor_Control/DcMotor_ClosedLoop.cpp ****     if (arr >= 65535) arr = 65535;
 1180              		.loc 1 239 5 is_stmt 1 view .LVU375
 239:My_Top/Motor_Control/DcMotor_ClosedLoop.cpp ****     if (arr >= 65535) arr = 65535;
 1181              		.loc 1 239 11 is_stmt 0 view .LVU376
 1182 0460 636E     		ldr	r3, [r4, #100]
 239:My_Top/Motor_Control/DcMotor_ClosedLoop.cpp ****     if (arr >= 65535) arr = 65535;
 1183              		.loc 1 239 9 view .LVU377
 1184 0462 B3FBF5F3 		udiv	r3, r3, r5
 1185              	.LVL74:
 240:My_Top/Motor_Control/DcMotor_ClosedLoop.cpp ****     else if (arr <= 1) arr = 1;
 1186              		.loc 1 240 5 is_stmt 1 view .LVU378
 1187 0466 4FF6FE72 		movw	r2, #65534
 1188 046a 9342     		cmp	r3, r2
 1189 046c 17D8     		bhi	.L58
 241:My_Top/Motor_Control/DcMotor_ClosedLoop.cpp **** 
 1190              		.loc 1 241 10 view .LVU379
 1191 046e 012B     		cmp	r3, #1
 1192 0470 17D8     		bhi	.L40
 241:My_Top/Motor_Control/DcMotor_ClosedLoop.cpp **** 
 1193              		.loc 1 241 28 is_stmt 0 discriminator 1 view .LVU380
 1194 0472 0123     		movs	r3, #1
 1195              	.LVL75:
 241:My_Top/Motor_Control/DcMotor_ClosedLoop.cpp **** 
 1196              		.loc 1 241 28 discriminator 1 view .LVU381
 1197 0474 15E0     		b	.L40
 1198              	.LVL76:
 1199              	.L63:
 231:My_Top/Motor_Control/DcMotor_ClosedLoop.cpp ****     Fre_last = Fre;
 1200              		.loc 1 231 39 discriminator 1 view .LVU382
 1201 0476 D4ED157A 		vldr.32	s15, [r4, #84]
 231:My_Top/Motor_Control/DcMotor_ClosedLoop.cpp ****     Fre_last = Fre;
 1202              		.loc 1 231 25 discriminator 1 view .LVU383
 1203 047a F4EE487A 		vcmp.f32	s15, s16
 1204 047e F1EE10FA 		vmrs	APSR_nzcv, FPSCR
 1205 0482 E2D1     		bne	.L37
 231:My_Top/Motor_Control/DcMotor_ClosedLoop.cpp ****     Fre_last = Fre;
 1206              		.loc 1 231 68 discriminator 2 view .LVU384
 1207 0484 D4ED167A 		vldr.32	s15, [r4, #88]
 231:My_Top/Motor_Control/DcMotor_ClosedLoop.cpp ****     Fre_last = Fre;
 1208              		.loc 1 231 52 discriminator 2 view .LVU385
 1209 0488 F4EE687A 		vcmp.f32	s15, s17
 1210 048c F1EE10FA 		vmrs	APSR_nzcv, FPSCR
 1211 0490 DBD1     		bne	.L37
 1212 0492 D1E0     		b	.L32
 1213              	.L64:
 236:My_Top/Motor_Control/DcMotor_ClosedLoop.cpp ****     else {Motor_EN(true);}
 1214              		.loc 1 236 20 is_stmt 1 discriminator 1 view .LVU386
 236:My_Top/Motor_Control/DcMotor_ClosedLoop.cpp ****     else {Motor_EN(true);}
 1215              		.loc 1 236 28 is_stmt 0 discriminator 1 view .LVU387
 1216 0494 0021     		movs	r1, #0
 1217 0496 2046     		mov	r0, r4
ARM GAS  /tmp/ccBC5zcM.s 			page 39


 1218              	.LVL77:
 236:My_Top/Motor_Control/DcMotor_ClosedLoop.cpp ****     else {Motor_EN(true);}
 1219              		.loc 1 236 28 discriminator 1 view .LVU388
 1220 0498 FFF7FEFF 		bl	_ZN8DC_Motor8Motor_ENEb
 1221              	.LVL78:
 236:My_Top/Motor_Control/DcMotor_ClosedLoop.cpp ****     else {Motor_EN(true);}
 1222              		.loc 1 236 37 is_stmt 1 discriminator 1 view .LVU389
 236:My_Top/Motor_Control/DcMotor_ClosedLoop.cpp ****     else {Motor_EN(true);}
 1223              		.loc 1 236 37 is_stmt 0 view .LVU390
 1224 049c CCE0     		b	.L32
 1225              	.LVL79:
 1226              	.L58:
 240:My_Top/Motor_Control/DcMotor_ClosedLoop.cpp ****     else if (arr <= 1) arr = 1;
 1227              		.loc 1 240 27 discriminator 1 view .LVU391
 1228 049e 4FF6FF73 		movw	r3, #65535
 1229              	.LVL80:
 1230              	.L40:
 243:My_Top/Motor_Control/DcMotor_ClosedLoop.cpp ****     __HAL_TIM_SET_AUTORELOAD(_motor_config->htim, (uint16_t)(arr - 1));//Ķ«ŠńĮ«Õæ©µ£¤ 
 1231              		.loc 1 243 5 is_stmt 1 view .LVU392
 1232 04a2 D4F8B020 		ldr	r2, [r4, #176]
 243:My_Top/Motor_Control/DcMotor_ClosedLoop.cpp ****     __HAL_TIM_SET_AUTORELOAD(_motor_config->htim, (uint16_t)(arr - 1));//Ķ«ŠńĮ«Õæ©µ£¤ 
 1233              		.loc 1 243 20 is_stmt 0 view .LVU393
 1234 04a6 1268     		ldr	r2, [r2]
 243:My_Top/Motor_Control/DcMotor_ClosedLoop.cpp ****     __HAL_TIM_SET_AUTORELOAD(_motor_config->htim, (uint16_t)(arr - 1));//Ķ«ŠńĮ«Õæ©µ£¤ 
 1235              		.loc 1 243 26 view .LVU394
 1236 04a8 1268     		ldr	r2, [r2]
 243:My_Top/Motor_Control/DcMotor_ClosedLoop.cpp ****     __HAL_TIM_SET_AUTORELOAD(_motor_config->htim, (uint16_t)(arr - 1));//Ķ«ŠńĮ«Õæ©µ£¤ 
 1237              		.loc 1 243 40 view .LVU395
 1238 04aa 0021     		movs	r1, #0
 1239 04ac 5162     		str	r1, [r2, #36]
 244:My_Top/Motor_Control/DcMotor_ClosedLoop.cpp ****     __HAL_TIM_SET_COMPARE(_motor_config->htim, _motor_config->ch_hin1, (uint32_t)(arr*up_duty));//Ķ
 1240              		.loc 1 244 5 is_stmt 1 view .LVU396
 244:My_Top/Motor_Control/DcMotor_ClosedLoop.cpp ****     __HAL_TIM_SET_COMPARE(_motor_config->htim, _motor_config->ch_hin1, (uint32_t)(arr*up_duty));//Ķ
 1241              		.loc 1 244 5 view .LVU397
 1242 04ae 5A1E     		subs	r2, r3, #1
 1243 04b0 92B2     		uxth	r2, r2
 1244 04b2 D4F8B010 		ldr	r1, [r4, #176]
 1245 04b6 0968     		ldr	r1, [r1]
 1246 04b8 0968     		ldr	r1, [r1]
 1247 04ba CA62     		str	r2, [r1, #44]
 244:My_Top/Motor_Control/DcMotor_ClosedLoop.cpp ****     __HAL_TIM_SET_COMPARE(_motor_config->htim, _motor_config->ch_hin1, (uint32_t)(arr*up_duty));//Ķ
 1248              		.loc 1 244 5 view .LVU398
 1249 04bc D4F8B010 		ldr	r1, [r4, #176]
 1250 04c0 0968     		ldr	r1, [r1]
 1251 04c2 CA60     		str	r2, [r1, #12]
 244:My_Top/Motor_Control/DcMotor_ClosedLoop.cpp ****     __HAL_TIM_SET_COMPARE(_motor_config->htim, _motor_config->ch_hin1, (uint32_t)(arr*up_duty));//Ķ
 1252              		.loc 1 244 5 view .LVU399
 245:My_Top/Motor_Control/DcMotor_ClosedLoop.cpp ****     __HAL_TIM_SET_COMPARE(_motor_config->htim, _motor_config->ch_hin2, (uint32_t)(arr*down_duty));/
 1253              		.loc 1 245 5 view .LVU400
 1254 04c4 D4F8B010 		ldr	r1, [r4, #176]
 1255 04c8 8A68     		ldr	r2, [r1, #8]
 1256 04ca 102A     		cmp	r2, #16
 1257 04cc 4BD8     		bhi	.L41
 1258 04ce DFE802F0 		tbb	[pc, r2]
 1259              	.L43:
 1260 04d2 09       		.byte	(.L47-.L43)/2
 1261 04d3 4A       		.byte	(.L41-.L43)/2
ARM GAS  /tmp/ccBC5zcM.s 			page 40


 1262 04d4 4A       		.byte	(.L41-.L43)/2
 1263 04d5 4A       		.byte	(.L41-.L43)/2
 1264 04d6 16       		.byte	(.L46-.L43)/2
 1265 04d7 4A       		.byte	(.L41-.L43)/2
 1266 04d8 4A       		.byte	(.L41-.L43)/2
 1267 04d9 4A       		.byte	(.L41-.L43)/2
 1268 04da 23       		.byte	(.L45-.L43)/2
 1269 04db 4A       		.byte	(.L41-.L43)/2
 1270 04dc 4A       		.byte	(.L41-.L43)/2
 1271 04dd 4A       		.byte	(.L41-.L43)/2
 1272 04de 30       		.byte	(.L44-.L43)/2
 1273 04df 4A       		.byte	(.L41-.L43)/2
 1274 04e0 4A       		.byte	(.L41-.L43)/2
 1275 04e1 4A       		.byte	(.L41-.L43)/2
 1276 04e2 3D       		.byte	(.L42-.L43)/2
 1277 04e3 00       		.p2align 1
 1278              	.L47:
 245:My_Top/Motor_Control/DcMotor_ClosedLoop.cpp ****     __HAL_TIM_SET_COMPARE(_motor_config->htim, _motor_config->ch_hin2, (uint32_t)(arr*down_duty));/
 1279              		.loc 1 245 5 is_stmt 0 discriminator 1 view .LVU401
 1280 04e4 07EE903A 		vmov	s15, r3	@ int
 1281 04e8 F8EE677A 		vcvt.f32.u32	s15, s15
 1282 04ec 67EE887A 		vmul.f32	s15, s15, s16
 1283 04f0 0A68     		ldr	r2, [r1]
 1284 04f2 1268     		ldr	r2, [r2]
 1285 04f4 FCEEE77A 		vcvt.u32.f32	s15, s15
 1286 04f8 C2ED0D7A 		vstr.32	s15, [r2, #52]	@ int
 1287 04fc 3FE0     		b	.L48
 1288              	.L46:
 245:My_Top/Motor_Control/DcMotor_ClosedLoop.cpp ****     __HAL_TIM_SET_COMPARE(_motor_config->htim, _motor_config->ch_hin2, (uint32_t)(arr*down_duty));/
 1289              		.loc 1 245 5 discriminator 3 view .LVU402
 1290 04fe 07EE903A 		vmov	s15, r3	@ int
 1291 0502 F8EE677A 		vcvt.f32.u32	s15, s15
 1292 0506 67EE887A 		vmul.f32	s15, s15, s16
 1293 050a 0A68     		ldr	r2, [r1]
 1294 050c 1268     		ldr	r2, [r2]
 1295 050e FCEEE77A 		vcvt.u32.f32	s15, s15
 1296 0512 C2ED0E7A 		vstr.32	s15, [r2, #56]	@ int
 1297 0516 32E0     		b	.L48
 1298              	.L45:
 245:My_Top/Motor_Control/DcMotor_ClosedLoop.cpp ****     __HAL_TIM_SET_COMPARE(_motor_config->htim, _motor_config->ch_hin2, (uint32_t)(arr*down_duty));/
 1299              		.loc 1 245 5 discriminator 5 view .LVU403
 1300 0518 07EE903A 		vmov	s15, r3	@ int
 1301 051c F8EE677A 		vcvt.f32.u32	s15, s15
 1302 0520 67EE887A 		vmul.f32	s15, s15, s16
 1303 0524 0A68     		ldr	r2, [r1]
 1304 0526 1268     		ldr	r2, [r2]
 1305 0528 FCEEE77A 		vcvt.u32.f32	s15, s15
 1306 052c C2ED0F7A 		vstr.32	s15, [r2, #60]	@ int
 1307 0530 25E0     		b	.L48
 1308              	.L44:
 245:My_Top/Motor_Control/DcMotor_ClosedLoop.cpp ****     __HAL_TIM_SET_COMPARE(_motor_config->htim, _motor_config->ch_hin2, (uint32_t)(arr*down_duty));/
 1309              		.loc 1 245 5 discriminator 7 view .LVU404
 1310 0532 07EE903A 		vmov	s15, r3	@ int
 1311 0536 F8EE677A 		vcvt.f32.u32	s15, s15
 1312 053a 67EE887A 		vmul.f32	s15, s15, s16
 1313 053e 0A68     		ldr	r2, [r1]
 1314 0540 1268     		ldr	r2, [r2]
ARM GAS  /tmp/ccBC5zcM.s 			page 41


 1315 0542 FCEEE77A 		vcvt.u32.f32	s15, s15
 1316 0546 C2ED107A 		vstr.32	s15, [r2, #64]	@ int
 1317 054a 18E0     		b	.L48
 1318              	.L42:
 245:My_Top/Motor_Control/DcMotor_ClosedLoop.cpp ****     __HAL_TIM_SET_COMPARE(_motor_config->htim, _motor_config->ch_hin2, (uint32_t)(arr*down_duty));/
 1319              		.loc 1 245 5 discriminator 9 view .LVU405
 1320 054c 07EE903A 		vmov	s15, r3	@ int
 1321 0550 F8EE677A 		vcvt.f32.u32	s15, s15
 1322 0554 67EE887A 		vmul.f32	s15, s15, s16
 1323 0558 0A68     		ldr	r2, [r1]
 1324 055a 1268     		ldr	r2, [r2]
 1325 055c FCEEE77A 		vcvt.u32.f32	s15, s15
 1326 0560 C2ED127A 		vstr.32	s15, [r2, #72]	@ int
 1327 0564 0BE0     		b	.L48
 1328              	.L41:
 245:My_Top/Motor_Control/DcMotor_ClosedLoop.cpp ****     __HAL_TIM_SET_COMPARE(_motor_config->htim, _motor_config->ch_hin2, (uint32_t)(arr*down_duty));/
 1329              		.loc 1 245 5 discriminator 10 view .LVU406
 1330 0566 07EE903A 		vmov	s15, r3	@ int
 1331 056a F8EE677A 		vcvt.f32.u32	s15, s15
 1332 056e 67EE887A 		vmul.f32	s15, s15, s16
 1333 0572 0A68     		ldr	r2, [r1]
 1334 0574 1268     		ldr	r2, [r2]
 1335 0576 FCEEE77A 		vcvt.u32.f32	s15, s15
 1336 057a C2ED137A 		vstr.32	s15, [r2, #76]	@ int
 1337              	.L48:
 246:My_Top/Motor_Control/DcMotor_ClosedLoop.cpp **** }
 1338              		.loc 1 246 5 is_stmt 1 view .LVU407
 1339 057e D4F8B010 		ldr	r1, [r4, #176]
 1340 0582 CA68     		ldr	r2, [r1, #12]
 1341 0584 102A     		cmp	r2, #16
 1342 0586 4BD8     		bhi	.L49
 1343 0588 DFE802F0 		tbb	[pc, r2]
 1344              	.L51:
 1345 058c 09       		.byte	(.L55-.L51)/2
 1346 058d 4A       		.byte	(.L49-.L51)/2
 1347 058e 4A       		.byte	(.L49-.L51)/2
 1348 058f 4A       		.byte	(.L49-.L51)/2
 1349 0590 16       		.byte	(.L54-.L51)/2
 1350 0591 4A       		.byte	(.L49-.L51)/2
 1351 0592 4A       		.byte	(.L49-.L51)/2
 1352 0593 4A       		.byte	(.L49-.L51)/2
 1353 0594 23       		.byte	(.L53-.L51)/2
 1354 0595 4A       		.byte	(.L49-.L51)/2
 1355 0596 4A       		.byte	(.L49-.L51)/2
 1356 0597 4A       		.byte	(.L49-.L51)/2
 1357 0598 30       		.byte	(.L52-.L51)/2
 1358 0599 4A       		.byte	(.L49-.L51)/2
 1359 059a 4A       		.byte	(.L49-.L51)/2
 1360 059b 4A       		.byte	(.L49-.L51)/2
 1361 059c 3D       		.byte	(.L50-.L51)/2
 1362 059d 00       		.p2align 1
 1363              	.L55:
 246:My_Top/Motor_Control/DcMotor_ClosedLoop.cpp **** }
 1364              		.loc 1 246 5 is_stmt 0 discriminator 1 view .LVU408
 1365 059e 07EE903A 		vmov	s15, r3	@ int
 1366 05a2 F8EE677A 		vcvt.f32.u32	s15, s15
 1367 05a6 67EEA87A 		vmul.f32	s15, s15, s17
ARM GAS  /tmp/ccBC5zcM.s 			page 42


 1368 05aa 0B68     		ldr	r3, [r1]
 1369              	.LVL81:
 246:My_Top/Motor_Control/DcMotor_ClosedLoop.cpp **** }
 1370              		.loc 1 246 5 discriminator 1 view .LVU409
 1371 05ac 1B68     		ldr	r3, [r3]
 1372 05ae FCEEE77A 		vcvt.u32.f32	s15, s15
 1373 05b2 C3ED0D7A 		vstr.32	s15, [r3, #52]	@ int
 1374 05b6 3FE0     		b	.L32
 1375              	.LVL82:
 1376              	.L54:
 246:My_Top/Motor_Control/DcMotor_ClosedLoop.cpp **** }
 1377              		.loc 1 246 5 discriminator 3 view .LVU410
 1378 05b8 07EE903A 		vmov	s15, r3	@ int
 1379 05bc F8EE677A 		vcvt.f32.u32	s15, s15
 1380 05c0 67EEA87A 		vmul.f32	s15, s15, s17
 1381 05c4 0B68     		ldr	r3, [r1]
 1382              	.LVL83:
 246:My_Top/Motor_Control/DcMotor_ClosedLoop.cpp **** }
 1383              		.loc 1 246 5 discriminator 3 view .LVU411
 1384 05c6 1B68     		ldr	r3, [r3]
 1385 05c8 FCEEE77A 		vcvt.u32.f32	s15, s15
 1386 05cc C3ED0E7A 		vstr.32	s15, [r3, #56]	@ int
 1387 05d0 32E0     		b	.L32
 1388              	.LVL84:
 1389              	.L53:
 246:My_Top/Motor_Control/DcMotor_ClosedLoop.cpp **** }
 1390              		.loc 1 246 5 discriminator 5 view .LVU412
 1391 05d2 07EE903A 		vmov	s15, r3	@ int
 1392 05d6 F8EE677A 		vcvt.f32.u32	s15, s15
 1393 05da 67EEA87A 		vmul.f32	s15, s15, s17
 1394 05de 0B68     		ldr	r3, [r1]
 1395              	.LVL85:
 246:My_Top/Motor_Control/DcMotor_ClosedLoop.cpp **** }
 1396              		.loc 1 246 5 discriminator 5 view .LVU413
 1397 05e0 1B68     		ldr	r3, [r3]
 1398 05e2 FCEEE77A 		vcvt.u32.f32	s15, s15
 1399 05e6 C3ED0F7A 		vstr.32	s15, [r3, #60]	@ int
 1400 05ea 25E0     		b	.L32
 1401              	.LVL86:
 1402              	.L52:
 246:My_Top/Motor_Control/DcMotor_ClosedLoop.cpp **** }
 1403              		.loc 1 246 5 discriminator 7 view .LVU414
 1404 05ec 07EE903A 		vmov	s15, r3	@ int
 1405 05f0 F8EE677A 		vcvt.f32.u32	s15, s15
 1406 05f4 67EEA87A 		vmul.f32	s15, s15, s17
 1407 05f8 0B68     		ldr	r3, [r1]
 1408              	.LVL87:
 246:My_Top/Motor_Control/DcMotor_ClosedLoop.cpp **** }
 1409              		.loc 1 246 5 discriminator 7 view .LVU415
 1410 05fa 1B68     		ldr	r3, [r3]
 1411 05fc FCEEE77A 		vcvt.u32.f32	s15, s15
 1412 0600 C3ED107A 		vstr.32	s15, [r3, #64]	@ int
 1413 0604 18E0     		b	.L32
 1414              	.LVL88:
 1415              	.L50:
 246:My_Top/Motor_Control/DcMotor_ClosedLoop.cpp **** }
 1416              		.loc 1 246 5 discriminator 9 view .LVU416
ARM GAS  /tmp/ccBC5zcM.s 			page 43


 1417 0606 07EE903A 		vmov	s15, r3	@ int
 1418 060a F8EE677A 		vcvt.f32.u32	s15, s15
 1419 060e 67EEA87A 		vmul.f32	s15, s15, s17
 1420 0612 0B68     		ldr	r3, [r1]
 1421              	.LVL89:
 246:My_Top/Motor_Control/DcMotor_ClosedLoop.cpp **** }
 1422              		.loc 1 246 5 discriminator 9 view .LVU417
 1423 0614 1B68     		ldr	r3, [r3]
 1424 0616 FCEEE77A 		vcvt.u32.f32	s15, s15
 1425 061a C3ED127A 		vstr.32	s15, [r3, #72]	@ int
 1426 061e 0BE0     		b	.L32
 1427              	.LVL90:
 1428              	.L49:
 246:My_Top/Motor_Control/DcMotor_ClosedLoop.cpp **** }
 1429              		.loc 1 246 5 discriminator 10 view .LVU418
 1430 0620 07EE903A 		vmov	s15, r3	@ int
 1431 0624 F8EE677A 		vcvt.f32.u32	s15, s15
 1432 0628 67EEA87A 		vmul.f32	s15, s15, s17
 1433 062c 0B68     		ldr	r3, [r1]
 1434              	.LVL91:
 246:My_Top/Motor_Control/DcMotor_ClosedLoop.cpp **** }
 1435              		.loc 1 246 5 discriminator 10 view .LVU419
 1436 062e 1B68     		ldr	r3, [r3]
 1437 0630 FCEEE77A 		vcvt.u32.f32	s15, s15
 1438 0634 C3ED137A 		vstr.32	s15, [r3, #76]	@ int
 1439              	.LVL92:
 1440              	.L32:
 247:My_Top/Motor_Control/DcMotor_ClosedLoop.cpp **** 
 1441              		.loc 1 247 1 view .LVU420
 1442 0638 BDEC028B 		vldm	sp!, {d8}
 1443              		.cfi_restore 80
 1444              		.cfi_restore 81
 1445              		.cfi_def_cfa_offset 16
 1446              	.LVL93:
 247:My_Top/Motor_Control/DcMotor_ClosedLoop.cpp **** 
 1447              		.loc 1 247 1 view .LVU421
 1448 063c 38BD     		pop	{r3, r4, r5, pc}
 1449              	.LVL94:
 1450              	.L66:
 247:My_Top/Motor_Control/DcMotor_ClosedLoop.cpp **** 
 1451              		.loc 1 247 1 view .LVU422
 1452 063e 00BF     		.align	2
 1453              	.L65:
 1454 0640 EC51783F 		.word	1064849900
 1455 0644 00000000 		.word	0
 1456              		.cfi_endproc
 1457              	.LFE1355:
 1459              		.align	1
 1460              		.global	_ZN8DC_Motor18Set_Motor_Glo_DutyEv
 1461              		.syntax unified
 1462              		.thumb
 1463              		.thumb_func
 1465              	_ZN8DC_Motor18Set_Motor_Glo_DutyEv:
 1466              	.LVL95:
 1467              	.LFB1356:
 252:My_Top/Motor_Control/DcMotor_ClosedLoop.cpp ****     float duty = constraint_value(updown_duty, MOTOR_DEFAULT_PARAM.limit.min_duty, MOTOR_DEFAULT_PA
 1468              		.loc 1 252 1 is_stmt 1 view -0
ARM GAS  /tmp/ccBC5zcM.s 			page 44


 1469              		.cfi_startproc
 1470              		@ args = 0, pretend = 0, frame = 0
 1471              		@ frame_needed = 0, uses_anonymous_args = 0
 252:My_Top/Motor_Control/DcMotor_ClosedLoop.cpp ****     float duty = constraint_value(updown_duty, MOTOR_DEFAULT_PARAM.limit.min_duty, MOTOR_DEFAULT_PA
 1472              		.loc 1 252 1 is_stmt 0 view .LVU424
 1473 0648 10B5     		push	{r4, lr}
 1474              		.cfi_def_cfa_offset 8
 1475              		.cfi_offset 4, -8
 1476              		.cfi_offset 14, -4
 1477 064a 0446     		mov	r4, r0
 253:My_Top/Motor_Control/DcMotor_ClosedLoop.cpp **** 
 1478              		.loc 1 253 5 is_stmt 1 view .LVU425
 253:My_Top/Motor_Control/DcMotor_ClosedLoop.cpp **** 
 1479              		.loc 1 253 18 is_stmt 0 view .LVU426
 1480 064c D0ED047A 		vldr.32	s15, [r0, #16]
 1481 0650 9FED257A 		vldr.32	s14, .L84
 1482 0654 F4EEC77A 		vcmpe.f32	s15, s14
 1483 0658 F1EE10FA 		vmrs	APSR_nzcv, FPSCR
 1484 065c 0CD4     		bmi	.L76
 253:My_Top/Motor_Control/DcMotor_ClosedLoop.cpp **** 
 1485              		.loc 1 253 18 discriminator 2 view .LVU427
 1486 065e 9FED237A 		vldr.32	s14, .L84+4
 1487 0662 F4EEC77A 		vcmpe.f32	s15, s14
 1488 0666 F1EE10FA 		vmrs	APSR_nzcv, FPSCR
 1489 066a 1BDC     		bgt	.L77
 1490              	.LVL96:
 255:My_Top/Motor_Control/DcMotor_ClosedLoop.cpp ****     {
 1491              		.loc 1 255 5 is_stmt 1 view .LVU428
 1492 066c F5EE407A 		vcmp.f32	s15, #0
 1493 0670 F1EE10FA 		vmrs	APSR_nzcv, FPSCR
 1494 0674 0BD0     		beq	.L69
 1495 0676 01E0     		b	.L68
 1496              	.LVL97:
 1497              	.L76:
 253:My_Top/Motor_Control/DcMotor_ClosedLoop.cpp **** 
 1498              		.loc 1 253 18 is_stmt 0 discriminator 1 view .LVU429
 1499 0678 DFED1B7A 		vldr.32	s15, .L84
 1500              	.L68:
 255:My_Top/Motor_Control/DcMotor_ClosedLoop.cpp ****     {
 1501              		.loc 1 255 30 discriminator 1 view .LVU430
 1502 067c B0EEE77A 		vabs.f32	s14, s15
 255:My_Top/Motor_Control/DcMotor_ClosedLoop.cpp ****     {
 1503              		.loc 1 255 22 discriminator 1 view .LVU431
 1504 0680 DFED1B6A 		vldr.32	s13, .L84+8
 1505 0684 B4EEE67A 		vcmpe.f32	s14, s13
 1506 0688 F1EE10FA 		vmrs	APSR_nzcv, FPSCR
 1507 068c 0DD5     		bpl	.L80
 1508              	.L69:
 257:My_Top/Motor_Control/DcMotor_ClosedLoop.cpp ****         Motor_EN(false);
 1509              		.loc 1 257 9 is_stmt 1 view .LVU432
 257:My_Top/Motor_Control/DcMotor_ClosedLoop.cpp ****         Motor_EN(false);
 1510              		.loc 1 257 41 is_stmt 0 view .LVU433
 1511 068e 0023     		movs	r3, #0
 1512 0690 E360     		str	r3, [r4, #12]	@ float
 257:My_Top/Motor_Control/DcMotor_ClosedLoop.cpp ****         Motor_EN(false);
 1513              		.loc 1 257 23 view .LVU434
 1514 0692 A360     		str	r3, [r4, #8]	@ float
ARM GAS  /tmp/ccBC5zcM.s 			page 45


 258:My_Top/Motor_Control/DcMotor_ClosedLoop.cpp ****     }else if (duty > 0.0f) 
 1515              		.loc 1 258 9 is_stmt 1 view .LVU435
 258:My_Top/Motor_Control/DcMotor_ClosedLoop.cpp ****     }else if (duty > 0.0f) 
 1516              		.loc 1 258 17 is_stmt 0 view .LVU436
 1517 0694 0021     		movs	r1, #0
 1518 0696 2046     		mov	r0, r4
 1519              	.LVL98:
 258:My_Top/Motor_Control/DcMotor_ClosedLoop.cpp ****     }else if (duty > 0.0f) 
 1520              		.loc 1 258 17 view .LVU437
 1521 0698 FFF7FEFF 		bl	_ZN8DC_Motor8Motor_ENEb
 1522              	.LVL99:
 1523              	.L72:
 271:My_Top/Motor_Control/DcMotor_ClosedLoop.cpp **** }
 1524              		.loc 1 271 5 is_stmt 1 view .LVU438
 271:My_Top/Motor_Control/DcMotor_ClosedLoop.cpp **** }
 1525              		.loc 1 271 24 is_stmt 0 view .LVU439
 1526 069c 2046     		mov	r0, r4
 1527 069e FFF7FEFF 		bl	_ZN8DC_Motor19Set_Motor_FrequencyEv
 1528              	.LVL100:
 272:My_Top/Motor_Control/DcMotor_ClosedLoop.cpp **** 
 1529              		.loc 1 272 1 view .LVU440
 1530 06a2 10BD     		pop	{r4, pc}
 1531              	.LVL101:
 1532              	.L77:
 253:My_Top/Motor_Control/DcMotor_ClosedLoop.cpp **** 
 1533              		.loc 1 253 18 discriminator 7 view .LVU441
 1534 06a4 DFED117A 		vldr.32	s15, .L84+4
 1535 06a8 E8E7     		b	.L68
 1536              	.L80:
 259:My_Top/Motor_Control/DcMotor_ClosedLoop.cpp ****     {
 1537              		.loc 1 259 11 is_stmt 1 view .LVU442
 1538 06aa F5EEC07A 		vcmpe.f32	s15, #0
 1539 06ae F1EE10FA 		vmrs	APSR_nzcv, FPSCR
 1540 06b2 0FDC     		bgt	.L83
 264:My_Top/Motor_Control/DcMotor_ClosedLoop.cpp ****     {
 1541              		.loc 1 264 11 view .LVU443
 1542 06b4 F5EEC07A 		vcmpe.f32	s15, #0
 1543 06b8 F1EE10FA 		vmrs	APSR_nzcv, FPSCR
 1544 06bc EED5     		bpl	.L72
 266:My_Top/Motor_Control/DcMotor_ClosedLoop.cpp ****         motor_down_duty = -duty;
 1545              		.loc 1 266 9 view .LVU444
 266:My_Top/Motor_Control/DcMotor_ClosedLoop.cpp ****         motor_down_duty = -duty;
 1546              		.loc 1 266 23 is_stmt 0 view .LVU445
 1547 06be 0023     		movs	r3, #0
 1548 06c0 A360     		str	r3, [r4, #8]	@ float
 267:My_Top/Motor_Control/DcMotor_ClosedLoop.cpp ****         Motor_EN(true);
 1549              		.loc 1 267 9 is_stmt 1 view .LVU446
 267:My_Top/Motor_Control/DcMotor_ClosedLoop.cpp ****         Motor_EN(true);
 1550              		.loc 1 267 27 is_stmt 0 view .LVU447
 1551 06c2 F1EE677A 		vneg.f32	s15, s15
 267:My_Top/Motor_Control/DcMotor_ClosedLoop.cpp ****         Motor_EN(true);
 1552              		.loc 1 267 25 view .LVU448
 1553 06c6 C4ED037A 		vstr.32	s15, [r4, #12]
 268:My_Top/Motor_Control/DcMotor_ClosedLoop.cpp ****     }
 1554              		.loc 1 268 9 is_stmt 1 view .LVU449
 268:My_Top/Motor_Control/DcMotor_ClosedLoop.cpp ****     }
 1555              		.loc 1 268 17 is_stmt 0 view .LVU450
ARM GAS  /tmp/ccBC5zcM.s 			page 46


 1556 06ca 0121     		movs	r1, #1
 1557 06cc 2046     		mov	r0, r4
 1558              	.LVL102:
 268:My_Top/Motor_Control/DcMotor_ClosedLoop.cpp ****     }
 1559              		.loc 1 268 17 view .LVU451
 1560 06ce FFF7FEFF 		bl	_ZN8DC_Motor8Motor_ENEb
 1561              	.LVL103:
 1562 06d2 E3E7     		b	.L72
 1563              	.LVL104:
 1564              	.L83:
 261:My_Top/Motor_Control/DcMotor_ClosedLoop.cpp ****         motor_down_duty = 0.0f;
 1565              		.loc 1 261 9 is_stmt 1 view .LVU452
 261:My_Top/Motor_Control/DcMotor_ClosedLoop.cpp ****         motor_down_duty = 0.0f;
 1566              		.loc 1 261 23 is_stmt 0 view .LVU453
 1567 06d4 C4ED027A 		vstr.32	s15, [r4, #8]
 262:My_Top/Motor_Control/DcMotor_ClosedLoop.cpp ****         Motor_EN(true);
 1568              		.loc 1 262 9 is_stmt 1 view .LVU454
 262:My_Top/Motor_Control/DcMotor_ClosedLoop.cpp ****         Motor_EN(true);
 1569              		.loc 1 262 25 is_stmt 0 view .LVU455
 1570 06d8 0023     		movs	r3, #0
 1571 06da E360     		str	r3, [r4, #12]	@ float
 263:My_Top/Motor_Control/DcMotor_ClosedLoop.cpp ****     }else if (duty < 0.0f) 
 1572              		.loc 1 263 9 is_stmt 1 view .LVU456
 263:My_Top/Motor_Control/DcMotor_ClosedLoop.cpp ****     }else if (duty < 0.0f) 
 1573              		.loc 1 263 17 is_stmt 0 view .LVU457
 1574 06dc 0121     		movs	r1, #1
 1575 06de 2046     		mov	r0, r4
 1576              	.LVL105:
 263:My_Top/Motor_Control/DcMotor_ClosedLoop.cpp ****     }else if (duty < 0.0f) 
 1577              		.loc 1 263 17 view .LVU458
 1578 06e0 FFF7FEFF 		bl	_ZN8DC_Motor8Motor_ENEb
 1579              	.LVL106:
 1580 06e4 DAE7     		b	.L72
 1581              	.L85:
 1582 06e6 00BF     		.align	2
 1583              	.L84:
 1584 06e8 EC5178BF 		.word	-1082633748
 1585 06ec EC51783F 		.word	1064849900
 1586 06f0 BD378635 		.word	897988541
 1587              		.cfi_endproc
 1588              	.LFE1356:
 1590              		.align	1
 1591              		.global	_ZN8DC_Motor16My_DC_Motor_InitEv
 1592              		.syntax unified
 1593              		.thumb
 1594              		.thumb_func
 1596              	_ZN8DC_Motor16My_DC_Motor_InitEv:
 1597              	.LVL107:
 1598              	.LFB1354:
 201:My_Top/Motor_Control/DcMotor_ClosedLoop.cpp ****     uint32_t sysclk = HAL_RCC_GetSysClockFreq();
 1599              		.loc 1 201 1 is_stmt 1 view -0
 1600              		.cfi_startproc
 1601              		@ args = 0, pretend = 0, frame = 0
 1602              		@ frame_needed = 0, uses_anonymous_args = 0
 201:My_Top/Motor_Control/DcMotor_ClosedLoop.cpp ****     uint32_t sysclk = HAL_RCC_GetSysClockFreq();
 1603              		.loc 1 201 1 is_stmt 0 view .LVU460
 1604 06f4 10B5     		push	{r4, lr}
ARM GAS  /tmp/ccBC5zcM.s 			page 47


 1605              		.cfi_def_cfa_offset 8
 1606              		.cfi_offset 4, -8
 1607              		.cfi_offset 14, -4
 1608 06f6 2DED028B 		vpush.64	{d8}
 1609              		.cfi_def_cfa_offset 16
 1610              		.cfi_offset 80, -16
 1611              		.cfi_offset 81, -12
 1612 06fa 0446     		mov	r4, r0
 202:My_Top/Motor_Control/DcMotor_ClosedLoop.cpp ****     timer_clock_freq_ = sysclk / (_motor_config->htim->Instance->PSC + 1);
 1613              		.loc 1 202 5 is_stmt 1 view .LVU461
 202:My_Top/Motor_Control/DcMotor_ClosedLoop.cpp ****     timer_clock_freq_ = sysclk / (_motor_config->htim->Instance->PSC + 1);
 1614              		.loc 1 202 46 is_stmt 0 view .LVU462
 1615 06fc FFF7FEFF 		bl	HAL_RCC_GetSysClockFreq
 1616              	.LVL108:
 203:My_Top/Motor_Control/DcMotor_ClosedLoop.cpp **** 
 1617              		.loc 1 203 5 is_stmt 1 view .LVU463
 203:My_Top/Motor_Control/DcMotor_ClosedLoop.cpp **** 
 1618              		.loc 1 203 35 is_stmt 0 view .LVU464
 1619 0700 D4F8B030 		ldr	r3, [r4, #176]
 203:My_Top/Motor_Control/DcMotor_ClosedLoop.cpp **** 
 1620              		.loc 1 203 50 view .LVU465
 1621 0704 1B68     		ldr	r3, [r3]
 203:My_Top/Motor_Control/DcMotor_ClosedLoop.cpp **** 
 1622              		.loc 1 203 56 view .LVU466
 1623 0706 1B68     		ldr	r3, [r3]
 203:My_Top/Motor_Control/DcMotor_ClosedLoop.cpp **** 
 1624              		.loc 1 203 66 view .LVU467
 1625 0708 9B6A     		ldr	r3, [r3, #40]
 203:My_Top/Motor_Control/DcMotor_ClosedLoop.cpp **** 
 1626              		.loc 1 203 70 view .LVU468
 1627 070a 0133     		adds	r3, r3, #1
 203:My_Top/Motor_Control/DcMotor_ClosedLoop.cpp **** 
 1628              		.loc 1 203 32 view .LVU469
 1629 070c B0FBF3F0 		udiv	r0, r0, r3
 1630              	.LVL109:
 203:My_Top/Motor_Control/DcMotor_ClosedLoop.cpp **** 
 1631              		.loc 1 203 23 view .LVU470
 1632 0710 6066     		str	r0, [r4, #100]
 205:My_Top/Motor_Control/DcMotor_ClosedLoop.cpp ****     error_lpf.init(0.7);
 1633              		.loc 1 205 5 is_stmt 1 view .LVU471
 205:My_Top/Motor_Control/DcMotor_ClosedLoop.cpp ****     error_lpf.init(0.7);
 1634              		.loc 1 205 19 is_stmt 0 view .LVU472
 1635 0712 9FED178A 		vldr.32	s16, .L88
 1636 0716 B0EE480A 		vmov.f32	s0, s16
 1637 071a 04F16800 		add	r0, r4, #104
 1638 071e FFF7FEFF 		bl	_ZN13LowpassFilter4initEf
 1639              	.LVL110:
 206:My_Top/Motor_Control/DcMotor_ClosedLoop.cpp ****     speed_avg.init(5);
 1640              		.loc 1 206 5 is_stmt 1 view .LVU473
 206:My_Top/Motor_Control/DcMotor_ClosedLoop.cpp ****     speed_avg.init(5);
 1641              		.loc 1 206 19 is_stmt 0 view .LVU474
 1642 0722 B0EE480A 		vmov.f32	s0, s16
 1643 0726 04F17000 		add	r0, r4, #112
 1644 072a FFF7FEFF 		bl	_ZN13LowpassFilter4initEf
 1645              	.LVL111:
 207:My_Top/Motor_Control/DcMotor_ClosedLoop.cpp ****     adc_val_avg.init(100);//ADCķććµĀĘÕĆ╝µ╗żµ│ó //67µ×üķÖÉ
 1646              		.loc 1 207 5 is_stmt 1 view .LVU475
ARM GAS  /tmp/ccBC5zcM.s 			page 48


 207:My_Top/Motor_Control/DcMotor_ClosedLoop.cpp ****     adc_val_avg.init(100);//ADCķććµĀĘÕĆ╝µ╗żµ│ó //67µ×üķÖÉ
 1647              		.loc 1 207 19 is_stmt 0 view .LVU476
 1648 072e 0521     		movs	r1, #5
 1649 0730 04F17800 		add	r0, r4, #120
 1650 0734 FFF7FEFF 		bl	_ZN9AvgFilter4initEh
 1651              	.LVL112:
 208:My_Top/Motor_Control/DcMotor_ClosedLoop.cpp **** 
 1652              		.loc 1 208 5 is_stmt 1 view .LVU477
 208:My_Top/Motor_Control/DcMotor_ClosedLoop.cpp **** 
 1653              		.loc 1 208 21 is_stmt 0 view .LVU478
 1654 0738 6421     		movs	r1, #100
 1655 073a 04F19400 		add	r0, r4, #148
 1656 073e FFF7FEFF 		bl	_ZN9AvgFilter4initEh
 1657              	.LVL113:
 211:My_Top/Motor_Control/DcMotor_ClosedLoop.cpp **** 
 1658              		.loc 1 211 5 is_stmt 1 view .LVU479
 211:My_Top/Motor_Control/DcMotor_ClosedLoop.cpp **** 
 1659              		.loc 1 211 23 is_stmt 0 view .LVU480
 1660 0742 2046     		mov	r0, r4
 1661 0744 FFF7FEFF 		bl	_ZN8DC_Motor18Set_Motor_Glo_DutyEv
 1662              	.LVL114:
 214:My_Top/Motor_Control/DcMotor_ClosedLoop.cpp ****     vTaskDelay(pdMS_TO_TICKS(1));  // ńŁē 1ms Õģģµ╗Ī
 1663              		.loc 1 214 5 is_stmt 1 view .LVU481
 214:My_Top/Motor_Control/DcMotor_ClosedLoop.cpp ****     vTaskDelay(pdMS_TO_TICKS(1));  // ńŁē 1ms Õģģµ╗Ī
 1664              		.loc 1 214 13 is_stmt 0 view .LVU482
 1665 0748 0121     		movs	r1, #1
 1666 074a 2046     		mov	r0, r4
 1667 074c FFF7FEFF 		bl	_ZN8DC_Motor8Motor_ENEb
 1668              	.LVL115:
 215:My_Top/Motor_Control/DcMotor_ClosedLoop.cpp ****     Motor_EN(false); // Õģ│ķŚŁPWMĶŠōÕć║
 1669              		.loc 1 215 5 is_stmt 1 view .LVU483
 215:My_Top/Motor_Control/DcMotor_ClosedLoop.cpp ****     Motor_EN(false); // Õģ│ķŚŁPWMĶŠōÕć║
 1670              		.loc 1 215 15 is_stmt 0 view .LVU484
 1671 0750 0120     		movs	r0, #1
 1672 0752 FFF7FEFF 		bl	vTaskDelay
 1673              	.LVL116:
 216:My_Top/Motor_Control/DcMotor_ClosedLoop.cpp ****     _encoder->KTH7111_Init(motor_encoder_dir);
 1674              		.loc 1 216 5 is_stmt 1 view .LVU485
 216:My_Top/Motor_Control/DcMotor_ClosedLoop.cpp ****     _encoder->KTH7111_Init(motor_encoder_dir);
 1675              		.loc 1 216 13 is_stmt 0 view .LVU486
 1676 0756 0021     		movs	r1, #0
 1677 0758 2046     		mov	r0, r4
 1678 075a FFF7FEFF 		bl	_ZN8DC_Motor8Motor_ENEb
 1679              	.LVL117:
 217:My_Top/Motor_Control/DcMotor_ClosedLoop.cpp ****     control_init_flag = true;
 1680              		.loc 1 217 5 is_stmt 1 view .LVU487
 217:My_Top/Motor_Control/DcMotor_ClosedLoop.cpp ****     control_init_flag = true;
 1681              		.loc 1 217 27 is_stmt 0 view .LVU488
 1682 075e 6178     		ldrb	r1, [r4, #1]	@ zero_extendqisi2
 1683 0760 E06B     		ldr	r0, [r4, #60]
 1684 0762 FFF7FEFF 		bl	_ZN7KTH711112KTH7111_InitEb
 1685              	.LVL118:
 218:My_Top/Motor_Control/DcMotor_ClosedLoop.cpp **** }
 1686              		.loc 1 218 5 is_stmt 1 view .LVU489
 218:My_Top/Motor_Control/DcMotor_ClosedLoop.cpp **** }
 1687              		.loc 1 218 23 is_stmt 0 view .LVU490
 1688 0766 0123     		movs	r3, #1
ARM GAS  /tmp/ccBC5zcM.s 			page 49


 1689 0768 A370     		strb	r3, [r4, #2]
 219:My_Top/Motor_Control/DcMotor_ClosedLoop.cpp **** 
 1690              		.loc 1 219 1 view .LVU491
 1691 076a BDEC028B 		vldm	sp!, {d8}
 1692              		.cfi_restore 80
 1693              		.cfi_restore 81
 1694              		.cfi_def_cfa_offset 8
 1695 076e 10BD     		pop	{r4, pc}
 1696              	.LVL119:
 1697              	.L89:
 219:My_Top/Motor_Control/DcMotor_ClosedLoop.cpp **** 
 1698              		.loc 1 219 1 view .LVU492
 1699              		.align	2
 1700              	.L88:
 1701 0770 3333333F 		.word	1060320051
 1702              		.cfi_endproc
 1703              	.LFE1354:
 1705              		.align	1
 1706              		.global	_ZN8DC_Motor28Update_Speed_Angle_LPFAndPLLEv
 1707              		.syntax unified
 1708              		.thumb
 1709              		.thumb_func
 1711              	_ZN8DC_Motor28Update_Speed_Angle_LPFAndPLLEv:
 1712              	.LVL120:
 1713              	.LFB1358:
 301:My_Top/Motor_Control/DcMotor_ClosedLoop.cpp ****     // ķØÖµĆüÕÅśķćÅ’╝īńö©õ║ÄõĖ┤µŚČÕŁśÕé©Ķ¦ÆÕ║”ÕĆ╝ÕÆīõĖŖõĖĆµ¼ĪńÜäĶ¦ÆÕ║”ÕĆ╝
 1714              		.loc 1 301 1 is_stmt 1 view -0
 1715              		.cfi_startproc
 1716              		@ args = 0, pretend = 0, frame = 0
 1717              		@ frame_needed = 0, uses_anonymous_args = 0
 301:My_Top/Motor_Control/DcMotor_ClosedLoop.cpp ****     // ķØÖµĆüÕÅśķćÅ’╝īńö©õ║ÄõĖ┤µŚČÕŁśÕé©Ķ¦ÆÕ║”ÕĆ╝ÕÆīõĖŖõĖĆµ¼ĪńÜäĶ¦ÆÕ║”ÕĆ╝
 1718              		.loc 1 301 1 is_stmt 0 view .LVU494
 1719 0774 38B5     		push	{r3, r4, r5, lr}
 1720              		.cfi_def_cfa_offset 16
 1721              		.cfi_offset 3, -16
 1722              		.cfi_offset 4, -12
 1723              		.cfi_offset 5, -8
 1724              		.cfi_offset 14, -4
 1725 0776 0446     		mov	r4, r0
 303:My_Top/Motor_Control/DcMotor_ClosedLoop.cpp ****     static float theta_m_offic_temp = 0.0;
 1726              		.loc 1 303 5 is_stmt 1 view .LVU495
 304:My_Top/Motor_Control/DcMotor_ClosedLoop.cpp **** 
 1727              		.loc 1 304 5 view .LVU496
 306:My_Top/Motor_Control/DcMotor_ClosedLoop.cpp ****     fudu_test = _encoder->Get_KTH7111_Radian();//ĶÄĘÕÅ¢ń╝¢ńĀüÕÖ©Ķ¦ÆÕ║”
 1728              		.loc 1 306 5 view .LVU497
 306:My_Top/Motor_Control/DcMotor_ClosedLoop.cpp ****     fudu_test = _encoder->Get_KTH7111_Radian();//ĶÄĘÕÅ¢ń╝¢ńĀüÕÖ©Ķ¦ÆÕ║”
 1729              		.loc 1 306 36 is_stmt 0 view .LVU498
 1730 0778 C06B     		ldr	r0, [r0, #60]
 1731              	.LVL121:
 306:My_Top/Motor_Control/DcMotor_ClosedLoop.cpp ****     fudu_test = _encoder->Get_KTH7111_Radian();//ĶÄĘÕÅ¢ń╝¢ńĀüÕÖ©Ķ¦ÆÕ║”
 1732              		.loc 1 306 36 view .LVU499
 1733 077a FFF7FEFF 		bl	_ZN7KTH711121KTH7111_Send_JIAO_CMDEv
 1734              	.LVL122:
 307:My_Top/Motor_Control/DcMotor_ClosedLoop.cpp **** 
 1735              		.loc 1 307 5 is_stmt 1 view .LVU500
 307:My_Top/Motor_Control/DcMotor_ClosedLoop.cpp **** 
 1736              		.loc 1 307 45 is_stmt 0 view .LVU501
ARM GAS  /tmp/ccBC5zcM.s 			page 50


 1737 077e E06B     		ldr	r0, [r4, #60]
 1738 0780 FFF7FEFF 		bl	_ZN7KTH711118Get_KTH7111_RadianEv
 1739              	.LVL123:
 307:My_Top/Motor_Control/DcMotor_ClosedLoop.cpp **** 
 1740              		.loc 1 307 15 discriminator 1 view .LVU502
 1741 0784 584B     		ldr	r3, .L102+16
 1742 0786 83ED000A 		vstr.32	s0, [r3]
 309:My_Top/Motor_Control/DcMotor_ClosedLoop.cpp ****     {
 1743              		.loc 1 309 5 is_stmt 1 view .LVU503
 1744              	.LBB123:
 309:My_Top/Motor_Control/DcMotor_ClosedLoop.cpp ****     {
 1745              		.loc 1 309 9 is_stmt 0 view .LVU504
 1746 078a 94F8B430 		ldrb	r3, [r4, #180]	@ zero_extendqisi2
 309:My_Top/Motor_Control/DcMotor_ClosedLoop.cpp ****     {
 1747              		.loc 1 309 5 view .LVU505
 1748 078e 002B     		cmp	r3, #0
 1749 0790 40F08480 		bne	.L91
 1750              	.LBB124:
 311:My_Top/Motor_Control/DcMotor_ClosedLoop.cpp ****       //µ¢╣Õ╝Å1 õĮÄķĆÜµ╗żµ│ó µø┤µ¢░µ£║µó░Ķ¦ÆÕ║”ķĆ¤Õ║”
 1751              		.loc 1 311 7 is_stmt 1 view .LVU506
 1752              	.LBB125:
 311:My_Top/Motor_Control/DcMotor_ClosedLoop.cpp ****       //µ¢╣Õ╝Å1 õĮÄķĆÜµ╗żµ│ó µø┤µ¢░µ£║µó░Ķ¦ÆÕ║”ķĆ¤Õ║”
 1753              		.loc 1 311 17 view .LVU507
 1754 0794 10EE100A 		vmov	r0, s0
 1755 0798 FFF7FEFF 		bl	__aeabi_f2d
 1756              	.LVL124:
 1757 079c 4EA3     		adr	r3, .L102
 1758 079e D3E90023 		ldrd	r2, [r3]
 1759 07a2 FFF7FEFF 		bl	__aeabi_dadd
 1760              	.LVL125:
 1761 07a6 FFF7FEFF 		bl	__aeabi_d2f
 1762              	.LVL126:
 1763 07aa DFED500A 		vldr.32	s1, .L102+20
 1764 07ae 00EE100A 		vmov	s0, r0
 1765 07b2 FFF7FEFF 		bl	fmodf
 1766              	.LVL127:
 311:My_Top/Motor_Control/DcMotor_ClosedLoop.cpp ****       //µ¢╣Õ╝Å1 õĮÄķĆÜµ╗żµ│ó µø┤µ¢░µ£║µó░Ķ¦ÆÕ║”ķĆ¤Õ║”
 1767              		.loc 1 311 17 discriminator 1 view .LVU508
 1768 07b6 B5EEC00A 		vcmpe.f32	s0, #0
 1769 07ba F1EE10FA 		vmrs	APSR_nzcv, FPSCR
 1770 07be 63D4     		bmi	.L100
 1771              	.LVL128:
 1772              	.L92:
 311:My_Top/Motor_Control/DcMotor_ClosedLoop.cpp ****       //µ¢╣Õ╝Å1 õĮÄķĆÜµ╗żµ│ó µø┤µ¢░µ£║µó░Ķ¦ÆÕ║”ķĆ¤Õ║”
 1773              		.loc 1 311 17 discriminator 3 view .LVU509
 1774 07c0 10EE100A 		vmov	r0, s0
 1775 07c4 FFF7FEFF 		bl	__aeabi_f2d
 1776              	.LVL129:
 311:My_Top/Motor_Control/DcMotor_ClosedLoop.cpp ****       //µ¢╣Õ╝Å1 õĮÄķĆÜµ╗żµ│ó µø┤µ¢░µ£║µó░Ķ¦ÆÕ║”ķĆ¤Õ║”
 1777              		.loc 1 311 17 is_stmt 0 discriminator 3 view .LVU510
 1778 07c8 43A3     		adr	r3, .L102
 1779 07ca D3E90023 		ldrd	r2, [r3]
 1780 07ce FFF7FEFF 		bl	__aeabi_dsub
 1781              	.LVL130:
 1782              	.LBE125:
 1783 07d2 FFF7FEFF 		bl	__aeabi_d2f
 1784              	.LVL131:
ARM GAS  /tmp/ccBC5zcM.s 			page 51


 1785 07d6 07EE900A 		vmov	s15, r0
 311:My_Top/Motor_Control/DcMotor_ClosedLoop.cpp ****       //µ¢╣Õ╝Å1 õĮÄķĆÜµ╗żµ│ó µø┤µ¢░µ£║µó░Ķ¦ÆÕ║”ķĆ¤Õ║”
 1786              		.loc 1 311 15 discriminator 3 view .LVU511
 1787 07da 6061     		str	r0, [r4, #20]	@ float
 313:My_Top/Motor_Control/DcMotor_ClosedLoop.cpp ****       theta_m_last = theta_m; // µø┤µ¢░õĖŖõĖĆµ¼ĪńÜäµ£║µó░Ķ¦ÆÕ║”
 1788              		.loc 1 313 7 is_stmt 1 view .LVU512
 313:My_Top/Motor_Control/DcMotor_ClosedLoop.cpp ****       theta_m_last = theta_m; // µø┤µ¢░õĖŖõĖĆµ¼ĪńÜäµ£║µó░Ķ¦ÆÕ║”
 1789              		.loc 1 313 38 is_stmt 0 view .LVU513
 1790 07dc 94ED2E7A 		vldr.32	s14, [r4, #184]
 313:My_Top/Motor_Control/DcMotor_ClosedLoop.cpp ****       theta_m_last = theta_m; // µø┤µ¢░õĖŖõĖĆµ¼ĪńÜäµ£║µó░Ķ¦ÆÕ║”
 1791              		.loc 1 313 36 view .LVU514
 1792 07e0 37EEC77A 		vsub.f32	s14, s15, s14
 313:My_Top/Motor_Control/DcMotor_ClosedLoop.cpp ****       theta_m_last = theta_m; // µø┤µ¢░õĖŖõĖĆµ¼ĪńÜäµ£║µó░Ķ¦ÆÕ║”
 1793              		.loc 1 313 26 view .LVU515
 1794 07e4 424B     		ldr	r3, .L102+24
 1795 07e6 83ED007A 		vstr.32	s14, [r3]
 314:My_Top/Motor_Control/DcMotor_ClosedLoop.cpp ****       theta_m_offic = wrap_to_PI(theta_m_offic_temp);// Õ░åÕĘ«ÕĆ╝Ķ¦äµĢ┤Õł░ [-PI, PI) Õī║ķŚ┤
 1796              		.loc 1 314 7 is_stmt 1 view .LVU516
 314:My_Top/Motor_Control/DcMotor_ClosedLoop.cpp ****       theta_m_offic = wrap_to_PI(theta_m_offic_temp);// Õ░åÕĘ«ÕĆ╝Ķ¦äµĢ┤Õł░ [-PI, PI) Õī║ķŚ┤
 1797              		.loc 1 314 20 is_stmt 0 view .LVU517
 1798 07ea C4F8B800 		str	r0, [r4, #184]	@ float
 315:My_Top/Motor_Control/DcMotor_ClosedLoop.cpp **** 
 1799              		.loc 1 315 7 is_stmt 1 view .LVU518
 1800              	.LBB126:
 315:My_Top/Motor_Control/DcMotor_ClosedLoop.cpp **** 
 1801              		.loc 1 315 23 view .LVU519
 1802 07ee 17EE100A 		vmov	r0, s14
 1803 07f2 FFF7FEFF 		bl	__aeabi_f2d
 1804              	.LVL132:
 1805 07f6 38A3     		adr	r3, .L102
 1806 07f8 D3E90023 		ldrd	r2, [r3]
 1807 07fc FFF7FEFF 		bl	__aeabi_dadd
 1808              	.LVL133:
 1809 0800 FFF7FEFF 		bl	__aeabi_d2f
 1810              	.LVL134:
 1811 0804 DFED390A 		vldr.32	s1, .L102+20
 1812 0808 00EE100A 		vmov	s0, r0
 1813 080c FFF7FEFF 		bl	fmodf
 1814              	.LVL135:
 315:My_Top/Motor_Control/DcMotor_ClosedLoop.cpp **** 
 1815              		.loc 1 315 23 discriminator 1 view .LVU520
 1816 0810 B5EEC00A 		vcmpe.f32	s0, #0
 1817 0814 F1EE10FA 		vmrs	APSR_nzcv, FPSCR
 1818 0818 3BD4     		bmi	.L101
 1819              	.LVL136:
 1820              	.L94:
 315:My_Top/Motor_Control/DcMotor_ClosedLoop.cpp **** 
 1821              		.loc 1 315 23 discriminator 3 view .LVU521
 1822 081a 10EE100A 		vmov	r0, s0
 1823 081e FFF7FEFF 		bl	__aeabi_f2d
 1824              	.LVL137:
 315:My_Top/Motor_Control/DcMotor_ClosedLoop.cpp **** 
 1825              		.loc 1 315 23 is_stmt 0 discriminator 3 view .LVU522
 1826 0822 2DA3     		adr	r3, .L102
 1827 0824 D3E90023 		ldrd	r2, [r3]
 1828 0828 FFF7FEFF 		bl	__aeabi_dsub
 1829              	.LVL138:
ARM GAS  /tmp/ccBC5zcM.s 			page 52


 1830              	.LBE126:
 1831 082c FFF7FEFF 		bl	__aeabi_d2f
 1832              	.LVL139:
 1833 0830 00EE100A 		vmov	s0, r0
 315:My_Top/Motor_Control/DcMotor_ClosedLoop.cpp **** 
 1834              		.loc 1 315 21 discriminator 3 view .LVU523
 1835 0834 C4F8BC00 		str	r0, [r4, #188]	@ float
 317:My_Top/Motor_Control/DcMotor_ClosedLoop.cpp ****       theta_m_speed = theta_m_offic_filtered*DC_VELOCITY_LOOP_FREQ_HZ;//speed=ĶĘ»ń©ŗ/t 
 1836              		.loc 1 317 7 is_stmt 1 view .LVU524
 317:My_Top/Motor_Control/DcMotor_ClosedLoop.cpp ****       theta_m_speed = theta_m_offic_filtered*DC_VELOCITY_LOOP_FREQ_HZ;//speed=ĶĘ»ń©ŗ/t 
 1837              		.loc 1 317 48 is_stmt 0 view .LVU525
 1838 0838 04F17000 		add	r0, r4, #112
 1839 083c FFF7FEFF 		bl	_ZN13LowpassFilter6filterEf
 1840              	.LVL140:
 317:My_Top/Motor_Control/DcMotor_ClosedLoop.cpp ****       theta_m_speed = theta_m_offic_filtered*DC_VELOCITY_LOOP_FREQ_HZ;//speed=ĶĘ»ń©ŗ/t 
 1841              		.loc 1 317 30 discriminator 1 view .LVU526
 1842 0840 84ED300A 		vstr.32	s0, [r4, #192]
 318:My_Top/Motor_Control/DcMotor_ClosedLoop.cpp ****       theta_av_speed = speed_avg.filter(theta_m_speed);//Õ»╣ķĆ¤Õ║”Ķ┐øĶĪīÕ╣│ÕØćÕĆ╝µ╗żµ│ó
 1843              		.loc 1 318 7 is_stmt 1 view .LVU527
 318:My_Top/Motor_Control/DcMotor_ClosedLoop.cpp ****       theta_av_speed = speed_avg.filter(theta_m_speed);//Õ»╣ķĆ¤Õ║”Ķ┐øĶĪīÕ╣│ÕØćÕĆ╝µ╗żµ│ó
 1844              		.loc 1 318 45 is_stmt 0 view .LVU528
 1845 0844 DFED2B7A 		vldr.32	s15, .L102+28
 1846 0848 20EE270A 		vmul.f32	s0, s0, s15
 318:My_Top/Motor_Control/DcMotor_ClosedLoop.cpp ****       theta_av_speed = speed_avg.filter(theta_m_speed);//Õ»╣ķĆ¤Õ║”Ķ┐øĶĪīÕ╣│ÕØćÕĆ╝µ╗żµ│ó
 1847              		.loc 1 318 21 view .LVU529
 1848 084c 84ED060A 		vstr.32	s0, [r4, #24]
 319:My_Top/Motor_Control/DcMotor_ClosedLoop.cpp ****       filtered_speed = speed_lpf.filter(theta_av_speed);//Õ»╣ķĆ¤Õ║”Ķ┐øĶĪīõĮÄķĆÜµ╗żµ│ó
 1849              		.loc 1 319 7 is_stmt 1 view .LVU530
 319:My_Top/Motor_Control/DcMotor_ClosedLoop.cpp ****       filtered_speed = speed_lpf.filter(theta_av_speed);//Õ»╣ķĆ¤Õ║”Ķ┐øĶĪīõĮÄķĆÜµ╗żµ│ó
 1850              		.loc 1 319 40 is_stmt 0 view .LVU531
 1851 0850 04F17800 		add	r0, r4, #120
 1852 0854 FFF7FEFF 		bl	_ZN9AvgFilter6filterEf
 1853              	.LVL141:
 319:My_Top/Motor_Control/DcMotor_ClosedLoop.cpp ****       filtered_speed = speed_lpf.filter(theta_av_speed);//Õ»╣ķĆ¤Õ║”Ķ┐øĶĪīõĮÄķĆÜµ╗żµ│ó
 1854              		.loc 1 319 22 discriminator 1 view .LVU532
 1855 0858 84ED310A 		vstr.32	s0, [r4, #196]
 320:My_Top/Motor_Control/DcMotor_ClosedLoop.cpp ****       reg_final = theta_m; //Õ░åµ£║µó░Ķ¦ÆÕ║”ĶĄŗÕĆ╝ń╗Öµ£Ćń╗łĶ¦ÆÕ║”
 1856              		.loc 1 320 7 is_stmt 1 view .LVU533
 320:My_Top/Motor_Control/DcMotor_ClosedLoop.cpp ****       reg_final = theta_m; //Õ░åµ£║µó░Ķ¦ÆÕ║”ĶĄŗÕĆ╝ń╗Öµ£Ćń╗łĶ¦ÆÕ║”
 1857              		.loc 1 320 40 is_stmt 0 view .LVU534
 1858 085c 04F16800 		add	r0, r4, #104
 1859 0860 FFF7FEFF 		bl	_ZN13LowpassFilter6filterEf
 1860              	.LVL142:
 1861 0864 10EE105A 		vmov	r5, s0
 320:My_Top/Motor_Control/DcMotor_ClosedLoop.cpp ****       reg_final = theta_m; //Õ░åµ£║µó░Ķ¦ÆÕ║”ĶĄŗÕĆ╝ń╗Öµ£Ćń╗łĶ¦ÆÕ║”
 1862              		.loc 1 320 22 discriminator 1 view .LVU535
 1863 0868 84ED320A 		vstr.32	s0, [r4, #200]
 321:My_Top/Motor_Control/DcMotor_ClosedLoop.cpp ****       theta_deg_final = rad2deg(reg_final); //Õ░åÕ╝¦Õ║”ĶĮ¼µŹóõĖ║360Õ║”
 1864              		.loc 1 321 7 is_stmt 1 view .LVU536
 321:My_Top/Motor_Control/DcMotor_ClosedLoop.cpp ****       theta_deg_final = rad2deg(reg_final); //Õ░åÕ╝¦Õ║”ĶĮ¼µŹóõĖ║360Õ║”
 1865              		.loc 1 321 19 is_stmt 0 view .LVU537
 1866 086c 6069     		ldr	r0, [r4, #20]	@ float
 321:My_Top/Motor_Control/DcMotor_ClosedLoop.cpp ****       theta_deg_final = rad2deg(reg_final); //Õ░åÕ╝¦Õ║”ĶĮ¼µŹóõĖ║360Õ║”
 1867              		.loc 1 321 17 view .LVU538
 1868 086e E061     		str	r0, [r4, #28]	@ float
 322:My_Top/Motor_Control/DcMotor_ClosedLoop.cpp ****       Angular_velocity_final = filtered_speed;  //Õ░åµ£Ćń╗łķĆ¤Õ║”ĶĄŗÕĆ╝ń╗Öµ£Ćń╗łĶ¦ÆķĆ¤Õ║”
 1869              		.loc 1 322 7 is_stmt 1 view .LVU539
ARM GAS  /tmp/ccBC5zcM.s 			page 53


 322:My_Top/Motor_Control/DcMotor_ClosedLoop.cpp ****       Angular_velocity_final = filtered_speed;  //Õ░åµ£Ćń╗łķĆ¤Õ║”ĶĄŗÕĆ╝ń╗Öµ£Ćń╗łĶ¦ÆķĆ¤Õ║”
 1870              		.loc 1 322 25 is_stmt 0 view .LVU540
 1871 0870 FFF7FEFF 		bl	__aeabi_f2d
 1872              	.LVL143:
 1873 0874 1AA3     		adr	r3, .L102+8
 1874 0876 D3E90023 		ldrd	r2, [r3]
 1875 087a FFF7FEFF 		bl	__aeabi_dmul
 1876              	.LVL144:
 1877 087e FFF7FEFF 		bl	__aeabi_d2f
 1878              	.LVL145:
 322:My_Top/Motor_Control/DcMotor_ClosedLoop.cpp ****       Angular_velocity_final = filtered_speed;  //Õ░åµ£Ćń╗łķĆ¤Õ║”ĶĄŗÕĆ╝ń╗Öµ£Ćń╗łĶ¦ÆķĆ¤Õ║”
 1879              		.loc 1 322 23 view .LVU541
 1880 0882 2062     		str	r0, [r4, #32]	@ float
 323:My_Top/Motor_Control/DcMotor_ClosedLoop.cpp ****       
 1881              		.loc 1 323 7 is_stmt 1 view .LVU542
 323:My_Top/Motor_Control/DcMotor_ClosedLoop.cpp ****       
 1882              		.loc 1 323 30 is_stmt 0 view .LVU543
 1883 0884 6562     		str	r5, [r4, #36]	@ float
 1884              	.LVL146:
 1885              	.L90:
 323:My_Top/Motor_Control/DcMotor_ClosedLoop.cpp ****       
 1886              		.loc 1 323 30 view .LVU544
 1887              	.LBE124:
 1888              	.LBE123:
 335:My_Top/Motor_Control/DcMotor_ClosedLoop.cpp **** 
 1889              		.loc 1 335 1 view .LVU545
 1890 0886 38BD     		pop	{r3, r4, r5, pc}
 1891              	.LVL147:
 1892              	.L100:
 1893              	.LBB130:
 1894              	.LBB129:
 1895              	.LBB127:
 311:My_Top/Motor_Control/DcMotor_ClosedLoop.cpp ****       //µ¢╣Õ╝Å1 õĮÄķĆÜµ╗żµ│ó µø┤µ¢░µ£║µó░Ķ¦ÆÕ║”ķĆ¤Õ║”
 1896              		.loc 1 311 17 is_stmt 1 discriminator 1 view .LVU546
 1897 0888 DFED187A 		vldr.32	s15, .L102+20
 1898 088c 30EE270A 		vadd.f32	s0, s0, s15
 1899              	.LVL148:
 311:My_Top/Motor_Control/DcMotor_ClosedLoop.cpp ****       //µ¢╣Õ╝Å1 õĮÄķĆÜµ╗żµ│ó µø┤µ¢░µ£║µó░Ķ¦ÆÕ║”ķĆ¤Õ║”
 1900              		.loc 1 311 17 is_stmt 0 discriminator 1 view .LVU547
 1901 0890 96E7     		b	.L92
 1902              	.LVL149:
 1903              	.L101:
 311:My_Top/Motor_Control/DcMotor_ClosedLoop.cpp ****       //µ¢╣Õ╝Å1 õĮÄķĆÜµ╗żµ│ó µø┤µ¢░µ£║µó░Ķ¦ÆÕ║”ķĆ¤Õ║”
 1904              		.loc 1 311 17 discriminator 1 view .LVU548
 1905              	.LBE127:
 1906              	.LBB128:
 315:My_Top/Motor_Control/DcMotor_ClosedLoop.cpp **** 
 1907              		.loc 1 315 23 is_stmt 1 discriminator 1 view .LVU549
 1908 0892 DFED167A 		vldr.32	s15, .L102+20
 1909 0896 30EE270A 		vadd.f32	s0, s0, s15
 1910              	.LVL150:
 315:My_Top/Motor_Control/DcMotor_ClosedLoop.cpp **** 
 1911              		.loc 1 315 23 is_stmt 0 discriminator 1 view .LVU550
 1912 089a BEE7     		b	.L94
 1913              	.LVL151:
 1914              	.L91:
 315:My_Top/Motor_Control/DcMotor_ClosedLoop.cpp **** 
ARM GAS  /tmp/ccBC5zcM.s 			page 54


 1915              		.loc 1 315 23 discriminator 1 view .LVU551
 1916              	.LBE128:
 1917              	.LBE129:
 325:My_Top/Motor_Control/DcMotor_ClosedLoop.cpp ****     {
 1918              		.loc 1 325 11 is_stmt 1 view .LVU552
 328:My_Top/Motor_Control/DcMotor_ClosedLoop.cpp ****       foc_pll_run(theta_m,PLL_FREQ_Dt,&_pll_reg_out,&_pll_Angular_velocity,&_pll_conf); //µø┤µ¢░PLL
 1919              		.loc 1 328 7 view .LVU553
 328:My_Top/Motor_Control/DcMotor_ClosedLoop.cpp ****       foc_pll_run(theta_m,PLL_FREQ_Dt,&_pll_reg_out,&_pll_Angular_velocity,&_pll_conf); //µø┤µ¢░PLL
 1920              		.loc 1 328 15 is_stmt 0 view .LVU554
 1921 089c 84ED050A 		vstr.32	s0, [r4, #20]
 329:My_Top/Motor_Control/DcMotor_ClosedLoop.cpp ****       reg_final = _pll_reg_out; //Õ░åPLLķöüńøĖńÄ»ńÜäĶŠōÕć║Ķ¦ÆÕ║”ĶĄŗÕĆ╝ń╗Öµ£Ćń╗łĶ¦ÆÕ║”
 1922              		.loc 1 329 7 is_stmt 1 view .LVU555
 329:My_Top/Motor_Control/DcMotor_ClosedLoop.cpp ****       reg_final = _pll_reg_out; //Õ░åPLLķöüńøĖńÄ»ńÜäĶŠōÕć║Ķ¦ÆÕ║”ĶĄŗÕĆ╝ń╗Öµ£Ćń╗łĶ¦ÆÕ║”
 1923              		.loc 1 329 18 is_stmt 0 view .LVU556
 1924 08a0 04F1D802 		add	r2, r4, #216
 1925 08a4 04F1D001 		add	r1, r4, #208
 1926 08a8 04F1CC00 		add	r0, r4, #204
 1927 08ac DFED120A 		vldr.32	s1, .L102+32
 1928 08b0 FFF7FEFF 		bl	_Z11foc_pll_runffPfS_P13PLL_Parameter
 1929              	.LVL152:
 330:My_Top/Motor_Control/DcMotor_ClosedLoop.cpp ****       theta_deg_final = rad2deg(reg_final); //Õ░åÕ╝¦Õ║”ĶĮ¼µŹóõĖ║360Õ║”
 1930              		.loc 1 330 7 is_stmt 1 view .LVU557
 330:My_Top/Motor_Control/DcMotor_ClosedLoop.cpp ****       theta_deg_final = rad2deg(reg_final); //Õ░åÕ╝¦Õ║”ĶĮ¼µŹóõĖ║360Õ║”
 1931              		.loc 1 330 19 is_stmt 0 view .LVU558
 1932 08b4 D4F8CC00 		ldr	r0, [r4, #204]	@ float
 330:My_Top/Motor_Control/DcMotor_ClosedLoop.cpp ****       theta_deg_final = rad2deg(reg_final); //Õ░åÕ╝¦Õ║”ĶĮ¼µŹóõĖ║360Õ║”
 1933              		.loc 1 330 17 view .LVU559
 1934 08b8 E061     		str	r0, [r4, #28]	@ float
 331:My_Top/Motor_Control/DcMotor_ClosedLoop.cpp ****       Angular_velocity_final = _pll_Angular_velocity; //Õ░åµ£Ćń╗łķĆ¤Õ║”ĶĄŗÕĆ╝ń╗Öµ£Ćń╗łĶ¦ÆķĆ¤Õ║”
 1935              		.loc 1 331 7 is_stmt 1 view .LVU560
 331:My_Top/Motor_Control/DcMotor_ClosedLoop.cpp ****       Angular_velocity_final = _pll_Angular_velocity; //Õ░åµ£Ćń╗łķĆ¤Õ║”ĶĄŗÕĆ╝ń╗Öµ£Ćń╗łĶ¦ÆķĆ¤Õ║”
 1936              		.loc 1 331 25 is_stmt 0 view .LVU561
 1937 08ba FFF7FEFF 		bl	__aeabi_f2d
 1938              	.LVL153:
 1939 08be 08A3     		adr	r3, .L102+8
 1940 08c0 D3E90023 		ldrd	r2, [r3]
 1941 08c4 FFF7FEFF 		bl	__aeabi_dmul
 1942              	.LVL154:
 1943 08c8 FFF7FEFF 		bl	__aeabi_d2f
 1944              	.LVL155:
 331:My_Top/Motor_Control/DcMotor_ClosedLoop.cpp ****       Angular_velocity_final = _pll_Angular_velocity; //Õ░åµ£Ćń╗łķĆ¤Õ║”ĶĄŗÕĆ╝ń╗Öµ£Ćń╗łĶ¦ÆķĆ¤Õ║”
 1945              		.loc 1 331 23 view .LVU562
 1946 08cc 2062     		str	r0, [r4, #32]	@ float
 332:My_Top/Motor_Control/DcMotor_ClosedLoop.cpp ****     }
 1947              		.loc 1 332 7 is_stmt 1 view .LVU563
 332:My_Top/Motor_Control/DcMotor_ClosedLoop.cpp ****     }
 1948              		.loc 1 332 32 is_stmt 0 view .LVU564
 1949 08ce D4F8D030 		ldr	r3, [r4, #208]	@ float
 332:My_Top/Motor_Control/DcMotor_ClosedLoop.cpp ****     }
 1950              		.loc 1 332 30 view .LVU565
 1951 08d2 6362     		str	r3, [r4, #36]	@ float
 1952              	.LBE130:
 335:My_Top/Motor_Control/DcMotor_ClosedLoop.cpp **** 
 1953              		.loc 1 335 1 view .LVU566
 1954 08d4 D7E7     		b	.L90
 1955              	.L103:
 1956 08d6 00BF     		.align	3
ARM GAS  /tmp/ccBC5zcM.s 			page 55


 1957              	.L102:
 1958 08d8 182D4454 		.word	1413754136
 1959 08dc FB210940 		.word	1074340347
 1960 08e0 F8C1631A 		.word	442745336
 1961 08e4 DCA54C40 		.word	1078765020
 1962 08e8 B0050000 		.word	.LANCHOR0+1456
 1963 08ec DB0FC940 		.word	1086918619
 1964 08f0 B4050000 		.word	.LANCHOR0+1460
 1965 08f4 00007A45 		.word	1165623296
 1966 08f8 6F128339 		.word	964891247
 1967              		.cfi_endproc
 1968              	.LFE1358:
 1970              		.align	1
 1971              		.global	_ZN8DC_Motor10Speed_LoopEv
 1972              		.syntax unified
 1973              		.thumb
 1974              		.thumb_func
 1976              	_ZN8DC_Motor10Speed_LoopEv:
 1977              	.LVL156:
 1978              	.LFB1359:
 339:My_Top/Motor_Control/DcMotor_ClosedLoop.cpp ****     float _delta_pwm = 0.0f; //Ķ«Īń«ŚPIDÕó×ķćÅ
 1979              		.loc 1 339 1 is_stmt 1 view -0
 1980              		.cfi_startproc
 1981              		@ args = 0, pretend = 0, frame = 0
 1982              		@ frame_needed = 0, uses_anonymous_args = 0
 339:My_Top/Motor_Control/DcMotor_ClosedLoop.cpp ****     float _delta_pwm = 0.0f; //Ķ«Īń«ŚPIDÕó×ķćÅ
 1983              		.loc 1 339 1 is_stmt 0 view .LVU568
 1984 08fc 10B5     		push	{r4, lr}
 1985              		.cfi_def_cfa_offset 8
 1986              		.cfi_offset 4, -8
 1987              		.cfi_offset 14, -4
 1988 08fe 0446     		mov	r4, r0
 340:My_Top/Motor_Control/DcMotor_ClosedLoop.cpp ****     float error_speed = _target_speed - Angular_velocity_final; //Ķ«Īń«ŚķĆ¤Õ║”Ķ»»ÕĘ«
 1989              		.loc 1 340 5 is_stmt 1 view .LVU569
 1990              	.LVL157:
 341:My_Top/Motor_Control/DcMotor_ClosedLoop.cpp **** 
 1991              		.loc 1 341 5 view .LVU570
 341:My_Top/Motor_Control/DcMotor_ClosedLoop.cpp **** 
 1992              		.loc 1 341 25 is_stmt 0 view .LVU571
 1993 0900 90ED0B0A 		vldr.32	s0, [r0, #44]
 341:My_Top/Motor_Control/DcMotor_ClosedLoop.cpp **** 
 1994              		.loc 1 341 41 view .LVU572
 1995 0904 D0ED097A 		vldr.32	s15, [r0, #36]
 1996              	.LVL158:
 343:My_Top/Motor_Control/DcMotor_ClosedLoop.cpp ****     updown_duty += _delta_pwm; //µø┤µ¢░ńöĄµ£║ÕŹĀń®║µ»ö
 1997              		.loc 1 343 5 is_stmt 1 view .LVU573
 343:My_Top/Motor_Control/DcMotor_ClosedLoop.cpp ****     updown_duty += _delta_pwm; //µø┤µ¢░ńöĄµ£║ÕŹĀń®║µ»ö
 1998              		.loc 1 343 44 is_stmt 0 view .LVU574
 1999 0908 30EE670A 		vsub.f32	s0, s0, s15
 2000              	.LVL159:
 343:My_Top/Motor_Control/DcMotor_ClosedLoop.cpp ****     updown_duty += _delta_pwm; //µø┤µ¢░ńöĄµ£║ÕŹĀń®║µ»ö
 2001              		.loc 1 343 44 view .LVU575
 2002 090c 006C     		ldr	r0, [r0, #64]
 2003              	.LVL160:
 343:My_Top/Motor_Control/DcMotor_ClosedLoop.cpp ****     updown_duty += _delta_pwm; //µø┤µ¢░ńöĄµ£║ÕŹĀń®║µ»ö
 2004              		.loc 1 343 44 view .LVU576
 2005 090e FFF7FEFF 		bl	_ZN13PID_Increment6updateEf
ARM GAS  /tmp/ccBC5zcM.s 			page 56


 2006              	.LVL161:
 344:My_Top/Motor_Control/DcMotor_ClosedLoop.cpp ****     Set_Motor_Glo_Duty(); //Ķ«ŠńĮ«ńöĄµ£║Õģ©Õ▒ĆÕŹĀń®║µ»ö
 2007              		.loc 1 344 5 is_stmt 1 view .LVU577
 2008 0912 D4ED047A 		vldr.32	s15, [r4, #16]
 344:My_Top/Motor_Control/DcMotor_ClosedLoop.cpp ****     Set_Motor_Glo_Duty(); //Ķ«ŠńĮ«ńöĄµ£║Õģ©Õ▒ĆÕŹĀń®║µ»ö
 2009              		.loc 1 344 17 is_stmt 0 view .LVU578
 2010 0916 77EE807A 		vadd.f32	s15, s15, s0
 2011 091a C4ED047A 		vstr.32	s15, [r4, #16]
 345:My_Top/Motor_Control/DcMotor_ClosedLoop.cpp **** }
 2012              		.loc 1 345 5 is_stmt 1 view .LVU579
 345:My_Top/Motor_Control/DcMotor_ClosedLoop.cpp **** }
 2013              		.loc 1 345 23 is_stmt 0 view .LVU580
 2014 091e 2046     		mov	r0, r4
 2015 0920 FFF7FEFF 		bl	_ZN8DC_Motor18Set_Motor_Glo_DutyEv
 2016              	.LVL162:
 346:My_Top/Motor_Control/DcMotor_ClosedLoop.cpp **** 
 2017              		.loc 1 346 1 view .LVU581
 2018 0924 10BD     		pop	{r4, pc}
 346:My_Top/Motor_Control/DcMotor_ClosedLoop.cpp **** 
 2019              		.loc 1 346 1 view .LVU582
 2020              		.cfi_endproc
 2021              	.LFE1359:
 2023              		.align	1
 2024              		.global	_ZN8DC_Motor13Location_LoopEv
 2025              		.syntax unified
 2026              		.thumb
 2027              		.thumb_func
 2029              	_ZN8DC_Motor13Location_LoopEv:
 2030              	.LVL163:
 2031              	.LFB1360:
 384:My_Top/Motor_Control/DcMotor_ClosedLoop.cpp ****     float pos_error = wrap_to_PI(deg2rad(_target_location2) - reg_final);  // Ķ«Īń«ŚÕĮōÕēŹõĮŹńĮ«Ķ»»
 2032              		.loc 1 384 1 is_stmt 1 view -0
 2033              		.cfi_startproc
 2034              		@ args = 0, pretend = 0, frame = 0
 2035              		@ frame_needed = 0, uses_anonymous_args = 0
 384:My_Top/Motor_Control/DcMotor_ClosedLoop.cpp ****     float pos_error = wrap_to_PI(deg2rad(_target_location2) - reg_final);  // Ķ«Īń«ŚÕĮōÕēŹõĮŹńĮ«Ķ»»
 2036              		.loc 1 384 1 is_stmt 0 view .LVU584
 2037 0926 D0B5     		push	{r4, r6, r7, lr}
 2038              		.cfi_def_cfa_offset 16
 2039              		.cfi_offset 4, -16
 2040              		.cfi_offset 6, -12
 2041              		.cfi_offset 7, -8
 2042              		.cfi_offset 14, -4
 2043 0928 2DED048B 		vpush.64	{d8, d9}
 2044              		.cfi_def_cfa_offset 32
 2045              		.cfi_offset 80, -32
 2046              		.cfi_offset 81, -28
 2047              		.cfi_offset 82, -24
 2048              		.cfi_offset 83, -20
 2049 092c 0446     		mov	r4, r0
 385:My_Top/Motor_Control/DcMotor_ClosedLoop.cpp **** 
 2050              		.loc 1 385 5 is_stmt 1 view .LVU585
 2051              	.LBB131:
 385:My_Top/Motor_Control/DcMotor_ClosedLoop.cpp **** 
 2052              		.loc 1 385 23 view .LVU586
 2053 092e 006B     		ldr	r0, [r0, #48]	@ float
 2054              	.LVL164:
ARM GAS  /tmp/ccBC5zcM.s 			page 57


 385:My_Top/Motor_Control/DcMotor_ClosedLoop.cpp **** 
 2055              		.loc 1 385 23 is_stmt 0 view .LVU587
 2056 0930 FFF7FEFF 		bl	__aeabi_f2d
 2057              	.LVL165:
 2058 0934 79A3     		adr	r3, .L141+44
 2059 0936 D3E90023 		ldrd	r2, [r3]
 2060 093a FFF7FEFF 		bl	__aeabi_dmul
 2061              	.LVL166:
 2062 093e 0646     		mov	r6, r0
 2063 0940 0F46     		mov	r7, r1
 2064 0942 E069     		ldr	r0, [r4, #28]	@ float
 2065 0944 FFF7FEFF 		bl	__aeabi_f2d
 2066              	.LVL167:
 2067 0948 0246     		mov	r2, r0
 2068 094a 0B46     		mov	r3, r1
 2069 094c 3046     		mov	r0, r6
 2070 094e 3946     		mov	r1, r7
 2071 0950 FFF7FEFF 		bl	__aeabi_dsub
 2072              	.LVL168:
 2073 0954 66A3     		adr	r3, .L141
 2074 0956 D3E90023 		ldrd	r2, [r3]
 2075 095a FFF7FEFF 		bl	__aeabi_dadd
 2076              	.LVL169:
 2077 095e FFF7FEFF 		bl	__aeabi_d2f
 2078              	.LVL170:
 2079 0962 DFED6B0A 		vldr.32	s1, .L141+32
 2080 0966 00EE100A 		vmov	s0, r0
 2081 096a FFF7FEFF 		bl	fmodf
 2082              	.LVL171:
 385:My_Top/Motor_Control/DcMotor_ClosedLoop.cpp **** 
 2083              		.loc 1 385 23 is_stmt 1 discriminator 1 view .LVU588
 2084 096e B5EEC00A 		vcmpe.f32	s0, #0
 2085 0972 F1EE10FA 		vmrs	APSR_nzcv, FPSCR
 2086 0976 23D4     		bmi	.L139
 2087              	.LVL172:
 2088              	.L107:
 385:My_Top/Motor_Control/DcMotor_ClosedLoop.cpp **** 
 2089              		.loc 1 385 23 discriminator 3 view .LVU589
 2090 0978 10EE100A 		vmov	r0, s0
 2091 097c FFF7FEFF 		bl	__aeabi_f2d
 2092              	.LVL173:
 385:My_Top/Motor_Control/DcMotor_ClosedLoop.cpp **** 
 2093              		.loc 1 385 23 is_stmt 0 discriminator 3 view .LVU590
 2094 0980 5BA3     		adr	r3, .L141
 2095 0982 D3E90023 		ldrd	r2, [r3]
 2096 0986 FFF7FEFF 		bl	__aeabi_dsub
 2097              	.LVL174:
 2098              	.LBE131:
 2099 098a FFF7FEFF 		bl	__aeabi_d2f
 2100              	.LVL175:
 2101 098e 08EE100A 		vmov	s16, r0
 2102              	.LVL176:
 387:My_Top/Motor_Control/DcMotor_ClosedLoop.cpp **** 
 2103              		.loc 1 387 5 is_stmt 1 view .LVU591
 2104              	.LBB132:
 2105              	.LBI132:
 2106              		.file 8 "/opt/arm-gnu-toolchain-14.2/arm-none-eabi/include/c++/14.2.1/cmath"
ARM GAS  /tmp/ccBC5zcM.s 			page 58


   1:/opt/arm-gnu-toolchain-14.2/arm-none-eabi/include/c++/14.2.1/cmath **** // -*- C++ -*- C forwarding header.
   2:/opt/arm-gnu-toolchain-14.2/arm-none-eabi/include/c++/14.2.1/cmath **** 
   3:/opt/arm-gnu-toolchain-14.2/arm-none-eabi/include/c++/14.2.1/cmath **** // Copyright (C) 1997-2024 Free Software Foundation, Inc.
   4:/opt/arm-gnu-toolchain-14.2/arm-none-eabi/include/c++/14.2.1/cmath **** //
   5:/opt/arm-gnu-toolchain-14.2/arm-none-eabi/include/c++/14.2.1/cmath **** // This file is part of the GNU ISO C++ Library.  This library is free
   6:/opt/arm-gnu-toolchain-14.2/arm-none-eabi/include/c++/14.2.1/cmath **** // software; you can redistribute it and/or modify it under the
   7:/opt/arm-gnu-toolchain-14.2/arm-none-eabi/include/c++/14.2.1/cmath **** // terms of the GNU General Public License as published by the
   8:/opt/arm-gnu-toolchain-14.2/arm-none-eabi/include/c++/14.2.1/cmath **** // Free Software Foundation; either version 3, or (at your option)
   9:/opt/arm-gnu-toolchain-14.2/arm-none-eabi/include/c++/14.2.1/cmath **** // any later version.
  10:/opt/arm-gnu-toolchain-14.2/arm-none-eabi/include/c++/14.2.1/cmath **** 
  11:/opt/arm-gnu-toolchain-14.2/arm-none-eabi/include/c++/14.2.1/cmath **** // This library is distributed in the hope that it will be useful,
  12:/opt/arm-gnu-toolchain-14.2/arm-none-eabi/include/c++/14.2.1/cmath **** // but WITHOUT ANY WARRANTY; without even the implied warranty of
  13:/opt/arm-gnu-toolchain-14.2/arm-none-eabi/include/c++/14.2.1/cmath **** // MERCHANTABILITY or FITNESS FOR A PARTICULAR PURPOSE.  See the
  14:/opt/arm-gnu-toolchain-14.2/arm-none-eabi/include/c++/14.2.1/cmath **** // GNU General Public License for more details.
  15:/opt/arm-gnu-toolchain-14.2/arm-none-eabi/include/c++/14.2.1/cmath **** 
  16:/opt/arm-gnu-toolchain-14.2/arm-none-eabi/include/c++/14.2.1/cmath **** // Under Section 7 of GPL version 3, you are granted additional
  17:/opt/arm-gnu-toolchain-14.2/arm-none-eabi/include/c++/14.2.1/cmath **** // permissions described in the GCC Runtime Library Exception, version
  18:/opt/arm-gnu-toolchain-14.2/arm-none-eabi/include/c++/14.2.1/cmath **** // 3.1, as published by the Free Software Foundation.
  19:/opt/arm-gnu-toolchain-14.2/arm-none-eabi/include/c++/14.2.1/cmath **** 
  20:/opt/arm-gnu-toolchain-14.2/arm-none-eabi/include/c++/14.2.1/cmath **** // You should have received a copy of the GNU General Public License and
  21:/opt/arm-gnu-toolchain-14.2/arm-none-eabi/include/c++/14.2.1/cmath **** // a copy of the GCC Runtime Library Exception along with this program;
  22:/opt/arm-gnu-toolchain-14.2/arm-none-eabi/include/c++/14.2.1/cmath **** // see the files COPYING3 and COPYING.RUNTIME respectively.  If not, see
  23:/opt/arm-gnu-toolchain-14.2/arm-none-eabi/include/c++/14.2.1/cmath **** // <http://www.gnu.org/licenses/>.
  24:/opt/arm-gnu-toolchain-14.2/arm-none-eabi/include/c++/14.2.1/cmath **** 
  25:/opt/arm-gnu-toolchain-14.2/arm-none-eabi/include/c++/14.2.1/cmath **** /** @file include/cmath
  26:/opt/arm-gnu-toolchain-14.2/arm-none-eabi/include/c++/14.2.1/cmath ****  *  This is a Standard C++ Library file.  You should @c \#include this file
  27:/opt/arm-gnu-toolchain-14.2/arm-none-eabi/include/c++/14.2.1/cmath ****  *  in your programs, rather than any of the @a *.h implementation files.
  28:/opt/arm-gnu-toolchain-14.2/arm-none-eabi/include/c++/14.2.1/cmath ****  *
  29:/opt/arm-gnu-toolchain-14.2/arm-none-eabi/include/c++/14.2.1/cmath ****  *  This is the C++ version of the Standard C Library header @c math.h,
  30:/opt/arm-gnu-toolchain-14.2/arm-none-eabi/include/c++/14.2.1/cmath ****  *  and its contents are (mostly) the same as that header, but are all
  31:/opt/arm-gnu-toolchain-14.2/arm-none-eabi/include/c++/14.2.1/cmath ****  *  contained in the namespace @c std (except for names which are defined
  32:/opt/arm-gnu-toolchain-14.2/arm-none-eabi/include/c++/14.2.1/cmath ****  *  as macros in C).
  33:/opt/arm-gnu-toolchain-14.2/arm-none-eabi/include/c++/14.2.1/cmath ****  */
  34:/opt/arm-gnu-toolchain-14.2/arm-none-eabi/include/c++/14.2.1/cmath **** 
  35:/opt/arm-gnu-toolchain-14.2/arm-none-eabi/include/c++/14.2.1/cmath **** //
  36:/opt/arm-gnu-toolchain-14.2/arm-none-eabi/include/c++/14.2.1/cmath **** // ISO C++ 14882: 26.5  C library
  37:/opt/arm-gnu-toolchain-14.2/arm-none-eabi/include/c++/14.2.1/cmath **** //
  38:/opt/arm-gnu-toolchain-14.2/arm-none-eabi/include/c++/14.2.1/cmath **** 
  39:/opt/arm-gnu-toolchain-14.2/arm-none-eabi/include/c++/14.2.1/cmath **** #pragma GCC system_header
  40:/opt/arm-gnu-toolchain-14.2/arm-none-eabi/include/c++/14.2.1/cmath **** 
  41:/opt/arm-gnu-toolchain-14.2/arm-none-eabi/include/c++/14.2.1/cmath **** #include <bits/requires_hosted.h>
  42:/opt/arm-gnu-toolchain-14.2/arm-none-eabi/include/c++/14.2.1/cmath **** 
  43:/opt/arm-gnu-toolchain-14.2/arm-none-eabi/include/c++/14.2.1/cmath **** #include <bits/c++config.h>
  44:/opt/arm-gnu-toolchain-14.2/arm-none-eabi/include/c++/14.2.1/cmath **** #include <bits/cpp_type_traits.h>
  45:/opt/arm-gnu-toolchain-14.2/arm-none-eabi/include/c++/14.2.1/cmath **** #include <ext/type_traits.h>
  46:/opt/arm-gnu-toolchain-14.2/arm-none-eabi/include/c++/14.2.1/cmath **** #define _GLIBCXX_INCLUDE_NEXT_C_HEADERS
  47:/opt/arm-gnu-toolchain-14.2/arm-none-eabi/include/c++/14.2.1/cmath **** #include_next <math.h>
  48:/opt/arm-gnu-toolchain-14.2/arm-none-eabi/include/c++/14.2.1/cmath **** #undef _GLIBCXX_INCLUDE_NEXT_C_HEADERS
  49:/opt/arm-gnu-toolchain-14.2/arm-none-eabi/include/c++/14.2.1/cmath **** #include <bits/std_abs.h>
  50:/opt/arm-gnu-toolchain-14.2/arm-none-eabi/include/c++/14.2.1/cmath **** 
  51:/opt/arm-gnu-toolchain-14.2/arm-none-eabi/include/c++/14.2.1/cmath **** #ifndef _GLIBCXX_CMATH
  52:/opt/arm-gnu-toolchain-14.2/arm-none-eabi/include/c++/14.2.1/cmath **** #define _GLIBCXX_CMATH 1
  53:/opt/arm-gnu-toolchain-14.2/arm-none-eabi/include/c++/14.2.1/cmath **** 
  54:/opt/arm-gnu-toolchain-14.2/arm-none-eabi/include/c++/14.2.1/cmath **** #define __glibcxx_want_hypot
  55:/opt/arm-gnu-toolchain-14.2/arm-none-eabi/include/c++/14.2.1/cmath **** #define __glibcxx_want_interpolate
  56:/opt/arm-gnu-toolchain-14.2/arm-none-eabi/include/c++/14.2.1/cmath **** #include <bits/version.h>
  57:/opt/arm-gnu-toolchain-14.2/arm-none-eabi/include/c++/14.2.1/cmath **** 
ARM GAS  /tmp/ccBC5zcM.s 			page 59


  58:/opt/arm-gnu-toolchain-14.2/arm-none-eabi/include/c++/14.2.1/cmath **** // Get rid of those macros defined in <math.h> in lieu of real functions.
  59:/opt/arm-gnu-toolchain-14.2/arm-none-eabi/include/c++/14.2.1/cmath **** #undef div
  60:/opt/arm-gnu-toolchain-14.2/arm-none-eabi/include/c++/14.2.1/cmath **** #undef acos
  61:/opt/arm-gnu-toolchain-14.2/arm-none-eabi/include/c++/14.2.1/cmath **** #undef asin
  62:/opt/arm-gnu-toolchain-14.2/arm-none-eabi/include/c++/14.2.1/cmath **** #undef atan
  63:/opt/arm-gnu-toolchain-14.2/arm-none-eabi/include/c++/14.2.1/cmath **** #undef atan2
  64:/opt/arm-gnu-toolchain-14.2/arm-none-eabi/include/c++/14.2.1/cmath **** #undef ceil
  65:/opt/arm-gnu-toolchain-14.2/arm-none-eabi/include/c++/14.2.1/cmath **** #undef cos
  66:/opt/arm-gnu-toolchain-14.2/arm-none-eabi/include/c++/14.2.1/cmath **** #undef cosh
  67:/opt/arm-gnu-toolchain-14.2/arm-none-eabi/include/c++/14.2.1/cmath **** #undef exp
  68:/opt/arm-gnu-toolchain-14.2/arm-none-eabi/include/c++/14.2.1/cmath **** #undef fabs
  69:/opt/arm-gnu-toolchain-14.2/arm-none-eabi/include/c++/14.2.1/cmath **** #undef floor
  70:/opt/arm-gnu-toolchain-14.2/arm-none-eabi/include/c++/14.2.1/cmath **** #undef fmod
  71:/opt/arm-gnu-toolchain-14.2/arm-none-eabi/include/c++/14.2.1/cmath **** #undef frexp
  72:/opt/arm-gnu-toolchain-14.2/arm-none-eabi/include/c++/14.2.1/cmath **** #undef ldexp
  73:/opt/arm-gnu-toolchain-14.2/arm-none-eabi/include/c++/14.2.1/cmath **** #undef log
  74:/opt/arm-gnu-toolchain-14.2/arm-none-eabi/include/c++/14.2.1/cmath **** #undef log10
  75:/opt/arm-gnu-toolchain-14.2/arm-none-eabi/include/c++/14.2.1/cmath **** #undef modf
  76:/opt/arm-gnu-toolchain-14.2/arm-none-eabi/include/c++/14.2.1/cmath **** #undef pow
  77:/opt/arm-gnu-toolchain-14.2/arm-none-eabi/include/c++/14.2.1/cmath **** #undef sin
  78:/opt/arm-gnu-toolchain-14.2/arm-none-eabi/include/c++/14.2.1/cmath **** #undef sinh
  79:/opt/arm-gnu-toolchain-14.2/arm-none-eabi/include/c++/14.2.1/cmath **** #undef sqrt
  80:/opt/arm-gnu-toolchain-14.2/arm-none-eabi/include/c++/14.2.1/cmath **** #undef tan
  81:/opt/arm-gnu-toolchain-14.2/arm-none-eabi/include/c++/14.2.1/cmath **** #undef tanh
  82:/opt/arm-gnu-toolchain-14.2/arm-none-eabi/include/c++/14.2.1/cmath **** 
  83:/opt/arm-gnu-toolchain-14.2/arm-none-eabi/include/c++/14.2.1/cmath **** extern "C++"
  84:/opt/arm-gnu-toolchain-14.2/arm-none-eabi/include/c++/14.2.1/cmath **** {
  85:/opt/arm-gnu-toolchain-14.2/arm-none-eabi/include/c++/14.2.1/cmath **** namespace std _GLIBCXX_VISIBILITY(default)
  86:/opt/arm-gnu-toolchain-14.2/arm-none-eabi/include/c++/14.2.1/cmath **** {
  87:/opt/arm-gnu-toolchain-14.2/arm-none-eabi/include/c++/14.2.1/cmath **** _GLIBCXX_BEGIN_NAMESPACE_VERSION
  88:/opt/arm-gnu-toolchain-14.2/arm-none-eabi/include/c++/14.2.1/cmath **** 
  89:/opt/arm-gnu-toolchain-14.2/arm-none-eabi/include/c++/14.2.1/cmath ****   using ::acos;
  90:/opt/arm-gnu-toolchain-14.2/arm-none-eabi/include/c++/14.2.1/cmath **** 
  91:/opt/arm-gnu-toolchain-14.2/arm-none-eabi/include/c++/14.2.1/cmath **** #ifndef __CORRECT_ISO_CPP_MATH_H_PROTO
  92:/opt/arm-gnu-toolchain-14.2/arm-none-eabi/include/c++/14.2.1/cmath ****   inline _GLIBCXX_CONSTEXPR float
  93:/opt/arm-gnu-toolchain-14.2/arm-none-eabi/include/c++/14.2.1/cmath ****   acos(float __x)
  94:/opt/arm-gnu-toolchain-14.2/arm-none-eabi/include/c++/14.2.1/cmath ****   { return __builtin_acosf(__x); }
  95:/opt/arm-gnu-toolchain-14.2/arm-none-eabi/include/c++/14.2.1/cmath **** 
  96:/opt/arm-gnu-toolchain-14.2/arm-none-eabi/include/c++/14.2.1/cmath ****   inline _GLIBCXX_CONSTEXPR long double
  97:/opt/arm-gnu-toolchain-14.2/arm-none-eabi/include/c++/14.2.1/cmath ****   acos(long double __x)
  98:/opt/arm-gnu-toolchain-14.2/arm-none-eabi/include/c++/14.2.1/cmath ****   { return __builtin_acosl(__x); }
  99:/opt/arm-gnu-toolchain-14.2/arm-none-eabi/include/c++/14.2.1/cmath **** #endif
 100:/opt/arm-gnu-toolchain-14.2/arm-none-eabi/include/c++/14.2.1/cmath **** 
 101:/opt/arm-gnu-toolchain-14.2/arm-none-eabi/include/c++/14.2.1/cmath ****   template<typename _Tp>
 102:/opt/arm-gnu-toolchain-14.2/arm-none-eabi/include/c++/14.2.1/cmath ****     inline _GLIBCXX_CONSTEXPR
 103:/opt/arm-gnu-toolchain-14.2/arm-none-eabi/include/c++/14.2.1/cmath ****     typename __gnu_cxx::__enable_if<__is_integer<_Tp>::__value, 
 104:/opt/arm-gnu-toolchain-14.2/arm-none-eabi/include/c++/14.2.1/cmath ****                                     double>::__type
 105:/opt/arm-gnu-toolchain-14.2/arm-none-eabi/include/c++/14.2.1/cmath ****     acos(_Tp __x)
 106:/opt/arm-gnu-toolchain-14.2/arm-none-eabi/include/c++/14.2.1/cmath ****     { return __builtin_acos(__x); }
 107:/opt/arm-gnu-toolchain-14.2/arm-none-eabi/include/c++/14.2.1/cmath **** 
 108:/opt/arm-gnu-toolchain-14.2/arm-none-eabi/include/c++/14.2.1/cmath ****   using ::asin;
 109:/opt/arm-gnu-toolchain-14.2/arm-none-eabi/include/c++/14.2.1/cmath **** 
 110:/opt/arm-gnu-toolchain-14.2/arm-none-eabi/include/c++/14.2.1/cmath **** #ifndef __CORRECT_ISO_CPP_MATH_H_PROTO
 111:/opt/arm-gnu-toolchain-14.2/arm-none-eabi/include/c++/14.2.1/cmath ****   inline _GLIBCXX_CONSTEXPR float
 112:/opt/arm-gnu-toolchain-14.2/arm-none-eabi/include/c++/14.2.1/cmath ****   asin(float __x)
 113:/opt/arm-gnu-toolchain-14.2/arm-none-eabi/include/c++/14.2.1/cmath ****   { return __builtin_asinf(__x); }
 114:/opt/arm-gnu-toolchain-14.2/arm-none-eabi/include/c++/14.2.1/cmath **** 
ARM GAS  /tmp/ccBC5zcM.s 			page 60


 115:/opt/arm-gnu-toolchain-14.2/arm-none-eabi/include/c++/14.2.1/cmath ****   inline _GLIBCXX_CONSTEXPR long double
 116:/opt/arm-gnu-toolchain-14.2/arm-none-eabi/include/c++/14.2.1/cmath ****   asin(long double __x)
 117:/opt/arm-gnu-toolchain-14.2/arm-none-eabi/include/c++/14.2.1/cmath ****   { return __builtin_asinl(__x); }
 118:/opt/arm-gnu-toolchain-14.2/arm-none-eabi/include/c++/14.2.1/cmath **** #endif
 119:/opt/arm-gnu-toolchain-14.2/arm-none-eabi/include/c++/14.2.1/cmath **** 
 120:/opt/arm-gnu-toolchain-14.2/arm-none-eabi/include/c++/14.2.1/cmath ****   template<typename _Tp>
 121:/opt/arm-gnu-toolchain-14.2/arm-none-eabi/include/c++/14.2.1/cmath ****     inline _GLIBCXX_CONSTEXPR
 122:/opt/arm-gnu-toolchain-14.2/arm-none-eabi/include/c++/14.2.1/cmath ****     typename __gnu_cxx::__enable_if<__is_integer<_Tp>::__value,
 123:/opt/arm-gnu-toolchain-14.2/arm-none-eabi/include/c++/14.2.1/cmath ****                                     double>::__type
 124:/opt/arm-gnu-toolchain-14.2/arm-none-eabi/include/c++/14.2.1/cmath ****     asin(_Tp __x)
 125:/opt/arm-gnu-toolchain-14.2/arm-none-eabi/include/c++/14.2.1/cmath ****     { return __builtin_asin(__x); }
 126:/opt/arm-gnu-toolchain-14.2/arm-none-eabi/include/c++/14.2.1/cmath **** 
 127:/opt/arm-gnu-toolchain-14.2/arm-none-eabi/include/c++/14.2.1/cmath ****   using ::atan;
 128:/opt/arm-gnu-toolchain-14.2/arm-none-eabi/include/c++/14.2.1/cmath **** 
 129:/opt/arm-gnu-toolchain-14.2/arm-none-eabi/include/c++/14.2.1/cmath **** #ifndef __CORRECT_ISO_CPP_MATH_H_PROTO
 130:/opt/arm-gnu-toolchain-14.2/arm-none-eabi/include/c++/14.2.1/cmath ****   inline _GLIBCXX_CONSTEXPR float
 131:/opt/arm-gnu-toolchain-14.2/arm-none-eabi/include/c++/14.2.1/cmath ****   atan(float __x)
 132:/opt/arm-gnu-toolchain-14.2/arm-none-eabi/include/c++/14.2.1/cmath ****   { return __builtin_atanf(__x); }
 133:/opt/arm-gnu-toolchain-14.2/arm-none-eabi/include/c++/14.2.1/cmath **** 
 134:/opt/arm-gnu-toolchain-14.2/arm-none-eabi/include/c++/14.2.1/cmath ****   inline _GLIBCXX_CONSTEXPR long double
 135:/opt/arm-gnu-toolchain-14.2/arm-none-eabi/include/c++/14.2.1/cmath ****   atan(long double __x)
 136:/opt/arm-gnu-toolchain-14.2/arm-none-eabi/include/c++/14.2.1/cmath ****   { return __builtin_atanl(__x); }
 137:/opt/arm-gnu-toolchain-14.2/arm-none-eabi/include/c++/14.2.1/cmath **** #endif
 138:/opt/arm-gnu-toolchain-14.2/arm-none-eabi/include/c++/14.2.1/cmath **** 
 139:/opt/arm-gnu-toolchain-14.2/arm-none-eabi/include/c++/14.2.1/cmath ****   template<typename _Tp>
 140:/opt/arm-gnu-toolchain-14.2/arm-none-eabi/include/c++/14.2.1/cmath ****     inline _GLIBCXX_CONSTEXPR
 141:/opt/arm-gnu-toolchain-14.2/arm-none-eabi/include/c++/14.2.1/cmath ****     typename __gnu_cxx::__enable_if<__is_integer<_Tp>::__value,
 142:/opt/arm-gnu-toolchain-14.2/arm-none-eabi/include/c++/14.2.1/cmath ****                                     double>::__type
 143:/opt/arm-gnu-toolchain-14.2/arm-none-eabi/include/c++/14.2.1/cmath ****     atan(_Tp __x)
 144:/opt/arm-gnu-toolchain-14.2/arm-none-eabi/include/c++/14.2.1/cmath ****     { return __builtin_atan(__x); }
 145:/opt/arm-gnu-toolchain-14.2/arm-none-eabi/include/c++/14.2.1/cmath **** 
 146:/opt/arm-gnu-toolchain-14.2/arm-none-eabi/include/c++/14.2.1/cmath ****   using ::atan2;
 147:/opt/arm-gnu-toolchain-14.2/arm-none-eabi/include/c++/14.2.1/cmath **** 
 148:/opt/arm-gnu-toolchain-14.2/arm-none-eabi/include/c++/14.2.1/cmath **** #ifndef __CORRECT_ISO_CPP_MATH_H_PROTO
 149:/opt/arm-gnu-toolchain-14.2/arm-none-eabi/include/c++/14.2.1/cmath ****   inline _GLIBCXX_CONSTEXPR float
 150:/opt/arm-gnu-toolchain-14.2/arm-none-eabi/include/c++/14.2.1/cmath ****   atan2(float __y, float __x)
 151:/opt/arm-gnu-toolchain-14.2/arm-none-eabi/include/c++/14.2.1/cmath ****   { return __builtin_atan2f(__y, __x); }
 152:/opt/arm-gnu-toolchain-14.2/arm-none-eabi/include/c++/14.2.1/cmath **** 
 153:/opt/arm-gnu-toolchain-14.2/arm-none-eabi/include/c++/14.2.1/cmath ****   inline _GLIBCXX_CONSTEXPR long double
 154:/opt/arm-gnu-toolchain-14.2/arm-none-eabi/include/c++/14.2.1/cmath ****   atan2(long double __y, long double __x)
 155:/opt/arm-gnu-toolchain-14.2/arm-none-eabi/include/c++/14.2.1/cmath ****   { return __builtin_atan2l(__y, __x); }
 156:/opt/arm-gnu-toolchain-14.2/arm-none-eabi/include/c++/14.2.1/cmath **** #endif
 157:/opt/arm-gnu-toolchain-14.2/arm-none-eabi/include/c++/14.2.1/cmath **** 
 158:/opt/arm-gnu-toolchain-14.2/arm-none-eabi/include/c++/14.2.1/cmath ****   using ::ceil;
 159:/opt/arm-gnu-toolchain-14.2/arm-none-eabi/include/c++/14.2.1/cmath **** 
 160:/opt/arm-gnu-toolchain-14.2/arm-none-eabi/include/c++/14.2.1/cmath **** #ifndef __CORRECT_ISO_CPP_MATH_H_PROTO
 161:/opt/arm-gnu-toolchain-14.2/arm-none-eabi/include/c++/14.2.1/cmath ****   inline _GLIBCXX_CONSTEXPR float
 162:/opt/arm-gnu-toolchain-14.2/arm-none-eabi/include/c++/14.2.1/cmath ****   ceil(float __x)
 163:/opt/arm-gnu-toolchain-14.2/arm-none-eabi/include/c++/14.2.1/cmath ****   { return __builtin_ceilf(__x); }
 164:/opt/arm-gnu-toolchain-14.2/arm-none-eabi/include/c++/14.2.1/cmath **** 
 165:/opt/arm-gnu-toolchain-14.2/arm-none-eabi/include/c++/14.2.1/cmath ****   inline _GLIBCXX_CONSTEXPR long double
 166:/opt/arm-gnu-toolchain-14.2/arm-none-eabi/include/c++/14.2.1/cmath ****   ceil(long double __x)
 167:/opt/arm-gnu-toolchain-14.2/arm-none-eabi/include/c++/14.2.1/cmath ****   { return __builtin_ceill(__x); }
 168:/opt/arm-gnu-toolchain-14.2/arm-none-eabi/include/c++/14.2.1/cmath **** #endif
 169:/opt/arm-gnu-toolchain-14.2/arm-none-eabi/include/c++/14.2.1/cmath **** 
 170:/opt/arm-gnu-toolchain-14.2/arm-none-eabi/include/c++/14.2.1/cmath ****   template<typename _Tp>
 171:/opt/arm-gnu-toolchain-14.2/arm-none-eabi/include/c++/14.2.1/cmath ****     inline _GLIBCXX_CONSTEXPR
ARM GAS  /tmp/ccBC5zcM.s 			page 61


 172:/opt/arm-gnu-toolchain-14.2/arm-none-eabi/include/c++/14.2.1/cmath ****     typename __gnu_cxx::__enable_if<__is_integer<_Tp>::__value, 
 173:/opt/arm-gnu-toolchain-14.2/arm-none-eabi/include/c++/14.2.1/cmath ****                                     double>::__type
 174:/opt/arm-gnu-toolchain-14.2/arm-none-eabi/include/c++/14.2.1/cmath ****     ceil(_Tp __x)
 175:/opt/arm-gnu-toolchain-14.2/arm-none-eabi/include/c++/14.2.1/cmath ****     { return __builtin_ceil(__x); }
 176:/opt/arm-gnu-toolchain-14.2/arm-none-eabi/include/c++/14.2.1/cmath **** 
 177:/opt/arm-gnu-toolchain-14.2/arm-none-eabi/include/c++/14.2.1/cmath ****   using ::cos;
 178:/opt/arm-gnu-toolchain-14.2/arm-none-eabi/include/c++/14.2.1/cmath **** 
 179:/opt/arm-gnu-toolchain-14.2/arm-none-eabi/include/c++/14.2.1/cmath **** #ifndef __CORRECT_ISO_CPP_MATH_H_PROTO
 180:/opt/arm-gnu-toolchain-14.2/arm-none-eabi/include/c++/14.2.1/cmath ****   inline _GLIBCXX_CONSTEXPR float
 181:/opt/arm-gnu-toolchain-14.2/arm-none-eabi/include/c++/14.2.1/cmath ****   cos(float __x)
 182:/opt/arm-gnu-toolchain-14.2/arm-none-eabi/include/c++/14.2.1/cmath ****   { return __builtin_cosf(__x); }
 183:/opt/arm-gnu-toolchain-14.2/arm-none-eabi/include/c++/14.2.1/cmath **** 
 184:/opt/arm-gnu-toolchain-14.2/arm-none-eabi/include/c++/14.2.1/cmath ****   inline _GLIBCXX_CONSTEXPR long double
 185:/opt/arm-gnu-toolchain-14.2/arm-none-eabi/include/c++/14.2.1/cmath ****   cos(long double __x)
 186:/opt/arm-gnu-toolchain-14.2/arm-none-eabi/include/c++/14.2.1/cmath ****   { return __builtin_cosl(__x); }
 187:/opt/arm-gnu-toolchain-14.2/arm-none-eabi/include/c++/14.2.1/cmath **** #endif
 188:/opt/arm-gnu-toolchain-14.2/arm-none-eabi/include/c++/14.2.1/cmath **** 
 189:/opt/arm-gnu-toolchain-14.2/arm-none-eabi/include/c++/14.2.1/cmath ****   template<typename _Tp>
 190:/opt/arm-gnu-toolchain-14.2/arm-none-eabi/include/c++/14.2.1/cmath ****     inline _GLIBCXX_CONSTEXPR
 191:/opt/arm-gnu-toolchain-14.2/arm-none-eabi/include/c++/14.2.1/cmath ****     typename __gnu_cxx::__enable_if<__is_integer<_Tp>::__value,
 192:/opt/arm-gnu-toolchain-14.2/arm-none-eabi/include/c++/14.2.1/cmath ****                                     double>::__type
 193:/opt/arm-gnu-toolchain-14.2/arm-none-eabi/include/c++/14.2.1/cmath ****     cos(_Tp __x)
 194:/opt/arm-gnu-toolchain-14.2/arm-none-eabi/include/c++/14.2.1/cmath ****     { return __builtin_cos(__x); }
 195:/opt/arm-gnu-toolchain-14.2/arm-none-eabi/include/c++/14.2.1/cmath **** 
 196:/opt/arm-gnu-toolchain-14.2/arm-none-eabi/include/c++/14.2.1/cmath ****   using ::cosh;
 197:/opt/arm-gnu-toolchain-14.2/arm-none-eabi/include/c++/14.2.1/cmath **** 
 198:/opt/arm-gnu-toolchain-14.2/arm-none-eabi/include/c++/14.2.1/cmath **** #ifndef __CORRECT_ISO_CPP_MATH_H_PROTO
 199:/opt/arm-gnu-toolchain-14.2/arm-none-eabi/include/c++/14.2.1/cmath ****   inline _GLIBCXX_CONSTEXPR float
 200:/opt/arm-gnu-toolchain-14.2/arm-none-eabi/include/c++/14.2.1/cmath ****   cosh(float __x)
 201:/opt/arm-gnu-toolchain-14.2/arm-none-eabi/include/c++/14.2.1/cmath ****   { return __builtin_coshf(__x); }
 202:/opt/arm-gnu-toolchain-14.2/arm-none-eabi/include/c++/14.2.1/cmath **** 
 203:/opt/arm-gnu-toolchain-14.2/arm-none-eabi/include/c++/14.2.1/cmath ****   inline _GLIBCXX_CONSTEXPR long double
 204:/opt/arm-gnu-toolchain-14.2/arm-none-eabi/include/c++/14.2.1/cmath ****   cosh(long double __x)
 205:/opt/arm-gnu-toolchain-14.2/arm-none-eabi/include/c++/14.2.1/cmath ****   { return __builtin_coshl(__x); }
 206:/opt/arm-gnu-toolchain-14.2/arm-none-eabi/include/c++/14.2.1/cmath **** #endif
 207:/opt/arm-gnu-toolchain-14.2/arm-none-eabi/include/c++/14.2.1/cmath **** 
 208:/opt/arm-gnu-toolchain-14.2/arm-none-eabi/include/c++/14.2.1/cmath ****   template<typename _Tp>
 209:/opt/arm-gnu-toolchain-14.2/arm-none-eabi/include/c++/14.2.1/cmath ****     inline _GLIBCXX_CONSTEXPR
 210:/opt/arm-gnu-toolchain-14.2/arm-none-eabi/include/c++/14.2.1/cmath ****     typename __gnu_cxx::__enable_if<__is_integer<_Tp>::__value,
 211:/opt/arm-gnu-toolchain-14.2/arm-none-eabi/include/c++/14.2.1/cmath ****                                     double>::__type
 212:/opt/arm-gnu-toolchain-14.2/arm-none-eabi/include/c++/14.2.1/cmath ****     cosh(_Tp __x)
 213:/opt/arm-gnu-toolchain-14.2/arm-none-eabi/include/c++/14.2.1/cmath ****     { return __builtin_cosh(__x); }
 214:/opt/arm-gnu-toolchain-14.2/arm-none-eabi/include/c++/14.2.1/cmath **** 
 215:/opt/arm-gnu-toolchain-14.2/arm-none-eabi/include/c++/14.2.1/cmath ****   using ::exp;
 216:/opt/arm-gnu-toolchain-14.2/arm-none-eabi/include/c++/14.2.1/cmath **** 
 217:/opt/arm-gnu-toolchain-14.2/arm-none-eabi/include/c++/14.2.1/cmath **** #ifndef __CORRECT_ISO_CPP_MATH_H_PROTO
 218:/opt/arm-gnu-toolchain-14.2/arm-none-eabi/include/c++/14.2.1/cmath ****   inline _GLIBCXX_CONSTEXPR float
 219:/opt/arm-gnu-toolchain-14.2/arm-none-eabi/include/c++/14.2.1/cmath ****   exp(float __x)
 220:/opt/arm-gnu-toolchain-14.2/arm-none-eabi/include/c++/14.2.1/cmath ****   { return __builtin_expf(__x); }
 221:/opt/arm-gnu-toolchain-14.2/arm-none-eabi/include/c++/14.2.1/cmath **** 
 222:/opt/arm-gnu-toolchain-14.2/arm-none-eabi/include/c++/14.2.1/cmath ****   inline _GLIBCXX_CONSTEXPR long double
 223:/opt/arm-gnu-toolchain-14.2/arm-none-eabi/include/c++/14.2.1/cmath ****   exp(long double __x)
 224:/opt/arm-gnu-toolchain-14.2/arm-none-eabi/include/c++/14.2.1/cmath ****   { return __builtin_expl(__x); }
 225:/opt/arm-gnu-toolchain-14.2/arm-none-eabi/include/c++/14.2.1/cmath **** #endif
 226:/opt/arm-gnu-toolchain-14.2/arm-none-eabi/include/c++/14.2.1/cmath **** 
 227:/opt/arm-gnu-toolchain-14.2/arm-none-eabi/include/c++/14.2.1/cmath ****   template<typename _Tp>
 228:/opt/arm-gnu-toolchain-14.2/arm-none-eabi/include/c++/14.2.1/cmath ****     inline _GLIBCXX_CONSTEXPR
ARM GAS  /tmp/ccBC5zcM.s 			page 62


 229:/opt/arm-gnu-toolchain-14.2/arm-none-eabi/include/c++/14.2.1/cmath ****     typename __gnu_cxx::__enable_if<__is_integer<_Tp>::__value,
 230:/opt/arm-gnu-toolchain-14.2/arm-none-eabi/include/c++/14.2.1/cmath ****                                     double>::__type
 231:/opt/arm-gnu-toolchain-14.2/arm-none-eabi/include/c++/14.2.1/cmath ****     exp(_Tp __x)
 232:/opt/arm-gnu-toolchain-14.2/arm-none-eabi/include/c++/14.2.1/cmath ****     { return __builtin_exp(__x); }
 233:/opt/arm-gnu-toolchain-14.2/arm-none-eabi/include/c++/14.2.1/cmath **** 
 234:/opt/arm-gnu-toolchain-14.2/arm-none-eabi/include/c++/14.2.1/cmath ****   using ::fabs;
 235:/opt/arm-gnu-toolchain-14.2/arm-none-eabi/include/c++/14.2.1/cmath **** 
 236:/opt/arm-gnu-toolchain-14.2/arm-none-eabi/include/c++/14.2.1/cmath **** #ifndef __CORRECT_ISO_CPP_MATH_H_PROTO
 237:/opt/arm-gnu-toolchain-14.2/arm-none-eabi/include/c++/14.2.1/cmath ****   inline _GLIBCXX_CONSTEXPR float
 238:/opt/arm-gnu-toolchain-14.2/arm-none-eabi/include/c++/14.2.1/cmath ****   fabs(float __x)
 2107              		.loc 8 238 3 view .LVU592
 2108              	.LBB133:
 239:/opt/arm-gnu-toolchain-14.2/arm-none-eabi/include/c++/14.2.1/cmath ****   { return __builtin_fabsf(__x); }
 2109              		.loc 8 239 5 view .LVU593
 2110              		.loc 8 239 31 is_stmt 0 view .LVU594
 2111 0992 F0EEC87A 		vabs.f32	s15, s16
 2112              	.LVL177:
 2113              		.loc 8 239 31 view .LVU595
 2114              	.LBE133:
 2115              	.LBE132:
 389:My_Top/Motor_Control/DcMotor_ClosedLoop.cpp **** 
 2116              		.loc 1 389 5 is_stmt 1 view .LVU596
 389:My_Top/Motor_Control/DcMotor_ClosedLoop.cpp **** 
 2117              		.loc 1 389 25 is_stmt 0 view .LVU597
 2118 0996 D4ED098A 		vldr.32	s17, [r4, #36]
 2119              	.LVL178:
 2120              	.LBB134:
 2121              	.LBI134:
 238:/opt/arm-gnu-toolchain-14.2/arm-none-eabi/include/c++/14.2.1/cmath ****   { return __builtin_fabsf(__x); }
 2122              		.loc 8 238 3 is_stmt 1 view .LVU598
 2123              	.LBB135:
 2124              		.loc 8 239 5 view .LVU599
 2125              		.loc 8 239 31 is_stmt 0 view .LVU600
 2126 099a B0EEE89A 		vabs.f32	s18, s17
 2127              	.LVL179:
 2128              		.loc 8 239 31 view .LVU601
 2129              	.LBE135:
 2130              	.LBE134:
 392:My_Top/Motor_Control/DcMotor_ClosedLoop.cpp ****     {
 2131              		.loc 1 392 5 is_stmt 1 view .LVU602
 392:My_Top/Motor_Control/DcMotor_ClosedLoop.cpp ****     {
 2132              		.loc 1 392 8 is_stmt 0 view .LVU603
 2133 099e 94F85D30 		ldrb	r3, [r4, #93]	@ zero_extendqisi2
 392:My_Top/Motor_Control/DcMotor_ClosedLoop.cpp ****     {
 2134              		.loc 1 392 5 view .LVU604
 2135 09a2 93B1     		cbz	r3, .L109
 394:My_Top/Motor_Control/DcMotor_ClosedLoop.cpp ****         {
 2136              		.loc 1 394 9 is_stmt 1 view .LVU605
 394:My_Top/Motor_Control/DcMotor_ClosedLoop.cpp ****         {
 2137              		.loc 1 394 12 is_stmt 0 view .LVU606
 2138 09a4 17EE900A 		vmov	r0, s15
 2139              	.LVL180:
 394:My_Top/Motor_Control/DcMotor_ClosedLoop.cpp ****         {
 2140              		.loc 1 394 12 view .LVU607
 2141 09a8 FFF7FEFF 		bl	__aeabi_f2d
 2142              	.LVL181:
 394:My_Top/Motor_Control/DcMotor_ClosedLoop.cpp ****         {
ARM GAS  /tmp/ccBC5zcM.s 			page 63


 2143              		.loc 1 394 9 view .LVU608
 2144 09ac 52A3     		adr	r3, .L141+8
 2145 09ae D3E90023 		ldrd	r2, [r3]
 2146 09b2 FFF7FEFF 		bl	__aeabi_dcmpgt
 2147              	.LVL182:
 2148 09b6 58B3     		cbz	r0, .L110
 396:My_Top/Motor_Control/DcMotor_ClosedLoop.cpp ****         }
 2149              		.loc 1 396 13 is_stmt 1 view .LVU609
 396:My_Top/Motor_Control/DcMotor_ClosedLoop.cpp ****         }
 2150              		.loc 1 396 27 is_stmt 0 view .LVU610
 2151 09b8 0023     		movs	r3, #0
 2152 09ba 84F85D30 		strb	r3, [r4, #93]
 2153 09be 27E0     		b	.L110
 2154              	.LVL183:
 2155              	.L139:
 2156              	.LBB136:
 385:My_Top/Motor_Control/DcMotor_ClosedLoop.cpp **** 
 2157              		.loc 1 385 23 is_stmt 1 discriminator 1 view .LVU611
 2158 09c0 DFED537A 		vldr.32	s15, .L141+32
 2159 09c4 30EE270A 		vadd.f32	s0, s0, s15
 2160              	.LVL184:
 385:My_Top/Motor_Control/DcMotor_ClosedLoop.cpp **** 
 2161              		.loc 1 385 23 is_stmt 0 discriminator 1 view .LVU612
 2162 09c8 D6E7     		b	.L107
 2163              	.LVL185:
 2164              	.L109:
 385:My_Top/Motor_Control/DcMotor_ClosedLoop.cpp **** 
 2165              		.loc 1 385 23 discriminator 1 view .LVU613
 2166              	.LBE136:
 400:My_Top/Motor_Control/DcMotor_ClosedLoop.cpp ****         {
 2167              		.loc 1 400 9 is_stmt 1 view .LVU614
 400:My_Top/Motor_Control/DcMotor_ClosedLoop.cpp ****         {
 2168              		.loc 1 400 12 is_stmt 0 view .LVU615
 2169 09ca 17EE900A 		vmov	r0, s15
 2170              	.LVL186:
 400:My_Top/Motor_Control/DcMotor_ClosedLoop.cpp ****         {
 2171              		.loc 1 400 12 view .LVU616
 2172 09ce FFF7FEFF 		bl	__aeabi_f2d
 2173              	.LVL187:
 400:My_Top/Motor_Control/DcMotor_ClosedLoop.cpp ****         {
 2174              		.loc 1 400 9 view .LVU617
 2175 09d2 4BA3     		adr	r3, .L141+16
 2176 09d4 D3E90023 		ldrd	r2, [r3]
 2177 09d8 FFF7FEFF 		bl	__aeabi_dcmplt
 2178              	.LVL188:
 2179 09dc A8B1     		cbz	r0, .L112
 400:My_Top/Motor_Control/DcMotor_ClosedLoop.cpp ****         {
 2180              		.loc 1 400 38 discriminator 1 view .LVU618
 2181 09de 19EE100A 		vmov	r0, s18
 2182 09e2 FFF7FEFF 		bl	__aeabi_f2d
 2183              	.LVL189:
 400:My_Top/Motor_Control/DcMotor_ClosedLoop.cpp ****         {
 2184              		.loc 1 400 36 discriminator 1 view .LVU619
 2185 09e6 48A3     		adr	r3, .L141+24
 2186 09e8 D3E90023 		ldrd	r2, [r3]
 2187 09ec FFF7FEFF 		bl	__aeabi_dcmplt
 2188              	.LVL190:
ARM GAS  /tmp/ccBC5zcM.s 			page 64


 2189 09f0 58B1     		cbz	r0, .L112
 402:My_Top/Motor_Control/DcMotor_ClosedLoop.cpp ****             if(position_ok_cnt >= 10)
 2190              		.loc 1 402 13 is_stmt 1 view .LVU620
 2191 09f2 B4F85E30 		ldrh	r3, [r4, #94]
 402:My_Top/Motor_Control/DcMotor_ClosedLoop.cpp ****             if(position_ok_cnt >= 10)
 2192              		.loc 1 402 28 is_stmt 0 view .LVU621
 2193 09f6 0133     		adds	r3, r3, #1
 2194 09f8 9BB2     		uxth	r3, r3
 2195 09fa A4F85E30 		strh	r3, [r4, #94]	@ movhi
 403:My_Top/Motor_Control/DcMotor_ClosedLoop.cpp ****             {
 2196              		.loc 1 403 13 is_stmt 1 view .LVU622
 2197 09fe 092B     		cmp	r3, #9
 2198 0a00 06D9     		bls	.L110
 405:My_Top/Motor_Control/DcMotor_ClosedLoop.cpp ****             }
 2199              		.loc 1 405 17 view .LVU623
 405:My_Top/Motor_Control/DcMotor_ClosedLoop.cpp ****             }
 2200              		.loc 1 405 31 is_stmt 0 view .LVU624
 2201 0a02 0123     		movs	r3, #1
 2202 0a04 84F85D30 		strb	r3, [r4, #93]
 2203 0a08 02E0     		b	.L110
 2204              	.L112:
 409:My_Top/Motor_Control/DcMotor_ClosedLoop.cpp ****         }
 2205              		.loc 1 409 13 is_stmt 1 view .LVU625
 409:My_Top/Motor_Control/DcMotor_ClosedLoop.cpp ****         }
 2206              		.loc 1 409 29 is_stmt 0 view .LVU626
 2207 0a0a 0023     		movs	r3, #0
 2208 0a0c A4F85E30 		strh	r3, [r4, #94]	@ movhi
 2209              	.L110:
 414:My_Top/Motor_Control/DcMotor_ClosedLoop.cpp ****     {
 2210              		.loc 1 414 5 is_stmt 1 view .LVU627
 414:My_Top/Motor_Control/DcMotor_ClosedLoop.cpp ****     {
 2211              		.loc 1 414 8 is_stmt 0 view .LVU628
 2212 0a10 94F85D30 		ldrb	r3, [r4, #93]	@ zero_extendqisi2
 414:My_Top/Motor_Control/DcMotor_ClosedLoop.cpp ****     {
 2213              		.loc 1 414 5 view .LVU629
 2214 0a14 002B     		cmp	r3, #0
 2215 0a16 46D1     		bne	.L140
 421:My_Top/Motor_Control/DcMotor_ClosedLoop.cpp ****     _target_speed = _lqr->update(pos_error, vel_error);  // LQRĶŠōÕć║ńø«µĀćķĆ¤Õ║”
 2216              		.loc 1 421 5 is_stmt 1 view .LVU630
 421:My_Top/Motor_Control/DcMotor_ClosedLoop.cpp ****     _target_speed = _lqr->update(pos_error, vel_error);  // LQRĶŠōÕć║ńø«µĀćķĆ¤Õ║”
 2217              		.loc 1 421 11 is_stmt 0 view .LVU631
 2218 0a18 B1EE687A 		vneg.f32	s14, s17
 2219              	.LVL191:
 422:My_Top/Motor_Control/DcMotor_ClosedLoop.cpp ****     //ķĆ¤Õ║”ÕÅśÕī¢µ¢£ÕØĪ
 2220              		.loc 1 422 5 is_stmt 1 view .LVU632
 422:My_Top/Motor_Control/DcMotor_ClosedLoop.cpp ****     //ķĆ¤Õ║”ÕÅśÕī¢µ¢£ÕØĪ
 2221              		.loc 1 422 21 is_stmt 0 view .LVU633
 2222 0a1c A36C     		ldr	r3, [r4, #72]
 2223              	.LVL192:
 2224              	.LBB137:
 2225              	.LBI137:
  14:Lib/compute/pid/LQR.hpp **** 
  15:Lib/compute/pid/LQR.hpp ****     float update(float pos_error, float vel_error)
 2226              		.loc 7 15 11 is_stmt 1 view .LVU634
 2227              	.LBB138:
  16:Lib/compute/pid/LQR.hpp ****     {
  17:Lib/compute/pid/LQR.hpp ****         // u = -(K1 * pos_error + K2 * vel_error)
ARM GAS  /tmp/ccBC5zcM.s 			page 65


  18:Lib/compute/pid/LQR.hpp ****         _output = _k1 * pos_error + _k2 * vel_error;
 2228              		.loc 7 18 9 view .LVU635
 2229              		.loc 7 18 19 is_stmt 0 view .LVU636
 2230 0a1e D3ED007A 		vldr.32	s15, [r3]
 2231              		.loc 7 18 23 view .LVU637
 2232 0a22 68EE277A 		vmul.f32	s15, s16, s15
 2233              		.loc 7 18 37 view .LVU638
 2234 0a26 D3ED016A 		vldr.32	s13, [r3, #4]
 2235              		.loc 7 18 41 view .LVU639
 2236 0a2a 68EEE68A 		vnmul.f32	s17, s17, s13
 2237              		.loc 7 18 35 view .LVU640
 2238 0a2e 77EEA87A 		vadd.f32	s15, s15, s17
 2239              		.loc 7 18 17 view .LVU641
 2240 0a32 C3ED047A 		vstr.32	s15, [r3, #16]
  19:Lib/compute/pid/LQR.hpp **** 
  20:Lib/compute/pid/LQR.hpp ****         // ķÖÉÕ╣ģ
  21:Lib/compute/pid/LQR.hpp ****         if (_output > _max)
 2241              		.loc 7 21 9 is_stmt 1 view .LVU642
 2242              		.loc 7 21 23 is_stmt 0 view .LVU643
 2243 0a36 D3ED026A 		vldr.32	s13, [r3, #8]
 2244              		.loc 7 21 9 view .LVU644
 2245 0a3a F4EEE67A 		vcmpe.f32	s15, s13
 2246 0a3e F1EE10FA 		vmrs	APSR_nzcv, FPSCR
 2247 0a42 34DD     		ble	.L136
  22:Lib/compute/pid/LQR.hpp ****             _output = _max;
 2248              		.loc 7 22 13 is_stmt 1 view .LVU645
 2249              		.loc 7 22 21 is_stmt 0 view .LVU646
 2250 0a44 C3ED046A 		vstr.32	s13, [r3, #16]
 2251              	.L119:
  23:Lib/compute/pid/LQR.hpp ****         else if (_output < _min)
  24:Lib/compute/pid/LQR.hpp ****             _output = _min;
  25:Lib/compute/pid/LQR.hpp **** 
  26:Lib/compute/pid/LQR.hpp ****         return _output;
 2252              		.loc 7 26 9 is_stmt 1 view .LVU647
 2253              		.loc 7 26 16 is_stmt 0 view .LVU648
 2254 0a48 1B69     		ldr	r3, [r3, #16]	@ float
 2255              	.LVL193:
 2256              		.loc 7 26 16 view .LVU649
 2257              	.LBE138:
 2258              	.LBE137:
 422:My_Top/Motor_Control/DcMotor_ClosedLoop.cpp ****     //ķĆ¤Õ║”ÕÅśÕī¢µ¢£ÕØĪ
 2259              		.loc 1 422 19 discriminator 1 view .LVU650
 2260 0a4a E362     		str	r3, [r4, #44]	@ float
 424:My_Top/Motor_Control/DcMotor_ClosedLoop.cpp ****     float speed_delta = lqr_speed - target_speed_last;
 2261              		.loc 1 424 5 is_stmt 1 view .LVU651
 424:My_Top/Motor_Control/DcMotor_ClosedLoop.cpp ****     float speed_delta = lqr_speed - target_speed_last;
 2262              		.loc 1 424 23 is_stmt 0 view .LVU652
 2263 0a4c A36C     		ldr	r3, [r4, #72]
 2264              	.LVL194:
 2265              	.LBB140:
 2266              	.LBI140:
  15:Lib/compute/pid/LQR.hpp ****     {
 2267              		.loc 7 15 11 is_stmt 1 view .LVU653
 2268              	.LBB141:
  18:Lib/compute/pid/LQR.hpp **** 
 2269              		.loc 7 18 9 view .LVU654
  18:Lib/compute/pid/LQR.hpp **** 
ARM GAS  /tmp/ccBC5zcM.s 			page 66


 2270              		.loc 7 18 19 is_stmt 0 view .LVU655
 2271 0a4e D3ED007A 		vldr.32	s15, [r3]
  18:Lib/compute/pid/LQR.hpp **** 
 2272              		.loc 7 18 23 view .LVU656
 2273 0a52 28EE278A 		vmul.f32	s16, s16, s15
 2274              	.LVL195:
  18:Lib/compute/pid/LQR.hpp **** 
 2275              		.loc 7 18 37 view .LVU657
 2276 0a56 D3ED017A 		vldr.32	s15, [r3, #4]
  18:Lib/compute/pid/LQR.hpp **** 
 2277              		.loc 7 18 41 view .LVU658
 2278 0a5a 67EE277A 		vmul.f32	s15, s14, s15
  18:Lib/compute/pid/LQR.hpp **** 
 2279              		.loc 7 18 35 view .LVU659
 2280 0a5e 38EE278A 		vadd.f32	s16, s16, s15
  18:Lib/compute/pid/LQR.hpp **** 
 2281              		.loc 7 18 17 view .LVU660
 2282 0a62 83ED048A 		vstr.32	s16, [r3, #16]
  21:Lib/compute/pid/LQR.hpp ****             _output = _max;
 2283              		.loc 7 21 9 is_stmt 1 view .LVU661
  21:Lib/compute/pid/LQR.hpp ****             _output = _max;
 2284              		.loc 7 21 23 is_stmt 0 view .LVU662
 2285 0a66 D3ED027A 		vldr.32	s15, [r3, #8]
  21:Lib/compute/pid/LQR.hpp ****             _output = _max;
 2286              		.loc 7 21 9 view .LVU663
 2287 0a6a B4EEE78A 		vcmpe.f32	s16, s15
 2288 0a6e F1EE10FA 		vmrs	APSR_nzcv, FPSCR
 2289 0a72 26DD     		ble	.L137
  22:Lib/compute/pid/LQR.hpp ****         else if (_output < _min)
 2290              		.loc 7 22 13 is_stmt 1 view .LVU664
  22:Lib/compute/pid/LQR.hpp ****         else if (_output < _min)
 2291              		.loc 7 22 21 is_stmt 0 view .LVU665
 2292 0a74 C3ED047A 		vstr.32	s15, [r3, #16]
 2293              	.L123:
 2294              		.loc 7 26 9 is_stmt 1 view .LVU666
 2295              		.loc 7 26 16 is_stmt 0 view .LVU667
 2296 0a78 D3ED047A 		vldr.32	s15, [r3, #16]
 2297              	.LVL196:
 2298              		.loc 7 26 16 view .LVU668
 2299              	.LBE141:
 2300              	.LBE140:
 425:My_Top/Motor_Control/DcMotor_ClosedLoop.cpp ****     if(speed_delta > 0.002f)
 2301              		.loc 1 425 5 is_stmt 1 view .LVU669
 425:My_Top/Motor_Control/DcMotor_ClosedLoop.cpp ****     if(speed_delta > 0.002f)
 2302              		.loc 1 425 37 is_stmt 0 view .LVU670
 2303 0a7c 94ED187A 		vldr.32	s14, [r4, #96]
 2304              	.LVL197:
 425:My_Top/Motor_Control/DcMotor_ClosedLoop.cpp ****     if(speed_delta > 0.002f)
 2305              		.loc 1 425 11 view .LVU671
 2306 0a80 77EEC77A 		vsub.f32	s15, s15, s14
 2307              	.LVL198:
 426:My_Top/Motor_Control/DcMotor_ClosedLoop.cpp ****     {
 2308              		.loc 1 426 5 is_stmt 1 view .LVU672
 2309 0a84 DFED236A 		vldr.32	s13, .L141+36
 2310 0a88 F4EEE67A 		vcmpe.f32	s15, s13
 2311 0a8c F1EE10FA 		vmrs	APSR_nzcv, FPSCR
 2312 0a90 21DC     		bgt	.L126
ARM GAS  /tmp/ccBC5zcM.s 			page 67


 430:My_Top/Motor_Control/DcMotor_ClosedLoop.cpp ****     {
 2313              		.loc 1 430 10 view .LVU673
 2314 0a92 DFED216A 		vldr.32	s13, .L141+40
 2315 0a96 F4EEE67A 		vcmpe.f32	s15, s13
 2316 0a9a F1EE10FA 		vmrs	APSR_nzcv, FPSCR
 2317 0a9e 1CD5     		bpl	.L125
 432:My_Top/Motor_Control/DcMotor_ClosedLoop.cpp ****     }
 2318              		.loc 1 432 21 is_stmt 0 view .LVU674
 2319 0aa0 DFED1D7A 		vldr.32	s15, .L141+40
 2320              	.LVL199:
 432:My_Top/Motor_Control/DcMotor_ClosedLoop.cpp ****     }
 2321              		.loc 1 432 21 view .LVU675
 2322 0aa4 19E0     		b	.L125
 2323              	.LVL200:
 2324              	.L140:
 416:My_Top/Motor_Control/DcMotor_ClosedLoop.cpp ****         target_speed_last = 0.0f;
 2325              		.loc 1 416 9 is_stmt 1 view .LVU676
 416:My_Top/Motor_Control/DcMotor_ClosedLoop.cpp ****         target_speed_last = 0.0f;
 2326              		.loc 1 416 23 is_stmt 0 view .LVU677
 2327 0aa6 0023     		movs	r3, #0
 2328 0aa8 E362     		str	r3, [r4, #44]	@ float
 417:My_Top/Motor_Control/DcMotor_ClosedLoop.cpp ****         return;
 2329              		.loc 1 417 9 is_stmt 1 view .LVU678
 417:My_Top/Motor_Control/DcMotor_ClosedLoop.cpp ****         return;
 2330              		.loc 1 417 27 is_stmt 0 view .LVU679
 2331 0aaa 2366     		str	r3, [r4, #96]	@ float
 418:My_Top/Motor_Control/DcMotor_ClosedLoop.cpp ****     }
 2332              		.loc 1 418 9 is_stmt 1 view .LVU680
 2333 0aac 1BE0     		b	.L106
 2334              	.LVL201:
 2335              	.L136:
 2336              	.LBB143:
 2337              	.LBB139:
  23:Lib/compute/pid/LQR.hpp ****             _output = _min;
 2338              		.loc 7 23 14 view .LVU681
  23:Lib/compute/pid/LQR.hpp ****             _output = _min;
 2339              		.loc 7 23 28 is_stmt 0 view .LVU682
 2340 0aae D3ED036A 		vldr.32	s13, [r3, #12]
  23:Lib/compute/pid/LQR.hpp ****             _output = _min;
 2341              		.loc 7 23 14 view .LVU683
 2342 0ab2 F4EEE67A 		vcmpe.f32	s15, s13
 2343 0ab6 F1EE10FA 		vmrs	APSR_nzcv, FPSCR
 2344 0aba C5D5     		bpl	.L119
  24:Lib/compute/pid/LQR.hpp **** 
 2345              		.loc 7 24 13 is_stmt 1 view .LVU684
  24:Lib/compute/pid/LQR.hpp **** 
 2346              		.loc 7 24 21 is_stmt 0 view .LVU685
 2347 0abc C3ED046A 		vstr.32	s13, [r3, #16]
 2348 0ac0 C2E7     		b	.L119
 2349              	.LVL202:
 2350              	.L137:
  24:Lib/compute/pid/LQR.hpp **** 
 2351              		.loc 7 24 21 view .LVU686
 2352              	.LBE139:
 2353              	.LBE143:
 2354              	.LBB144:
 2355              	.LBB142:
ARM GAS  /tmp/ccBC5zcM.s 			page 68


  23:Lib/compute/pid/LQR.hpp ****             _output = _min;
 2356              		.loc 7 23 14 is_stmt 1 view .LVU687
  23:Lib/compute/pid/LQR.hpp ****             _output = _min;
 2357              		.loc 7 23 28 is_stmt 0 view .LVU688
 2358 0ac2 D3ED037A 		vldr.32	s15, [r3, #12]
  23:Lib/compute/pid/LQR.hpp ****             _output = _min;
 2359              		.loc 7 23 14 view .LVU689
 2360 0ac6 B4EEE78A 		vcmpe.f32	s16, s15
 2361 0aca F1EE10FA 		vmrs	APSR_nzcv, FPSCR
 2362 0ace D3D5     		bpl	.L123
  24:Lib/compute/pid/LQR.hpp **** 
 2363              		.loc 7 24 13 is_stmt 1 view .LVU690
  24:Lib/compute/pid/LQR.hpp **** 
 2364              		.loc 7 24 21 is_stmt 0 view .LVU691
 2365 0ad0 C3ED047A 		vstr.32	s15, [r3, #16]
 2366 0ad4 D0E7     		b	.L123
 2367              	.LVL203:
 2368              	.L126:
  24:Lib/compute/pid/LQR.hpp **** 
 2369              		.loc 7 24 21 view .LVU692
 2370              	.LBE142:
 2371              	.LBE144:
 428:My_Top/Motor_Control/DcMotor_ClosedLoop.cpp ****     }
 2372              		.loc 1 428 21 view .LVU693
 2373 0ad6 DFED0F7A 		vldr.32	s15, .L141+36
 2374              	.LVL204:
 2375              	.L125:
 435:My_Top/Motor_Control/DcMotor_ClosedLoop.cpp **** 
 2376              		.loc 1 435 5 is_stmt 1 view .LVU694
 435:My_Top/Motor_Control/DcMotor_ClosedLoop.cpp **** 
 2377              		.loc 1 435 23 is_stmt 0 view .LVU695
 2378 0ada 77EE277A 		vadd.f32	s15, s14, s15
 2379              	.LVL205:
 435:My_Top/Motor_Control/DcMotor_ClosedLoop.cpp **** 
 2380              		.loc 1 435 23 view .LVU696
 2381 0ade C4ED187A 		vstr.32	s15, [r4, #96]
 2382              	.LVL206:
 437:My_Top/Motor_Control/DcMotor_ClosedLoop.cpp **** 
 2383              		.loc 1 437 5 is_stmt 1 view .LVU697
 437:My_Top/Motor_Control/DcMotor_ClosedLoop.cpp **** 
 2384              		.loc 1 437 19 is_stmt 0 view .LVU698
 2385 0ae2 C4ED0B7A 		vstr.32	s15, [r4, #44]
 2386              	.LVL207:
 2387              	.L106:
 439:My_Top/Motor_Control/DcMotor_ClosedLoop.cpp **** 
 2388              		.loc 1 439 1 view .LVU699
 2389 0ae6 BDEC048B 		vldm	sp!, {d8-d9}
 2390              		.cfi_restore 82
 2391              		.cfi_restore 83
 2392              		.cfi_restore 80
 2393              		.cfi_restore 81
 2394              		.cfi_def_cfa_offset 16
 2395              	.LVL208:
 439:My_Top/Motor_Control/DcMotor_ClosedLoop.cpp **** 
 2396              		.loc 1 439 1 view .LVU700
 2397 0aea D0BD     		pop	{r4, r6, r7, pc}
 2398              	.LVL209:
ARM GAS  /tmp/ccBC5zcM.s 			page 69


 2399              	.L142:
 439:My_Top/Motor_Control/DcMotor_ClosedLoop.cpp **** 
 2400              		.loc 1 439 1 view .LVU701
 2401 0aec AFF30080 		.align	3
 2402              	.L141:
 2403 0af0 182D4454 		.word	1413754136
 2404 0af4 FB210940 		.word	1074340347
 2405 0af8 F9C115D1 		.word	-787103239
 2406 0afc 5472853F 		.word	1065710164
 2407 0b00 F9C115D1 		.word	-787103239
 2408 0b04 5472753F 		.word	1064661588
 2409 0b08 399D52A2 		.word	-1571644103
 2410 0b0c 46DFB13F 		.word	1068621638
 2411 0b10 DB0FC940 		.word	1086918619
 2412 0b14 6F12033B 		.word	990057071
 2413 0b18 6F1203BB 		.word	-1157426577
 2414 0b1c 399D52A2 		.word	-1571644103
 2415 0b20 46DF913F 		.word	1066524486
 2416              		.cfi_endproc
 2417              	.LFE1360:
 2419              		.align	1
 2420              		.global	_ZN8DC_Motor15Thermistor_TempEv
 2421              		.syntax unified
 2422              		.thumb
 2423              		.thumb_func
 2425              	_ZN8DC_Motor15Thermistor_TempEv:
 2426              	.LVL210:
 2427              	.LFB1361:
 446:My_Top/Motor_Control/DcMotor_ClosedLoop.cpp ****     float adc_av_val = 0.0f;
 2428              		.loc 1 446 1 is_stmt 1 view -0
 2429              		.cfi_startproc
 2430              		@ args = 0, pretend = 0, frame = 0
 2431              		@ frame_needed = 0, uses_anonymous_args = 0
 446:My_Top/Motor_Control/DcMotor_ClosedLoop.cpp ****     float adc_av_val = 0.0f;
 2432              		.loc 1 446 1 is_stmt 0 view .LVU703
 2433 0b24 D0B5     		push	{r4, r6, r7, lr}
 2434              		.cfi_def_cfa_offset 16
 2435              		.cfi_offset 4, -16
 2436              		.cfi_offset 6, -12
 2437              		.cfi_offset 7, -8
 2438              		.cfi_offset 14, -4
 2439 0b26 2DED028B 		vpush.64	{d8}
 2440              		.cfi_def_cfa_offset 24
 2441              		.cfi_offset 80, -24
 2442              		.cfi_offset 81, -20
 2443 0b2a 0446     		mov	r4, r0
 447:My_Top/Motor_Control/DcMotor_ClosedLoop.cpp ****     
 2444              		.loc 1 447 5 is_stmt 1 view .LVU704
 2445              	.LVL211:
 449:My_Top/Motor_Control/DcMotor_ClosedLoop.cpp ****     // ADC ÕĆ╝Õ╝éÕĖĖ’╝łµé¼ń®║/µ£¬µÄźńāŁµĢÅńöĄķś╗ ĶĘ│Ķ┐ćĶ«Īń«Ś
 2446              		.loc 1 449 5 view .LVU705
 449:My_Top/Motor_Control/DcMotor_ClosedLoop.cpp ****     // ADC ÕĆ╝Õ╝éÕĖĖ’╝łµé¼ń®║/µ£¬µÄźńāŁµĢÅńöĄķś╗ ĶĘ│Ķ┐ćĶ«Īń«Ś
 2447              		.loc 1 449 54 is_stmt 0 view .LVU706
 2448 0b2c D0F8B030 		ldr	r3, [r0, #176]
 449:My_Top/Motor_Control/DcMotor_ClosedLoop.cpp ****     // ADC ÕĆ╝Õ╝éÕĖĖ’╝łµé¼ń®║/µ£¬µÄźńāŁµĢÅńöĄķś╗ ĶĘ│Ķ┐ćĶ«Īń«Ś
 2449              		.loc 1 449 69 view .LVU707
 2450 0b30 93F82220 		ldrb	r2, [r3, #34]	@ zero_extendqisi2
ARM GAS  /tmp/ccBC5zcM.s 			page 70


 449:My_Top/Motor_Control/DcMotor_ClosedLoop.cpp ****     // ADC ÕĆ╝Õ╝éÕĖĖ’╝łµé¼ń®║/µ£¬µÄźńāŁµĢÅńöĄķś╗ ĶĘ│Ķ┐ćĶ«Īń«Ś
 2451              		.loc 1 449 80 view .LVU708
 2452 0b34 384B     		ldr	r3, .L147+24
 2453 0b36 03EB4203 		add	r3, r3, r2, lsl #1
 2454 0b3a B3F8B835 		ldrh	r3, [r3, #1464]
 2455 0b3e 00EE103A 		vmov	s0, r3	@ int
 449:My_Top/Motor_Control/DcMotor_ClosedLoop.cpp ****     // ADC ÕĆ╝Õ╝éÕĖĖ’╝łµé¼ń®║/µ£¬µÄźńāŁµĢÅńöĄķś╗ ĶĘ│Ķ┐ćĶ«Īń«Ś
 2456              		.loc 1 449 36 view .LVU709
 2457 0b42 B8EE400A 		vcvt.f32.u32	s0, s0
 2458 0b46 9430     		adds	r0, r0, #148
 2459              	.LVL212:
 449:My_Top/Motor_Control/DcMotor_ClosedLoop.cpp ****     // ADC ÕĆ╝Õ╝éÕĖĖ’╝łµé¼ń®║/µ£¬µÄźńāŁµĢÅńöĄķś╗ ĶĘ│Ķ┐ćĶ«Īń«Ś
 2460              		.loc 1 449 36 view .LVU710
 2461 0b48 FFF7FEFF 		bl	_ZN9AvgFilter6filterEf
 2462              	.LVL213:
 451:My_Top/Motor_Control/DcMotor_ClosedLoop.cpp **** 
 2463              		.loc 1 451 5 is_stmt 1 view .LVU711
 2464 0b4c F2EE047A 		vmov.f32	s15, #1.0e+1
 2465 0b50 B4EEE70A 		vcmpe.f32	s0, s15
 2466 0b54 F1EE10FA 		vmrs	APSR_nzcv, FPSCR
 2467 0b58 08D4     		bmi	.L143
 2468 0b5a B0EE408A 		vmov.f32	s16, s0
 451:My_Top/Motor_Control/DcMotor_ClosedLoop.cpp **** 
 2469              		.loc 1 451 28 is_stmt 0 discriminator 2 view .LVU712
 2470 0b5e DFED2F7A 		vldr.32	s15, .L147+28
 2471 0b62 B4EEE70A 		vcmpe.f32	s0, s15
 2472 0b66 F1EE10FA 		vmrs	APSR_nzcv, FPSCR
 2473 0b6a 02DD     		ble	.L146
 2474              	.LVL214:
 2475              	.L143:
 2476              		.loc 1 458 1 view .LVU713
 2477 0b6c BDEC028B 		vldm	sp!, {d8}
 2478              		.cfi_remember_state
 2479              		.cfi_restore 80
 2480              		.cfi_restore 81
 2481              		.cfi_def_cfa_offset 16
 2482 0b70 D0BD     		pop	{r4, r6, r7, pc}
 2483              	.LVL215:
 2484              	.L146:
 2485              		.cfi_restore_state
 453:My_Top/Motor_Control/DcMotor_ClosedLoop.cpp **** 
 2486              		.loc 1 453 5 is_stmt 1 view .LVU714
 453:My_Top/Motor_Control/DcMotor_ClosedLoop.cpp **** 
 2487              		.loc 1 453 29 is_stmt 0 view .LVU715
 2488 0b72 DFED2B7A 		vldr.32	s15, .L147+32
 2489 0b76 77EEC07A 		vsub.f32	s15, s15, s0
 2490 0b7a 17EE900A 		vmov	r0, s15
 2491 0b7e FFF7FEFF 		bl	__aeabi_f2d
 2492              	.LVL216:
 453:My_Top/Motor_Control/DcMotor_ClosedLoop.cpp **** 
 2493              		.loc 1 453 23 view .LVU716
 2494 0b82 0022     		movs	r2, #0
 2495 0b84 274B     		ldr	r3, .L147+36
 2496 0b86 FFF7FEFF 		bl	__aeabi_dmul
 2497              	.LVL217:
 2498 0b8a 0646     		mov	r6, r0
 2499 0b8c 0F46     		mov	r7, r1
ARM GAS  /tmp/ccBC5zcM.s 			page 71


 453:My_Top/Motor_Control/DcMotor_ClosedLoop.cpp **** 
 2500              		.loc 1 453 44 view .LVU717
 2501 0b8e 18EE100A 		vmov	r0, s16
 2502 0b92 FFF7FEFF 		bl	__aeabi_f2d
 2503              	.LVL218:
 2504 0b96 0246     		mov	r2, r0
 2505 0b98 0B46     		mov	r3, r1
 453:My_Top/Motor_Control/DcMotor_ClosedLoop.cpp **** 
 2506              		.loc 1 453 42 view .LVU718
 2507 0b9a 3046     		mov	r0, r6
 2508 0b9c 3946     		mov	r1, r7
 2509 0b9e FFF7FEFF 		bl	__aeabi_ddiv
 2510              	.LVL219:
 2511 0ba2 FFF7FEFF 		bl	__aeabi_d2f
 2512              	.LVL220:
 453:My_Top/Motor_Control/DcMotor_ClosedLoop.cpp **** 
 2513              		.loc 1 453 17 view .LVU719
 2514 0ba6 6063     		str	r0, [r4, #52]	@ float
 455:My_Top/Motor_Control/DcMotor_ClosedLoop.cpp ****     
 2515              		.loc 1 455 5 is_stmt 1 view .LVU720
 455:My_Top/Motor_Control/DcMotor_ClosedLoop.cpp ****     
 2516              		.loc 1 455 37 is_stmt 0 view .LVU721
 2517 0ba8 FFF7FEFF 		bl	__aeabi_f2d
 2518              	.LVL221:
 455:My_Top/Motor_Control/DcMotor_ClosedLoop.cpp ****     
 2519              		.loc 1 455 36 view .LVU722
 2520 0bac 0022     		movs	r2, #0
 2521 0bae 1D4B     		ldr	r3, .L147+36
 2522 0bb0 FFF7FEFF 		bl	__aeabi_ddiv
 2523              	.LVL222:
 2524 0bb4 41EC100B 		vmov	d0, r0, r1
 2525 0bb8 FFF7FEFF 		bl	log
 2526              	.LVL223:
 2527 0bbc 51EC100B 		vmov	r0, r1, d0
 455:My_Top/Motor_Control/DcMotor_ClosedLoop.cpp ****     
 2528              		.loc 1 455 59 discriminator 1 view .LVU723
 2529 0bc0 0FA3     		adr	r3, .L147
 2530 0bc2 D3E90023 		ldrd	r2, [r3]
 2531 0bc6 FFF7FEFF 		bl	__aeabi_ddiv
 2532              	.LVL224:
 455:My_Top/Motor_Control/DcMotor_ClosedLoop.cpp ****     
 2533              		.loc 1 455 31 discriminator 1 view .LVU724
 2534 0bca 0FA3     		adr	r3, .L147+8
 2535 0bcc D3E90023 		ldrd	r2, [r3]
 2536 0bd0 FFF7FEFF 		bl	__aeabi_dadd
 2537              	.LVL225:
 455:My_Top/Motor_Control/DcMotor_ClosedLoop.cpp ****     
 2538              		.loc 1 455 61 discriminator 1 view .LVU725
 2539 0bd4 FFF7FEFF 		bl	__aeabi_d2f
 2540              	.LVL226:
 2541 0bd8 07EE900A 		vmov	s15, r0
 2542              	.LVL227:
 457:My_Top/Motor_Control/DcMotor_ClosedLoop.cpp **** }
 2543              		.loc 1 457 5 is_stmt 1 view .LVU726
 457:My_Top/Motor_Control/DcMotor_ClosedLoop.cpp **** }
 2544              		.loc 1 457 26 is_stmt 0 view .LVU727
 2545 0bdc B7EE007A 		vmov.f32	s14, #1.0e+0
ARM GAS  /tmp/ccBC5zcM.s 			page 72


 2546 0be0 C7EE277A 		vdiv.f32	s15, s14, s15
 2547 0be4 17EE900A 		vmov	r0, s15
 2548              	.LVL228:
 457:My_Top/Motor_Control/DcMotor_ClosedLoop.cpp **** }
 2549              		.loc 1 457 26 view .LVU728
 2550 0be8 FFF7FEFF 		bl	__aeabi_f2d
 2551              	.LVL229:
 457:My_Top/Motor_Control/DcMotor_ClosedLoop.cpp **** }
 2552              		.loc 1 457 35 view .LVU729
 2553 0bec 08A3     		adr	r3, .L147+16
 2554 0bee D3E90023 		ldrd	r2, [r3]
 2555 0bf2 FFF7FEFF 		bl	__aeabi_dsub
 2556              	.LVL230:
 2557 0bf6 FFF7FEFF 		bl	__aeabi_d2f
 2558              	.LVL231:
 457:My_Top/Motor_Control/DcMotor_ClosedLoop.cpp **** }
 2559              		.loc 1 457 18 view .LVU730
 2560 0bfa A063     		str	r0, [r4, #56]	@ float
 2561 0bfc B6E7     		b	.L143
 2562              	.L148:
 2563 0bfe 00BF     		.align	3
 2564              	.L147:
 2565 0c00 00000000 		.word	0
 2566 0c04 00DCAE40 		.word	1085201408
 2567 0c08 AA9D755E 		.word	1584766378
 2568 0c0c 034B6B3F 		.word	1063996163
 2569 0c10 66666666 		.word	1717986918
 2570 0c14 66327140 		.word	1081160294
 2571 0c18 00000000 		.word	.LANCHOR0
 2572 0c1c 00607F45 		.word	1165975552
 2573 0c20 00008045 		.word	1166016512
 2574 0c24 00002440 		.word	1076101120
 2575              		.cfi_endproc
 2576              	.LFE1361:
 2578              		.align	1
 2579              		.syntax unified
 2580              		.thumb
 2581              		.thumb_func
 2583              	_GLOBAL__sub_I__ZN8DC_Motor14selected_motorE:
 2584              	.LFB1513:
 2585              		.loc 1 458 1 is_stmt 1 view -0
 2586              		.cfi_startproc
 2587              		@ args = 0, pretend = 0, frame = 0
 2588              		@ frame_needed = 0, uses_anonymous_args = 0
 2589 0c28 08B5     		push	{r3, lr}
 2590              		.cfi_def_cfa_offset 8
 2591              		.cfi_offset 3, -8
 2592              		.cfi_offset 14, -4
 2593              		.loc 1 458 1 is_stmt 0 view .LVU732
 2594 0c2a FFF7E9F9 		bl	_Z41__static_initialization_and_destruction_0v
 2595              	.LVL232:
 2596 0c2e 08BD     		pop	{r3, pc}
 2597              		.cfi_endproc
 2598              	.LFE1513:
 2600              		.section	.init_array,"aw",%init_array
 2601              		.align	2
 2602 0000 00000000 		.word	_GLOBAL__sub_I__ZN8DC_Motor14selected_motorE(target1)
ARM GAS  /tmp/ccBC5zcM.s 			page 73


 2603              		.global	M4
 2604              		.global	M3
 2605              		.global	M2
 2606              		.global	M1
 2607              		.global	lqr_M4
 2608              		.global	pid_loc_M4
 2609              		.global	pid_spd_M4
 2610              		.global	lqr_M3
 2611              		.global	pid_loc_M3
 2612              		.global	pid_spd_M3
 2613              		.global	lqr_M2
 2614              		.global	pid_loc_M2
 2615              		.global	pid_spd_M2
 2616              		.global	lqr_M1
 2617              		.global	pid_loc_M1
 2618              		.global	pid_spd_M1
 2619              		.global	kth7111_M4
 2620              		.global	kth7111_M3
 2621              		.global	kth7111_M2
 2622              		.global	kth7111_M1
 2623              		.global	_ZN8DC_Motor9ADC_ValueE
 2624              		.global	_ZN8DC_Motor14selected_motorE
 2625              		.bss
 2626              		.align	3
 2627              		.set	.LANCHOR0,. + 0
 2630              	kth7111_M1:
 2631 0000 00000000 		.space	20
 2631      00000000 
 2631      00000000 
 2631      00000000 
 2631      00000000 
 2634              	kth7111_M2:
 2635 0014 00000000 		.space	20
 2635      00000000 
 2635      00000000 
 2635      00000000 
 2635      00000000 
 2638              	kth7111_M3:
 2639 0028 00000000 		.space	20
 2639      00000000 
 2639      00000000 
 2639      00000000 
 2639      00000000 
 2642              	kth7111_M4:
 2643 003c 00000000 		.space	20
 2643      00000000 
 2643      00000000 
 2643      00000000 
 2643      00000000 
 2646              	pid_spd_M1:
 2647 0050 00000000 		.space	36
 2647      00000000 
 2647      00000000 
 2647      00000000 
 2647      00000000 
 2650              	pid_loc_M1:
 2651 0074 00000000 		.space	56
ARM GAS  /tmp/ccBC5zcM.s 			page 74


 2651      00000000 
 2651      00000000 
 2651      00000000 
 2651      00000000 
 2654              	lqr_M1:
 2655 00ac 00000000 		.space	20
 2655      00000000 
 2655      00000000 
 2655      00000000 
 2655      00000000 
 2658              	pid_spd_M2:
 2659 00c0 00000000 		.space	36
 2659      00000000 
 2659      00000000 
 2659      00000000 
 2659      00000000 
 2662              	pid_loc_M2:
 2663 00e4 00000000 		.space	56
 2663      00000000 
 2663      00000000 
 2663      00000000 
 2663      00000000 
 2666              	lqr_M2:
 2667 011c 00000000 		.space	20
 2667      00000000 
 2667      00000000 
 2667      00000000 
 2667      00000000 
 2670              	pid_spd_M3:
 2671 0130 00000000 		.space	36
 2671      00000000 
 2671      00000000 
 2671      00000000 
 2671      00000000 
 2674              	pid_loc_M3:
 2675 0154 00000000 		.space	56
 2675      00000000 
 2675      00000000 
 2675      00000000 
 2675      00000000 
 2678              	lqr_M3:
 2679 018c 00000000 		.space	20
 2679      00000000 
 2679      00000000 
 2679      00000000 
 2679      00000000 
 2682              	pid_spd_M4:
 2683 01a0 00000000 		.space	36
 2683      00000000 
 2683      00000000 
 2683      00000000 
 2683      00000000 
 2686              	pid_loc_M4:
 2687 01c4 00000000 		.space	56
 2687      00000000 
 2687      00000000 
 2687      00000000 
ARM GAS  /tmp/ccBC5zcM.s 			page 75


 2687      00000000 
 2690              	lqr_M4:
 2691 01fc 00000000 		.space	20
 2691      00000000 
 2691      00000000 
 2691      00000000 
 2691      00000000 
 2694              	M1:
 2695 0210 00000000 		.space	232
 2695      00000000 
 2695      00000000 
 2695      00000000 
 2695      00000000 
 2698              	M2:
 2699 02f8 00000000 		.space	232
 2699      00000000 
 2699      00000000 
 2699      00000000 
 2699      00000000 
 2702              	M3:
 2703 03e0 00000000 		.space	232
 2703      00000000 
 2703      00000000 
 2703      00000000 
 2703      00000000 
 2706              	M4:
 2707 04c8 00000000 		.space	232
 2707      00000000 
 2707      00000000 
 2707      00000000 
 2707      00000000 
 2710              	_ZZN8DC_Motor28Update_Speed_Angle_LPFAndPLLEvE9fudu_test:
 2711 05b0 00000000 		.space	4
 2714              	_ZZN8DC_Motor28Update_Speed_Angle_LPFAndPLLEvE18theta_m_offic_temp:
 2715 05b4 00000000 		.space	4
 2718              	_ZN8DC_Motor9ADC_ValueE:
 2719 05b8 00000000 		.space	16
 2719      00000000 
 2719      00000000 
 2719      00000000 
 2722              	_ZN8DC_Motor14selected_motorE:
 2723 05c8 00       		.space	1
 2724              		.text
 2725              	.Letext0:
 2726              		.file 9 "/opt/arm-gnu-toolchain-14.2/arm-none-eabi/include/machine/_default_types.h"
 2727              		.file 10 "/opt/arm-gnu-toolchain-14.2/arm-none-eabi/include/sys/_stdint.h"
 2728              		.file 11 "/opt/arm-gnu-toolchain-14.2/arm-none-eabi/include/c++/14.2.1/type_traits"
 2729              		.file 12 "/opt/arm-gnu-toolchain-14.2/arm-none-eabi/include/c++/14.2.1/debug/debug.h"
 2730              		.file 13 "/opt/arm-gnu-toolchain-14.2/arm-none-eabi/include/c++/14.2.1/bits/std_abs.h"
 2731              		.file 14 "/opt/arm-gnu-toolchain-14.2/arm-none-eabi/include/c++/14.2.1/bits/predefined_ops.h"
 2732              		.file 15 "/opt/arm-gnu-toolchain-14.2/arm-none-eabi/include/math.h"
 2733              		.file 16 "/opt/arm-gnu-toolchain-14.2/arm-none-eabi/include/c++/14.2.1/arm-none-eabi/thumb/v7e-m+f
 2734              		.file 17 "/opt/arm-gnu-toolchain-14.2/arm-none-eabi/include/c++/14.2.1/math.h"
 2735              		.file 18 "Lib/compute/ex_math.hpp"
 2736              		.file 19 "Drivers/CMSIS/Device/ST/STM32G4xx/Include/stm32g474xx.h"
 2737              		.file 20 "Drivers/STM32G4xx_HAL_Driver/Inc/stm32g4xx_hal_def.h"
 2738              		.file 21 "Drivers/STM32G4xx_HAL_Driver/Inc/stm32g4xx_hal_dma.h"
ARM GAS  /tmp/ccBC5zcM.s 			page 76


 2739              		.file 22 "Drivers/STM32G4xx_HAL_Driver/Inc/stm32g4xx_hal_spi.h"
 2740              		.file 23 "Drivers/STM32G4xx_HAL_Driver/Inc/stm32g4xx_hal_tim.h"
 2741              		.file 24 "My_Top/System/bsp.hpp"
 2742              		.file 25 "Core/Inc/tim.h"
 2743              		.file 26 "Middlewares/Third_Party/FreeRTOS/Source/portable/GCC/ARM_CM4F/portmacro.h"
 2744              		.file 27 "My_Top/System/Motor_Param.hpp"
 2745              		.file 28 "Drivers/STM32G4xx_HAL_Driver/Inc/stm32g4xx_hal_tim_ex.h"
 2746              		.file 29 "Middlewares/Third_Party/FreeRTOS/Source/include/task.h"
 2747              		.file 30 "Drivers/STM32G4xx_HAL_Driver/Inc/stm32g4xx_hal_rcc.h"
ARM GAS  /tmp/ccBC5zcM.s 			page 77

