ARM GAS  /tmp/ccuUIbvr.s 			page 1


   1              		.cpu cortex-m4
   2              		.arch armv7e-m
   3              		.fpu fpv4-sp-d16
   4              		.eabi_attribute 27, 1
   5              		.eabi_attribute 28, 1
   6              		.eabi_attribute 20, 1
   7              		.eabi_attribute 21, 1
   8              		.eabi_attribute 23, 3
   9              		.eabi_attribute 24, 1
  10              		.eabi_attribute 25, 1
  11              		.eabi_attribute 26, 1
  12              		.eabi_attribute 30, 1
  13              		.eabi_attribute 34, 1
  14              		.eabi_attribute 18, 4
  15              		.file	"DcMotor_ClosedLoop.cpp"
  16              		.text
  17              	.Ltext0:
  18              		.cfi_sections	.debug_frame
  19              		.file 1 "My_Top/Motor_Control/DcMotor_ClosedLoop.cpp"
  20              		.align	1
  21              		.syntax unified
  22              		.thumb
  23              		.thumb_func
  25              	_Z41__static_initialization_and_destruction_0v:
  26              	.LFB1511:
   1:My_Top/Motor_Control/DcMotor_ClosedLoop.cpp **** #include "DcMotor_ClosedLoop.hpp"
   2:My_Top/Motor_Control/DcMotor_ClosedLoop.cpp **** 
   3:My_Top/Motor_Control/DcMotor_ClosedLoop.cpp **** uint8_t DC_Motor::selected_motor = 0;// ķØÖµĆüµłÉÕæśÕ«Üõ╣ē
   4:My_Top/Motor_Control/DcMotor_ClosedLoop.cpp **** uint16_t DC_Motor::ADC_Value[max_chl_num] = {0};// ķØÖµĆüµłÉÕæśÕ«Üõ╣ē
   5:My_Top/Motor_Control/DcMotor_ClosedLoop.cpp **** 
   6:My_Top/Motor_Control/DcMotor_ClosedLoop.cpp **** 
   7:My_Top/Motor_Control/DcMotor_ClosedLoop.cpp **** KTH7111 kth7111_M1(&M1_PWM); //ń╝¢ńĀüÕÖ©Õ»╣Ķ▒Ī’╝ī
   8:My_Top/Motor_Control/DcMotor_ClosedLoop.cpp **** KTH7111 kth7111_M2(&M2_PWM); //ń╝¢ńĀüÕÖ©Õ»╣Ķ▒Ī
   9:My_Top/Motor_Control/DcMotor_ClosedLoop.cpp **** KTH7111 kth7111_M3(&M3_PWM); //ń╝¢ńĀüÕÖ©Õ»╣Ķ▒Ī’╝ī
  10:My_Top/Motor_Control/DcMotor_ClosedLoop.cpp **** KTH7111 kth7111_M4(&M4_PWM); //ń╝¢ńĀüÕÖ©Õ»╣Ķ▒Ī
  11:My_Top/Motor_Control/DcMotor_ClosedLoop.cpp **** 
  12:My_Top/Motor_Control/DcMotor_ClosedLoop.cpp **** PID_Increment pid_spd_M1(0.0, 0.0, 0.0, 1.0/DC_VELOCITY_LOOP_FREQ_HZ, 0.8, -0.8);
  13:My_Top/Motor_Control/DcMotor_ClosedLoop.cpp **** PID           pid_loc_M1(0.0, 0.0, 0.0, 1.0/DC_POSITION_LOOP_FREQ_HZ, 0.8*20, 20.0, -20.0);
  14:My_Top/Motor_Control/DcMotor_ClosedLoop.cpp **** LQR lqr_M1(2.0f, 0.20f, 1.0f, -1.0f);
  15:My_Top/Motor_Control/DcMotor_ClosedLoop.cpp **** 
  16:My_Top/Motor_Control/DcMotor_ClosedLoop.cpp **** PID_Increment pid_spd_M2(0.0, 0.0, 0.0, 1.0/DC_VELOCITY_LOOP_FREQ_HZ, 0.8, -0.8);
  17:My_Top/Motor_Control/DcMotor_ClosedLoop.cpp **** PID           pid_loc_M2(0.0, 0.0, 0.0, 1.0/DC_POSITION_LOOP_FREQ_HZ, 0.8*20, 20.0, -20.0);
  18:My_Top/Motor_Control/DcMotor_ClosedLoop.cpp **** LQR lqr_M2(2.0f, 0.20f, 1.0f, -1.0f);
  19:My_Top/Motor_Control/DcMotor_ClosedLoop.cpp **** 
  20:My_Top/Motor_Control/DcMotor_ClosedLoop.cpp **** PID_Increment pid_spd_M3(0.0, 0.0, 0.0, 1.0/DC_VELOCITY_LOOP_FREQ_HZ, 0.8, -0.8);
  21:My_Top/Motor_Control/DcMotor_ClosedLoop.cpp **** PID           pid_loc_M3(0.0, 0.0, 0.0, 1.0/DC_POSITION_LOOP_FREQ_HZ, 0.8*20, 20.0, -20.0);
  22:My_Top/Motor_Control/DcMotor_ClosedLoop.cpp **** LQR lqr_M3(2.0f, 0.20f, 1.0f, -1.0f);
  23:My_Top/Motor_Control/DcMotor_ClosedLoop.cpp **** 
  24:My_Top/Motor_Control/DcMotor_ClosedLoop.cpp **** PID_Increment pid_spd_M4(0.0, 0.0, 0.0, 1.0/DC_VELOCITY_LOOP_FREQ_HZ, 0.8, -0.8);
  25:My_Top/Motor_Control/DcMotor_ClosedLoop.cpp **** PID           pid_loc_M4(0.0, 0.0, 0.0, 1.0/DC_POSITION_LOOP_FREQ_HZ, 0.8*20, 20.0, -20.0);
  26:My_Top/Motor_Control/DcMotor_ClosedLoop.cpp **** LQR lqr_M4(2.0f, 0.20f, 1.0f, -1.0f);
  27:My_Top/Motor_Control/DcMotor_ClosedLoop.cpp **** 
  28:My_Top/Motor_Control/DcMotor_ClosedLoop.cpp **** DC_Motor M1(&M1_PWM, &kth7111_M1, &pid_spd_M1, &pid_loc_M1,&lqr_M1); //ńöĄµ£║1
  29:My_Top/Motor_Control/DcMotor_ClosedLoop.cpp **** DC_Motor M2(&M2_PWM, &kth7111_M2, &pid_spd_M2, &pid_loc_M2,&lqr_M2); //ńöĄµ£║2
  30:My_Top/Motor_Control/DcMotor_ClosedLoop.cpp **** DC_Motor M3(&M3_PWM, &kth7111_M3, &pid_spd_M3, &pid_loc_M3,&lqr_M3); //ńöĄµ£║3
  31:My_Top/Motor_Control/DcMotor_ClosedLoop.cpp **** DC_Motor M4(&M4_PWM, &kth7111_M4, &pid_spd_M4, &pid_loc_M4,&lqr_M4); //ńöĄµ£║4
  32:My_Top/Motor_Control/DcMotor_ClosedLoop.cpp **** 
ARM GAS  /tmp/ccuUIbvr.s 			page 2


  33:My_Top/Motor_Control/DcMotor_ClosedLoop.cpp **** 
  34:My_Top/Motor_Control/DcMotor_ClosedLoop.cpp **** 
  35:My_Top/Motor_Control/DcMotor_ClosedLoop.cpp **** void DC_Motor::test_laji()
  36:My_Top/Motor_Control/DcMotor_ClosedLoop.cpp **** {
  37:My_Top/Motor_Control/DcMotor_ClosedLoop.cpp ****    
  38:My_Top/Motor_Control/DcMotor_ClosedLoop.cpp ****     __HAL_TIM_SET_AUTORELOAD(&htim1, 100);//Ķ«ŠńĮ«Õæ©µ£¤ 
  39:My_Top/Motor_Control/DcMotor_ClosedLoop.cpp ****     __HAL_TIM_SET_COMPARE(&htim1, TIM_CHANNEL_1, 100);//Ķ«ŠńĮ«õĖŖµĪźĶćéÕŹĀń®║µ»ö 
  40:My_Top/Motor_Control/DcMotor_ClosedLoop.cpp ****     __HAL_TIM_SET_COMPARE(&htim1, TIM_CHANNEL_2, 100);//Ķ«ŠńĮ«õĖŗµĪźĶćéÕŹĀń®║µ»ö
  41:My_Top/Motor_Control/DcMotor_ClosedLoop.cpp ****     HAL_TIM_PWM_Start(&htim1, TIM_CHANNEL_1);
  42:My_Top/Motor_Control/DcMotor_ClosedLoop.cpp ****     HAL_TIMEx_PWMN_Start(&htim1, TIM_CHANNEL_1);
  43:My_Top/Motor_Control/DcMotor_ClosedLoop.cpp ****     HAL_TIM_PWM_Start(&htim1, TIM_CHANNEL_2);
  44:My_Top/Motor_Control/DcMotor_ClosedLoop.cpp ****     HAL_TIMEx_PWMN_Start(&htim1, TIM_CHANNEL_2);
  45:My_Top/Motor_Control/DcMotor_ClosedLoop.cpp **** }
  46:My_Top/Motor_Control/DcMotor_ClosedLoop.cpp **** 
  47:My_Top/Motor_Control/DcMotor_ClosedLoop.cpp **** 
  48:My_Top/Motor_Control/DcMotor_ClosedLoop.cpp **** void DC_Motor::My_DC_Motor_Init()
  49:My_Top/Motor_Control/DcMotor_ClosedLoop.cpp **** {
  50:My_Top/Motor_Control/DcMotor_ClosedLoop.cpp ****     uint32_t sysclk = HAL_RCC_GetSysClockFreq();
  51:My_Top/Motor_Control/DcMotor_ClosedLoop.cpp ****     timer_clock_freq_ = sysclk / (_motor_config->htim->Instance->PSC + 1);
  52:My_Top/Motor_Control/DcMotor_ClosedLoop.cpp **** 
  53:My_Top/Motor_Control/DcMotor_ClosedLoop.cpp ****     speed_lpf.init(0.7);
  54:My_Top/Motor_Control/DcMotor_ClosedLoop.cpp ****     error_lpf.init(0.7);
  55:My_Top/Motor_Control/DcMotor_ClosedLoop.cpp ****     speed_avg.init(5);
  56:My_Top/Motor_Control/DcMotor_ClosedLoop.cpp ****     adc_val_avg.init(100);//ADCķććµĀĘÕĆ╝µ╗żµ│ó //67µ×üķÖÉ
  57:My_Top/Motor_Control/DcMotor_ClosedLoop.cpp **** 
  58:My_Top/Motor_Control/DcMotor_ClosedLoop.cpp ****     // ===== ŌæĀ Ķ«ŠķóæńÄćÕÆīÕŹĀń®║µ»ö’╝ł0% ńö©õ║ÄÕģģńöĄ’╝ē =====
  59:My_Top/Motor_Control/DcMotor_ClosedLoop.cpp ****     Set_Motor_Glo_Duty();//Ķ«ŠńĮ«ńöĄµ£║Õģ©Õ▒ĆÕŹĀń®║µ»ö
  60:My_Top/Motor_Control/DcMotor_ClosedLoop.cpp **** 
  61:My_Top/Motor_Control/DcMotor_ClosedLoop.cpp ****     // ===== ŌæĪ Ķć¬õĖŠńöĄÕ«╣ķóäÕģģńöĄ’╝ÜCCR=0 ŌåÆ õĖŗń«ĪÕ»╝ķĆÜ ŌåÆ ńöĄÕ«╣ÕģģńöĄ =====
  62:My_Top/Motor_Control/DcMotor_ClosedLoop.cpp ****     Motor_EN(true);  // µēōÕ╝ĆPWMĶŠōÕć║
  63:My_Top/Motor_Control/DcMotor_ClosedLoop.cpp ****     vTaskDelay(pdMS_TO_TICKS(1));  // ńŁē 1ms Õģģµ╗Ī
  64:My_Top/Motor_Control/DcMotor_ClosedLoop.cpp ****     Motor_EN(false); // Õģ│ķŚŁPWMĶŠōÕć║
  65:My_Top/Motor_Control/DcMotor_ClosedLoop.cpp **** 
  66:My_Top/Motor_Control/DcMotor_ClosedLoop.cpp ****     _encoder->KTH7111_Init(motor_encoder_dir);
  67:My_Top/Motor_Control/DcMotor_ClosedLoop.cpp ****     control_init_flag = true;
  68:My_Top/Motor_Control/DcMotor_ClosedLoop.cpp **** }
  69:My_Top/Motor_Control/DcMotor_ClosedLoop.cpp **** 
  70:My_Top/Motor_Control/DcMotor_ClosedLoop.cpp **** 
  71:My_Top/Motor_Control/DcMotor_ClosedLoop.cpp **** 
  72:My_Top/Motor_Control/DcMotor_ClosedLoop.cpp **** void DC_Motor::Set_Motor_Frequency() //ÕŹĢńŗ¼Ķ«ŠńĮ«ńöĄµ£║ķóæńÄćÕÆīÕŹĀń®║µ»ö
  73:My_Top/Motor_Control/DcMotor_ClosedLoop.cpp **** {
  74:My_Top/Motor_Control/DcMotor_ClosedLoop.cpp ****     bool new_dir = false;
  75:My_Top/Motor_Control/DcMotor_ClosedLoop.cpp ****     uint32_t arr = 0;
  76:My_Top/Motor_Control/DcMotor_ClosedLoop.cpp ****     uint16_t Fre = (uint16_t)motor_freq;//ĶĮ¼µĢ┤µĢ░Ķ«Īń«Ś
  77:My_Top/Motor_Control/DcMotor_ClosedLoop.cpp ****     float up_duty = constraint_value(motor_up_duty, 0.0f, 1.0f); //ķÖÉÕłČÕŹĀń®║µ»öÕ£©0~1õ╣ŗķŚ┤
  78:My_Top/Motor_Control/DcMotor_ClosedLoop.cpp ****     float down_duty = constraint_value(motor_down_duty, 0.0f, 1.0f); //ķÖÉÕłČÕŹĀń®║µ»öÕ£©0~1õ╣ŗķŚ┤
  79:My_Top/Motor_Control/DcMotor_ClosedLoop.cpp **** 
  80:My_Top/Motor_Control/DcMotor_ClosedLoop.cpp ****     if (Fre == Fre_last && up_duty == up_duty_last && down_duty == down_duty_last) return;// Õ”éµ×£
  81:My_Top/Motor_Control/DcMotor_ClosedLoop.cpp ****     Fre_last = Fre;
  82:My_Top/Motor_Control/DcMotor_ClosedLoop.cpp ****     up_duty_last = up_duty;
  83:My_Top/Motor_Control/DcMotor_ClosedLoop.cpp ****     down_duty_last = down_duty;
  84:My_Top/Motor_Control/DcMotor_ClosedLoop.cpp **** 
  85:My_Top/Motor_Control/DcMotor_ClosedLoop.cpp ****     if (Fre == 0 ){Motor_EN(false); return;}
  86:My_Top/Motor_Control/DcMotor_ClosedLoop.cpp ****     else {Motor_EN(true);}
  87:My_Top/Motor_Control/DcMotor_ClosedLoop.cpp **** 
  88:My_Top/Motor_Control/DcMotor_ClosedLoop.cpp ****     arr = timer_clock_freq_ / Fre;
  89:My_Top/Motor_Control/DcMotor_ClosedLoop.cpp ****     if (arr >= 65535) arr = 65535;
ARM GAS  /tmp/ccuUIbvr.s 			page 3


  90:My_Top/Motor_Control/DcMotor_ClosedLoop.cpp ****     else if (arr <= 1) arr = 1;
  91:My_Top/Motor_Control/DcMotor_ClosedLoop.cpp **** 
  92:My_Top/Motor_Control/DcMotor_ClosedLoop.cpp ****     _motor_config->htim->Instance->CNT = 0; // µĖģķøČĶ«ĪµĢ░ÕÖ©
  93:My_Top/Motor_Control/DcMotor_ClosedLoop.cpp ****     __HAL_TIM_SET_AUTORELOAD(_motor_config->htim, (uint16_t)(arr - 1));//Ķ«ŠńĮ«Õæ©µ£¤ 
  94:My_Top/Motor_Control/DcMotor_ClosedLoop.cpp ****     __HAL_TIM_SET_COMPARE(_motor_config->htim, _motor_config->ch_hin1, (uint32_t)(arr*up_duty));//Ķ
  95:My_Top/Motor_Control/DcMotor_ClosedLoop.cpp ****     __HAL_TIM_SET_COMPARE(_motor_config->htim, _motor_config->ch_hin2, (uint32_t)(arr*down_duty));/
  96:My_Top/Motor_Control/DcMotor_ClosedLoop.cpp **** }
  97:My_Top/Motor_Control/DcMotor_ClosedLoop.cpp **** 
  98:My_Top/Motor_Control/DcMotor_ClosedLoop.cpp **** 
  99:My_Top/Motor_Control/DcMotor_ClosedLoop.cpp **** 
 100:My_Top/Motor_Control/DcMotor_ClosedLoop.cpp **** void DC_Motor::Set_Motor_Glo_Duty() //Ķ«ŠńĮ«ńöĄµ£║Õģ©Õ▒ĆÕŹĀń®║µ»ö
 101:My_Top/Motor_Control/DcMotor_ClosedLoop.cpp **** {
 102:My_Top/Motor_Control/DcMotor_ClosedLoop.cpp ****     float duty = constraint_value(updown_duty, -1.0f, 1.0f);
 103:My_Top/Motor_Control/DcMotor_ClosedLoop.cpp **** 
 104:My_Top/Motor_Control/DcMotor_ClosedLoop.cpp ****     if (duty == 0.0f || fabsf(duty) < 1e-6f)
 105:My_Top/Motor_Control/DcMotor_ClosedLoop.cpp ****     {
 106:My_Top/Motor_Control/DcMotor_ClosedLoop.cpp ****         motor_up_duty = motor_down_duty = 0.0f; //ńöĄµĄüµ×üÕż¦ ?????
 107:My_Top/Motor_Control/DcMotor_ClosedLoop.cpp ****         Motor_EN(false);
 108:My_Top/Motor_Control/DcMotor_ClosedLoop.cpp ****     }else if (duty > 0.0f) 
 109:My_Top/Motor_Control/DcMotor_ClosedLoop.cpp ****     {
 110:My_Top/Motor_Control/DcMotor_ClosedLoop.cpp ****         motor_up_duty = duty;
 111:My_Top/Motor_Control/DcMotor_ClosedLoop.cpp ****         motor_down_duty = 0.0f;
 112:My_Top/Motor_Control/DcMotor_ClosedLoop.cpp ****         Motor_EN(true);
 113:My_Top/Motor_Control/DcMotor_ClosedLoop.cpp ****     }else if (duty < 0.0f) 
 114:My_Top/Motor_Control/DcMotor_ClosedLoop.cpp ****     {
 115:My_Top/Motor_Control/DcMotor_ClosedLoop.cpp ****         motor_up_duty = 0.0f;
 116:My_Top/Motor_Control/DcMotor_ClosedLoop.cpp ****         motor_down_duty = -duty;
 117:My_Top/Motor_Control/DcMotor_ClosedLoop.cpp ****         Motor_EN(true);
 118:My_Top/Motor_Control/DcMotor_ClosedLoop.cpp ****     }
 119:My_Top/Motor_Control/DcMotor_ClosedLoop.cpp **** 
 120:My_Top/Motor_Control/DcMotor_ClosedLoop.cpp ****     Set_Motor_Frequency();
 121:My_Top/Motor_Control/DcMotor_ClosedLoop.cpp **** }
 122:My_Top/Motor_Control/DcMotor_ClosedLoop.cpp **** 
 123:My_Top/Motor_Control/DcMotor_ClosedLoop.cpp **** 
 124:My_Top/Motor_Control/DcMotor_ClosedLoop.cpp **** 
 125:My_Top/Motor_Control/DcMotor_ClosedLoop.cpp **** 
 126:My_Top/Motor_Control/DcMotor_ClosedLoop.cpp **** 
 127:My_Top/Motor_Control/DcMotor_ClosedLoop.cpp **** 
 128:My_Top/Motor_Control/DcMotor_ClosedLoop.cpp **** 
 129:My_Top/Motor_Control/DcMotor_ClosedLoop.cpp **** 
 130:My_Top/Motor_Control/DcMotor_ClosedLoop.cpp **** void DC_Motor::Motor_EN(bool en)
 131:My_Top/Motor_Control/DcMotor_ClosedLoop.cpp **** {
 132:My_Top/Motor_Control/DcMotor_ClosedLoop.cpp ****     if (en == _motor_is_on_last) return;  // ńŖČµĆüµ▓ĪÕÅś’╝īĶĘ│Ķ┐ć
 133:My_Top/Motor_Control/DcMotor_ClosedLoop.cpp ****     _motor_is_on_last = en;
 134:My_Top/Motor_Control/DcMotor_ClosedLoop.cpp **** 
 135:My_Top/Motor_Control/DcMotor_ClosedLoop.cpp ****     if (en)
 136:My_Top/Motor_Control/DcMotor_ClosedLoop.cpp ****     {
 137:My_Top/Motor_Control/DcMotor_ClosedLoop.cpp ****         HAL_TIM_PWM_Start(_motor_config->htim, _motor_config->ch_hin1);
 138:My_Top/Motor_Control/DcMotor_ClosedLoop.cpp ****         HAL_TIMEx_PWMN_Start(_motor_config->htim, _motor_config->ch_hin1);
 139:My_Top/Motor_Control/DcMotor_ClosedLoop.cpp ****         HAL_TIM_PWM_Start(_motor_config->htim, _motor_config->ch_hin2);
 140:My_Top/Motor_Control/DcMotor_ClosedLoop.cpp ****         HAL_TIMEx_PWMN_Start(_motor_config->htim, _motor_config->ch_hin2);
 141:My_Top/Motor_Control/DcMotor_ClosedLoop.cpp ****     }else
 142:My_Top/Motor_Control/DcMotor_ClosedLoop.cpp ****     {
 143:My_Top/Motor_Control/DcMotor_ClosedLoop.cpp ****         HAL_TIM_PWM_Stop(_motor_config->htim, _motor_config->ch_hin1);
 144:My_Top/Motor_Control/DcMotor_ClosedLoop.cpp ****         HAL_TIMEx_PWMN_Stop(_motor_config->htim, _motor_config->ch_hin1);
 145:My_Top/Motor_Control/DcMotor_ClosedLoop.cpp ****         HAL_TIM_PWM_Stop(_motor_config->htim, _motor_config->ch_hin2);
 146:My_Top/Motor_Control/DcMotor_ClosedLoop.cpp ****         HAL_TIMEx_PWMN_Stop(_motor_config->htim, _motor_config->ch_hin2);
ARM GAS  /tmp/ccuUIbvr.s 			page 4


 147:My_Top/Motor_Control/DcMotor_ClosedLoop.cpp ****     }
 148:My_Top/Motor_Control/DcMotor_ClosedLoop.cpp **** }
 149:My_Top/Motor_Control/DcMotor_ClosedLoop.cpp **** 
 150:My_Top/Motor_Control/DcMotor_ClosedLoop.cpp **** 
 151:My_Top/Motor_Control/DcMotor_ClosedLoop.cpp **** void DC_Motor::Update_Speed_Angle_LPFAndPLL() //µø┤µ¢░ķĆ¤Õ║”ÕÆīĶ¦ÆÕ║”
 152:My_Top/Motor_Control/DcMotor_ClosedLoop.cpp **** {
 153:My_Top/Motor_Control/DcMotor_ClosedLoop.cpp ****     // ķØÖµĆüÕÅśķćÅ’╝īńö©õ║ÄõĖ┤µŚČÕŁśÕé©Ķ¦ÆÕ║”ÕĆ╝ÕÆīõĖŖõĖĆµ¼ĪńÜäĶ¦ÆÕ║”ÕĆ╝
 154:My_Top/Motor_Control/DcMotor_ClosedLoop.cpp ****     static float fudu_test = 0.0f;
 155:My_Top/Motor_Control/DcMotor_ClosedLoop.cpp ****     static float theta_m_offic_temp = 0.0;
 156:My_Top/Motor_Control/DcMotor_ClosedLoop.cpp **** 
 157:My_Top/Motor_Control/DcMotor_ClosedLoop.cpp ****     _encoder->KTH7111_Send_JIAO_CMD();//ÕÅæķĆüĶ¦ÆÕ║”µīćõ╗ż
 158:My_Top/Motor_Control/DcMotor_ClosedLoop.cpp ****     fudu_test = _encoder->Get_KTH7111_Radian();//ĶÄĘÕÅ¢ń╝¢ńĀüÕÖ©Ķ¦ÆÕ║”
 159:My_Top/Motor_Control/DcMotor_ClosedLoop.cpp **** 
 160:My_Top/Motor_Control/DcMotor_ClosedLoop.cpp ****     theta_m = fudu_test; // ĶÄĘÕÅ¢ÕÄ¤Õ¦ŗµ£║µó░Ķ¦ÆÕ║” Õ╝¦Õ║”
 161:My_Top/Motor_Control/DcMotor_ClosedLoop.cpp ****     
 162:My_Top/Motor_Control/DcMotor_ClosedLoop.cpp ****     if (LPFAndPLL == false) //õĮÄķĆÜµ╗żµ│óĶ¦ÆÕ║”
 163:My_Top/Motor_Control/DcMotor_ClosedLoop.cpp ****     {
 164:My_Top/Motor_Control/DcMotor_ClosedLoop.cpp ****       theta_m = wrap_to_PI(theta_m);
 165:My_Top/Motor_Control/DcMotor_ClosedLoop.cpp ****       //µ¢╣Õ╝Å1 õĮÄķĆÜµ╗żµ│ó µø┤µ¢░µ£║µó░Ķ¦ÆÕ║”ķĆ¤Õ║”
 166:My_Top/Motor_Control/DcMotor_ClosedLoop.cpp ****       theta_m_offic_temp = theta_m - theta_m_last; 
 167:My_Top/Motor_Control/DcMotor_ClosedLoop.cpp ****       theta_m_last = theta_m; // µø┤µ¢░õĖŖõĖĆµ¼ĪńÜäµ£║µó░Ķ¦ÆÕ║”
 168:My_Top/Motor_Control/DcMotor_ClosedLoop.cpp ****       theta_m_offic = wrap_to_PI(theta_m_offic_temp);// Õ░åÕĘ«ÕĆ╝Ķ¦äµĢ┤Õł░ [-PI, PI) Õī║ķŚ┤
 169:My_Top/Motor_Control/DcMotor_ClosedLoop.cpp **** 
 170:My_Top/Motor_Control/DcMotor_ClosedLoop.cpp ****       theta_m_offic_filtered = error_lpf.filter(theta_m_offic);//Õ»╣Ķ»»ÕĘ«Ķ¦ÆÕ║”õĮÄķĆÜµ╗żµ│ó
 171:My_Top/Motor_Control/DcMotor_ClosedLoop.cpp ****       theta_m_speed = theta_m_offic_filtered*DC_VELOCITY_LOOP_FREQ_HZ;//speed=ĶĘ»ń©ŗ/t 
 172:My_Top/Motor_Control/DcMotor_ClosedLoop.cpp ****       theta_av_speed = speed_avg.filter(theta_m_speed);//Õ»╣ķĆ¤Õ║”Ķ┐øĶĪīÕ╣│ÕØćÕĆ╝µ╗żµ│ó
 173:My_Top/Motor_Control/DcMotor_ClosedLoop.cpp ****       filtered_speed = speed_lpf.filter(theta_av_speed);//Õ»╣ķĆ¤Õ║”Ķ┐øĶĪīõĮÄķĆÜµ╗żµ│ó
 174:My_Top/Motor_Control/DcMotor_ClosedLoop.cpp ****       reg_final = theta_m; //Õ░åµ£║µó░Ķ¦ÆÕ║”ĶĄŗÕĆ╝ń╗Öµ£Ćń╗łĶ¦ÆÕ║”
 175:My_Top/Motor_Control/DcMotor_ClosedLoop.cpp ****       theta_deg_final = rad2deg(reg_final); //Õ░åÕ╝¦Õ║”ĶĮ¼µŹóõĖ║360Õ║”
 176:My_Top/Motor_Control/DcMotor_ClosedLoop.cpp ****       Angular_velocity_final = filtered_speed;  //Õ░åµ£Ćń╗łķĆ¤Õ║”ĶĄŗÕĆ╝ń╗Öµ£Ćń╗łĶ¦ÆķĆ¤Õ║”
 177:My_Top/Motor_Control/DcMotor_ClosedLoop.cpp ****       
 178:My_Top/Motor_Control/DcMotor_ClosedLoop.cpp ****     }else if (LPFAndPLL == true)
 179:My_Top/Motor_Control/DcMotor_ClosedLoop.cpp ****     {
 180:My_Top/Motor_Control/DcMotor_ClosedLoop.cpp ****       // µ¢╣Õ╝Å2PLLķöüńøĖńÄ» µø┤µ¢░PLLķöüńøĖńÄ»ńÜäĶŠōÕć║Ķ¦ÆÕ║”ÕÆīĶ¦ÆķĆ¤Õ║”
 181:My_Top/Motor_Control/DcMotor_ClosedLoop.cpp ****       foc_pll_run(theta_m,PLL_FREQ_Dt,&_pll_reg_out,&_pll_Angular_velocity,&_pll_conf); //µø┤µ¢░PLL
 182:My_Top/Motor_Control/DcMotor_ClosedLoop.cpp ****       reg_final = _pll_reg_out; //Õ░åPLLķöüńøĖńÄ»ńÜäĶŠōÕć║Ķ¦ÆÕ║”ĶĄŗÕĆ╝ń╗Öµ£Ćń╗łĶ¦ÆÕ║”
 183:My_Top/Motor_Control/DcMotor_ClosedLoop.cpp ****       theta_deg_final = rad2deg(reg_final); //Õ░åÕ╝¦Õ║”ĶĮ¼µŹóõĖ║360Õ║”
 184:My_Top/Motor_Control/DcMotor_ClosedLoop.cpp ****       Angular_velocity_final = _pll_Angular_velocity; //Õ░åµ£Ćń╗łķĆ¤Õ║”ĶĄŗÕĆ╝ń╗Öµ£Ćń╗łĶ¦ÆķĆ¤Õ║”
 185:My_Top/Motor_Control/DcMotor_ClosedLoop.cpp ****     }
 186:My_Top/Motor_Control/DcMotor_ClosedLoop.cpp **** 
 187:My_Top/Motor_Control/DcMotor_ClosedLoop.cpp **** }
 188:My_Top/Motor_Control/DcMotor_ClosedLoop.cpp **** 
 189:My_Top/Motor_Control/DcMotor_ClosedLoop.cpp **** 
 190:My_Top/Motor_Control/DcMotor_ClosedLoop.cpp **** void DC_Motor::Speed_Loop(void) //ķĆ¤Õ║”ńÄ»
 191:My_Top/Motor_Control/DcMotor_ClosedLoop.cpp **** {
 192:My_Top/Motor_Control/DcMotor_ClosedLoop.cpp ****     float _delta_pwm = 0.0f; //Ķ«Īń«ŚPIDÕó×ķćÅ
 193:My_Top/Motor_Control/DcMotor_ClosedLoop.cpp ****     float error_speed = _target_speed - Angular_velocity_final; //Ķ«Īń«ŚķĆ¤Õ║”Ķ»»ÕĘ«
 194:My_Top/Motor_Control/DcMotor_ClosedLoop.cpp **** 
 195:My_Top/Motor_Control/DcMotor_ClosedLoop.cpp ****     _delta_pwm = pid_speed_incparam->update(error_speed); //Ķ«Īń«ŚPIDÕó×ķćÅ
 196:My_Top/Motor_Control/DcMotor_ClosedLoop.cpp ****     updown_duty += _delta_pwm; //µø┤µ¢░ńöĄµ£║ķóæńÄć
 197:My_Top/Motor_Control/DcMotor_ClosedLoop.cpp ****     Set_Motor_Glo_Duty(); //Ķ«ŠńĮ«ńöĄµ£║Õģ©Õ▒ĆÕŹĀń®║µ»ö
 198:My_Top/Motor_Control/DcMotor_ClosedLoop.cpp **** }
 199:My_Top/Motor_Control/DcMotor_ClosedLoop.cpp **** 
 200:My_Top/Motor_Control/DcMotor_ClosedLoop.cpp **** 
 201:My_Top/Motor_Control/DcMotor_ClosedLoop.cpp **** void DC_Motor::Location_Loop(void) //õĮŹńĮ«ńÄ»
 202:My_Top/Motor_Control/DcMotor_ClosedLoop.cpp **** {
 203:My_Top/Motor_Control/DcMotor_ClosedLoop.cpp ****     float _delta_fre = 0.0f;
ARM GAS  /tmp/ccuUIbvr.s 			page 5


 204:My_Top/Motor_Control/DcMotor_ClosedLoop.cpp ****     float _target_error_location = deg2rad(_target_location2) - reg_final; //Ķ«Īń«ŚõĮŹńĮ«Ķ»»ÕĘ«
 205:My_Top/Motor_Control/DcMotor_ClosedLoop.cpp ****     _target_speed = pid_location->update(_target_error_location); //
 206:My_Top/Motor_Control/DcMotor_ClosedLoop.cpp ****     Speed_Loop(); //õĮŹńĮ«ńÄ»Õåģķā©Ķ░āńö©ķĆ¤Õ║”ńÄ»µÄ¦ÕłČ
 207:My_Top/Motor_Control/DcMotor_ClosedLoop.cpp **** }
 208:My_Top/Motor_Control/DcMotor_ClosedLoop.cpp **** 
 209:My_Top/Motor_Control/DcMotor_ClosedLoop.cpp **** 
 210:My_Top/Motor_Control/DcMotor_ClosedLoop.cpp **** 
 211:My_Top/Motor_Control/DcMotor_ClosedLoop.cpp **** 
 212:My_Top/Motor_Control/DcMotor_ClosedLoop.cpp **** 
 213:My_Top/Motor_Control/DcMotor_ClosedLoop.cpp **** void DC_Motor::Thermistor_Temp() //Ķ«Īń«ŚńāŁµĢÅńöĄķś╗µĖ®Õ║”
 214:My_Top/Motor_Control/DcMotor_ClosedLoop.cpp **** {
 215:My_Top/Motor_Control/DcMotor_ClosedLoop.cpp ****     float adc_av_val = 0.0f;
 216:My_Top/Motor_Control/DcMotor_ClosedLoop.cpp ****     
 217:My_Top/Motor_Control/DcMotor_ClosedLoop.cpp ****     adc_av_val = adc_val_avg.filter((float)ADC_Value[_motor_config->adc_channel]); //Õ»╣ADCÕĆ╝Ķ┐øĶĪ
 218:My_Top/Motor_Control/DcMotor_ClosedLoop.cpp ****     // ADC ÕĆ╝Õ╝éÕĖĖ’╝łµé¼ń®║/µ£¬µÄźńāŁµĢÅńöĄķś╗ ĶĘ│Ķ┐ćĶ«Īń«Ś
 219:My_Top/Motor_Control/DcMotor_ClosedLoop.cpp ****     if (adc_av_val < 10.0f || adc_av_val > 4086.0f) return;  // õ┐ØµīüõĖŖµ¼Īµ£ēµĢłµĖ®Õ║”’╝īõĖŹµø┤µ¢
 220:My_Top/Motor_Control/DcMotor_ClosedLoop.cpp **** 
 221:My_Top/Motor_Control/DcMotor_ClosedLoop.cpp ****     ADC_RES_Val = 10.0*(4096-adc_av_val) / adc_av_val; //Ķ«Īń«ŚADCÕĆ╝Õ»╣Õ║öńÜäńöĄķś╗ÕĆ╝Õż¦Õ░Å
 222:My_Top/Motor_Control/DcMotor_ClosedLoop.cpp **** 
 223:My_Top/Motor_Control/DcMotor_ClosedLoop.cpp ****     float inv_T = 1.0f / T0_K + log(ADC_RES_Val / NTC_R0) / NTC_B; //Ķ«Īń«ŚµĖ®Õ║”ńÜäÕĆÆµĢ░ ÕŹĢõĮŹÕ╝
 224:My_Top/Motor_Control/DcMotor_ClosedLoop.cpp ****     
 225:My_Top/Motor_Control/DcMotor_ClosedLoop.cpp ****     ADC_Temp_Val = (1.0f / inv_T) - T0;  //ĶĮ¼µŹóõĖ║µæäµ░ÅÕ║”µĖ®Õ║”
 226:My_Top/Motor_Control/DcMotor_ClosedLoop.cpp **** }
  27              		.loc 1 226 1 view -0
  28              		.cfi_startproc
  29              		@ args = 0, pretend = 0, frame = 0
  30              		@ frame_needed = 0, uses_anonymous_args = 0
  31 0000 2DE9F041 		push	{r4, r5, r6, r7, r8, lr}
  32              		.cfi_def_cfa_offset 24
  33              		.cfi_offset 4, -24
  34              		.cfi_offset 5, -20
  35              		.cfi_offset 6, -16
  36              		.cfi_offset 7, -12
  37              		.cfi_offset 8, -8
  38              		.cfi_offset 14, -4
  39              	.LVL0:
  40              	.LBB78:
  41              	.LBI78:
  42              		.file 2 "My_Top/System/kth_read.hpp"
   1:My_Top/System/kth_read.hpp **** #pragma once
   2:My_Top/System/kth_read.hpp **** 
   3:My_Top/System/kth_read.hpp **** #include <stdbool.h>
   4:My_Top/System/kth_read.hpp **** #include "spi.h"
   5:My_Top/System/kth_read.hpp **** #include "FreeRTOS.h"
   6:My_Top/System/kth_read.hpp **** #include "task.h"
   7:My_Top/System/kth_read.hpp **** #include "bsp.hpp"
   8:My_Top/System/kth_read.hpp **** 
   9:My_Top/System/kth_read.hpp **** #define KTH7111_PRECISION (65535.0f) // 2^16-1’╝īń╝¢ńĀüÕÖ©ÕłåĶŠ©ńÄć
  10:My_Top/System/kth_read.hpp **** #define RAW_TO_RAD  (6.28318530717f / KTH7111_PRECISION)// ń╝¢ńĀüÕÖ©ÕÄ¤Õ¦ŗÕĆ╝ĶĮ¼Õ╝¦Õ║”ń│╗µĢ░’╝Ü2ŽĆ 
  11:My_Top/System/kth_read.hpp **** #define RAD_TO_DEG  (180.0f / 3.14159265358979323846f)// Õ╝¦Õ║”ĶĮ¼Ķ¦ÆÕ║”ń│╗µĢ░’╝Ü180 / ŽĆ Ōēł 57.29
  12:My_Top/System/kth_read.hpp **** #include "ex_math.hpp" 
  13:My_Top/System/kth_read.hpp **** 
  14:My_Top/System/kth_read.hpp **** enum ANLC_Status
  15:My_Top/System/kth_read.hpp **** {
  16:My_Top/System/kth_read.hpp ****     NotStarted = 0,   // µ£¬Õ╝ĆÕ¦ŗĶć¬µĀĪÕćå
  17:My_Top/System/kth_read.hpp ****     InProgress = 1,   // µĀĪÕćåĶ┐øĶĪīõĖŁ
  18:My_Top/System/kth_read.hpp ****     Failed     = 2,   // µĀĪÕćåÕż▒Ķ┤ź
ARM GAS  /tmp/ccuUIbvr.s 			page 6


  19:My_Top/System/kth_read.hpp ****     Completed  = 3    // µĀĪÕćåÕ«īµłÉ
  20:My_Top/System/kth_read.hpp **** };
  21:My_Top/System/kth_read.hpp **** 
  22:My_Top/System/kth_read.hpp **** class KTH7111
  23:My_Top/System/kth_read.hpp **** {
  24:My_Top/System/kth_read.hpp **** public:
  25:My_Top/System/kth_read.hpp **** 
  26:My_Top/System/kth_read.hpp **** 
  27:My_Top/System/kth_read.hpp **** 
  28:My_Top/System/kth_read.hpp ****     uint16_t single_turn; // ÕŹĢÕ£łÕÄ¤Õ¦ŗÕĆ╝16õĮŹ
  29:My_Top/System/kth_read.hpp ****     float theta;          // ĶĮ¼µŹóÕÉÄńÜäÕ╝¦Õ║”Ķ¦Æ (0 ~ 2ŽĆ)
  30:My_Top/System/kth_read.hpp ****     float angle;          // ĶĮ¼µŹóÕÉÄńÜäĶ¦ÆÕ║” (0 ~ 360)
  31:My_Top/System/kth_read.hpp ****     bool  encoder_dir; // ń╝¢ńĀüÕÖ©µ¢╣ÕÉæ
  32:My_Top/System/kth_read.hpp ****     KTH7111(const MotorPWM_Config *motor_config)
  43              		.loc 2 32 5 view .LVU1
  44              	.LBB79:
  45              	.LBB80:
  33:My_Top/System/kth_read.hpp ****     : _motor_config(motor_config),
  34:My_Top/System/kth_read.hpp ****       single_turn(0), theta(0.0f), angle(0.0f) {}
  46              		.loc 2 34 7 is_stmt 0 view .LVU2
  47 0004 EA4B     		ldr	r3, .L3+16
  48 0006 0021     		movs	r1, #0
  49 0008 1980     		strh	r1, [r3]	@ movhi
  50              		.loc 2 34 23 view .LVU3
  51 000a 0022     		movs	r2, #0
  52 000c 5A60     		str	r2, [r3, #4]	@ float
  53              		.loc 2 34 36 view .LVU4
  54 000e 9A60     		str	r2, [r3, #8]	@ float
  33:My_Top/System/kth_read.hpp ****     : _motor_config(motor_config),
  55              		.loc 2 33 7 view .LVU5
  56 0010 DFF8C483 		ldr	r8, .L3+56
  57 0014 C3F81080 		str	r8, [r3, #16]
  58              	.LVL1:
  33:My_Top/System/kth_read.hpp ****     : _motor_config(motor_config),
  59              		.loc 2 33 7 view .LVU6
  60              	.LBE80:
  61              	.LBE79:
  62              	.LBE78:
  63              	.LBB81:
  64              	.LBI81:
  32:My_Top/System/kth_read.hpp ****     : _motor_config(motor_config),
  65              		.loc 2 32 5 is_stmt 1 view .LVU7
  66              	.LBB82:
  67              	.LBB83:
  68              		.loc 2 34 7 is_stmt 0 view .LVU8
  69 0018 9982     		strh	r1, [r3, #20]	@ movhi
  70              		.loc 2 34 23 view .LVU9
  71 001a 9A61     		str	r2, [r3, #24]	@ float
  72              		.loc 2 34 36 view .LVU10
  73 001c DA61     		str	r2, [r3, #28]	@ float
  33:My_Top/System/kth_read.hpp ****     : _motor_config(motor_config),
  74              		.loc 2 33 7 view .LVU11
  75 001e E54E     		ldr	r6, .L3+20
  76 0020 5E62     		str	r6, [r3, #36]
  77              	.LVL2:
  33:My_Top/System/kth_read.hpp ****     : _motor_config(motor_config),
  78              		.loc 2 33 7 view .LVU12
ARM GAS  /tmp/ccuUIbvr.s 			page 7


  79              	.LBE83:
  80              	.LBE82:
  81              	.LBE81:
  82              	.LBB84:
  83              	.LBI84:
  32:My_Top/System/kth_read.hpp ****     : _motor_config(motor_config),
  84              		.loc 2 32 5 is_stmt 1 view .LVU13
  85              	.LBB85:
  86              	.LBB86:
  87              		.loc 2 34 7 is_stmt 0 view .LVU14
  88 0022 1985     		strh	r1, [r3, #40]	@ movhi
  89              		.loc 2 34 23 view .LVU15
  90 0024 DA62     		str	r2, [r3, #44]	@ float
  91              		.loc 2 34 36 view .LVU16
  92 0026 1A63     		str	r2, [r3, #48]	@ float
  33:My_Top/System/kth_read.hpp ****     : _motor_config(motor_config),
  93              		.loc 2 33 7 view .LVU17
  94 0028 E348     		ldr	r0, .L3+24
  95 002a 9863     		str	r0, [r3, #56]
  96              	.LVL3:
  33:My_Top/System/kth_read.hpp ****     : _motor_config(motor_config),
  97              		.loc 2 33 7 view .LVU18
  98              	.LBE86:
  99              	.LBE85:
 100              	.LBE84:
 101              	.LBB87:
 102              	.LBI87:
  32:My_Top/System/kth_read.hpp ****     : _motor_config(motor_config),
 103              		.loc 2 32 5 is_stmt 1 view .LVU19
 104              	.LBB88:
 105              	.LBB89:
 106              		.loc 2 34 7 is_stmt 0 view .LVU20
 107 002c 9987     		strh	r1, [r3, #60]	@ movhi
 108              		.loc 2 34 23 view .LVU21
 109 002e 1A64     		str	r2, [r3, #64]	@ float
 110              		.loc 2 34 36 view .LVU22
 111 0030 5A64     		str	r2, [r3, #68]	@ float
  33:My_Top/System/kth_read.hpp ****     : _motor_config(motor_config),
 112              		.loc 2 33 7 view .LVU23
 113 0032 E24D     		ldr	r5, .L3+28
 114 0034 DD64     		str	r5, [r3, #76]
 115              	.LVL4:
  33:My_Top/System/kth_read.hpp ****     : _motor_config(motor_config),
 116              		.loc 2 33 7 view .LVU24
 117              	.LBE89:
 118              	.LBE88:
 119              	.LBE87:
 120              	.LBB90:
 121              	.LBI90:
 122              		.file 3 "Lib/compute/pid/pid_Increment.hpp"
   1:Lib/compute/pid/pid_Increment.hpp **** #pragma once
   2:Lib/compute/pid/pid_Increment.hpp **** 
   3:Lib/compute/pid/pid_Increment.hpp **** // ============================================================
   4:Lib/compute/pid/pid_Increment.hpp **** // Õó×ķćÅÕ╝Å PID µÄ¦ÕłČÕÖ©
   5:Lib/compute/pid/pid_Increment.hpp **** //
   6:Lib/compute/pid/pid_Increment.hpp **** // Õģ¼Õ╝Å:
   7:Lib/compute/pid/pid_Increment.hpp **** //   ╬öu(k) = Kp * (e(k) - e(k-1))
ARM GAS  /tmp/ccuUIbvr.s 			page 8


   8:Lib/compute/pid/pid_Increment.hpp **** //         + Ki * T * e(k)
   9:Lib/compute/pid/pid_Increment.hpp **** //         + (Kd / T) * (e(k) - 2*e(k-1) + e(k-2))
  10:Lib/compute/pid/pid_Increment.hpp **** //
  11:Lib/compute/pid/pid_Increment.hpp **** //   u(k) = u(k-1) + ╬öu(k)
  12:Lib/compute/pid/pid_Increment.hpp **** //
  13:Lib/compute/pid/pid_Increment.hpp **** // ÕģČõĖŁ T = dt’╝łķććµĀĘÕæ©µ£¤’╝ē
  14:Lib/compute/pid/pid_Increment.hpp **** // ============================================================
  15:Lib/compute/pid/pid_Increment.hpp **** 
  16:Lib/compute/pid/pid_Increment.hpp **** 
  17:Lib/compute/pid/pid_Increment.hpp **** class PID_Increment
  18:Lib/compute/pid/pid_Increment.hpp **** {
  19:Lib/compute/pid/pid_Increment.hpp **** public:
  20:Lib/compute/pid/pid_Increment.hpp ****     float _kp, _ki, _kd;
  21:Lib/compute/pid/pid_Increment.hpp ****     PID_Increment(void) //Õ«Üõ╣ēµŚČµŚĀÕÅéńÜäµ×äķĆĀÕćĮµĢ░µĀ╝Õ╝Å
  22:Lib/compute/pid/pid_Increment.hpp ****     {
  23:Lib/compute/pid/pid_Increment.hpp ****         _kp = _ki = _kd = _dt = 0.0f;
  24:Lib/compute/pid/pid_Increment.hpp ****         _max = _min = 0.0f;
  25:Lib/compute/pid/pid_Increment.hpp ****         _e_prev = _e_prev2 = 0.0f;
  26:Lib/compute/pid/pid_Increment.hpp ****         _delta_u = 0.0f;
  27:Lib/compute/pid/pid_Increment.hpp ****     }
  28:Lib/compute/pid/pid_Increment.hpp **** 
  29:Lib/compute/pid/pid_Increment.hpp ****     PID_Increment(float kp, float ki, float kd, float dt, float max, float min) //Õ«Üõ╣ēµŚČÕĖ”ÕÅéńÜ
 123              		.loc 3 29 5 is_stmt 1 view .LVU25
 124              	.LBB91:
 125              	.LBB92:
  30:Lib/compute/pid/pid_Increment.hpp ****     {
  31:Lib/compute/pid/pid_Increment.hpp ****         _kp = kp;
 126              		.loc 3 31 9 view .LVU26
 127              		.loc 3 31 13 is_stmt 0 view .LVU27
 128 0036 1A65     		str	r2, [r3, #80]	@ float
  32:Lib/compute/pid/pid_Increment.hpp ****         _ki = ki;
 129              		.loc 3 32 9 is_stmt 1 view .LVU28
 130              		.loc 3 32 13 is_stmt 0 view .LVU29
 131 0038 5A65     		str	r2, [r3, #84]	@ float
  33:Lib/compute/pid/pid_Increment.hpp ****         _kd = kd;
 132              		.loc 3 33 9 is_stmt 1 view .LVU30
 133              		.loc 3 33 13 is_stmt 0 view .LVU31
 134 003a 9A65     		str	r2, [r3, #88]	@ float
  34:Lib/compute/pid/pid_Increment.hpp ****         _dt = dt;
 135              		.loc 3 34 9 is_stmt 1 view .LVU32
 136              		.loc 3 34 13 is_stmt 0 view .LVU33
 137 003c DFEDE04A 		vldr.32	s9, .L3+32
 138 0040 C3ED174A 		vstr.32	s9, [r3, #92]
  35:Lib/compute/pid/pid_Increment.hpp ****         _max = max;
 139              		.loc 3 35 9 is_stmt 1 view .LVU34
 140              		.loc 3 35 14 is_stmt 0 view .LVU35
 141 0044 9FEDDF5A 		vldr.32	s10, .L3+36
 142 0048 83ED185A 		vstr.32	s10, [r3, #96]
  36:Lib/compute/pid/pid_Increment.hpp ****         _min = min;
 143              		.loc 3 36 9 is_stmt 1 view .LVU36
 144              		.loc 3 36 14 is_stmt 0 view .LVU37
 145 004c DFEDDE5A 		vldr.32	s11, .L3+40
 146 0050 C3ED195A 		vstr.32	s11, [r3, #100]
  37:Lib/compute/pid/pid_Increment.hpp ****         _e_prev = _e_prev2 = 0.0f;
 147              		.loc 3 37 9 is_stmt 1 view .LVU38
 148              		.loc 3 37 28 is_stmt 0 view .LVU39
 149 0054 DA66     		str	r2, [r3, #108]	@ float
ARM GAS  /tmp/ccuUIbvr.s 			page 9


 150              		.loc 3 37 17 view .LVU40
 151 0056 9A66     		str	r2, [r3, #104]	@ float
  38:Lib/compute/pid/pid_Increment.hpp ****         _delta_u = 0.0f;
 152              		.loc 3 38 9 is_stmt 1 view .LVU41
 153              		.loc 3 38 18 is_stmt 0 view .LVU42
 154 0058 1A67     		str	r2, [r3, #112]	@ float
 155              	.LVL5:
 156              		.loc 3 38 18 view .LVU43
 157              	.LBE92:
 158              	.LBE91:
 159              	.LBE90:
 160              	.LBB93:
 161              	.LBI93:
 162              		.file 4 "Lib/compute/pid/pid.hpp"
   1:Lib/compute/pid/pid.hpp **** #pragma once
   2:Lib/compute/pid/pid.hpp **** 
   3:Lib/compute/pid/pid.hpp **** #define PID_DtHZ (1.0f/16000.0f)
   4:Lib/compute/pid/pid.hpp **** 
   5:Lib/compute/pid/pid.hpp **** class PID
   6:Lib/compute/pid/pid.hpp **** {
   7:Lib/compute/pid/pid.hpp **** public:
   8:Lib/compute/pid/pid.hpp **** 
   9:Lib/compute/pid/pid.hpp **** // µ×äķĆĀÕćĮµĢ░’╝īÕĖ”ķ╗śĶ«żÕÅéµĢ░’╝īµ¢╣õŠ┐õĮ┐ńö©
  10:Lib/compute/pid/pid.hpp ****     PID(float kp = 0.0f, float ki = 0.0f, float kd = 0.0f, float dt = PID_DtHZ, float i_max = 0.66*
 163              		.loc 4 10 5 is_stmt 1 view .LVU44
 164              	.LBB94:
 165              	.LBB95:
  11:Lib/compute/pid/pid.hpp ****         float max = 1.0f, float min = -1.0f)
  12:Lib/compute/pid/pid.hpp ****         : _kp(kp), _ki(ki), _kd(kd), _dt(dt), _i_max(i_max),_max(max), _min(min),
 166              		.loc 4 12 11 is_stmt 0 view .LVU45
 167 005a 5A67     		str	r2, [r3, #116]	@ float
 168              		.loc 4 12 20 view .LVU46
 169 005c 9A67     		str	r2, [r3, #120]	@ float
 170              		.loc 4 12 29 view .LVU47
 171 005e DA67     		str	r2, [r3, #124]	@ float
 172              		.loc 4 12 38 view .LVU48
 173 0060 9FEDDA6A 		vldr.32	s12, .L3+44
 174 0064 83ED206A 		vstr.32	s12, [r3, #128]
 175              		.loc 4 12 47 view .LVU49
 176 0068 F3EE006A 		vmov.f32	s13, #1.6e+1
 177 006c C3ED216A 		vstr.32	s13, [r3, #132]
 178              		.loc 4 12 61 view .LVU50
 179 0070 B3EE047A 		vmov.f32	s14, #2.0e+1
 180 0074 83ED227A 		vstr.32	s14, [r3, #136]
 181              		.loc 4 12 72 view .LVU51
 182 0078 FBEE047A 		vmov.f32	s15, #-2.0e+1
 183 007c C3ED237A 		vstr.32	s15, [r3, #140]
  13:Lib/compute/pid/pid.hpp ****           _error(0.0f), _prev_error(0.0f), P_OUT(0.0f), I_OUT(0.0f), D_OUT(0.0f),
 184              		.loc 4 13 11 view .LVU52
 185 0080 C3F89020 		str	r2, [r3, #144]	@ float
 186              		.loc 4 13 25 view .LVU53
 187 0084 C3F89420 		str	r2, [r3, #148]	@ float
 188              		.loc 4 13 44 view .LVU54
 189 0088 C3F89820 		str	r2, [r3, #152]	@ float
 190              		.loc 4 13 57 view .LVU55
 191 008c C3F89C20 		str	r2, [r3, #156]	@ float
 192              		.loc 4 13 70 view .LVU56
ARM GAS  /tmp/ccuUIbvr.s 			page 10


 193 0090 C3F8A020 		str	r2, [r3, #160]	@ float
  14:Lib/compute/pid/pid.hpp ****           _output(0.0f), max_out_flag(false) {}
 194              		.loc 4 14 11 view .LVU57
 195 0094 C3F8A420 		str	r2, [r3, #164]	@ float
 196              		.loc 4 14 26 view .LVU58
 197 0098 83F8A810 		strb	r1, [r3, #168]
 198              	.LVL6:
 199              		.loc 4 14 26 view .LVU59
 200              	.LBE95:
 201              	.LBE94:
 202              	.LBE93:
 203              	.LBB96:
 204              	.LBI96:
 205              		.file 5 "Lib/compute/pid/LQR.hpp"
   1:Lib/compute/pid/LQR.hpp **** #pragma once 
   2:Lib/compute/pid/LQR.hpp **** 
   3:Lib/compute/pid/LQR.hpp **** class LQR
   4:Lib/compute/pid/LQR.hpp **** {
   5:Lib/compute/pid/LQR.hpp **** public:
   6:Lib/compute/pid/LQR.hpp ****     float _k1;   // õĮŹńĮ«Ķ»»ÕĘ«Õó×ńøŖ’╝łń”╗ń║┐ń«ŚÕźĮ’╝ē
   7:Lib/compute/pid/LQR.hpp ****     float _k2;   // ķĆ¤Õ║”Ķ»»ÕĘ«Õó×ńøŖ’╝łń”╗ń║┐ń«ŚÕźĮ’╝ē
   8:Lib/compute/pid/LQR.hpp ****     float _max;  // ĶŠōÕć║õĖŖķÖÉ
   9:Lib/compute/pid/LQR.hpp ****     float _min;  // ĶŠōÕć║õĖŗķÖÉ
  10:Lib/compute/pid/LQR.hpp **** 
  11:Lib/compute/pid/LQR.hpp ****     // µ×äķĆĀÕćĮµĢ░’╝īÕĖ”ķ╗śĶ«żÕÅéµĢ░
  12:Lib/compute/pid/LQR.hpp ****     LQR(float k1 = 0.0f, float k2 = 0.0f, float max = 1.0f, float min = -1.0f)
 206              		.loc 5 12 5 is_stmt 1 view .LVU60
 207              	.LBB97:
 208              	.LBB98:
  13:Lib/compute/pid/LQR.hpp ****         : _k1(k1), _k2(k2), _max(max), _min(min), _output(0.0f) {}
 209              		.loc 5 13 11 is_stmt 0 view .LVU61
 210 009c 4FF0804E 		mov	lr, #1073741824
 211 00a0 C3F8ACE0 		str	lr, [r3, #172]	@ float
 212              		.loc 5 13 20 view .LVU62
 213 00a4 CA4F     		ldr	r7, .L3+48
 214 00a6 C3F8B070 		str	r7, [r3, #176]	@ float
 215              		.loc 5 13 29 view .LVU63
 216 00aa 4FF07E54 		mov	r4, #1065353216
 217 00ae C3F8B440 		str	r4, [r3, #180]	@ float
 218              		.loc 5 13 40 view .LVU64
 219 00b2 DFF828C3 		ldr	ip, .L3+60
 220 00b6 C3F8B8C0 		str	ip, [r3, #184]	@ float
 221              		.loc 5 13 51 view .LVU65
 222 00ba C3F8BC20 		str	r2, [r3, #188]	@ float
 223              	.LVL7:
 224              		.loc 5 13 51 view .LVU66
 225              	.LBE98:
 226              	.LBE97:
 227              	.LBE96:
 228              	.LBB99:
 229              	.LBI99:
  29:Lib/compute/pid/pid_Increment.hpp ****     {
 230              		.loc 3 29 5 is_stmt 1 view .LVU67
 231              	.LBB100:
 232              	.LBB101:
  31:Lib/compute/pid/pid_Increment.hpp ****         _ki = ki;
 233              		.loc 3 31 9 view .LVU68
ARM GAS  /tmp/ccuUIbvr.s 			page 11


  31:Lib/compute/pid/pid_Increment.hpp ****         _ki = ki;
 234              		.loc 3 31 13 is_stmt 0 view .LVU69
 235 00be C3F8C020 		str	r2, [r3, #192]	@ float
  32:Lib/compute/pid/pid_Increment.hpp ****         _kd = kd;
 236              		.loc 3 32 9 is_stmt 1 view .LVU70
  32:Lib/compute/pid/pid_Increment.hpp ****         _kd = kd;
 237              		.loc 3 32 13 is_stmt 0 view .LVU71
 238 00c2 C3F8C420 		str	r2, [r3, #196]	@ float
  33:Lib/compute/pid/pid_Increment.hpp ****         _dt = dt;
 239              		.loc 3 33 9 is_stmt 1 view .LVU72
  33:Lib/compute/pid/pid_Increment.hpp ****         _dt = dt;
 240              		.loc 3 33 13 is_stmt 0 view .LVU73
 241 00c6 C3F8C820 		str	r2, [r3, #200]	@ float
  34:Lib/compute/pid/pid_Increment.hpp ****         _max = max;
 242              		.loc 3 34 9 is_stmt 1 view .LVU74
  34:Lib/compute/pid/pid_Increment.hpp ****         _max = max;
 243              		.loc 3 34 13 is_stmt 0 view .LVU75
 244 00ca C3ED334A 		vstr.32	s9, [r3, #204]
  35:Lib/compute/pid/pid_Increment.hpp ****         _min = min;
 245              		.loc 3 35 9 is_stmt 1 view .LVU76
  35:Lib/compute/pid/pid_Increment.hpp ****         _min = min;
 246              		.loc 3 35 14 is_stmt 0 view .LVU77
 247 00ce 83ED345A 		vstr.32	s10, [r3, #208]
  36:Lib/compute/pid/pid_Increment.hpp ****         _e_prev = _e_prev2 = 0.0f;
 248              		.loc 3 36 9 is_stmt 1 view .LVU78
  36:Lib/compute/pid/pid_Increment.hpp ****         _e_prev = _e_prev2 = 0.0f;
 249              		.loc 3 36 14 is_stmt 0 view .LVU79
 250 00d2 C3ED355A 		vstr.32	s11, [r3, #212]
  37:Lib/compute/pid/pid_Increment.hpp ****         _delta_u = 0.0f;
 251              		.loc 3 37 9 is_stmt 1 view .LVU80
  37:Lib/compute/pid/pid_Increment.hpp ****         _delta_u = 0.0f;
 252              		.loc 3 37 28 is_stmt 0 view .LVU81
 253 00d6 C3F8DC20 		str	r2, [r3, #220]	@ float
  37:Lib/compute/pid/pid_Increment.hpp ****         _delta_u = 0.0f;
 254              		.loc 3 37 17 view .LVU82
 255 00da C3F8D820 		str	r2, [r3, #216]	@ float
 256              		.loc 3 38 9 is_stmt 1 view .LVU83
 257              		.loc 3 38 18 is_stmt 0 view .LVU84
 258 00de C3F8E020 		str	r2, [r3, #224]	@ float
 259              	.LVL8:
 260              		.loc 3 38 18 view .LVU85
 261              	.LBE101:
 262              	.LBE100:
 263              	.LBE99:
 264              	.LBB102:
 265              	.LBI102:
  10:Lib/compute/pid/pid.hpp ****         float max = 1.0f, float min = -1.0f)
 266              		.loc 4 10 5 is_stmt 1 view .LVU86
 267              	.LBB103:
 268              	.LBB104:
  12:Lib/compute/pid/pid.hpp ****           _error(0.0f), _prev_error(0.0f), P_OUT(0.0f), I_OUT(0.0f), D_OUT(0.0f),
 269              		.loc 4 12 11 is_stmt 0 view .LVU87
 270 00e2 C3F8E420 		str	r2, [r3, #228]	@ float
  12:Lib/compute/pid/pid.hpp ****           _error(0.0f), _prev_error(0.0f), P_OUT(0.0f), I_OUT(0.0f), D_OUT(0.0f),
 271              		.loc 4 12 20 view .LVU88
 272 00e6 C3F8E820 		str	r2, [r3, #232]	@ float
  12:Lib/compute/pid/pid.hpp ****           _error(0.0f), _prev_error(0.0f), P_OUT(0.0f), I_OUT(0.0f), D_OUT(0.0f),
ARM GAS  /tmp/ccuUIbvr.s 			page 12


 273              		.loc 4 12 29 view .LVU89
 274 00ea C3F8EC20 		str	r2, [r3, #236]	@ float
  12:Lib/compute/pid/pid.hpp ****           _error(0.0f), _prev_error(0.0f), P_OUT(0.0f), I_OUT(0.0f), D_OUT(0.0f),
 275              		.loc 4 12 38 view .LVU90
 276 00ee 83ED3C6A 		vstr.32	s12, [r3, #240]
  12:Lib/compute/pid/pid.hpp ****           _error(0.0f), _prev_error(0.0f), P_OUT(0.0f), I_OUT(0.0f), D_OUT(0.0f),
 277              		.loc 4 12 47 view .LVU91
 278 00f2 C3ED3D6A 		vstr.32	s13, [r3, #244]
  12:Lib/compute/pid/pid.hpp ****           _error(0.0f), _prev_error(0.0f), P_OUT(0.0f), I_OUT(0.0f), D_OUT(0.0f),
 279              		.loc 4 12 61 view .LVU92
 280 00f6 83ED3E7A 		vstr.32	s14, [r3, #248]
  12:Lib/compute/pid/pid.hpp ****           _error(0.0f), _prev_error(0.0f), P_OUT(0.0f), I_OUT(0.0f), D_OUT(0.0f),
 281              		.loc 4 12 72 view .LVU93
 282 00fa C3ED3F7A 		vstr.32	s15, [r3, #252]
  13:Lib/compute/pid/pid.hpp ****           _output(0.0f), max_out_flag(false) {}
 283              		.loc 4 13 11 view .LVU94
 284 00fe C3F80021 		str	r2, [r3, #256]	@ float
  13:Lib/compute/pid/pid.hpp ****           _output(0.0f), max_out_flag(false) {}
 285              		.loc 4 13 25 view .LVU95
 286 0102 C3F80421 		str	r2, [r3, #260]	@ float
  13:Lib/compute/pid/pid.hpp ****           _output(0.0f), max_out_flag(false) {}
 287              		.loc 4 13 44 view .LVU96
 288 0106 C3F80821 		str	r2, [r3, #264]	@ float
  13:Lib/compute/pid/pid.hpp ****           _output(0.0f), max_out_flag(false) {}
 289              		.loc 4 13 57 view .LVU97
 290 010a C3F80C21 		str	r2, [r3, #268]	@ float
  13:Lib/compute/pid/pid.hpp ****           _output(0.0f), max_out_flag(false) {}
 291              		.loc 4 13 70 view .LVU98
 292 010e C3F81021 		str	r2, [r3, #272]	@ float
 293              		.loc 4 14 11 view .LVU99
 294 0112 C3F81421 		str	r2, [r3, #276]	@ float
 295              		.loc 4 14 26 view .LVU100
 296 0116 83F81811 		strb	r1, [r3, #280]
 297              	.LVL9:
 298              		.loc 4 14 26 view .LVU101
 299              	.LBE104:
 300              	.LBE103:
 301              	.LBE102:
 302              	.LBB105:
 303              	.LBI105:
  12:Lib/compute/pid/LQR.hpp ****         : _k1(k1), _k2(k2), _max(max), _min(min), _output(0.0f) {}
 304              		.loc 5 12 5 is_stmt 1 view .LVU102
 305              	.LBB106:
 306              	.LBB107:
 307              		.loc 5 13 11 is_stmt 0 view .LVU103
 308 011a C3F81CE1 		str	lr, [r3, #284]	@ float
 309              		.loc 5 13 20 view .LVU104
 310 011e C3F82071 		str	r7, [r3, #288]	@ float
 311              		.loc 5 13 29 view .LVU105
 312 0122 C3F82441 		str	r4, [r3, #292]	@ float
 313              		.loc 5 13 40 view .LVU106
 314 0126 C3F828C1 		str	ip, [r3, #296]	@ float
 315              		.loc 5 13 51 view .LVU107
 316 012a C3F82C21 		str	r2, [r3, #300]	@ float
 317              	.LVL10:
 318              		.loc 5 13 51 view .LVU108
 319              	.LBE107:
ARM GAS  /tmp/ccuUIbvr.s 			page 13


 320              	.LBE106:
 321              	.LBE105:
 322              	.LBB108:
 323              	.LBI108:
  29:Lib/compute/pid/pid_Increment.hpp ****     {
 324              		.loc 3 29 5 is_stmt 1 view .LVU109
 325              	.LBB109:
 326              	.LBB110:
  31:Lib/compute/pid/pid_Increment.hpp ****         _ki = ki;
 327              		.loc 3 31 9 view .LVU110
  31:Lib/compute/pid/pid_Increment.hpp ****         _ki = ki;
 328              		.loc 3 31 13 is_stmt 0 view .LVU111
 329 012e C3F83021 		str	r2, [r3, #304]	@ float
  32:Lib/compute/pid/pid_Increment.hpp ****         _kd = kd;
 330              		.loc 3 32 9 is_stmt 1 view .LVU112
  32:Lib/compute/pid/pid_Increment.hpp ****         _kd = kd;
 331              		.loc 3 32 13 is_stmt 0 view .LVU113
 332 0132 C3F83421 		str	r2, [r3, #308]	@ float
  33:Lib/compute/pid/pid_Increment.hpp ****         _dt = dt;
 333              		.loc 3 33 9 is_stmt 1 view .LVU114
  33:Lib/compute/pid/pid_Increment.hpp ****         _dt = dt;
 334              		.loc 3 33 13 is_stmt 0 view .LVU115
 335 0136 C3F83821 		str	r2, [r3, #312]	@ float
  34:Lib/compute/pid/pid_Increment.hpp ****         _max = max;
 336              		.loc 3 34 9 is_stmt 1 view .LVU116
  34:Lib/compute/pid/pid_Increment.hpp ****         _max = max;
 337              		.loc 3 34 13 is_stmt 0 view .LVU117
 338 013a C3ED4F4A 		vstr.32	s9, [r3, #316]
  35:Lib/compute/pid/pid_Increment.hpp ****         _min = min;
 339              		.loc 3 35 9 is_stmt 1 view .LVU118
  35:Lib/compute/pid/pid_Increment.hpp ****         _min = min;
 340              		.loc 3 35 14 is_stmt 0 view .LVU119
 341 013e 83ED505A 		vstr.32	s10, [r3, #320]
  36:Lib/compute/pid/pid_Increment.hpp ****         _e_prev = _e_prev2 = 0.0f;
 342              		.loc 3 36 9 is_stmt 1 view .LVU120
  36:Lib/compute/pid/pid_Increment.hpp ****         _e_prev = _e_prev2 = 0.0f;
 343              		.loc 3 36 14 is_stmt 0 view .LVU121
 344 0142 C3ED515A 		vstr.32	s11, [r3, #324]
  37:Lib/compute/pid/pid_Increment.hpp ****         _delta_u = 0.0f;
 345              		.loc 3 37 9 is_stmt 1 view .LVU122
  37:Lib/compute/pid/pid_Increment.hpp ****         _delta_u = 0.0f;
 346              		.loc 3 37 28 is_stmt 0 view .LVU123
 347 0146 C3F84C21 		str	r2, [r3, #332]	@ float
  37:Lib/compute/pid/pid_Increment.hpp ****         _delta_u = 0.0f;
 348              		.loc 3 37 17 view .LVU124
 349 014a C3F84821 		str	r2, [r3, #328]	@ float
 350              		.loc 3 38 9 is_stmt 1 view .LVU125
 351              		.loc 3 38 18 is_stmt 0 view .LVU126
 352 014e C3F85021 		str	r2, [r3, #336]	@ float
 353              	.LVL11:
 354              		.loc 3 38 18 view .LVU127
 355              	.LBE110:
 356              	.LBE109:
 357              	.LBE108:
 358              	.LBB111:
 359              	.LBI111:
  10:Lib/compute/pid/pid.hpp ****         float max = 1.0f, float min = -1.0f)
ARM GAS  /tmp/ccuUIbvr.s 			page 14


 360              		.loc 4 10 5 is_stmt 1 view .LVU128
 361              	.LBB112:
 362              	.LBB113:
  12:Lib/compute/pid/pid.hpp ****           _error(0.0f), _prev_error(0.0f), P_OUT(0.0f), I_OUT(0.0f), D_OUT(0.0f),
 363              		.loc 4 12 11 is_stmt 0 view .LVU129
 364 0152 C3F85421 		str	r2, [r3, #340]	@ float
  12:Lib/compute/pid/pid.hpp ****           _error(0.0f), _prev_error(0.0f), P_OUT(0.0f), I_OUT(0.0f), D_OUT(0.0f),
 365              		.loc 4 12 20 view .LVU130
 366 0156 C3F85821 		str	r2, [r3, #344]	@ float
  12:Lib/compute/pid/pid.hpp ****           _error(0.0f), _prev_error(0.0f), P_OUT(0.0f), I_OUT(0.0f), D_OUT(0.0f),
 367              		.loc 4 12 29 view .LVU131
 368 015a C3F85C21 		str	r2, [r3, #348]	@ float
  12:Lib/compute/pid/pid.hpp ****           _error(0.0f), _prev_error(0.0f), P_OUT(0.0f), I_OUT(0.0f), D_OUT(0.0f),
 369              		.loc 4 12 38 view .LVU132
 370 015e 83ED586A 		vstr.32	s12, [r3, #352]
  12:Lib/compute/pid/pid.hpp ****           _error(0.0f), _prev_error(0.0f), P_OUT(0.0f), I_OUT(0.0f), D_OUT(0.0f),
 371              		.loc 4 12 47 view .LVU133
 372 0162 C3ED596A 		vstr.32	s13, [r3, #356]
  12:Lib/compute/pid/pid.hpp ****           _error(0.0f), _prev_error(0.0f), P_OUT(0.0f), I_OUT(0.0f), D_OUT(0.0f),
 373              		.loc 4 12 61 view .LVU134
 374 0166 83ED5A7A 		vstr.32	s14, [r3, #360]
  12:Lib/compute/pid/pid.hpp ****           _error(0.0f), _prev_error(0.0f), P_OUT(0.0f), I_OUT(0.0f), D_OUT(0.0f),
 375              		.loc 4 12 72 view .LVU135
 376 016a C3ED5B7A 		vstr.32	s15, [r3, #364]
  13:Lib/compute/pid/pid.hpp ****           _output(0.0f), max_out_flag(false) {}
 377              		.loc 4 13 11 view .LVU136
 378 016e C3F87021 		str	r2, [r3, #368]	@ float
  13:Lib/compute/pid/pid.hpp ****           _output(0.0f), max_out_flag(false) {}
 379              		.loc 4 13 25 view .LVU137
 380 0172 C3F87421 		str	r2, [r3, #372]	@ float
  13:Lib/compute/pid/pid.hpp ****           _output(0.0f), max_out_flag(false) {}
 381              		.loc 4 13 44 view .LVU138
 382 0176 C3F87821 		str	r2, [r3, #376]	@ float
  13:Lib/compute/pid/pid.hpp ****           _output(0.0f), max_out_flag(false) {}
 383              		.loc 4 13 57 view .LVU139
 384 017a C3F87C21 		str	r2, [r3, #380]	@ float
  13:Lib/compute/pid/pid.hpp ****           _output(0.0f), max_out_flag(false) {}
 385              		.loc 4 13 70 view .LVU140
 386 017e C3F88021 		str	r2, [r3, #384]	@ float
 387              		.loc 4 14 11 view .LVU141
 388 0182 C3F88421 		str	r2, [r3, #388]	@ float
 389              		.loc 4 14 26 view .LVU142
 390 0186 83F88811 		strb	r1, [r3, #392]
 391              	.LVL12:
 392              		.loc 4 14 26 view .LVU143
 393              	.LBE113:
 394              	.LBE112:
 395              	.LBE111:
 396              	.LBB114:
 397              	.LBI114:
  12:Lib/compute/pid/LQR.hpp ****         : _k1(k1), _k2(k2), _max(max), _min(min), _output(0.0f) {}
 398              		.loc 5 12 5 is_stmt 1 view .LVU144
 399              	.LBB115:
 400              	.LBB116:
 401              		.loc 5 13 11 is_stmt 0 view .LVU145
 402 018a C3F88CE1 		str	lr, [r3, #396]	@ float
 403              		.loc 5 13 20 view .LVU146
ARM GAS  /tmp/ccuUIbvr.s 			page 15


 404 018e C3F89071 		str	r7, [r3, #400]	@ float
 405              		.loc 5 13 29 view .LVU147
 406 0192 C3F89441 		str	r4, [r3, #404]	@ float
 407              		.loc 5 13 40 view .LVU148
 408 0196 C3F898C1 		str	ip, [r3, #408]	@ float
 409              		.loc 5 13 51 view .LVU149
 410 019a C3F89C21 		str	r2, [r3, #412]	@ float
 411              	.LVL13:
 412              		.loc 5 13 51 view .LVU150
 413              	.LBE116:
 414              	.LBE115:
 415              	.LBE114:
 416              	.LBB117:
 417              	.LBI117:
  29:Lib/compute/pid/pid_Increment.hpp ****     {
 418              		.loc 3 29 5 is_stmt 1 view .LVU151
 419              	.LBB118:
 420              	.LBB119:
  31:Lib/compute/pid/pid_Increment.hpp ****         _ki = ki;
 421              		.loc 3 31 9 view .LVU152
  31:Lib/compute/pid/pid_Increment.hpp ****         _ki = ki;
 422              		.loc 3 31 13 is_stmt 0 view .LVU153
 423 019e C3F8A021 		str	r2, [r3, #416]	@ float
  32:Lib/compute/pid/pid_Increment.hpp ****         _kd = kd;
 424              		.loc 3 32 9 is_stmt 1 view .LVU154
  32:Lib/compute/pid/pid_Increment.hpp ****         _kd = kd;
 425              		.loc 3 32 13 is_stmt 0 view .LVU155
 426 01a2 C3F8A421 		str	r2, [r3, #420]	@ float
  33:Lib/compute/pid/pid_Increment.hpp ****         _dt = dt;
 427              		.loc 3 33 9 is_stmt 1 view .LVU156
  33:Lib/compute/pid/pid_Increment.hpp ****         _dt = dt;
 428              		.loc 3 33 13 is_stmt 0 view .LVU157
 429 01a6 C3F8A821 		str	r2, [r3, #424]	@ float
  34:Lib/compute/pid/pid_Increment.hpp ****         _max = max;
 430              		.loc 3 34 9 is_stmt 1 view .LVU158
  34:Lib/compute/pid/pid_Increment.hpp ****         _max = max;
 431              		.loc 3 34 13 is_stmt 0 view .LVU159
 432 01aa C3ED6B4A 		vstr.32	s9, [r3, #428]
  35:Lib/compute/pid/pid_Increment.hpp ****         _min = min;
 433              		.loc 3 35 9 is_stmt 1 view .LVU160
  35:Lib/compute/pid/pid_Increment.hpp ****         _min = min;
 434              		.loc 3 35 14 is_stmt 0 view .LVU161
 435 01ae 83ED6C5A 		vstr.32	s10, [r3, #432]
  36:Lib/compute/pid/pid_Increment.hpp ****         _e_prev = _e_prev2 = 0.0f;
 436              		.loc 3 36 9 is_stmt 1 view .LVU162
  36:Lib/compute/pid/pid_Increment.hpp ****         _e_prev = _e_prev2 = 0.0f;
 437              		.loc 3 36 14 is_stmt 0 view .LVU163
 438 01b2 C3ED6D5A 		vstr.32	s11, [r3, #436]
  37:Lib/compute/pid/pid_Increment.hpp ****         _delta_u = 0.0f;
 439              		.loc 3 37 9 is_stmt 1 view .LVU164
  37:Lib/compute/pid/pid_Increment.hpp ****         _delta_u = 0.0f;
 440              		.loc 3 37 28 is_stmt 0 view .LVU165
 441 01b6 C3F8BC21 		str	r2, [r3, #444]	@ float
  37:Lib/compute/pid/pid_Increment.hpp ****         _delta_u = 0.0f;
 442              		.loc 3 37 17 view .LVU166
 443 01ba C3F8B821 		str	r2, [r3, #440]	@ float
 444              		.loc 3 38 9 is_stmt 1 view .LVU167
ARM GAS  /tmp/ccuUIbvr.s 			page 16


 445              		.loc 3 38 18 is_stmt 0 view .LVU168
 446 01be C3F8C021 		str	r2, [r3, #448]	@ float
 447              	.LVL14:
 448              		.loc 3 38 18 view .LVU169
 449              	.LBE119:
 450              	.LBE118:
 451              	.LBE117:
 452              	.LBB120:
 453              	.LBI120:
  10:Lib/compute/pid/pid.hpp ****         float max = 1.0f, float min = -1.0f)
 454              		.loc 4 10 5 is_stmt 1 view .LVU170
 455              	.LBB121:
 456              	.LBB122:
  12:Lib/compute/pid/pid.hpp ****           _error(0.0f), _prev_error(0.0f), P_OUT(0.0f), I_OUT(0.0f), D_OUT(0.0f),
 457              		.loc 4 12 11 is_stmt 0 view .LVU171
 458 01c2 C3F8C421 		str	r2, [r3, #452]	@ float
  12:Lib/compute/pid/pid.hpp ****           _error(0.0f), _prev_error(0.0f), P_OUT(0.0f), I_OUT(0.0f), D_OUT(0.0f),
 459              		.loc 4 12 20 view .LVU172
 460 01c6 C3F8C821 		str	r2, [r3, #456]	@ float
  12:Lib/compute/pid/pid.hpp ****           _error(0.0f), _prev_error(0.0f), P_OUT(0.0f), I_OUT(0.0f), D_OUT(0.0f),
 461              		.loc 4 12 29 view .LVU173
 462 01ca C3F8CC21 		str	r2, [r3, #460]	@ float
  12:Lib/compute/pid/pid.hpp ****           _error(0.0f), _prev_error(0.0f), P_OUT(0.0f), I_OUT(0.0f), D_OUT(0.0f),
 463              		.loc 4 12 38 view .LVU174
 464 01ce 83ED746A 		vstr.32	s12, [r3, #464]
  12:Lib/compute/pid/pid.hpp ****           _error(0.0f), _prev_error(0.0f), P_OUT(0.0f), I_OUT(0.0f), D_OUT(0.0f),
 465              		.loc 4 12 47 view .LVU175
 466 01d2 C3ED756A 		vstr.32	s13, [r3, #468]
  12:Lib/compute/pid/pid.hpp ****           _error(0.0f), _prev_error(0.0f), P_OUT(0.0f), I_OUT(0.0f), D_OUT(0.0f),
 467              		.loc 4 12 61 view .LVU176
 468 01d6 83ED767A 		vstr.32	s14, [r3, #472]
  12:Lib/compute/pid/pid.hpp ****           _error(0.0f), _prev_error(0.0f), P_OUT(0.0f), I_OUT(0.0f), D_OUT(0.0f),
 469              		.loc 4 12 72 view .LVU177
 470 01da C3ED777A 		vstr.32	s15, [r3, #476]
  13:Lib/compute/pid/pid.hpp ****           _output(0.0f), max_out_flag(false) {}
 471              		.loc 4 13 11 view .LVU178
 472 01de C3F8E021 		str	r2, [r3, #480]	@ float
  13:Lib/compute/pid/pid.hpp ****           _output(0.0f), max_out_flag(false) {}
 473              		.loc 4 13 25 view .LVU179
 474 01e2 C3F8E421 		str	r2, [r3, #484]	@ float
  13:Lib/compute/pid/pid.hpp ****           _output(0.0f), max_out_flag(false) {}
 475              		.loc 4 13 44 view .LVU180
 476 01e6 C3F8E821 		str	r2, [r3, #488]	@ float
  13:Lib/compute/pid/pid.hpp ****           _output(0.0f), max_out_flag(false) {}
 477              		.loc 4 13 57 view .LVU181
 478 01ea C3F8EC21 		str	r2, [r3, #492]	@ float
  13:Lib/compute/pid/pid.hpp ****           _output(0.0f), max_out_flag(false) {}
 479              		.loc 4 13 70 view .LVU182
 480 01ee C3F8F021 		str	r2, [r3, #496]	@ float
 481              		.loc 4 14 11 view .LVU183
 482 01f2 C3F8F421 		str	r2, [r3, #500]	@ float
 483              		.loc 4 14 26 view .LVU184
 484 01f6 83F8F811 		strb	r1, [r3, #504]
 485              	.LVL15:
 486              		.loc 4 14 26 view .LVU185
 487              	.LBE122:
 488              	.LBE121:
ARM GAS  /tmp/ccuUIbvr.s 			page 17


 489              	.LBE120:
 490              	.LBB123:
 491              	.LBI123:
  12:Lib/compute/pid/LQR.hpp ****         : _k1(k1), _k2(k2), _max(max), _min(min), _output(0.0f) {}
 492              		.loc 5 12 5 is_stmt 1 view .LVU186
 493              	.LBB124:
 494              	.LBB125:
 495              		.loc 5 13 11 is_stmt 0 view .LVU187
 496 01fa C3F8FCE1 		str	lr, [r3, #508]	@ float
 497              		.loc 5 13 20 view .LVU188
 498 01fe C3F80072 		str	r7, [r3, #512]	@ float
 499              		.loc 5 13 29 view .LVU189
 500 0202 C3F80442 		str	r4, [r3, #516]	@ float
 501              		.loc 5 13 40 view .LVU190
 502 0206 C3F808C2 		str	ip, [r3, #520]	@ float
 503              		.loc 5 13 51 view .LVU191
 504 020a C3F80C22 		str	r2, [r3, #524]	@ float
 505              	.LVL16:
 506              		.loc 5 13 51 view .LVU192
 507              	.LBE125:
 508              	.LBE124:
 509              	.LBE123:
 510              	.LBB126:
 511              	.LBI126:
 512              		.file 6 "My_Top/Motor_Control/DcMotor_ClosedLoop.hpp"
   1:My_Top/Motor_Control/DcMotor_ClosedLoop.hpp **** #pragma once
   2:My_Top/Motor_Control/DcMotor_ClosedLoop.hpp **** #include "pid.hpp"
   3:My_Top/Motor_Control/DcMotor_ClosedLoop.hpp **** #include "pid_Increment.hpp"
   4:My_Top/Motor_Control/DcMotor_ClosedLoop.hpp **** #include "pll.hpp"
   5:My_Top/Motor_Control/DcMotor_ClosedLoop.hpp **** #include "LQR.hpp"
   6:My_Top/Motor_Control/DcMotor_ClosedLoop.hpp **** #include "kth_read.hpp"
   7:My_Top/Motor_Control/DcMotor_ClosedLoop.hpp **** #include "ex_math.hpp"
   8:My_Top/Motor_Control/DcMotor_ClosedLoop.hpp **** #include "bsp.hpp"
   9:My_Top/Motor_Control/DcMotor_ClosedLoop.hpp **** #include "XBLW24C64.hpp"
  10:My_Top/Motor_Control/DcMotor_ClosedLoop.hpp **** #include "my_dronecan.hpp"
  11:My_Top/Motor_Control/DcMotor_ClosedLoop.hpp **** 
  12:My_Top/Motor_Control/DcMotor_ClosedLoop.hpp **** #define max_chl_num 8 //µ£ĆÕż¦ķĆÜķüōµĢ░
  13:My_Top/Motor_Control/DcMotor_ClosedLoop.hpp **** 
  14:My_Top/Motor_Control/DcMotor_ClosedLoop.hpp **** enum Work_Mode
  15:My_Top/Motor_Control/DcMotor_ClosedLoop.hpp **** {
  16:My_Top/Motor_Control/DcMotor_ClosedLoop.hpp ****     open_loop = 0,//Õ╝ĆńÄ»µ©ĪÕ╝Å
  17:My_Top/Motor_Control/DcMotor_ClosedLoop.hpp ****     speed = 1,//ķĆ¤Õ║”µ©ĪÕ╝Å
  18:My_Top/Motor_Control/DcMotor_ClosedLoop.hpp ****     position = 2,//õĮŹńĮ«µ©ĪÕ╝Å
  19:My_Top/Motor_Control/DcMotor_ClosedLoop.hpp **** 
  20:My_Top/Motor_Control/DcMotor_ClosedLoop.hpp ****     EncoderCalibration = 99,//ń╝¢ńĀüÕÖ©µĀĪÕćåµ©ĪÕ╝Å
  21:My_Top/Motor_Control/DcMotor_ClosedLoop.hpp ****     null_mode = 100,        //µŚĀµ©ĪÕ╝Å
  22:My_Top/Motor_Control/DcMotor_ClosedLoop.hpp **** };
  23:My_Top/Motor_Control/DcMotor_ClosedLoop.hpp **** 
  24:My_Top/Motor_Control/DcMotor_ClosedLoop.hpp **** 
  25:My_Top/Motor_Control/DcMotor_ClosedLoop.hpp **** class DC_Motor
  26:My_Top/Motor_Control/DcMotor_ClosedLoop.hpp **** {
  27:My_Top/Motor_Control/DcMotor_ClosedLoop.hpp **** public:
  28:My_Top/Motor_Control/DcMotor_ClosedLoop.hpp ****     DC_Motor(const MotorPWM_Config *motor_config, KTH7111 *encoder,
 513              		.loc 6 28 5 is_stmt 1 view .LVU193
 514              	.LBB127:
 515              	.LBB128:
  29:My_Top/Motor_Control/DcMotor_ClosedLoop.hpp ****             PID_Increment *pid_inc_param ,PID *pid,LQR *lqr)
ARM GAS  /tmp/ccuUIbvr.s 			page 18


  30:My_Top/Motor_Control/DcMotor_ClosedLoop.hpp ****             : _motor_config(motor_config), _encoder(encoder), 
  31:My_Top/Motor_Control/DcMotor_ClosedLoop.hpp ****             pid_speed_incparam(pid_inc_param) ,pid_location(pid),_lqr(lqr)
 516              		.loc 6 31 74 is_stmt 0 view .LVU194
 517 020e 83F81012 		strb	r1, [r3, #528]
 518 0212 4FF0010E 		mov	lr, #1
 519 0216 83F811E2 		strb	lr, [r3, #529]
 520 021a 83F81212 		strb	r1, [r3, #530]
 521 021e DFED6D5A 		vldr.32	s11, .L3+52
 522 0222 C3ED855A 		vstr.32	s11, [r3, #532]
 523 0226 C3F81822 		str	r2, [r3, #536]	@ float
 524 022a C3F81C22 		str	r2, [r3, #540]	@ float
 525 022e C3F82022 		str	r2, [r3, #544]	@ float
 526 0232 C3F83822 		str	r2, [r3, #568]	@ float
 527 0236 C3F83C22 		str	r2, [r3, #572]	@ float
  30:My_Top/Motor_Control/DcMotor_ClosedLoop.hpp ****             pid_speed_incparam(pid_inc_param) ,pid_location(pid),_lqr(lqr)
 528              		.loc 6 30 44 view .LVU195
 529 023a C3F84832 		str	r3, [r3, #584]
 530              		.loc 6 31 13 view .LVU196
 531 023e 03F15004 		add	r4, r3, #80
 532 0242 C3F84C42 		str	r4, [r3, #588]
 533              		.loc 6 31 48 view .LVU197
 534 0246 03F17404 		add	r4, r3, #116
 535 024a C3F85042 		str	r4, [r3, #592]
 536              		.loc 6 31 66 view .LVU198
 537 024e 03F1AC04 		add	r4, r3, #172
 538 0252 C3F85442 		str	r4, [r3, #596]
 539              		.loc 6 31 74 view .LVU199
 540 0256 FF24     		movs	r4, #255
 541 0258 A3F85C42 		strh	r4, [r3, #604]	@ movhi
 542 025c C3F860C2 		str	ip, [r3, #608]	@ float
 543 0260 C3F864C2 		str	ip, [r3, #612]	@ float
 544 0264 83F86812 		strb	r1, [r3, #616]
  30:My_Top/Motor_Control/DcMotor_ClosedLoop.hpp ****             pid_speed_incparam(pid_inc_param) ,pid_location(pid),_lqr(lqr)
 545              		.loc 6 30 15 view .LVU200
 546 0268 C3F8B882 		str	r8, [r3, #696]
 547              		.loc 6 31 74 view .LVU201
 548 026c 83F8BCE2 		strb	lr, [r3, #700]
 549 0270 C3F8D822 		str	r2, [r3, #728]	@ float
 550 0274 C3F8DC22 		str	r2, [r3, #732]	@ float
 551              	.LVL17:
 552              	.LBB129:
 553              	.LBI129:
 554              		.file 7 "Lib/compute/pid/pll.hpp"
   1:Lib/compute/pid/pll.hpp **** #pragma once
   2:Lib/compute/pid/pll.hpp **** #include "ex_math.hpp"
   3:Lib/compute/pid/pll.hpp **** 
   4:Lib/compute/pid/pll.hpp **** #include "bsp.hpp"
   5:Lib/compute/pid/pll.hpp **** 
   6:Lib/compute/pid/pll.hpp **** 
   7:Lib/compute/pid/pll.hpp **** #define Motor_RPM (315) //ńöĄµ£║µ£ĆÕż¦ĶĮ¼ķĆ¤ Õ«×µĄŗńöĄµ£║µ£Ćķ½ś5.252Õ£ł/s =315rpm
   8:Lib/compute/pid/pll.hpp **** // #define Motor_PolesNub (7) //µ×üÕ»╣µĢ░ ???
   9:Lib/compute/pid/pll.hpp **** // #define Motor_Fe (Motor_RPM*Motor_PolesNub/60) //
  10:Lib/compute/pid/pll.hpp **** // #define Wn_min  (M_2PI*Motor_Fe/10) //µ£ĆÕ░ÅĶć¬ńäČķóæńÄć = 2pi*Fe/10 = 219.911482 
  11:Lib/compute/pid/pll.hpp **** 
  12:Lib/compute/pid/pll.hpp **** 
  13:Lib/compute/pid/pll.hpp **** #define Stepper_Max_RPS (Motor_RPM / 60.0f) //ńöĄµ£║µ£ĆÕż¦ĶĮ¼ķĆ¤ µ»Åń¦ÆĶĮ¼ńÜäÕ£łµĢ░
  14:Lib/compute/pid/pll.hpp **** #define Wn_min  (M_2PI * Stepper_Max_RPS / 10) // µ£ĆÕ░ÅÕĖ”Õ«Į 3.30
ARM GAS  /tmp/ccuUIbvr.s 			page 19


  15:Lib/compute/pid/pll.hpp **** 
  16:Lib/compute/pid/pll.hpp **** #define Wn_max  (M_2PI*PLL_FREQ_HZ/10) //µ£ĆÕż¦Ķć¬ńäČķóæńÄć = 2pi*ķććµĀĘÕæ©µ£¤/10   2513.2 
  17:Lib/compute/pid/pll.hpp **** #define Ts_min  (3.0/(PLL_ZETA*Wn_max)*1000) //µ£ĆÕ░ÅµöČµĢøµŚČķŚ┤ Ts = 3/(╬Č*Wn_max) = 1.688ms 
  18:Lib/compute/pid/pll.hpp **** #define Ts_max  (3.0/(PLL_ZETA*Wn_min)*1000) //µ£ĆÕż¦µöČµĢøµŚČķŚ┤ Ts = 3/(╬Č*Wn_min) =19.2954ms /12
  19:Lib/compute/pid/pll.hpp **** 
  20:Lib/compute/pid/pll.hpp **** 
  21:Lib/compute/pid/pll.hpp **** #define PLL_FREQ_HZ   (4000)  //ķććµĀĘķóæńÄćÕ┐ģķĪ╗ Ōēź ÕĖ”Õ«ĮķóæńÄćńÜä 2 ÕĆŹ’╝īÕÉ”ÕłÖõ┐ĪÕÅĘõ╝ÜµĘĘÕÅ
  22:Lib/compute/pid/pll.hpp **** #define PLL_FREQ_Dt   (1.0/PLL_FREQ_HZ)
  23:Lib/compute/pid/pll.hpp **** #define PLL_ts_temp   (100) //µöČµĢøµŚČķŚ┤ ÕŹĢõĮŹms 
  24:Lib/compute/pid/pll.hpp **** #define PLL_ts  constraint_value(PLL_ts_temp, Ts_min, Ts_max) //ń║”µØ¤µöČµĢøµŚČķŚ┤Õ£©µ£ĆÕ░ÅÕÆīµ£ĆÕż
  25:Lib/compute/pid/pll.hpp **** 
  26:Lib/compute/pid/pll.hpp **** // #define PLL_ts 1 
  27:Lib/compute/pid/pll.hpp **** #define PLL_ZETA (0.707) //ķś╗Õ░╝µ»ö
  28:Lib/compute/pid/pll.hpp **** #define PLL_Wn   (3.0/(PLL_ZETA*PLL_ts*0.001)) //223.33hzĶć¬ńäČķóæńÄć Ķ«Īń«ŚÕģ¼Õ╝Å wn = 3/(╬Č*ts)  
  29:Lib/compute/pid/pll.hpp **** #define FOC_PLL_KP    (2*PLL_ZETA*PLL_Wn) //PIÕÅéµĢ░Ķ«Īń«ŚÕģ¼Õ╝Å kp = 2╬ČŽēn = 310.9548 
  30:Lib/compute/pid/pll.hpp **** #define FOC_PLL_KI    (PLL_Wn*PLL_Wn) //PIÕÅéµĢ░Ķ«Īń«ŚÕģ¼Õ╝Å ki = Žēn┬▓ = 48361.06 
  31:Lib/compute/pid/pll.hpp **** 
  32:Lib/compute/pid/pll.hpp **** 
  33:Lib/compute/pid/pll.hpp **** 
  34:Lib/compute/pid/pll.hpp **** struct PLL_Parameter
  35:Lib/compute/pid/pll.hpp **** {
  36:Lib/compute/pid/pll.hpp ****     PLL_Parameter(double kp, double ki) : foc_pll_kp(kp), foc_pll_ki(ki) {}
 555              		.loc 7 36 5 is_stmt 1 view .LVU202
 556              	.LBB130:
 557              	.LBB131:
 558              		.loc 7 36 43 is_stmt 0 view .LVU203
 559 0278 9FED496B 		vldr.64	d6, .L3
 560 027c 83EDB86B 		vstr.64	d6, [r3, #736]
 561              		.loc 7 36 59 view .LVU204
 562 0280 9FED497B 		vldr.64	d7, .L3+8
 563 0284 83EDBA7B 		vstr.64	d7, [r3, #744]
 564              	.LVL18:
 565              		.loc 7 36 59 view .LVU205
 566              	.LBE131:
 567              	.LBE130:
 568              	.LBE129:
 569              	.LBE128:
 570              	.LBE127:
 571              	.LBE126:
 572              	.LBB132:
 573              	.LBI132:
  28:My_Top/Motor_Control/DcMotor_ClosedLoop.hpp ****             PID_Increment *pid_inc_param ,PID *pid,LQR *lqr)
 574              		.loc 6 28 5 is_stmt 1 view .LVU206
 575              	.LBB133:
 576              	.LBB134:
 577              		.loc 6 31 74 is_stmt 0 view .LVU207
 578 0288 83F8F012 		strb	r1, [r3, #752]
 579 028c 83F8F1E2 		strb	lr, [r3, #753]
 580 0290 83F8F212 		strb	r1, [r3, #754]
 581 0294 C3EDBD5A 		vstr.32	s11, [r3, #756]
 582 0298 C3F8F822 		str	r2, [r3, #760]	@ float
 583 029c C3F8FC22 		str	r2, [r3, #764]	@ float
 584 02a0 C3F80023 		str	r2, [r3, #768]	@ float
 585 02a4 C3F81823 		str	r2, [r3, #792]	@ float
 586 02a8 C3F81C23 		str	r2, [r3, #796]	@ float
  30:My_Top/Motor_Control/DcMotor_ClosedLoop.hpp ****             pid_speed_incparam(pid_inc_param) ,pid_location(pid),_lqr(lqr)
 587              		.loc 6 30 44 view .LVU208
ARM GAS  /tmp/ccuUIbvr.s 			page 20


 588 02ac 03F11407 		add	r7, r3, #20
 589 02b0 C3F82873 		str	r7, [r3, #808]
 590              		.loc 6 31 13 view .LVU209
 591 02b4 03F1C007 		add	r7, r3, #192
 592 02b8 C3F82C73 		str	r7, [r3, #812]
 593              		.loc 6 31 48 view .LVU210
 594 02bc 03F1E407 		add	r7, r3, #228
 595 02c0 C3F83073 		str	r7, [r3, #816]
 596              		.loc 6 31 66 view .LVU211
 597 02c4 03F58E77 		add	r7, r3, #284
 598 02c8 C3F83473 		str	r7, [r3, #820]
 599              		.loc 6 31 74 view .LVU212
 600 02cc A3F83C43 		strh	r4, [r3, #828]	@ movhi
 601 02d0 C3F840C3 		str	ip, [r3, #832]	@ float
 602 02d4 C3F844C3 		str	ip, [r3, #836]	@ float
 603 02d8 83F84813 		strb	r1, [r3, #840]
  30:My_Top/Motor_Control/DcMotor_ClosedLoop.hpp ****             pid_speed_incparam(pid_inc_param) ,pid_location(pid),_lqr(lqr)
 604              		.loc 6 30 15 view .LVU213
 605 02dc C3F89863 		str	r6, [r3, #920]
 606              		.loc 6 31 74 view .LVU214
 607 02e0 83F89CE3 		strb	lr, [r3, #924]
 608 02e4 C3F8B823 		str	r2, [r3, #952]	@ float
 609 02e8 C3F8BC23 		str	r2, [r3, #956]	@ float
 610              	.LVL19:
 611              	.LBB135:
 612              	.LBI135:
 613              		.loc 7 36 5 is_stmt 1 view .LVU215
 614              	.LBB136:
 615              	.LBB137:
 616              		.loc 7 36 43 is_stmt 0 view .LVU216
 617 02ec 83EDF06B 		vstr.64	d6, [r3, #960]
 618              		.loc 7 36 59 view .LVU217
 619 02f0 83EDF27B 		vstr.64	d7, [r3, #968]
 620              	.LVL20:
 621              		.loc 7 36 59 view .LVU218
 622              	.LBE137:
 623              	.LBE136:
 624              	.LBE135:
 625              	.LBE134:
 626              	.LBE133:
 627              	.LBE132:
 628              	.LBB138:
 629              	.LBI138:
  28:My_Top/Motor_Control/DcMotor_ClosedLoop.hpp ****             PID_Increment *pid_inc_param ,PID *pid,LQR *lqr)
 630              		.loc 6 28 5 is_stmt 1 view .LVU219
 631              	.LBB139:
 632              	.LBB140:
 633              		.loc 6 31 74 is_stmt 0 view .LVU220
 634 02f4 83F8D013 		strb	r1, [r3, #976]
 635 02f8 83F8D1E3 		strb	lr, [r3, #977]
 636 02fc 83F8D213 		strb	r1, [r3, #978]
 637 0300 C3EDF55A 		vstr.32	s11, [r3, #980]
 638 0304 C3F8D823 		str	r2, [r3, #984]	@ float
 639 0308 C3F8DC23 		str	r2, [r3, #988]	@ float
 640 030c C3F8E023 		str	r2, [r3, #992]	@ float
 641 0310 C3F8F823 		str	r2, [r3, #1016]	@ float
 642 0314 C3F8FC23 		str	r2, [r3, #1020]	@ float
ARM GAS  /tmp/ccuUIbvr.s 			page 21


  30:My_Top/Motor_Control/DcMotor_ClosedLoop.hpp ****             pid_speed_incparam(pid_inc_param) ,pid_location(pid),_lqr(lqr)
 643              		.loc 6 30 44 view .LVU221
 644 0318 03F12806 		add	r6, r3, #40
 645 031c C3F80864 		str	r6, [r3, #1032]
 646              		.loc 6 31 13 view .LVU222
 647 0320 03F59876 		add	r6, r3, #304
 648 0324 C3F80C64 		str	r6, [r3, #1036]
 649              		.loc 6 31 48 view .LVU223
 650 0328 03F5AA76 		add	r6, r3, #340
 651 032c C3F81064 		str	r6, [r3, #1040]
 652              		.loc 6 31 66 view .LVU224
 653 0330 03F5C676 		add	r6, r3, #396
 654 0334 C3F81464 		str	r6, [r3, #1044]
 655              		.loc 6 31 74 view .LVU225
 656 0338 A3F81C44 		strh	r4, [r3, #1052]	@ movhi
 657 033c 03F58466 		add	r6, r3, #1056
 658 0340 C6F800C0 		str	ip, [r6]	@ float
 659 0344 03F22446 		addw	r6, r3, #1060
 660 0348 C6F800C0 		str	ip, [r6]	@ float
 661 034c 83F82814 		strb	r1, [r3, #1064]
  30:My_Top/Motor_Control/DcMotor_ClosedLoop.hpp ****             pid_speed_incparam(pid_inc_param) ,pid_location(pid),_lqr(lqr)
 662              		.loc 6 30 15 view .LVU226
 663 0350 C3F87804 		str	r0, [r3, #1144]
 664              		.loc 6 31 74 view .LVU227
 665 0354 83F87CE4 		strb	lr, [r3, #1148]
 666 0358 03F59360 		add	r0, r3, #1176
 667 035c 0260     		str	r2, [r0]	@ float
 668 035e 03F29C40 		addw	r0, r3, #1180
 669 0362 0260     		str	r2, [r0]	@ float
 670              	.LVL21:
 671              	.LBB141:
 672              	.LBI141:
 673              		.loc 7 36 5 is_stmt 1 view .LVU228
 674              	.LBB142:
 675              	.LBB143:
 676              		.loc 7 36 43 is_stmt 0 view .LVU229
 677 0364 03F59460 		add	r0, r3, #1184
 678 0368 80ED006B 		vstr.64	d6, [r0]
 679              		.loc 7 36 59 view .LVU230
 680 036c 03F59660 		add	r0, r3, #1200
 681 0370 00ED027B 		vstr.64	d7, [r0, #-8]
 682              	.LVL22:
 683              		.loc 7 36 59 view .LVU231
 684              	.LBE143:
 685              	.LBE142:
 686              	.LBE141:
 687              	.LBE140:
 688              	.LBE139:
 689              	.LBE138:
 690              	.LBB144:
 691              	.LBI144:
  28:My_Top/Motor_Control/DcMotor_ClosedLoop.hpp ****             PID_Increment *pid_inc_param ,PID *pid,LQR *lqr)
 692              		.loc 6 28 5 is_stmt 1 view .LVU232
 693              	.LBB145:
 694              	.LBB146:
 695              		.loc 6 31 74 is_stmt 0 view .LVU233
 696 0374 83F8B014 		strb	r1, [r3, #1200]
ARM GAS  /tmp/ccuUIbvr.s 			page 22


 697 0378 83F8B1E4 		strb	lr, [r3, #1201]
 698 037c 83F8B214 		strb	r1, [r3, #1202]
 699 0380 C0ED015A 		vstr.32	s11, [r0, #4]
 700 0384 8260     		str	r2, [r0, #8]	@ float
 701 0386 C260     		str	r2, [r0, #12]	@ float
 702 0388 0261     		str	r2, [r0, #16]	@ float
 703 038a 8262     		str	r2, [r0, #40]	@ float
 704 038c C262     		str	r2, [r0, #44]	@ float
  30:My_Top/Motor_Control/DcMotor_ClosedLoop.hpp ****             pid_speed_incparam(pid_inc_param) ,pid_location(pid),_lqr(lqr)
 705              		.loc 6 30 44 view .LVU234
 706 038e 03F13C06 		add	r6, r3, #60
 707 0392 C3F8E864 		str	r6, [r3, #1256]
 708              		.loc 6 31 13 view .LVU235
 709 0396 03F5D076 		add	r6, r3, #416
 710 039a C3F8EC64 		str	r6, [r3, #1260]
 711 039e 1FE0     		b	.L4
 712              	.L5:
 713              		.align	3
 714              	.L3:
 715 03a0 00000000 		.word	0
 716 03a4 00004E40 		.word	1078853632
 717 03a8 75DF86D0 		.word	-796467339
 718 03ac 2C229C40 		.word	1083974188
 719 03b0 00000000 		.word	.LANCHOR0
 720 03b4 00000000 		.word	M2_PWM
 721 03b8 00000000 		.word	M3_PWM
 722 03bc 00000000 		.word	M4_PWM
 723 03c0 6F128339 		.word	964891247
 724 03c4 CDCC4C3F 		.word	1061997773
 725 03c8 CDCC4CBF 		.word	-1085485875
 726 03cc 6F12833A 		.word	981668463
 727 03d0 CDCC4C3E 		.word	1045220557
 728 03d4 00401C46 		.word	1176256512
 729 03d8 00000000 		.word	M1_PWM
 730 03dc 000080BF 		.word	-1082130432
 731              	.L4:
 732              		.loc 6 31 48 view .LVU236
 733 03e0 03F5E276 		add	r6, r3, #452
 734 03e4 C3F8F064 		str	r6, [r3, #1264]
 735              		.loc 6 31 66 view .LVU237
 736 03e8 03F5FE76 		add	r6, r3, #508
 737 03ec C3F8F464 		str	r6, [r3, #1268]
 738              		.loc 6 31 74 view .LVU238
 739 03f0 A3F8FC44 		strh	r4, [r3, #1276]	@ movhi
 740 03f4 C0F850C0 		str	ip, [r0, #80]	@ float
 741 03f8 C0F854C0 		str	ip, [r0, #84]	@ float
 742 03fc 83F80815 		strb	r1, [r3, #1288]
  30:My_Top/Motor_Control/DcMotor_ClosedLoop.hpp ****             pid_speed_incparam(pid_inc_param) ,pid_location(pid),_lqr(lqr)
 743              		.loc 6 30 15 view .LVU239
 744 0400 C3F85855 		str	r5, [r3, #1368]
 745              		.loc 6 31 74 view .LVU240
 746 0404 83F85CE5 		strb	lr, [r3, #1372]
 747 0408 C0F8C820 		str	r2, [r0, #200]	@ float
 748 040c C0F8CC20 		str	r2, [r0, #204]	@ float
 749              	.LVL23:
 750              	.LBB147:
 751              	.LBI147:
ARM GAS  /tmp/ccuUIbvr.s 			page 23


 752              		.loc 7 36 5 is_stmt 1 view .LVU241
 753              	.LBB148:
 754              	.LBB149:
 755              		.loc 7 36 43 is_stmt 0 view .LVU242
 756 0410 80ED346B 		vstr.64	d6, [r0, #208]
 757              		.loc 7 36 59 view .LVU243
 758 0414 80ED367B 		vstr.64	d7, [r0, #216]
 759              	.LVL24:
 760              		.loc 7 36 59 view .LVU244
 761              	.LBE149:
 762              	.LBE148:
 763              	.LBE147:
 764              	.LBE146:
 765              	.LBE145:
 766              	.LBE144:
 767              		.loc 1 226 1 view .LVU245
 768 0418 BDE8F081 		pop	{r4, r5, r6, r7, r8, pc}
 769              		.cfi_endproc
 770              	.LFE1511:
 772              		.section	.text._ZN3PID6updateEf,"axG",%progbits,_ZN3PID6updateEf,comdat
 773              		.align	1
 774              		.weak	_ZN3PID6updateEf
 775              		.syntax unified
 776              		.thumb
 777              		.thumb_func
 779              	_ZN3PID6updateEf:
 780              	.LVL25:
 781              	.LFB3:
  15:Lib/compute/pid/pid.hpp **** 
  16:Lib/compute/pid/pid.hpp ****     float _kp; // µ»öõŠŗÕó×ńøŖ
  17:Lib/compute/pid/pid.hpp ****     float _ki; // ń¦»ÕłåÕó×ńøŖ
  18:Lib/compute/pid/pid.hpp ****     float _kd; // ÕŠ«ÕłåÕó×ńøŖ
  19:Lib/compute/pid/pid.hpp ****     float _dt; // ķććµĀĘµŚČķŚ┤
  20:Lib/compute/pid/pid.hpp ****     float _i_max; //
  21:Lib/compute/pid/pid.hpp **** 
  22:Lib/compute/pid/pid.hpp ****     float _max; // ĶŠōÕć║õĖŖķÖÉ
  23:Lib/compute/pid/pid.hpp ****     float _min; // ĶŠōÕć║õĖŗķÖÉ
  24:Lib/compute/pid/pid.hpp ****     float _error; // ÕĮōÕēŹĶ»»ÕĘ«
  25:Lib/compute/pid/pid.hpp ****     float _prev_error; // õĖŖõĖĆµ¼ĪĶ»»ÕĘ«
  26:Lib/compute/pid/pid.hpp **** 
  27:Lib/compute/pid/pid.hpp **** 
  28:Lib/compute/pid/pid.hpp ****     float update(float error)
 782              		.loc 4 28 11 is_stmt 1 view -0
 783              		.cfi_startproc
 784              		@ args = 0, pretend = 0, frame = 0
 785              		@ frame_needed = 0, uses_anonymous_args = 0
 786              		@ link register save eliminated.
  29:Lib/compute/pid/pid.hpp ****     {
  30:Lib/compute/pid/pid.hpp ****         _error = error;
 787              		.loc 4 30 9 view .LVU247
 788              		.loc 4 30 16 is_stmt 0 view .LVU248
 789 0000 80ED070A 		vstr.32	s0, [r0, #28]
  31:Lib/compute/pid/pid.hpp **** 
  32:Lib/compute/pid/pid.hpp ****         P_OUT = _kp * _error; 
 790              		.loc 4 32 9 is_stmt 1 view .LVU249
 791              		.loc 4 32 17 is_stmt 0 view .LVU250
 792 0004 D0ED007A 		vldr.32	s15, [r0]
ARM GAS  /tmp/ccuUIbvr.s 			page 24


 793              		.loc 4 32 21 view .LVU251
 794 0008 67EE807A 		vmul.f32	s15, s15, s0
 795              		.loc 4 32 15 view .LVU252
 796 000c C0ED097A 		vstr.32	s15, [r0, #36]
  33:Lib/compute/pid/pid.hpp **** 
  34:Lib/compute/pid/pid.hpp ****         I_OUT += _ki * _error*_dt;
 797              		.loc 4 34 9 is_stmt 1 view .LVU253
 798 0010 D0ED0A6A 		vldr.32	s13, [r0, #40]
 799              		.loc 4 34 18 is_stmt 0 view .LVU254
 800 0014 90ED017A 		vldr.32	s14, [r0, #4]
 801              		.loc 4 34 22 view .LVU255
 802 0018 27EE007A 		vmul.f32	s14, s14, s0
 803              		.loc 4 34 31 view .LVU256
 804 001c 90ED036A 		vldr.32	s12, [r0, #12]
 805              		.loc 4 34 30 view .LVU257
 806 0020 27EE067A 		vmul.f32	s14, s14, s12
 807              		.loc 4 34 15 view .LVU258
 808 0024 76EE876A 		vadd.f32	s13, s13, s14
 809 0028 C0ED0A6A 		vstr.32	s13, [r0, #40]
  35:Lib/compute/pid/pid.hpp ****         if (I_OUT>=_i_max) I_OUT = _i_max;
 810              		.loc 4 35 9 is_stmt 1 view .LVU259
 811              		.loc 4 35 20 is_stmt 0 view .LVU260
 812 002c 90ED047A 		vldr.32	s14, [r0, #16]
 813              		.loc 4 35 9 view .LVU261
 814 0030 F4EEC76A 		vcmpe.f32	s13, s14
 815 0034 F1EE10FA 		vmrs	APSR_nzcv, FPSCR
 816 0038 01DB     		blt	.L7
 817              		.loc 4 35 28 is_stmt 1 discriminator 1 view .LVU262
 818              		.loc 4 35 34 is_stmt 0 discriminator 1 view .LVU263
 819 003a 80ED0A7A 		vstr.32	s14, [r0, #40]
 820              	.L7:
  36:Lib/compute/pid/pid.hpp ****         if (I_OUT<=-_i_max) I_OUT = -_i_max;
 821              		.loc 4 36 9 is_stmt 1 view .LVU264
 822              		.loc 4 36 13 is_stmt 0 view .LVU265
 823 003e D0ED0A6A 		vldr.32	s13, [r0, #40]
 824              		.loc 4 36 20 view .LVU266
 825 0042 B1EE477A 		vneg.f32	s14, s14
 826              		.loc 4 36 9 view .LVU267
 827 0046 F4EEC76A 		vcmpe.f32	s13, s14
 828 004a F1EE10FA 		vmrs	APSR_nzcv, FPSCR
 829 004e 01D8     		bhi	.L9
 830              		.loc 4 36 29 is_stmt 1 discriminator 1 view .LVU268
 831              		.loc 4 36 35 is_stmt 0 discriminator 1 view .LVU269
 832 0050 80ED0A7A 		vstr.32	s14, [r0, #40]
 833              	.L9:
  37:Lib/compute/pid/pid.hpp **** 
  38:Lib/compute/pid/pid.hpp ****         D_OUT = _kd * (_error - _prev_error)/_dt;
 834              		.loc 4 38 9 is_stmt 1 view .LVU270
 835              		.loc 4 38 17 is_stmt 0 view .LVU271
 836 0054 D0ED026A 		vldr.32	s13, [r0, #8]
 837              		.loc 4 38 33 view .LVU272
 838 0058 90ED087A 		vldr.32	s14, [r0, #32]
 839              		.loc 4 38 31 view .LVU273
 840 005c 30EE477A 		vsub.f32	s14, s0, s14
 841              		.loc 4 38 21 view .LVU274
 842 0060 66EE876A 		vmul.f32	s13, s13, s14
 843              		.loc 4 38 45 view .LVU275
ARM GAS  /tmp/ccuUIbvr.s 			page 25


 844 0064 86EE867A 		vdiv.f32	s14, s13, s12
 845              		.loc 4 38 15 view .LVU276
 846 0068 80ED0B7A 		vstr.32	s14, [r0, #44]
  39:Lib/compute/pid/pid.hpp ****         // Calculate output
  40:Lib/compute/pid/pid.hpp ****         _output = P_OUT + I_OUT + D_OUT; //???
 847              		.loc 4 40 9 is_stmt 1 view .LVU277
 848              		.loc 4 40 27 is_stmt 0 view .LVU278
 849 006c D0ED0A6A 		vldr.32	s13, [r0, #40]
 850              		.loc 4 40 25 view .LVU279
 851 0070 77EEA67A 		vadd.f32	s15, s15, s13
 852              		.loc 4 40 33 view .LVU280
 853 0074 77EE277A 		vadd.f32	s15, s14, s15
 854              		.loc 4 40 17 view .LVU281
 855 0078 C0ED0C7A 		vstr.32	s15, [r0, #48]
  41:Lib/compute/pid/pid.hpp **** 
  42:Lib/compute/pid/pid.hpp ****         // Clamp output
  43:Lib/compute/pid/pid.hpp ****         if (_output > _max)
 856              		.loc 4 43 9 is_stmt 1 view .LVU282
 857              		.loc 4 43 23 is_stmt 0 view .LVU283
 858 007c 90ED057A 		vldr.32	s14, [r0, #20]
 859              		.loc 4 43 9 view .LVU284
 860 0080 F4EEC77A 		vcmpe.f32	s15, s14
 861 0084 F1EE10FA 		vmrs	APSR_nzcv, FPSCR
 862 0088 06DD     		ble	.L19
  44:Lib/compute/pid/pid.hpp ****         {
  45:Lib/compute/pid/pid.hpp ****             _output = _max;
 863              		.loc 4 45 13 is_stmt 1 view .LVU285
 864              		.loc 4 45 21 is_stmt 0 view .LVU286
 865 008a 80ED0C7A 		vstr.32	s14, [r0, #48]
 866              	.L13:
  46:Lib/compute/pid/pid.hpp ****             // max_out_flag = true; // Ķ«ŠńĮ«ĶŠōÕć║õĖŖķÖÉµĀćÕ┐ŚõĮŹ 
  47:Lib/compute/pid/pid.hpp ****         }else if (_output < _min)
  48:Lib/compute/pid/pid.hpp ****         {
  49:Lib/compute/pid/pid.hpp ****             _output = _min;
  50:Lib/compute/pid/pid.hpp ****             // max_out_flag = true; // Ķ«ŠńĮ«ĶŠōÕć║õĖŖķÖÉµĀćÕ┐ŚõĮŹ
  51:Lib/compute/pid/pid.hpp ****         }
  52:Lib/compute/pid/pid.hpp ****         _prev_error = _error;
 867              		.loc 4 52 9 is_stmt 1 view .LVU287
 868              		.loc 4 52 21 is_stmt 0 view .LVU288
 869 008e 80ED080A 		vstr.32	s0, [r0, #32]
  53:Lib/compute/pid/pid.hpp **** 
  54:Lib/compute/pid/pid.hpp ****         return _output;
 870              		.loc 4 54 9 is_stmt 1 view .LVU289
  55:Lib/compute/pid/pid.hpp ****     }
 871              		.loc 4 55 5 is_stmt 0 view .LVU290
 872 0092 90ED0C0A 		vldr.32	s0, [r0, #48]
 873              	.LVL26:
 874              		.loc 4 55 5 view .LVU291
 875 0096 7047     		bx	lr
 876              	.LVL27:
 877              	.L19:
  47:Lib/compute/pid/pid.hpp ****         {
 878              		.loc 4 47 15 is_stmt 1 view .LVU292
  47:Lib/compute/pid/pid.hpp ****         {
 879              		.loc 4 47 29 is_stmt 0 view .LVU293
 880 0098 90ED067A 		vldr.32	s14, [r0, #24]
  47:Lib/compute/pid/pid.hpp ****         {
ARM GAS  /tmp/ccuUIbvr.s 			page 26


 881              		.loc 4 47 15 view .LVU294
 882 009c F4EEC77A 		vcmpe.f32	s15, s14
 883 00a0 F1EE10FA 		vmrs	APSR_nzcv, FPSCR
 884 00a4 F3D5     		bpl	.L13
  49:Lib/compute/pid/pid.hpp ****             // max_out_flag = true; // Ķ«ŠńĮ«ĶŠōÕć║õĖŖķÖÉµĀćÕ┐ŚõĮŹ
 885              		.loc 4 49 13 is_stmt 1 view .LVU295
  49:Lib/compute/pid/pid.hpp ****             // max_out_flag = true; // Ķ«ŠńĮ«ĶŠōÕć║õĖŖķÖÉµĀćÕ┐ŚõĮŹ
 886              		.loc 4 49 21 is_stmt 0 view .LVU296
 887 00a6 80ED0C7A 		vstr.32	s14, [r0, #48]
 888 00aa F0E7     		b	.L13
 889              		.cfi_endproc
 890              	.LFE3:
 892              		.section	.text._ZN13PID_Increment6updateEf,"axG",%progbits,_ZN13PID_Increment6updateEf,comdat
 893              		.align	1
 894              		.weak	_ZN13PID_Increment6updateEf
 895              		.syntax unified
 896              		.thumb
 897              		.thumb_func
 899              	_ZN13PID_Increment6updateEf:
 900              	.LVL28:
 901              	.LFB11:
  39:Lib/compute/pid/pid_Increment.hpp ****     }
  40:Lib/compute/pid/pid_Increment.hpp **** 
  41:Lib/compute/pid/pid_Increment.hpp ****     // ============================================================
  42:Lib/compute/pid/pid_Increment.hpp ****     // µĀĖÕ┐āµø┤µ¢░ÕćĮµĢ░
  43:Lib/compute/pid/pid_Increment.hpp ****     // @error: ÕĮōÕēŹĶ»»ÕĘ« e(k)
  44:Lib/compute/pid/pid_Increment.hpp ****     // @return: ķÖÉÕ╣ģÕÉÄńÜäĶŠōÕć║ÕĆ╝ u(k)
  45:Lib/compute/pid/pid_Increment.hpp ****     // ============================================================
  46:Lib/compute/pid/pid_Increment.hpp ****     float update(float error) 
 902              		.loc 3 46 11 is_stmt 1 view -0
 903              		.cfi_startproc
 904              		@ args = 0, pretend = 0, frame = 0
 905              		@ frame_needed = 0, uses_anonymous_args = 0
 906              		@ link register save eliminated.
  47:Lib/compute/pid/pid_Increment.hpp ****     {                         
  48:Lib/compute/pid/pid_Increment.hpp ****         
  49:Lib/compute/pid/pid_Increment.hpp ****         // ╬öu = Kp * (e - e_prev) + Ki * T * e + (Kd / T) * (e - 2*e_prev + e_prev2)
  50:Lib/compute/pid/pid_Increment.hpp ****         float p_term = _kp * (error - _e_prev);
 907              		.loc 3 50 9 view .LVU298
 908              		.loc 3 50 24 is_stmt 0 view .LVU299
 909 0000 D0ED007A 		vldr.32	s15, [r0]
 910              		.loc 3 50 39 view .LVU300
 911 0004 90ED066A 		vldr.32	s12, [r0, #24]
 912              		.loc 3 50 37 view .LVU301
 913 0008 30EE467A 		vsub.f32	s14, s0, s12
 914              		.loc 3 50 15 view .LVU302
 915 000c 67EE877A 		vmul.f32	s15, s15, s14
 916              	.LVL29:
  51:Lib/compute/pid/pid_Increment.hpp ****         float i_term = _ki * _dt * error;
 917              		.loc 3 51 9 is_stmt 1 view .LVU303
 918              		.loc 3 51 24 is_stmt 0 view .LVU304
 919 0010 90ED017A 		vldr.32	s14, [r0, #4]
 920              		.loc 3 51 30 view .LVU305
 921 0014 D0ED036A 		vldr.32	s13, [r0, #12]
 922              		.loc 3 51 28 view .LVU306
 923 0018 27EE267A 		vmul.f32	s14, s14, s13
 924              		.loc 3 51 15 view .LVU307
ARM GAS  /tmp/ccuUIbvr.s 			page 27


 925 001c 27EE007A 		vmul.f32	s14, s14, s0
 926              	.LVL30:
  52:Lib/compute/pid/pid_Increment.hpp ****         float d_term = (_kd / _dt) * (error - 2.0f * _e_prev + _e_prev2);
 927              		.loc 3 52 9 is_stmt 1 view .LVU308
 928              		.loc 3 52 25 is_stmt 0 view .LVU309
 929 0020 90ED025A 		vldr.32	s10, [r0, #8]
 930              		.loc 3 52 29 view .LVU310
 931 0024 C5EE265A 		vdiv.f32	s11, s10, s13
 932              		.loc 3 52 52 view .LVU311
 933 0028 76EE066A 		vadd.f32	s13, s12, s12
 934              		.loc 3 52 45 view .LVU312
 935 002c 70EE666A 		vsub.f32	s13, s0, s13
 936              		.loc 3 52 64 view .LVU313
 937 0030 90ED075A 		vldr.32	s10, [r0, #28]
 938              		.loc 3 52 62 view .LVU314
 939 0034 76EE856A 		vadd.f32	s13, s13, s10
 940              		.loc 3 52 15 view .LVU315
 941 0038 65EEA66A 		vmul.f32	s13, s11, s13
 942              	.LVL31:
  53:Lib/compute/pid/pid_Increment.hpp **** 
  54:Lib/compute/pid/pid_Increment.hpp ****         _delta_u = p_term + i_term + d_term; // Ķ«Īń«ŚÕó×ķćÅ
 943              		.loc 3 54 9 is_stmt 1 view .LVU316
 944              		.loc 3 54 27 is_stmt 0 view .LVU317
 945 003c 77EE877A 		vadd.f32	s15, s15, s14
 946              	.LVL32:
 947              		.loc 3 54 36 view .LVU318
 948 0040 77EEA67A 		vadd.f32	s15, s15, s13
 949              		.loc 3 54 18 view .LVU319
 950 0044 C0ED087A 		vstr.32	s15, [r0, #32]
  55:Lib/compute/pid/pid_Increment.hpp **** 
  56:Lib/compute/pid/pid_Increment.hpp ****         // ķÖÉÕ╣ģÕó×ķćÅĶŠōÕć║
  57:Lib/compute/pid/pid_Increment.hpp ****         if (_delta_u > _max)
 951              		.loc 3 57 9 is_stmt 1 view .LVU320
 952              		.loc 3 57 24 is_stmt 0 view .LVU321
 953 0048 90ED047A 		vldr.32	s14, [r0, #16]
 954              	.LVL33:
 955              		.loc 3 57 9 view .LVU322
 956 004c F4EEC77A 		vcmpe.f32	s15, s14
 957 0050 F1EE10FA 		vmrs	APSR_nzcv, FPSCR
 958 0054 08DD     		ble	.L27
  58:Lib/compute/pid/pid_Increment.hpp ****             _delta_u = _max;
 959              		.loc 3 58 13 is_stmt 1 view .LVU323
 960              		.loc 3 58 22 is_stmt 0 view .LVU324
 961 0056 80ED087A 		vstr.32	s14, [r0, #32]
 962              	.L23:
  59:Lib/compute/pid/pid_Increment.hpp ****         else if (_delta_u < _min)
  60:Lib/compute/pid/pid_Increment.hpp ****             _delta_u = _min;
  61:Lib/compute/pid/pid_Increment.hpp **** 
  62:Lib/compute/pid/pid_Increment.hpp ****         // µø┤µ¢░Ķ»»ÕĘ«ÕÄåÕÅ▓
  63:Lib/compute/pid/pid_Increment.hpp ****         _e_prev2 = _e_prev; //µø┤µ¢░õĖŖõĖŖµ¼ĪĶ»»ÕĘ«
 963              		.loc 3 63 9 is_stmt 1 view .LVU325
 964              		.loc 3 63 18 is_stmt 0 view .LVU326
 965 005a 80ED076A 		vstr.32	s12, [r0, #28]
  64:Lib/compute/pid/pid_Increment.hpp ****         _e_prev  = error; //µø┤µ¢░õĖŖõĖĆµ¼ĪĶ»»ÕĘ«
 966              		.loc 3 64 9 is_stmt 1 view .LVU327
 967              		.loc 3 64 18 is_stmt 0 view .LVU328
 968 005e 80ED060A 		vstr.32	s0, [r0, #24]
ARM GAS  /tmp/ccuUIbvr.s 			page 28


  65:Lib/compute/pid/pid_Increment.hpp **** 
  66:Lib/compute/pid/pid_Increment.hpp ****         return _delta_u; // Ķ┐öÕø×Õó×ķćÅĶŠōÕć║
 969              		.loc 3 66 9 is_stmt 1 view .LVU329
  67:Lib/compute/pid/pid_Increment.hpp ****     }
 970              		.loc 3 67 5 is_stmt 0 view .LVU330
 971 0062 90ED080A 		vldr.32	s0, [r0, #32]
 972              	.LVL34:
 973              		.loc 3 67 5 view .LVU331
 974 0066 7047     		bx	lr
 975              	.LVL35:
 976              	.L27:
  59:Lib/compute/pid/pid_Increment.hpp ****             _delta_u = _min;
 977              		.loc 3 59 14 is_stmt 1 view .LVU332
  59:Lib/compute/pid/pid_Increment.hpp ****             _delta_u = _min;
 978              		.loc 3 59 29 is_stmt 0 view .LVU333
 979 0068 90ED057A 		vldr.32	s14, [r0, #20]
  59:Lib/compute/pid/pid_Increment.hpp ****             _delta_u = _min;
 980              		.loc 3 59 14 view .LVU334
 981 006c F4EEC77A 		vcmpe.f32	s15, s14
 982 0070 F1EE10FA 		vmrs	APSR_nzcv, FPSCR
 983 0074 F1D5     		bpl	.L23
  60:Lib/compute/pid/pid_Increment.hpp **** 
 984              		.loc 3 60 13 is_stmt 1 view .LVU335
  60:Lib/compute/pid/pid_Increment.hpp **** 
 985              		.loc 3 60 22 is_stmt 0 view .LVU336
 986 0076 80ED087A 		vstr.32	s14, [r0, #32]
 987 007a EEE7     		b	.L23
 988              		.cfi_endproc
 989              	.LFE11:
 991              		.text
 992              		.align	1
 993              		.global	_ZN8DC_Motor9test_lajiEv
 994              		.syntax unified
 995              		.thumb
 996              		.thumb_func
 998              	_ZN8DC_Motor9test_lajiEv:
 999              	.LVL36:
 1000              	.LFB1352:
  36:My_Top/Motor_Control/DcMotor_ClosedLoop.cpp ****    
 1001              		.loc 1 36 1 is_stmt 1 view -0
 1002              		.cfi_startproc
 1003              		@ args = 0, pretend = 0, frame = 0
 1004              		@ frame_needed = 0, uses_anonymous_args = 0
  36:My_Top/Motor_Control/DcMotor_ClosedLoop.cpp ****    
 1005              		.loc 1 36 1 is_stmt 0 view .LVU338
 1006 041c 10B5     		push	{r4, lr}
 1007              		.cfi_def_cfa_offset 8
 1008              		.cfi_offset 4, -8
 1009              		.cfi_offset 14, -4
  38:My_Top/Motor_Control/DcMotor_ClosedLoop.cpp ****     __HAL_TIM_SET_COMPARE(&htim1, TIM_CHANNEL_1, 100);//Ķ«ŠńĮ«õĖŖµĪźĶćéÕŹĀń®║µ»ö 
 1010              		.loc 1 38 5 is_stmt 1 view .LVU339
  38:My_Top/Motor_Control/DcMotor_ClosedLoop.cpp ****     __HAL_TIM_SET_COMPARE(&htim1, TIM_CHANNEL_1, 100);//Ķ«ŠńĮ«õĖŖµĪźĶćéÕŹĀń®║µ»ö 
 1011              		.loc 1 38 5 view .LVU340
 1012 041e 0C4C     		ldr	r4, .L30
 1013 0420 2268     		ldr	r2, [r4]
 1014 0422 6423     		movs	r3, #100
 1015 0424 D362     		str	r3, [r2, #44]
ARM GAS  /tmp/ccuUIbvr.s 			page 29


  38:My_Top/Motor_Control/DcMotor_ClosedLoop.cpp ****     __HAL_TIM_SET_COMPARE(&htim1, TIM_CHANNEL_1, 100);//Ķ«ŠńĮ«õĖŖµĪźĶćéÕŹĀń®║µ»ö 
 1016              		.loc 1 38 5 view .LVU341
 1017 0426 E360     		str	r3, [r4, #12]
  38:My_Top/Motor_Control/DcMotor_ClosedLoop.cpp ****     __HAL_TIM_SET_COMPARE(&htim1, TIM_CHANNEL_1, 100);//Ķ«ŠńĮ«õĖŖµĪźĶćéÕŹĀń®║µ»ö 
 1018              		.loc 1 38 5 view .LVU342
  39:My_Top/Motor_Control/DcMotor_ClosedLoop.cpp ****     __HAL_TIM_SET_COMPARE(&htim1, TIM_CHANNEL_2, 100);//Ķ«ŠńĮ«õĖŗµĪźĶćéÕŹĀń®║µ»ö
 1019              		.loc 1 39 5 view .LVU343
 1020 0428 5363     		str	r3, [r2, #52]
  40:My_Top/Motor_Control/DcMotor_ClosedLoop.cpp ****     HAL_TIM_PWM_Start(&htim1, TIM_CHANNEL_1);
 1021              		.loc 1 40 5 view .LVU344
 1022 042a 9363     		str	r3, [r2, #56]
  41:My_Top/Motor_Control/DcMotor_ClosedLoop.cpp ****     HAL_TIMEx_PWMN_Start(&htim1, TIM_CHANNEL_1);
 1023              		.loc 1 41 5 view .LVU345
  41:My_Top/Motor_Control/DcMotor_ClosedLoop.cpp ****     HAL_TIMEx_PWMN_Start(&htim1, TIM_CHANNEL_1);
 1024              		.loc 1 41 22 is_stmt 0 view .LVU346
 1025 042c 0021     		movs	r1, #0
 1026 042e 2046     		mov	r0, r4
 1027              	.LVL37:
  41:My_Top/Motor_Control/DcMotor_ClosedLoop.cpp ****     HAL_TIMEx_PWMN_Start(&htim1, TIM_CHANNEL_1);
 1028              		.loc 1 41 22 view .LVU347
 1029 0430 FFF7FEFF 		bl	HAL_TIM_PWM_Start
 1030              	.LVL38:
  42:My_Top/Motor_Control/DcMotor_ClosedLoop.cpp ****     HAL_TIM_PWM_Start(&htim1, TIM_CHANNEL_2);
 1031              		.loc 1 42 5 is_stmt 1 view .LVU348
  42:My_Top/Motor_Control/DcMotor_ClosedLoop.cpp ****     HAL_TIM_PWM_Start(&htim1, TIM_CHANNEL_2);
 1032              		.loc 1 42 25 is_stmt 0 view .LVU349
 1033 0434 0021     		movs	r1, #0
 1034 0436 2046     		mov	r0, r4
 1035 0438 FFF7FEFF 		bl	HAL_TIMEx_PWMN_Start
 1036              	.LVL39:
  43:My_Top/Motor_Control/DcMotor_ClosedLoop.cpp ****     HAL_TIMEx_PWMN_Start(&htim1, TIM_CHANNEL_2);
 1037              		.loc 1 43 5 is_stmt 1 view .LVU350
  43:My_Top/Motor_Control/DcMotor_ClosedLoop.cpp ****     HAL_TIMEx_PWMN_Start(&htim1, TIM_CHANNEL_2);
 1038              		.loc 1 43 22 is_stmt 0 view .LVU351
 1039 043c 0421     		movs	r1, #4
 1040 043e 2046     		mov	r0, r4
 1041 0440 FFF7FEFF 		bl	HAL_TIM_PWM_Start
 1042              	.LVL40:
  44:My_Top/Motor_Control/DcMotor_ClosedLoop.cpp **** }
 1043              		.loc 1 44 5 is_stmt 1 view .LVU352
  44:My_Top/Motor_Control/DcMotor_ClosedLoop.cpp **** }
 1044              		.loc 1 44 25 is_stmt 0 view .LVU353
 1045 0444 0421     		movs	r1, #4
 1046 0446 2046     		mov	r0, r4
 1047 0448 FFF7FEFF 		bl	HAL_TIMEx_PWMN_Start
 1048              	.LVL41:
  45:My_Top/Motor_Control/DcMotor_ClosedLoop.cpp **** 
 1049              		.loc 1 45 1 view .LVU354
 1050 044c 10BD     		pop	{r4, pc}
 1051              	.L31:
 1052 044e 00BF     		.align	2
 1053              	.L30:
 1054 0450 00000000 		.word	htim1
 1055              		.cfi_endproc
 1056              	.LFE1352:
 1058              		.align	1
 1059              		.global	_ZN8DC_Motor8Motor_ENEb
ARM GAS  /tmp/ccuUIbvr.s 			page 30


 1060              		.syntax unified
 1061              		.thumb
 1062              		.thumb_func
 1064              	_ZN8DC_Motor8Motor_ENEb:
 1065              	.LVL42:
 1066              	.LFB1356:
 131:My_Top/Motor_Control/DcMotor_ClosedLoop.cpp ****     if (en == _motor_is_on_last) return;  // ńŖČµĆüµ▓ĪÕÅś’╝īĶĘ│Ķ┐ć
 1067              		.loc 1 131 1 is_stmt 1 view -0
 1068              		.cfi_startproc
 1069              		@ args = 0, pretend = 0, frame = 0
 1070              		@ frame_needed = 0, uses_anonymous_args = 0
 132:My_Top/Motor_Control/DcMotor_ClosedLoop.cpp ****     _motor_is_on_last = en;
 1071              		.loc 1 132 5 view .LVU356
 132:My_Top/Motor_Control/DcMotor_ClosedLoop.cpp ****     _motor_is_on_last = en;
 1072              		.loc 1 132 15 is_stmt 0 view .LVU357
 1073 0454 90F85830 		ldrb	r3, [r0, #88]	@ zero_extendqisi2
 132:My_Top/Motor_Control/DcMotor_ClosedLoop.cpp ****     _motor_is_on_last = en;
 1074              		.loc 1 132 5 view .LVU358
 1075 0458 8B42     		cmp	r3, r1
 1076 045a 36D0     		beq	.L36
 131:My_Top/Motor_Control/DcMotor_ClosedLoop.cpp ****     if (en == _motor_is_on_last) return;  // ńŖČµĆüµ▓ĪÕÅś’╝īĶĘ│Ķ┐ć
 1077              		.loc 1 131 1 view .LVU359
 1078 045c 10B5     		push	{r4, lr}
 1079              		.cfi_def_cfa_offset 8
 1080              		.cfi_offset 4, -8
 1081              		.cfi_offset 14, -4
 1082 045e 0446     		mov	r4, r0
 133:My_Top/Motor_Control/DcMotor_ClosedLoop.cpp **** 
 1083              		.loc 1 133 5 is_stmt 1 view .LVU360
 133:My_Top/Motor_Control/DcMotor_ClosedLoop.cpp **** 
 1084              		.loc 1 133 23 is_stmt 0 view .LVU361
 1085 0460 80F85810 		strb	r1, [r0, #88]
 135:My_Top/Motor_Control/DcMotor_ClosedLoop.cpp ****     {
 1086              		.loc 1 135 5 is_stmt 1 view .LVU362
 1087 0464 C1B1     		cbz	r1, .L34
 137:My_Top/Motor_Control/DcMotor_ClosedLoop.cpp ****         HAL_TIMEx_PWMN_Start(_motor_config->htim, _motor_config->ch_hin1);
 1088              		.loc 1 137 9 view .LVU363
 137:My_Top/Motor_Control/DcMotor_ClosedLoop.cpp ****         HAL_TIMEx_PWMN_Start(_motor_config->htim, _motor_config->ch_hin1);
 1089              		.loc 1 137 27 is_stmt 0 view .LVU364
 1090 0466 D0F8A830 		ldr	r3, [r0, #168]
 137:My_Top/Motor_Control/DcMotor_ClosedLoop.cpp ****         HAL_TIMEx_PWMN_Start(_motor_config->htim, _motor_config->ch_hin1);
 1091              		.loc 1 137 26 view .LVU365
 1092 046a 9968     		ldr	r1, [r3, #8]
 1093              	.LVL43:
 137:My_Top/Motor_Control/DcMotor_ClosedLoop.cpp ****         HAL_TIMEx_PWMN_Start(_motor_config->htim, _motor_config->ch_hin1);
 1094              		.loc 1 137 26 view .LVU366
 1095 046c 1868     		ldr	r0, [r3]
 1096              	.LVL44:
 137:My_Top/Motor_Control/DcMotor_ClosedLoop.cpp ****         HAL_TIMEx_PWMN_Start(_motor_config->htim, _motor_config->ch_hin1);
 1097              		.loc 1 137 26 view .LVU367
 1098 046e FFF7FEFF 		bl	HAL_TIM_PWM_Start
 1099              	.LVL45:
 138:My_Top/Motor_Control/DcMotor_ClosedLoop.cpp ****         HAL_TIM_PWM_Start(_motor_config->htim, _motor_config->ch_hin2);
 1100              		.loc 1 138 9 is_stmt 1 view .LVU368
 138:My_Top/Motor_Control/DcMotor_ClosedLoop.cpp ****         HAL_TIM_PWM_Start(_motor_config->htim, _motor_config->ch_hin2);
 1101              		.loc 1 138 30 is_stmt 0 view .LVU369
 1102 0472 D4F8A830 		ldr	r3, [r4, #168]
ARM GAS  /tmp/ccuUIbvr.s 			page 31


 138:My_Top/Motor_Control/DcMotor_ClosedLoop.cpp ****         HAL_TIM_PWM_Start(_motor_config->htim, _motor_config->ch_hin2);
 1103              		.loc 1 138 29 view .LVU370
 1104 0476 9968     		ldr	r1, [r3, #8]
 1105 0478 1868     		ldr	r0, [r3]
 1106 047a FFF7FEFF 		bl	HAL_TIMEx_PWMN_Start
 1107              	.LVL46:
 139:My_Top/Motor_Control/DcMotor_ClosedLoop.cpp ****         HAL_TIMEx_PWMN_Start(_motor_config->htim, _motor_config->ch_hin2);
 1108              		.loc 1 139 9 is_stmt 1 view .LVU371
 139:My_Top/Motor_Control/DcMotor_ClosedLoop.cpp ****         HAL_TIMEx_PWMN_Start(_motor_config->htim, _motor_config->ch_hin2);
 1109              		.loc 1 139 27 is_stmt 0 view .LVU372
 1110 047e D4F8A830 		ldr	r3, [r4, #168]
 139:My_Top/Motor_Control/DcMotor_ClosedLoop.cpp ****         HAL_TIMEx_PWMN_Start(_motor_config->htim, _motor_config->ch_hin2);
 1111              		.loc 1 139 26 view .LVU373
 1112 0482 D968     		ldr	r1, [r3, #12]
 1113 0484 1868     		ldr	r0, [r3]
 1114 0486 FFF7FEFF 		bl	HAL_TIM_PWM_Start
 1115              	.LVL47:
 140:My_Top/Motor_Control/DcMotor_ClosedLoop.cpp ****     }else
 1116              		.loc 1 140 9 is_stmt 1 view .LVU374
 140:My_Top/Motor_Control/DcMotor_ClosedLoop.cpp ****     }else
 1117              		.loc 1 140 30 is_stmt 0 view .LVU375
 1118 048a D4F8A830 		ldr	r3, [r4, #168]
 140:My_Top/Motor_Control/DcMotor_ClosedLoop.cpp ****     }else
 1119              		.loc 1 140 29 view .LVU376
 1120 048e D968     		ldr	r1, [r3, #12]
 1121 0490 1868     		ldr	r0, [r3]
 1122 0492 FFF7FEFF 		bl	HAL_TIMEx_PWMN_Start
 1123              	.LVL48:
 1124              	.L32:
 148:My_Top/Motor_Control/DcMotor_ClosedLoop.cpp **** 
 1125              		.loc 1 148 1 view .LVU377
 1126 0496 10BD     		pop	{r4, pc}
 1127              	.LVL49:
 1128              	.L34:
 143:My_Top/Motor_Control/DcMotor_ClosedLoop.cpp ****         HAL_TIMEx_PWMN_Stop(_motor_config->htim, _motor_config->ch_hin1);
 1129              		.loc 1 143 9 is_stmt 1 view .LVU378
 143:My_Top/Motor_Control/DcMotor_ClosedLoop.cpp ****         HAL_TIMEx_PWMN_Stop(_motor_config->htim, _motor_config->ch_hin1);
 1130              		.loc 1 143 26 is_stmt 0 view .LVU379
 1131 0498 D0F8A830 		ldr	r3, [r0, #168]
 143:My_Top/Motor_Control/DcMotor_ClosedLoop.cpp ****         HAL_TIMEx_PWMN_Stop(_motor_config->htim, _motor_config->ch_hin1);
 1132              		.loc 1 143 25 view .LVU380
 1133 049c 9968     		ldr	r1, [r3, #8]
 1134              	.LVL50:
 143:My_Top/Motor_Control/DcMotor_ClosedLoop.cpp ****         HAL_TIMEx_PWMN_Stop(_motor_config->htim, _motor_config->ch_hin1);
 1135              		.loc 1 143 25 view .LVU381
 1136 049e 1868     		ldr	r0, [r3]
 1137              	.LVL51:
 143:My_Top/Motor_Control/DcMotor_ClosedLoop.cpp ****         HAL_TIMEx_PWMN_Stop(_motor_config->htim, _motor_config->ch_hin1);
 1138              		.loc 1 143 25 view .LVU382
 1139 04a0 FFF7FEFF 		bl	HAL_TIM_PWM_Stop
 1140              	.LVL52:
 144:My_Top/Motor_Control/DcMotor_ClosedLoop.cpp ****         HAL_TIM_PWM_Stop(_motor_config->htim, _motor_config->ch_hin2);
 1141              		.loc 1 144 9 is_stmt 1 view .LVU383
 144:My_Top/Motor_Control/DcMotor_ClosedLoop.cpp ****         HAL_TIM_PWM_Stop(_motor_config->htim, _motor_config->ch_hin2);
 1142              		.loc 1 144 29 is_stmt 0 view .LVU384
 1143 04a4 D4F8A830 		ldr	r3, [r4, #168]
 144:My_Top/Motor_Control/DcMotor_ClosedLoop.cpp ****         HAL_TIM_PWM_Stop(_motor_config->htim, _motor_config->ch_hin2);
ARM GAS  /tmp/ccuUIbvr.s 			page 32


 1144              		.loc 1 144 28 view .LVU385
 1145 04a8 9968     		ldr	r1, [r3, #8]
 1146 04aa 1868     		ldr	r0, [r3]
 1147 04ac FFF7FEFF 		bl	HAL_TIMEx_PWMN_Stop
 1148              	.LVL53:
 145:My_Top/Motor_Control/DcMotor_ClosedLoop.cpp ****         HAL_TIMEx_PWMN_Stop(_motor_config->htim, _motor_config->ch_hin2);
 1149              		.loc 1 145 9 is_stmt 1 view .LVU386
 145:My_Top/Motor_Control/DcMotor_ClosedLoop.cpp ****         HAL_TIMEx_PWMN_Stop(_motor_config->htim, _motor_config->ch_hin2);
 1150              		.loc 1 145 26 is_stmt 0 view .LVU387
 1151 04b0 D4F8A830 		ldr	r3, [r4, #168]
 145:My_Top/Motor_Control/DcMotor_ClosedLoop.cpp ****         HAL_TIMEx_PWMN_Stop(_motor_config->htim, _motor_config->ch_hin2);
 1152              		.loc 1 145 25 view .LVU388
 1153 04b4 D968     		ldr	r1, [r3, #12]
 1154 04b6 1868     		ldr	r0, [r3]
 1155 04b8 FFF7FEFF 		bl	HAL_TIM_PWM_Stop
 1156              	.LVL54:
 146:My_Top/Motor_Control/DcMotor_ClosedLoop.cpp ****     }
 1157              		.loc 1 146 9 is_stmt 1 view .LVU389
 146:My_Top/Motor_Control/DcMotor_ClosedLoop.cpp ****     }
 1158              		.loc 1 146 29 is_stmt 0 view .LVU390
 1159 04bc D4F8A830 		ldr	r3, [r4, #168]
 146:My_Top/Motor_Control/DcMotor_ClosedLoop.cpp ****     }
 1160              		.loc 1 146 28 view .LVU391
 1161 04c0 D968     		ldr	r1, [r3, #12]
 1162 04c2 1868     		ldr	r0, [r3]
 1163 04c4 FFF7FEFF 		bl	HAL_TIMEx_PWMN_Stop
 1164              	.LVL55:
 1165 04c8 E5E7     		b	.L32
 1166              	.LVL56:
 1167              	.L36:
 1168              		.cfi_def_cfa_offset 0
 1169              		.cfi_restore 4
 1170              		.cfi_restore 14
 146:My_Top/Motor_Control/DcMotor_ClosedLoop.cpp ****     }
 1171              		.loc 1 146 28 view .LVU392
 1172 04ca 7047     		bx	lr
 1173              		.cfi_endproc
 1174              	.LFE1356:
 1176              		.align	1
 1177              		.global	_ZN8DC_Motor19Set_Motor_FrequencyEv
 1178              		.syntax unified
 1179              		.thumb
 1180              		.thumb_func
 1182              	_ZN8DC_Motor19Set_Motor_FrequencyEv:
 1183              	.LVL57:
 1184              	.LFB1354:
  73:My_Top/Motor_Control/DcMotor_ClosedLoop.cpp ****     bool new_dir = false;
 1185              		.loc 1 73 1 is_stmt 1 view -0
 1186              		.cfi_startproc
 1187              		@ args = 0, pretend = 0, frame = 0
 1188              		@ frame_needed = 0, uses_anonymous_args = 0
  73:My_Top/Motor_Control/DcMotor_ClosedLoop.cpp ****     bool new_dir = false;
 1189              		.loc 1 73 1 is_stmt 0 view .LVU394
 1190 04cc 38B5     		push	{r3, r4, r5, lr}
 1191              		.cfi_def_cfa_offset 16
 1192              		.cfi_offset 3, -16
 1193              		.cfi_offset 4, -12
ARM GAS  /tmp/ccuUIbvr.s 			page 33


 1194              		.cfi_offset 5, -8
 1195              		.cfi_offset 14, -4
 1196 04ce 2DED028B 		vpush.64	{d8}
 1197              		.cfi_def_cfa_offset 24
 1198              		.cfi_offset 80, -24
 1199              		.cfi_offset 81, -20
 1200 04d2 0446     		mov	r4, r0
  74:My_Top/Motor_Control/DcMotor_ClosedLoop.cpp ****     uint32_t arr = 0;
 1201              		.loc 1 74 5 is_stmt 1 view .LVU395
 1202              	.LVL58:
  75:My_Top/Motor_Control/DcMotor_ClosedLoop.cpp ****     uint16_t Fre = (uint16_t)motor_freq;//ĶĮ¼µĢ┤µĢ░Ķ«Īń«Ś
 1203              		.loc 1 75 5 view .LVU396
  76:My_Top/Motor_Control/DcMotor_ClosedLoop.cpp ****     float up_duty = constraint_value(motor_up_duty, 0.0f, 1.0f); //ķÖÉÕłČÕŹĀń®║µ»öÕ£©0~1õ╣ŗķŚ┤
 1204              		.loc 1 76 5 view .LVU397
  76:My_Top/Motor_Control/DcMotor_ClosedLoop.cpp ****     float up_duty = constraint_value(motor_up_duty, 0.0f, 1.0f); //ķÖÉÕłČÕŹĀń®║µ»öÕ£©0~1õ╣ŗķŚ┤
 1205              		.loc 1 76 30 is_stmt 0 view .LVU398
 1206 04d4 D0ED017A 		vldr.32	s15, [r0, #4]
  76:My_Top/Motor_Control/DcMotor_ClosedLoop.cpp ****     float up_duty = constraint_value(motor_up_duty, 0.0f, 1.0f); //ķÖÉÕłČÕŹĀń®║µ»öÕ£©0~1õ╣ŗķŚ┤
 1207              		.loc 1 76 14 view .LVU399
 1208 04d8 FCEEE77A 		vcvt.u32.f32	s15, s15
 1209 04dc 17EE903A 		vmov	r3, s15	@ int
 1210 04e0 9DB2     		uxth	r5, r3
 1211              	.LVL59:
  77:My_Top/Motor_Control/DcMotor_ClosedLoop.cpp ****     float down_duty = constraint_value(motor_down_duty, 0.0f, 1.0f); //ķÖÉÕłČÕŹĀń®║µ»öÕ£©0~1õ╣ŗķŚ┤
 1212              		.loc 1 77 5 is_stmt 1 view .LVU400
  77:My_Top/Motor_Control/DcMotor_ClosedLoop.cpp ****     float down_duty = constraint_value(motor_down_duty, 0.0f, 1.0f); //ķÖÉÕłČÕŹĀń®║µ»öÕ£©0~1õ╣ŗķŚ┤
 1213              		.loc 1 77 21 is_stmt 0 view .LVU401
 1214 04e2 90ED028A 		vldr.32	s16, [r0, #8]
 1215 04e6 B5EEC08A 		vcmpe.f32	s16, #0
 1216 04ea F1EE10FA 		vmrs	APSR_nzcv, FPSCR
 1217 04ee 09D4     		bmi	.L63
  77:My_Top/Motor_Control/DcMotor_ClosedLoop.cpp ****     float down_duty = constraint_value(motor_down_duty, 0.0f, 1.0f); //ķÖÉÕłČÕŹĀń®║µ»öÕ£©0~1õ╣ŗķŚ┤
 1218              		.loc 1 77 21 discriminator 2 view .LVU402
 1219 04f0 F7EE007A 		vmov.f32	s15, #1.0e+0
 1220 04f4 B4EEE78A 		vcmpe.f32	s16, s15
 1221 04f8 F1EE10FA 		vmrs	APSR_nzcv, FPSCR
 1222 04fc 04DD     		ble	.L40
  77:My_Top/Motor_Control/DcMotor_ClosedLoop.cpp ****     float down_duty = constraint_value(motor_down_duty, 0.0f, 1.0f); //ķÖÉÕłČÕŹĀń®║µ»öÕ£©0~1õ╣ŗķŚ┤
 1223              		.loc 1 77 21 discriminator 4 view .LVU403
 1224 04fe B0EE678A 		vmov.f32	s16, s15
 1225 0502 01E0     		b	.L40
 1226              	.L63:
  77:My_Top/Motor_Control/DcMotor_ClosedLoop.cpp ****     float down_duty = constraint_value(motor_down_duty, 0.0f, 1.0f); //ķÖÉÕłČÕŹĀń®║µ»öÕ£©0~1õ╣ŗķŚ┤
 1227              		.loc 1 77 21 discriminator 1 view .LVU404
 1228 0504 9FED898A 		vldr.32	s16, .L72
 1229              	.L40:
 1230              	.LVL60:
  78:My_Top/Motor_Control/DcMotor_ClosedLoop.cpp **** 
 1231              		.loc 1 78 5 is_stmt 1 view .LVU405
  78:My_Top/Motor_Control/DcMotor_ClosedLoop.cpp **** 
 1232              		.loc 1 78 23 is_stmt 0 view .LVU406
 1233 0508 D4ED038A 		vldr.32	s17, [r4, #12]
 1234 050c F5EEC08A 		vcmpe.f32	s17, #0
 1235 0510 F1EE10FA 		vmrs	APSR_nzcv, FPSCR
 1236 0514 09D4     		bmi	.L64
  78:My_Top/Motor_Control/DcMotor_ClosedLoop.cpp **** 
 1237              		.loc 1 78 23 discriminator 2 view .LVU407
ARM GAS  /tmp/ccuUIbvr.s 			page 34


 1238 0516 F7EE007A 		vmov.f32	s15, #1.0e+0
 1239 051a F4EEE78A 		vcmpe.f32	s17, s15
 1240 051e F1EE10FA 		vmrs	APSR_nzcv, FPSCR
 1241 0522 04DD     		ble	.L42
  78:My_Top/Motor_Control/DcMotor_ClosedLoop.cpp **** 
 1242              		.loc 1 78 23 discriminator 4 view .LVU408
 1243 0524 F0EE678A 		vmov.f32	s17, s15
 1244 0528 01E0     		b	.L42
 1245              	.L64:
  78:My_Top/Motor_Control/DcMotor_ClosedLoop.cpp **** 
 1246              		.loc 1 78 23 discriminator 1 view .LVU409
 1247 052a DFED808A 		vldr.32	s17, .L72
 1248              	.L42:
 1249              	.LVL61:
  80:My_Top/Motor_Control/DcMotor_ClosedLoop.cpp ****     Fre_last = Fre;
 1250              		.loc 1 80 5 is_stmt 1 view .LVU410
  80:My_Top/Motor_Control/DcMotor_ClosedLoop.cpp ****     Fre_last = Fre;
 1251              		.loc 1 80 16 is_stmt 0 view .LVU411
 1252 052e B4F84C30 		ldrh	r3, [r4, #76]
  80:My_Top/Motor_Control/DcMotor_ClosedLoop.cpp ****     Fre_last = Fre;
 1253              		.loc 1 80 5 view .LVU412
 1254 0532 AB42     		cmp	r3, r5
 1255 0534 15D0     		beq	.L70
 1256              	.L44:
  81:My_Top/Motor_Control/DcMotor_ClosedLoop.cpp ****     up_duty_last = up_duty;
 1257              		.loc 1 81 5 is_stmt 1 view .LVU413
  81:My_Top/Motor_Control/DcMotor_ClosedLoop.cpp ****     up_duty_last = up_duty;
 1258              		.loc 1 81 14 is_stmt 0 view .LVU414
 1259 0536 A4F84C50 		strh	r5, [r4, #76]	@ movhi
  82:My_Top/Motor_Control/DcMotor_ClosedLoop.cpp ****     down_duty_last = down_duty;
 1260              		.loc 1 82 5 is_stmt 1 view .LVU415
  82:My_Top/Motor_Control/DcMotor_ClosedLoop.cpp ****     down_duty_last = down_duty;
 1261              		.loc 1 82 18 is_stmt 0 view .LVU416
 1262 053a 84ED148A 		vstr.32	s16, [r4, #80]
  83:My_Top/Motor_Control/DcMotor_ClosedLoop.cpp **** 
 1263              		.loc 1 83 5 is_stmt 1 view .LVU417
  83:My_Top/Motor_Control/DcMotor_ClosedLoop.cpp **** 
 1264              		.loc 1 83 20 is_stmt 0 view .LVU418
 1265 053e C4ED158A 		vstr.32	s17, [r4, #84]
  85:My_Top/Motor_Control/DcMotor_ClosedLoop.cpp ****     else {Motor_EN(true);}
 1266              		.loc 1 85 5 is_stmt 1 view .LVU419
 1267 0542 EDB1     		cbz	r5, .L71
  86:My_Top/Motor_Control/DcMotor_ClosedLoop.cpp **** 
 1268              		.loc 1 86 11 view .LVU420
  86:My_Top/Motor_Control/DcMotor_ClosedLoop.cpp **** 
 1269              		.loc 1 86 19 is_stmt 0 view .LVU421
 1270 0544 0121     		movs	r1, #1
 1271 0546 2046     		mov	r0, r4
 1272              	.LVL62:
  86:My_Top/Motor_Control/DcMotor_ClosedLoop.cpp **** 
 1273              		.loc 1 86 19 view .LVU422
 1274 0548 FFF7FEFF 		bl	_ZN8DC_Motor8Motor_ENEb
 1275              	.LVL63:
  88:My_Top/Motor_Control/DcMotor_ClosedLoop.cpp ****     if (arr >= 65535) arr = 65535;
 1276              		.loc 1 88 5 is_stmt 1 view .LVU423
  88:My_Top/Motor_Control/DcMotor_ClosedLoop.cpp ****     if (arr >= 65535) arr = 65535;
 1277              		.loc 1 88 11 is_stmt 0 view .LVU424
ARM GAS  /tmp/ccuUIbvr.s 			page 35


 1278 054c E36D     		ldr	r3, [r4, #92]
  88:My_Top/Motor_Control/DcMotor_ClosedLoop.cpp ****     if (arr >= 65535) arr = 65535;
 1279              		.loc 1 88 9 view .LVU425
 1280 054e B3FBF5F3 		udiv	r3, r3, r5
 1281              	.LVL64:
  89:My_Top/Motor_Control/DcMotor_ClosedLoop.cpp ****     else if (arr <= 1) arr = 1;
 1282              		.loc 1 89 5 is_stmt 1 view .LVU426
 1283 0552 4FF6FE72 		movw	r2, #65534
 1284 0556 9342     		cmp	r3, r2
 1285 0558 17D8     		bhi	.L65
  90:My_Top/Motor_Control/DcMotor_ClosedLoop.cpp **** 
 1286              		.loc 1 90 10 view .LVU427
 1287 055a 012B     		cmp	r3, #1
 1288 055c 17D8     		bhi	.L47
  90:My_Top/Motor_Control/DcMotor_ClosedLoop.cpp **** 
 1289              		.loc 1 90 28 is_stmt 0 discriminator 1 view .LVU428
 1290 055e 0123     		movs	r3, #1
 1291              	.LVL65:
  90:My_Top/Motor_Control/DcMotor_ClosedLoop.cpp **** 
 1292              		.loc 1 90 28 discriminator 1 view .LVU429
 1293 0560 15E0     		b	.L47
 1294              	.LVL66:
 1295              	.L70:
  80:My_Top/Motor_Control/DcMotor_ClosedLoop.cpp ****     Fre_last = Fre;
 1296              		.loc 1 80 39 discriminator 1 view .LVU430
 1297 0562 D4ED147A 		vldr.32	s15, [r4, #80]
  80:My_Top/Motor_Control/DcMotor_ClosedLoop.cpp ****     Fre_last = Fre;
 1298              		.loc 1 80 25 discriminator 1 view .LVU431
 1299 0566 F4EE487A 		vcmp.f32	s15, s16
 1300 056a F1EE10FA 		vmrs	APSR_nzcv, FPSCR
 1301 056e E2D1     		bne	.L44
  80:My_Top/Motor_Control/DcMotor_ClosedLoop.cpp ****     Fre_last = Fre;
 1302              		.loc 1 80 68 discriminator 2 view .LVU432
 1303 0570 D4ED157A 		vldr.32	s15, [r4, #84]
  80:My_Top/Motor_Control/DcMotor_ClosedLoop.cpp ****     Fre_last = Fre;
 1304              		.loc 1 80 52 discriminator 2 view .LVU433
 1305 0574 F4EE687A 		vcmp.f32	s15, s17
 1306 0578 F1EE10FA 		vmrs	APSR_nzcv, FPSCR
 1307 057c DBD1     		bne	.L44
 1308 057e D1E0     		b	.L39
 1309              	.L71:
  85:My_Top/Motor_Control/DcMotor_ClosedLoop.cpp ****     else {Motor_EN(true);}
 1310              		.loc 1 85 20 is_stmt 1 discriminator 1 view .LVU434
  85:My_Top/Motor_Control/DcMotor_ClosedLoop.cpp ****     else {Motor_EN(true);}
 1311              		.loc 1 85 28 is_stmt 0 discriminator 1 view .LVU435
 1312 0580 0021     		movs	r1, #0
 1313 0582 2046     		mov	r0, r4
 1314              	.LVL67:
  85:My_Top/Motor_Control/DcMotor_ClosedLoop.cpp ****     else {Motor_EN(true);}
 1315              		.loc 1 85 28 discriminator 1 view .LVU436
 1316 0584 FFF7FEFF 		bl	_ZN8DC_Motor8Motor_ENEb
 1317              	.LVL68:
  85:My_Top/Motor_Control/DcMotor_ClosedLoop.cpp ****     else {Motor_EN(true);}
 1318              		.loc 1 85 37 is_stmt 1 discriminator 1 view .LVU437
  85:My_Top/Motor_Control/DcMotor_ClosedLoop.cpp ****     else {Motor_EN(true);}
 1319              		.loc 1 85 37 is_stmt 0 view .LVU438
 1320 0588 CCE0     		b	.L39
ARM GAS  /tmp/ccuUIbvr.s 			page 36


 1321              	.LVL69:
 1322              	.L65:
  89:My_Top/Motor_Control/DcMotor_ClosedLoop.cpp ****     else if (arr <= 1) arr = 1;
 1323              		.loc 1 89 27 discriminator 1 view .LVU439
 1324 058a 4FF6FF73 		movw	r3, #65535
 1325              	.LVL70:
 1326              	.L47:
  92:My_Top/Motor_Control/DcMotor_ClosedLoop.cpp ****     __HAL_TIM_SET_AUTORELOAD(_motor_config->htim, (uint16_t)(arr - 1));//Ķ«ŠńĮ«Õæ©µ£¤ 
 1327              		.loc 1 92 5 is_stmt 1 view .LVU440
 1328 058e D4F8A820 		ldr	r2, [r4, #168]
  92:My_Top/Motor_Control/DcMotor_ClosedLoop.cpp ****     __HAL_TIM_SET_AUTORELOAD(_motor_config->htim, (uint16_t)(arr - 1));//Ķ«ŠńĮ«Õæ©µ£¤ 
 1329              		.loc 1 92 20 is_stmt 0 view .LVU441
 1330 0592 1268     		ldr	r2, [r2]
  92:My_Top/Motor_Control/DcMotor_ClosedLoop.cpp ****     __HAL_TIM_SET_AUTORELOAD(_motor_config->htim, (uint16_t)(arr - 1));//Ķ«ŠńĮ«Õæ©µ£¤ 
 1331              		.loc 1 92 26 view .LVU442
 1332 0594 1268     		ldr	r2, [r2]
  92:My_Top/Motor_Control/DcMotor_ClosedLoop.cpp ****     __HAL_TIM_SET_AUTORELOAD(_motor_config->htim, (uint16_t)(arr - 1));//Ķ«ŠńĮ«Õæ©µ£¤ 
 1333              		.loc 1 92 40 view .LVU443
 1334 0596 0021     		movs	r1, #0
 1335 0598 5162     		str	r1, [r2, #36]
  93:My_Top/Motor_Control/DcMotor_ClosedLoop.cpp ****     __HAL_TIM_SET_COMPARE(_motor_config->htim, _motor_config->ch_hin1, (uint32_t)(arr*up_duty));//Ķ
 1336              		.loc 1 93 5 is_stmt 1 view .LVU444
  93:My_Top/Motor_Control/DcMotor_ClosedLoop.cpp ****     __HAL_TIM_SET_COMPARE(_motor_config->htim, _motor_config->ch_hin1, (uint32_t)(arr*up_duty));//Ķ
 1337              		.loc 1 93 5 view .LVU445
 1338 059a 5A1E     		subs	r2, r3, #1
 1339 059c 92B2     		uxth	r2, r2
 1340 059e D4F8A810 		ldr	r1, [r4, #168]
 1341 05a2 0968     		ldr	r1, [r1]
 1342 05a4 0968     		ldr	r1, [r1]
 1343 05a6 CA62     		str	r2, [r1, #44]
  93:My_Top/Motor_Control/DcMotor_ClosedLoop.cpp ****     __HAL_TIM_SET_COMPARE(_motor_config->htim, _motor_config->ch_hin1, (uint32_t)(arr*up_duty));//Ķ
 1344              		.loc 1 93 5 view .LVU446
 1345 05a8 D4F8A810 		ldr	r1, [r4, #168]
 1346 05ac 0968     		ldr	r1, [r1]
 1347 05ae CA60     		str	r2, [r1, #12]
  93:My_Top/Motor_Control/DcMotor_ClosedLoop.cpp ****     __HAL_TIM_SET_COMPARE(_motor_config->htim, _motor_config->ch_hin1, (uint32_t)(arr*up_duty));//Ķ
 1348              		.loc 1 93 5 view .LVU447
  94:My_Top/Motor_Control/DcMotor_ClosedLoop.cpp ****     __HAL_TIM_SET_COMPARE(_motor_config->htim, _motor_config->ch_hin2, (uint32_t)(arr*down_duty));/
 1349              		.loc 1 94 5 view .LVU448
 1350 05b0 D4F8A810 		ldr	r1, [r4, #168]
 1351 05b4 8A68     		ldr	r2, [r1, #8]
 1352 05b6 102A     		cmp	r2, #16
 1353 05b8 4BD8     		bhi	.L48
 1354 05ba DFE802F0 		tbb	[pc, r2]
 1355              	.L50:
 1356 05be 09       		.byte	(.L54-.L50)/2
 1357 05bf 4A       		.byte	(.L48-.L50)/2
 1358 05c0 4A       		.byte	(.L48-.L50)/2
 1359 05c1 4A       		.byte	(.L48-.L50)/2
 1360 05c2 16       		.byte	(.L53-.L50)/2
 1361 05c3 4A       		.byte	(.L48-.L50)/2
 1362 05c4 4A       		.byte	(.L48-.L50)/2
 1363 05c5 4A       		.byte	(.L48-.L50)/2
 1364 05c6 23       		.byte	(.L52-.L50)/2
 1365 05c7 4A       		.byte	(.L48-.L50)/2
 1366 05c8 4A       		.byte	(.L48-.L50)/2
 1367 05c9 4A       		.byte	(.L48-.L50)/2
ARM GAS  /tmp/ccuUIbvr.s 			page 37


 1368 05ca 30       		.byte	(.L51-.L50)/2
 1369 05cb 4A       		.byte	(.L48-.L50)/2
 1370 05cc 4A       		.byte	(.L48-.L50)/2
 1371 05cd 4A       		.byte	(.L48-.L50)/2
 1372 05ce 3D       		.byte	(.L49-.L50)/2
 1373 05cf 00       		.p2align 1
 1374              	.L54:
  94:My_Top/Motor_Control/DcMotor_ClosedLoop.cpp ****     __HAL_TIM_SET_COMPARE(_motor_config->htim, _motor_config->ch_hin2, (uint32_t)(arr*down_duty));/
 1375              		.loc 1 94 5 is_stmt 0 discriminator 1 view .LVU449
 1376 05d0 07EE903A 		vmov	s15, r3	@ int
 1377 05d4 F8EE677A 		vcvt.f32.u32	s15, s15
 1378 05d8 67EE887A 		vmul.f32	s15, s15, s16
 1379 05dc 0A68     		ldr	r2, [r1]
 1380 05de 1268     		ldr	r2, [r2]
 1381 05e0 FCEEE77A 		vcvt.u32.f32	s15, s15
 1382 05e4 C2ED0D7A 		vstr.32	s15, [r2, #52]	@ int
 1383 05e8 3FE0     		b	.L55
 1384              	.L53:
  94:My_Top/Motor_Control/DcMotor_ClosedLoop.cpp ****     __HAL_TIM_SET_COMPARE(_motor_config->htim, _motor_config->ch_hin2, (uint32_t)(arr*down_duty));/
 1385              		.loc 1 94 5 discriminator 3 view .LVU450
 1386 05ea 07EE903A 		vmov	s15, r3	@ int
 1387 05ee F8EE677A 		vcvt.f32.u32	s15, s15
 1388 05f2 67EE887A 		vmul.f32	s15, s15, s16
 1389 05f6 0A68     		ldr	r2, [r1]
 1390 05f8 1268     		ldr	r2, [r2]
 1391 05fa FCEEE77A 		vcvt.u32.f32	s15, s15
 1392 05fe C2ED0E7A 		vstr.32	s15, [r2, #56]	@ int
 1393 0602 32E0     		b	.L55
 1394              	.L52:
  94:My_Top/Motor_Control/DcMotor_ClosedLoop.cpp ****     __HAL_TIM_SET_COMPARE(_motor_config->htim, _motor_config->ch_hin2, (uint32_t)(arr*down_duty));/
 1395              		.loc 1 94 5 discriminator 5 view .LVU451
 1396 0604 07EE903A 		vmov	s15, r3	@ int
 1397 0608 F8EE677A 		vcvt.f32.u32	s15, s15
 1398 060c 67EE887A 		vmul.f32	s15, s15, s16
 1399 0610 0A68     		ldr	r2, [r1]
 1400 0612 1268     		ldr	r2, [r2]
 1401 0614 FCEEE77A 		vcvt.u32.f32	s15, s15
 1402 0618 C2ED0F7A 		vstr.32	s15, [r2, #60]	@ int
 1403 061c 25E0     		b	.L55
 1404              	.L51:
  94:My_Top/Motor_Control/DcMotor_ClosedLoop.cpp ****     __HAL_TIM_SET_COMPARE(_motor_config->htim, _motor_config->ch_hin2, (uint32_t)(arr*down_duty));/
 1405              		.loc 1 94 5 discriminator 7 view .LVU452
 1406 061e 07EE903A 		vmov	s15, r3	@ int
 1407 0622 F8EE677A 		vcvt.f32.u32	s15, s15
 1408 0626 67EE887A 		vmul.f32	s15, s15, s16
 1409 062a 0A68     		ldr	r2, [r1]
 1410 062c 1268     		ldr	r2, [r2]
 1411 062e FCEEE77A 		vcvt.u32.f32	s15, s15
 1412 0632 C2ED107A 		vstr.32	s15, [r2, #64]	@ int
 1413 0636 18E0     		b	.L55
 1414              	.L49:
  94:My_Top/Motor_Control/DcMotor_ClosedLoop.cpp ****     __HAL_TIM_SET_COMPARE(_motor_config->htim, _motor_config->ch_hin2, (uint32_t)(arr*down_duty));/
 1415              		.loc 1 94 5 discriminator 9 view .LVU453
 1416 0638 07EE903A 		vmov	s15, r3	@ int
 1417 063c F8EE677A 		vcvt.f32.u32	s15, s15
 1418 0640 67EE887A 		vmul.f32	s15, s15, s16
 1419 0644 0A68     		ldr	r2, [r1]
ARM GAS  /tmp/ccuUIbvr.s 			page 38


 1420 0646 1268     		ldr	r2, [r2]
 1421 0648 FCEEE77A 		vcvt.u32.f32	s15, s15
 1422 064c C2ED127A 		vstr.32	s15, [r2, #72]	@ int
 1423 0650 0BE0     		b	.L55
 1424              	.L48:
  94:My_Top/Motor_Control/DcMotor_ClosedLoop.cpp ****     __HAL_TIM_SET_COMPARE(_motor_config->htim, _motor_config->ch_hin2, (uint32_t)(arr*down_duty));/
 1425              		.loc 1 94 5 discriminator 10 view .LVU454
 1426 0652 07EE903A 		vmov	s15, r3	@ int
 1427 0656 F8EE677A 		vcvt.f32.u32	s15, s15
 1428 065a 67EE887A 		vmul.f32	s15, s15, s16
 1429 065e 0A68     		ldr	r2, [r1]
 1430 0660 1268     		ldr	r2, [r2]
 1431 0662 FCEEE77A 		vcvt.u32.f32	s15, s15
 1432 0666 C2ED137A 		vstr.32	s15, [r2, #76]	@ int
 1433              	.L55:
  95:My_Top/Motor_Control/DcMotor_ClosedLoop.cpp **** }
 1434              		.loc 1 95 5 is_stmt 1 view .LVU455
 1435 066a D4F8A810 		ldr	r1, [r4, #168]
 1436 066e CA68     		ldr	r2, [r1, #12]
 1437 0670 102A     		cmp	r2, #16
 1438 0672 4BD8     		bhi	.L56
 1439 0674 DFE802F0 		tbb	[pc, r2]
 1440              	.L58:
 1441 0678 09       		.byte	(.L62-.L58)/2
 1442 0679 4A       		.byte	(.L56-.L58)/2
 1443 067a 4A       		.byte	(.L56-.L58)/2
 1444 067b 4A       		.byte	(.L56-.L58)/2
 1445 067c 16       		.byte	(.L61-.L58)/2
 1446 067d 4A       		.byte	(.L56-.L58)/2
 1447 067e 4A       		.byte	(.L56-.L58)/2
 1448 067f 4A       		.byte	(.L56-.L58)/2
 1449 0680 23       		.byte	(.L60-.L58)/2
 1450 0681 4A       		.byte	(.L56-.L58)/2
 1451 0682 4A       		.byte	(.L56-.L58)/2
 1452 0683 4A       		.byte	(.L56-.L58)/2
 1453 0684 30       		.byte	(.L59-.L58)/2
 1454 0685 4A       		.byte	(.L56-.L58)/2
 1455 0686 4A       		.byte	(.L56-.L58)/2
 1456 0687 4A       		.byte	(.L56-.L58)/2
 1457 0688 3D       		.byte	(.L57-.L58)/2
 1458 0689 00       		.p2align 1
 1459              	.L62:
  95:My_Top/Motor_Control/DcMotor_ClosedLoop.cpp **** }
 1460              		.loc 1 95 5 is_stmt 0 discriminator 1 view .LVU456
 1461 068a 07EE903A 		vmov	s15, r3	@ int
 1462 068e F8EE677A 		vcvt.f32.u32	s15, s15
 1463 0692 67EEA87A 		vmul.f32	s15, s15, s17
 1464 0696 0B68     		ldr	r3, [r1]
 1465              	.LVL71:
  95:My_Top/Motor_Control/DcMotor_ClosedLoop.cpp **** }
 1466              		.loc 1 95 5 discriminator 1 view .LVU457
 1467 0698 1B68     		ldr	r3, [r3]
 1468 069a FCEEE77A 		vcvt.u32.f32	s15, s15
 1469 069e C3ED0D7A 		vstr.32	s15, [r3, #52]	@ int
 1470 06a2 3FE0     		b	.L39
 1471              	.LVL72:
 1472              	.L61:
ARM GAS  /tmp/ccuUIbvr.s 			page 39


  95:My_Top/Motor_Control/DcMotor_ClosedLoop.cpp **** }
 1473              		.loc 1 95 5 discriminator 3 view .LVU458
 1474 06a4 07EE903A 		vmov	s15, r3	@ int
 1475 06a8 F8EE677A 		vcvt.f32.u32	s15, s15
 1476 06ac 67EEA87A 		vmul.f32	s15, s15, s17
 1477 06b0 0B68     		ldr	r3, [r1]
 1478              	.LVL73:
  95:My_Top/Motor_Control/DcMotor_ClosedLoop.cpp **** }
 1479              		.loc 1 95 5 discriminator 3 view .LVU459
 1480 06b2 1B68     		ldr	r3, [r3]
 1481 06b4 FCEEE77A 		vcvt.u32.f32	s15, s15
 1482 06b8 C3ED0E7A 		vstr.32	s15, [r3, #56]	@ int
 1483 06bc 32E0     		b	.L39
 1484              	.LVL74:
 1485              	.L60:
  95:My_Top/Motor_Control/DcMotor_ClosedLoop.cpp **** }
 1486              		.loc 1 95 5 discriminator 5 view .LVU460
 1487 06be 07EE903A 		vmov	s15, r3	@ int
 1488 06c2 F8EE677A 		vcvt.f32.u32	s15, s15
 1489 06c6 67EEA87A 		vmul.f32	s15, s15, s17
 1490 06ca 0B68     		ldr	r3, [r1]
 1491              	.LVL75:
  95:My_Top/Motor_Control/DcMotor_ClosedLoop.cpp **** }
 1492              		.loc 1 95 5 discriminator 5 view .LVU461
 1493 06cc 1B68     		ldr	r3, [r3]
 1494 06ce FCEEE77A 		vcvt.u32.f32	s15, s15
 1495 06d2 C3ED0F7A 		vstr.32	s15, [r3, #60]	@ int
 1496 06d6 25E0     		b	.L39
 1497              	.LVL76:
 1498              	.L59:
  95:My_Top/Motor_Control/DcMotor_ClosedLoop.cpp **** }
 1499              		.loc 1 95 5 discriminator 7 view .LVU462
 1500 06d8 07EE903A 		vmov	s15, r3	@ int
 1501 06dc F8EE677A 		vcvt.f32.u32	s15, s15
 1502 06e0 67EEA87A 		vmul.f32	s15, s15, s17
 1503 06e4 0B68     		ldr	r3, [r1]
 1504              	.LVL77:
  95:My_Top/Motor_Control/DcMotor_ClosedLoop.cpp **** }
 1505              		.loc 1 95 5 discriminator 7 view .LVU463
 1506 06e6 1B68     		ldr	r3, [r3]
 1507 06e8 FCEEE77A 		vcvt.u32.f32	s15, s15
 1508 06ec C3ED107A 		vstr.32	s15, [r3, #64]	@ int
 1509 06f0 18E0     		b	.L39
 1510              	.LVL78:
 1511              	.L57:
  95:My_Top/Motor_Control/DcMotor_ClosedLoop.cpp **** }
 1512              		.loc 1 95 5 discriminator 9 view .LVU464
 1513 06f2 07EE903A 		vmov	s15, r3	@ int
 1514 06f6 F8EE677A 		vcvt.f32.u32	s15, s15
 1515 06fa 67EEA87A 		vmul.f32	s15, s15, s17
 1516 06fe 0B68     		ldr	r3, [r1]
 1517              	.LVL79:
  95:My_Top/Motor_Control/DcMotor_ClosedLoop.cpp **** }
 1518              		.loc 1 95 5 discriminator 9 view .LVU465
 1519 0700 1B68     		ldr	r3, [r3]
 1520 0702 FCEEE77A 		vcvt.u32.f32	s15, s15
 1521 0706 C3ED127A 		vstr.32	s15, [r3, #72]	@ int
ARM GAS  /tmp/ccuUIbvr.s 			page 40


 1522 070a 0BE0     		b	.L39
 1523              	.LVL80:
 1524              	.L56:
  95:My_Top/Motor_Control/DcMotor_ClosedLoop.cpp **** }
 1525              		.loc 1 95 5 discriminator 10 view .LVU466
 1526 070c 07EE903A 		vmov	s15, r3	@ int
 1527 0710 F8EE677A 		vcvt.f32.u32	s15, s15
 1528 0714 67EEA87A 		vmul.f32	s15, s15, s17
 1529 0718 0B68     		ldr	r3, [r1]
 1530              	.LVL81:
  95:My_Top/Motor_Control/DcMotor_ClosedLoop.cpp **** }
 1531              		.loc 1 95 5 discriminator 10 view .LVU467
 1532 071a 1B68     		ldr	r3, [r3]
 1533 071c FCEEE77A 		vcvt.u32.f32	s15, s15
 1534 0720 C3ED137A 		vstr.32	s15, [r3, #76]	@ int
 1535              	.LVL82:
 1536              	.L39:
  96:My_Top/Motor_Control/DcMotor_ClosedLoop.cpp **** 
 1537              		.loc 1 96 1 view .LVU468
 1538 0724 BDEC028B 		vldm	sp!, {d8}
 1539              		.cfi_restore 80
 1540              		.cfi_restore 81
 1541              		.cfi_def_cfa_offset 16
 1542              	.LVL83:
  96:My_Top/Motor_Control/DcMotor_ClosedLoop.cpp **** 
 1543              		.loc 1 96 1 view .LVU469
 1544 0728 38BD     		pop	{r3, r4, r5, pc}
 1545              	.LVL84:
 1546              	.L73:
  96:My_Top/Motor_Control/DcMotor_ClosedLoop.cpp **** 
 1547              		.loc 1 96 1 view .LVU470
 1548 072a 00BF     		.align	2
 1549              	.L72:
 1550 072c 00000000 		.word	0
 1551              		.cfi_endproc
 1552              	.LFE1354:
 1554              		.align	1
 1555              		.global	_ZN8DC_Motor18Set_Motor_Glo_DutyEv
 1556              		.syntax unified
 1557              		.thumb
 1558              		.thumb_func
 1560              	_ZN8DC_Motor18Set_Motor_Glo_DutyEv:
 1561              	.LVL85:
 1562              	.LFB1355:
 101:My_Top/Motor_Control/DcMotor_ClosedLoop.cpp ****     float duty = constraint_value(updown_duty, -1.0f, 1.0f);
 1563              		.loc 1 101 1 is_stmt 1 view -0
 1564              		.cfi_startproc
 1565              		@ args = 0, pretend = 0, frame = 0
 1566              		@ frame_needed = 0, uses_anonymous_args = 0
 101:My_Top/Motor_Control/DcMotor_ClosedLoop.cpp ****     float duty = constraint_value(updown_duty, -1.0f, 1.0f);
 1567              		.loc 1 101 1 is_stmt 0 view .LVU472
 1568 0730 10B5     		push	{r4, lr}
 1569              		.cfi_def_cfa_offset 8
 1570              		.cfi_offset 4, -8
 1571              		.cfi_offset 14, -4
 1572 0732 0446     		mov	r4, r0
 102:My_Top/Motor_Control/DcMotor_ClosedLoop.cpp **** 
ARM GAS  /tmp/ccuUIbvr.s 			page 41


 1573              		.loc 1 102 5 is_stmt 1 view .LVU473
 102:My_Top/Motor_Control/DcMotor_ClosedLoop.cpp **** 
 1574              		.loc 1 102 18 is_stmt 0 view .LVU474
 1575 0734 D0ED047A 		vldr.32	s15, [r0, #16]
 1576 0738 BFEE007A 		vmov.f32	s14, #-1.0e+0
 1577 073c F4EEC77A 		vcmpe.f32	s15, s14
 1578 0740 F1EE10FA 		vmrs	APSR_nzcv, FPSCR
 1579 0744 0FD4     		bmi	.L83
 102:My_Top/Motor_Control/DcMotor_ClosedLoop.cpp **** 
 1580              		.loc 1 102 18 discriminator 2 view .LVU475
 1581 0746 B7EE007A 		vmov.f32	s14, #1.0e+0
 1582 074a F4EEC77A 		vcmpe.f32	s15, s14
 1583 074e F1EE10FA 		vmrs	APSR_nzcv, FPSCR
 1584 0752 02DD     		ble	.L90
 102:My_Top/Motor_Control/DcMotor_ClosedLoop.cpp **** 
 1585              		.loc 1 102 18 discriminator 7 view .LVU476
 1586 0754 F7EE007A 		vmov.f32	s15, #1.0e+0
 1587 0758 07E0     		b	.L75
 1588              	.L90:
 1589              	.LVL86:
 104:My_Top/Motor_Control/DcMotor_ClosedLoop.cpp ****     {
 1590              		.loc 1 104 5 is_stmt 1 view .LVU477
 1591 075a F5EE407A 		vcmp.f32	s15, #0
 1592 075e F1EE10FA 		vmrs	APSR_nzcv, FPSCR
 1593 0762 0BD0     		beq	.L76
 1594 0764 01E0     		b	.L75
 1595              	.LVL87:
 1596              	.L83:
 102:My_Top/Motor_Control/DcMotor_ClosedLoop.cpp **** 
 1597              		.loc 1 102 18 is_stmt 0 discriminator 1 view .LVU478
 1598 0766 FFEE007A 		vmov.f32	s15, #-1.0e+0
 1599              	.L75:
 104:My_Top/Motor_Control/DcMotor_ClosedLoop.cpp ****     {
 1600              		.loc 1 104 30 discriminator 1 view .LVU479
 1601 076a B0EEE77A 		vabs.f32	s14, s15
 104:My_Top/Motor_Control/DcMotor_ClosedLoop.cpp ****     {
 1602              		.loc 1 104 22 discriminator 1 view .LVU480
 1603 076e DFED186A 		vldr.32	s13, .L92
 1604 0772 B4EEE67A 		vcmpe.f32	s14, s13
 1605 0776 F1EE10FA 		vmrs	APSR_nzcv, FPSCR
 1606 077a 0AD5     		bpl	.L87
 1607              	.L76:
 106:My_Top/Motor_Control/DcMotor_ClosedLoop.cpp ****         Motor_EN(false);
 1608              		.loc 1 106 9 is_stmt 1 view .LVU481
 106:My_Top/Motor_Control/DcMotor_ClosedLoop.cpp ****         Motor_EN(false);
 1609              		.loc 1 106 41 is_stmt 0 view .LVU482
 1610 077c 0023     		movs	r3, #0
 1611 077e E360     		str	r3, [r4, #12]	@ float
 106:My_Top/Motor_Control/DcMotor_ClosedLoop.cpp ****         Motor_EN(false);
 1612              		.loc 1 106 23 view .LVU483
 1613 0780 A360     		str	r3, [r4, #8]	@ float
 107:My_Top/Motor_Control/DcMotor_ClosedLoop.cpp ****     }else if (duty > 0.0f) 
 1614              		.loc 1 107 9 is_stmt 1 view .LVU484
 107:My_Top/Motor_Control/DcMotor_ClosedLoop.cpp ****     }else if (duty > 0.0f) 
 1615              		.loc 1 107 17 is_stmt 0 view .LVU485
 1616 0782 0021     		movs	r1, #0
 1617 0784 2046     		mov	r0, r4
ARM GAS  /tmp/ccuUIbvr.s 			page 42


 1618              	.LVL88:
 107:My_Top/Motor_Control/DcMotor_ClosedLoop.cpp ****     }else if (duty > 0.0f) 
 1619              		.loc 1 107 17 view .LVU486
 1620 0786 FFF7FEFF 		bl	_ZN8DC_Motor8Motor_ENEb
 1621              	.LVL89:
 1622              	.L79:
 120:My_Top/Motor_Control/DcMotor_ClosedLoop.cpp **** }
 1623              		.loc 1 120 5 is_stmt 1 view .LVU487
 120:My_Top/Motor_Control/DcMotor_ClosedLoop.cpp **** }
 1624              		.loc 1 120 24 is_stmt 0 view .LVU488
 1625 078a 2046     		mov	r0, r4
 1626 078c FFF7FEFF 		bl	_ZN8DC_Motor19Set_Motor_FrequencyEv
 1627              	.LVL90:
 121:My_Top/Motor_Control/DcMotor_ClosedLoop.cpp **** 
 1628              		.loc 1 121 1 view .LVU489
 1629 0790 10BD     		pop	{r4, pc}
 1630              	.LVL91:
 1631              	.L87:
 108:My_Top/Motor_Control/DcMotor_ClosedLoop.cpp ****     {
 1632              		.loc 1 108 11 is_stmt 1 view .LVU490
 1633 0792 F5EEC07A 		vcmpe.f32	s15, #0
 1634 0796 F1EE10FA 		vmrs	APSR_nzcv, FPSCR
 1635 079a 0FDC     		bgt	.L91
 113:My_Top/Motor_Control/DcMotor_ClosedLoop.cpp ****     {
 1636              		.loc 1 113 11 view .LVU491
 1637 079c F5EEC07A 		vcmpe.f32	s15, #0
 1638 07a0 F1EE10FA 		vmrs	APSR_nzcv, FPSCR
 1639 07a4 F1D5     		bpl	.L79
 115:My_Top/Motor_Control/DcMotor_ClosedLoop.cpp ****         motor_down_duty = -duty;
 1640              		.loc 1 115 9 view .LVU492
 115:My_Top/Motor_Control/DcMotor_ClosedLoop.cpp ****         motor_down_duty = -duty;
 1641              		.loc 1 115 23 is_stmt 0 view .LVU493
 1642 07a6 0023     		movs	r3, #0
 1643 07a8 A360     		str	r3, [r4, #8]	@ float
 116:My_Top/Motor_Control/DcMotor_ClosedLoop.cpp ****         Motor_EN(true);
 1644              		.loc 1 116 9 is_stmt 1 view .LVU494
 116:My_Top/Motor_Control/DcMotor_ClosedLoop.cpp ****         Motor_EN(true);
 1645              		.loc 1 116 27 is_stmt 0 view .LVU495
 1646 07aa F1EE677A 		vneg.f32	s15, s15
 116:My_Top/Motor_Control/DcMotor_ClosedLoop.cpp ****         Motor_EN(true);
 1647              		.loc 1 116 25 view .LVU496
 1648 07ae C4ED037A 		vstr.32	s15, [r4, #12]
 117:My_Top/Motor_Control/DcMotor_ClosedLoop.cpp ****     }
 1649              		.loc 1 117 9 is_stmt 1 view .LVU497
 117:My_Top/Motor_Control/DcMotor_ClosedLoop.cpp ****     }
 1650              		.loc 1 117 17 is_stmt 0 view .LVU498
 1651 07b2 0121     		movs	r1, #1
 1652 07b4 2046     		mov	r0, r4
 1653              	.LVL92:
 117:My_Top/Motor_Control/DcMotor_ClosedLoop.cpp ****     }
 1654              		.loc 1 117 17 view .LVU499
 1655 07b6 FFF7FEFF 		bl	_ZN8DC_Motor8Motor_ENEb
 1656              	.LVL93:
 1657 07ba E6E7     		b	.L79
 1658              	.LVL94:
 1659              	.L91:
 110:My_Top/Motor_Control/DcMotor_ClosedLoop.cpp ****         motor_down_duty = 0.0f;
ARM GAS  /tmp/ccuUIbvr.s 			page 43


 1660              		.loc 1 110 9 is_stmt 1 view .LVU500
 110:My_Top/Motor_Control/DcMotor_ClosedLoop.cpp ****         motor_down_duty = 0.0f;
 1661              		.loc 1 110 23 is_stmt 0 view .LVU501
 1662 07bc C4ED027A 		vstr.32	s15, [r4, #8]
 111:My_Top/Motor_Control/DcMotor_ClosedLoop.cpp ****         Motor_EN(true);
 1663              		.loc 1 111 9 is_stmt 1 view .LVU502
 111:My_Top/Motor_Control/DcMotor_ClosedLoop.cpp ****         Motor_EN(true);
 1664              		.loc 1 111 25 is_stmt 0 view .LVU503
 1665 07c0 0023     		movs	r3, #0
 1666 07c2 E360     		str	r3, [r4, #12]	@ float
 112:My_Top/Motor_Control/DcMotor_ClosedLoop.cpp ****     }else if (duty < 0.0f) 
 1667              		.loc 1 112 9 is_stmt 1 view .LVU504
 112:My_Top/Motor_Control/DcMotor_ClosedLoop.cpp ****     }else if (duty < 0.0f) 
 1668              		.loc 1 112 17 is_stmt 0 view .LVU505
 1669 07c4 0121     		movs	r1, #1
 1670 07c6 2046     		mov	r0, r4
 1671              	.LVL95:
 112:My_Top/Motor_Control/DcMotor_ClosedLoop.cpp ****     }else if (duty < 0.0f) 
 1672              		.loc 1 112 17 view .LVU506
 1673 07c8 FFF7FEFF 		bl	_ZN8DC_Motor8Motor_ENEb
 1674              	.LVL96:
 1675 07cc DDE7     		b	.L79
 1676              	.L93:
 1677 07ce 00BF     		.align	2
 1678              	.L92:
 1679 07d0 BD378635 		.word	897988541
 1680              		.cfi_endproc
 1681              	.LFE1355:
 1683              		.align	1
 1684              		.global	_ZN8DC_Motor16My_DC_Motor_InitEv
 1685              		.syntax unified
 1686              		.thumb
 1687              		.thumb_func
 1689              	_ZN8DC_Motor16My_DC_Motor_InitEv:
 1690              	.LVL97:
 1691              	.LFB1353:
  49:My_Top/Motor_Control/DcMotor_ClosedLoop.cpp ****     uint32_t sysclk = HAL_RCC_GetSysClockFreq();
 1692              		.loc 1 49 1 is_stmt 1 view -0
 1693              		.cfi_startproc
 1694              		@ args = 0, pretend = 0, frame = 0
 1695              		@ frame_needed = 0, uses_anonymous_args = 0
  49:My_Top/Motor_Control/DcMotor_ClosedLoop.cpp ****     uint32_t sysclk = HAL_RCC_GetSysClockFreq();
 1696              		.loc 1 49 1 is_stmt 0 view .LVU508
 1697 07d4 10B5     		push	{r4, lr}
 1698              		.cfi_def_cfa_offset 8
 1699              		.cfi_offset 4, -8
 1700              		.cfi_offset 14, -4
 1701 07d6 2DED028B 		vpush.64	{d8}
 1702              		.cfi_def_cfa_offset 16
 1703              		.cfi_offset 80, -16
 1704              		.cfi_offset 81, -12
 1705 07da 0446     		mov	r4, r0
  50:My_Top/Motor_Control/DcMotor_ClosedLoop.cpp ****     timer_clock_freq_ = sysclk / (_motor_config->htim->Instance->PSC + 1);
 1706              		.loc 1 50 5 is_stmt 1 view .LVU509
  50:My_Top/Motor_Control/DcMotor_ClosedLoop.cpp ****     timer_clock_freq_ = sysclk / (_motor_config->htim->Instance->PSC + 1);
 1707              		.loc 1 50 46 is_stmt 0 view .LVU510
 1708 07dc FFF7FEFF 		bl	HAL_RCC_GetSysClockFreq
ARM GAS  /tmp/ccuUIbvr.s 			page 44


 1709              	.LVL98:
  51:My_Top/Motor_Control/DcMotor_ClosedLoop.cpp **** 
 1710              		.loc 1 51 5 is_stmt 1 view .LVU511
  51:My_Top/Motor_Control/DcMotor_ClosedLoop.cpp **** 
 1711              		.loc 1 51 35 is_stmt 0 view .LVU512
 1712 07e0 D4F8A830 		ldr	r3, [r4, #168]
  51:My_Top/Motor_Control/DcMotor_ClosedLoop.cpp **** 
 1713              		.loc 1 51 50 view .LVU513
 1714 07e4 1B68     		ldr	r3, [r3]
  51:My_Top/Motor_Control/DcMotor_ClosedLoop.cpp **** 
 1715              		.loc 1 51 56 view .LVU514
 1716 07e6 1B68     		ldr	r3, [r3]
  51:My_Top/Motor_Control/DcMotor_ClosedLoop.cpp **** 
 1717              		.loc 1 51 66 view .LVU515
 1718 07e8 9B6A     		ldr	r3, [r3, #40]
  51:My_Top/Motor_Control/DcMotor_ClosedLoop.cpp **** 
 1719              		.loc 1 51 70 view .LVU516
 1720 07ea 0133     		adds	r3, r3, #1
  51:My_Top/Motor_Control/DcMotor_ClosedLoop.cpp **** 
 1721              		.loc 1 51 32 view .LVU517
 1722 07ec B0FBF3F0 		udiv	r0, r0, r3
 1723              	.LVL99:
  51:My_Top/Motor_Control/DcMotor_ClosedLoop.cpp **** 
 1724              		.loc 1 51 23 view .LVU518
 1725 07f0 E065     		str	r0, [r4, #92]
  53:My_Top/Motor_Control/DcMotor_ClosedLoop.cpp ****     error_lpf.init(0.7);
 1726              		.loc 1 53 5 is_stmt 1 view .LVU519
  53:My_Top/Motor_Control/DcMotor_ClosedLoop.cpp ****     error_lpf.init(0.7);
 1727              		.loc 1 53 19 is_stmt 0 view .LVU520
 1728 07f2 9FED178A 		vldr.32	s16, .L96
 1729 07f6 B0EE480A 		vmov.f32	s0, s16
 1730 07fa 04F16000 		add	r0, r4, #96
 1731 07fe FFF7FEFF 		bl	_ZN13LowpassFilter4initEf
 1732              	.LVL100:
  54:My_Top/Motor_Control/DcMotor_ClosedLoop.cpp ****     speed_avg.init(5);
 1733              		.loc 1 54 5 is_stmt 1 view .LVU521
  54:My_Top/Motor_Control/DcMotor_ClosedLoop.cpp ****     speed_avg.init(5);
 1734              		.loc 1 54 19 is_stmt 0 view .LVU522
 1735 0802 B0EE480A 		vmov.f32	s0, s16
 1736 0806 04F16800 		add	r0, r4, #104
 1737 080a FFF7FEFF 		bl	_ZN13LowpassFilter4initEf
 1738              	.LVL101:
  55:My_Top/Motor_Control/DcMotor_ClosedLoop.cpp ****     adc_val_avg.init(100);//ADCķććµĀĘÕĆ╝µ╗żµ│ó //67µ×üķÖÉ
 1739              		.loc 1 55 5 is_stmt 1 view .LVU523
  55:My_Top/Motor_Control/DcMotor_ClosedLoop.cpp ****     adc_val_avg.init(100);//ADCķććµĀĘÕĆ╝µ╗żµ│ó //67µ×üķÖÉ
 1740              		.loc 1 55 19 is_stmt 0 view .LVU524
 1741 080e 0521     		movs	r1, #5
 1742 0810 04F17000 		add	r0, r4, #112
 1743 0814 FFF7FEFF 		bl	_ZN9AvgFilter4initEh
 1744              	.LVL102:
  56:My_Top/Motor_Control/DcMotor_ClosedLoop.cpp **** 
 1745              		.loc 1 56 5 is_stmt 1 view .LVU525
  56:My_Top/Motor_Control/DcMotor_ClosedLoop.cpp **** 
 1746              		.loc 1 56 21 is_stmt 0 view .LVU526
 1747 0818 6421     		movs	r1, #100
 1748 081a 04F18C00 		add	r0, r4, #140
 1749 081e FFF7FEFF 		bl	_ZN9AvgFilter4initEh
ARM GAS  /tmp/ccuUIbvr.s 			page 45


 1750              	.LVL103:
  59:My_Top/Motor_Control/DcMotor_ClosedLoop.cpp **** 
 1751              		.loc 1 59 5 is_stmt 1 view .LVU527
  59:My_Top/Motor_Control/DcMotor_ClosedLoop.cpp **** 
 1752              		.loc 1 59 23 is_stmt 0 view .LVU528
 1753 0822 2046     		mov	r0, r4
 1754 0824 FFF7FEFF 		bl	_ZN8DC_Motor18Set_Motor_Glo_DutyEv
 1755              	.LVL104:
  62:My_Top/Motor_Control/DcMotor_ClosedLoop.cpp ****     vTaskDelay(pdMS_TO_TICKS(1));  // ńŁē 1ms Õģģµ╗Ī
 1756              		.loc 1 62 5 is_stmt 1 view .LVU529
  62:My_Top/Motor_Control/DcMotor_ClosedLoop.cpp ****     vTaskDelay(pdMS_TO_TICKS(1));  // ńŁē 1ms Õģģµ╗Ī
 1757              		.loc 1 62 13 is_stmt 0 view .LVU530
 1758 0828 0121     		movs	r1, #1
 1759 082a 2046     		mov	r0, r4
 1760 082c FFF7FEFF 		bl	_ZN8DC_Motor8Motor_ENEb
 1761              	.LVL105:
  63:My_Top/Motor_Control/DcMotor_ClosedLoop.cpp ****     Motor_EN(false); // Õģ│ķŚŁPWMĶŠōÕć║
 1762              		.loc 1 63 5 is_stmt 1 view .LVU531
  63:My_Top/Motor_Control/DcMotor_ClosedLoop.cpp ****     Motor_EN(false); // Õģ│ķŚŁPWMĶŠōÕć║
 1763              		.loc 1 63 15 is_stmt 0 view .LVU532
 1764 0830 0120     		movs	r0, #1
 1765 0832 FFF7FEFF 		bl	vTaskDelay
 1766              	.LVL106:
  64:My_Top/Motor_Control/DcMotor_ClosedLoop.cpp **** 
 1767              		.loc 1 64 5 is_stmt 1 view .LVU533
  64:My_Top/Motor_Control/DcMotor_ClosedLoop.cpp **** 
 1768              		.loc 1 64 13 is_stmt 0 view .LVU534
 1769 0836 0021     		movs	r1, #0
 1770 0838 2046     		mov	r0, r4
 1771 083a FFF7FEFF 		bl	_ZN8DC_Motor8Motor_ENEb
 1772              	.LVL107:
  66:My_Top/Motor_Control/DcMotor_ClosedLoop.cpp ****     control_init_flag = true;
 1773              		.loc 1 66 5 is_stmt 1 view .LVU535
  66:My_Top/Motor_Control/DcMotor_ClosedLoop.cpp ****     control_init_flag = true;
 1774              		.loc 1 66 27 is_stmt 0 view .LVU536
 1775 083e 6178     		ldrb	r1, [r4, #1]	@ zero_extendqisi2
 1776 0840 A06B     		ldr	r0, [r4, #56]
 1777 0842 FFF7FEFF 		bl	_ZN7KTH711112KTH7111_InitEb
 1778              	.LVL108:
  67:My_Top/Motor_Control/DcMotor_ClosedLoop.cpp **** }
 1779              		.loc 1 67 5 is_stmt 1 view .LVU537
  67:My_Top/Motor_Control/DcMotor_ClosedLoop.cpp **** }
 1780              		.loc 1 67 23 is_stmt 0 view .LVU538
 1781 0846 0123     		movs	r3, #1
 1782 0848 A370     		strb	r3, [r4, #2]
  68:My_Top/Motor_Control/DcMotor_ClosedLoop.cpp **** 
 1783              		.loc 1 68 1 view .LVU539
 1784 084a BDEC028B 		vldm	sp!, {d8}
 1785              		.cfi_restore 80
 1786              		.cfi_restore 81
 1787              		.cfi_def_cfa_offset 8
 1788 084e 10BD     		pop	{r4, pc}
 1789              	.LVL109:
 1790              	.L97:
  68:My_Top/Motor_Control/DcMotor_ClosedLoop.cpp **** 
 1791              		.loc 1 68 1 view .LVU540
 1792              		.align	2
ARM GAS  /tmp/ccuUIbvr.s 			page 46


 1793              	.L96:
 1794 0850 3333333F 		.word	1060320051
 1795              		.cfi_endproc
 1796              	.LFE1353:
 1798              		.align	1
 1799              		.global	_ZN8DC_Motor28Update_Speed_Angle_LPFAndPLLEv
 1800              		.syntax unified
 1801              		.thumb
 1802              		.thumb_func
 1804              	_ZN8DC_Motor28Update_Speed_Angle_LPFAndPLLEv:
 1805              	.LVL110:
 1806              	.LFB1357:
 152:My_Top/Motor_Control/DcMotor_ClosedLoop.cpp ****     // ķØÖµĆüÕÅśķćÅ’╝īńö©õ║ÄõĖ┤µŚČÕŁśÕé©Ķ¦ÆÕ║”ÕĆ╝ÕÆīõĖŖõĖĆµ¼ĪńÜäĶ¦ÆÕ║”ÕĆ╝
 1807              		.loc 1 152 1 is_stmt 1 view -0
 1808              		.cfi_startproc
 1809              		@ args = 0, pretend = 0, frame = 0
 1810              		@ frame_needed = 0, uses_anonymous_args = 0
 152:My_Top/Motor_Control/DcMotor_ClosedLoop.cpp ****     // ķØÖµĆüÕÅśķćÅ’╝īńö©õ║ÄõĖ┤µŚČÕŁśÕé©Ķ¦ÆÕ║”ÕĆ╝ÕÆīõĖŖõĖĆµ¼ĪńÜäĶ¦ÆÕ║”ÕĆ╝
 1811              		.loc 1 152 1 is_stmt 0 view .LVU542
 1812 0854 38B5     		push	{r3, r4, r5, lr}
 1813              		.cfi_def_cfa_offset 16
 1814              		.cfi_offset 3, -16
 1815              		.cfi_offset 4, -12
 1816              		.cfi_offset 5, -8
 1817              		.cfi_offset 14, -4
 1818 0856 0446     		mov	r4, r0
 154:My_Top/Motor_Control/DcMotor_ClosedLoop.cpp ****     static float theta_m_offic_temp = 0.0;
 1819              		.loc 1 154 5 is_stmt 1 view .LVU543
 155:My_Top/Motor_Control/DcMotor_ClosedLoop.cpp **** 
 1820              		.loc 1 155 5 view .LVU544
 157:My_Top/Motor_Control/DcMotor_ClosedLoop.cpp ****     fudu_test = _encoder->Get_KTH7111_Radian();//ĶÄĘÕÅ¢ń╝¢ńĀüÕÖ©Ķ¦ÆÕ║”
 1821              		.loc 1 157 5 view .LVU545
 157:My_Top/Motor_Control/DcMotor_ClosedLoop.cpp ****     fudu_test = _encoder->Get_KTH7111_Radian();//ĶÄĘÕÅ¢ń╝¢ńĀüÕÖ©Ķ¦ÆÕ║”
 1822              		.loc 1 157 36 is_stmt 0 view .LVU546
 1823 0858 806B     		ldr	r0, [r0, #56]
 1824              	.LVL111:
 157:My_Top/Motor_Control/DcMotor_ClosedLoop.cpp ****     fudu_test = _encoder->Get_KTH7111_Radian();//ĶÄĘÕÅ¢ń╝¢ńĀüÕÖ©Ķ¦ÆÕ║”
 1825              		.loc 1 157 36 view .LVU547
 1826 085a FFF7FEFF 		bl	_ZN7KTH711121KTH7111_Send_JIAO_CMDEv
 1827              	.LVL112:
 158:My_Top/Motor_Control/DcMotor_ClosedLoop.cpp **** 
 1828              		.loc 1 158 5 is_stmt 1 view .LVU548
 158:My_Top/Motor_Control/DcMotor_ClosedLoop.cpp **** 
 1829              		.loc 1 158 45 is_stmt 0 view .LVU549
 1830 085e A06B     		ldr	r0, [r4, #56]
 1831 0860 FFF7FEFF 		bl	_ZN7KTH711118Get_KTH7111_RadianEv
 1832              	.LVL113:
 158:My_Top/Motor_Control/DcMotor_ClosedLoop.cpp **** 
 1833              		.loc 1 158 15 discriminator 1 view .LVU550
 1834 0864 584B     		ldr	r3, .L110+16
 1835 0866 83ED000A 		vstr.32	s0, [r3]
 160:My_Top/Motor_Control/DcMotor_ClosedLoop.cpp ****     
 1836              		.loc 1 160 5 is_stmt 1 view .LVU551
 160:My_Top/Motor_Control/DcMotor_ClosedLoop.cpp ****     
 1837              		.loc 1 160 13 is_stmt 0 view .LVU552
 1838 086a 84ED050A 		vstr.32	s0, [r4, #20]
 162:My_Top/Motor_Control/DcMotor_ClosedLoop.cpp ****     {
ARM GAS  /tmp/ccuUIbvr.s 			page 47


 1839              		.loc 1 162 5 is_stmt 1 view .LVU553
 1840              	.LBB150:
 162:My_Top/Motor_Control/DcMotor_ClosedLoop.cpp ****     {
 1841              		.loc 1 162 9 is_stmt 0 view .LVU554
 1842 086e 94F8AC30 		ldrb	r3, [r4, #172]	@ zero_extendqisi2
 162:My_Top/Motor_Control/DcMotor_ClosedLoop.cpp ****     {
 1843              		.loc 1 162 5 view .LVU555
 1844 0872 002B     		cmp	r3, #0
 1845 0874 40F08480 		bne	.L99
 1846              	.LBB151:
 164:My_Top/Motor_Control/DcMotor_ClosedLoop.cpp ****       //µ¢╣Õ╝Å1 õĮÄķĆÜµ╗żµ│ó µø┤µ¢░µ£║µó░Ķ¦ÆÕ║”ķĆ¤Õ║”
 1847              		.loc 1 164 7 is_stmt 1 view .LVU556
 1848              	.LBB152:
 164:My_Top/Motor_Control/DcMotor_ClosedLoop.cpp ****       //µ¢╣Õ╝Å1 õĮÄķĆÜµ╗żµ│ó µø┤µ¢░µ£║µó░Ķ¦ÆÕ║”ķĆ¤Õ║”
 1849              		.loc 1 164 17 view .LVU557
 1850 0878 10EE100A 		vmov	r0, s0
 1851 087c FFF7FEFF 		bl	__aeabi_f2d
 1852              	.LVL114:
 1853 0880 4DA3     		adr	r3, .L110
 1854 0882 D3E90023 		ldrd	r2, [r3]
 1855 0886 FFF7FEFF 		bl	__aeabi_dadd
 1856              	.LVL115:
 1857 088a FFF7FEFF 		bl	__aeabi_d2f
 1858              	.LVL116:
 1859 088e DFED4F0A 		vldr.32	s1, .L110+20
 1860 0892 00EE100A 		vmov	s0, r0
 1861 0896 FFF7FEFF 		bl	fmodf
 1862              	.LVL117:
 164:My_Top/Motor_Control/DcMotor_ClosedLoop.cpp ****       //µ¢╣Õ╝Å1 õĮÄķĆÜµ╗żµ│ó µø┤µ¢░µ£║µó░Ķ¦ÆÕ║”ķĆ¤Õ║”
 1863              		.loc 1 164 17 discriminator 1 view .LVU558
 1864 089a B5EEC00A 		vcmpe.f32	s0, #0
 1865 089e F1EE10FA 		vmrs	APSR_nzcv, FPSCR
 1866 08a2 63D4     		bmi	.L108
 1867              	.LVL118:
 1868              	.L100:
 164:My_Top/Motor_Control/DcMotor_ClosedLoop.cpp ****       //µ¢╣Õ╝Å1 õĮÄķĆÜµ╗żµ│ó µø┤µ¢░µ£║µó░Ķ¦ÆÕ║”ķĆ¤Õ║”
 1869              		.loc 1 164 17 discriminator 3 view .LVU559
 1870 08a4 10EE100A 		vmov	r0, s0
 1871 08a8 FFF7FEFF 		bl	__aeabi_f2d
 1872              	.LVL119:
 164:My_Top/Motor_Control/DcMotor_ClosedLoop.cpp ****       //µ¢╣Õ╝Å1 õĮÄķĆÜµ╗żµ│ó µø┤µ¢░µ£║µó░Ķ¦ÆÕ║”ķĆ¤Õ║”
 1873              		.loc 1 164 17 is_stmt 0 discriminator 3 view .LVU560
 1874 08ac 42A3     		adr	r3, .L110
 1875 08ae D3E90023 		ldrd	r2, [r3]
 1876 08b2 FFF7FEFF 		bl	__aeabi_dsub
 1877              	.LVL120:
 1878              	.LBE152:
 1879 08b6 FFF7FEFF 		bl	__aeabi_d2f
 1880              	.LVL121:
 1881 08ba 07EE900A 		vmov	s15, r0
 164:My_Top/Motor_Control/DcMotor_ClosedLoop.cpp ****       //µ¢╣Õ╝Å1 õĮÄķĆÜµ╗żµ│ó µø┤µ¢░µ£║µó░Ķ¦ÆÕ║”ķĆ¤Õ║”
 1882              		.loc 1 164 15 discriminator 3 view .LVU561
 1883 08be 6061     		str	r0, [r4, #20]	@ float
 166:My_Top/Motor_Control/DcMotor_ClosedLoop.cpp ****       theta_m_last = theta_m; // µø┤µ¢░õĖŖõĖĆµ¼ĪńÜäµ£║µó░Ķ¦ÆÕ║”
 1884              		.loc 1 166 7 is_stmt 1 view .LVU562
 166:My_Top/Motor_Control/DcMotor_ClosedLoop.cpp ****       theta_m_last = theta_m; // µø┤µ¢░õĖŖõĖĆµ¼ĪńÜäµ£║µó░Ķ¦ÆÕ║”
 1885              		.loc 1 166 38 is_stmt 0 view .LVU563
ARM GAS  /tmp/ccuUIbvr.s 			page 48


 1886 08c0 94ED2C7A 		vldr.32	s14, [r4, #176]
 166:My_Top/Motor_Control/DcMotor_ClosedLoop.cpp ****       theta_m_last = theta_m; // µø┤µ¢░õĖŖõĖĆµ¼ĪńÜäµ£║µó░Ķ¦ÆÕ║”
 1887              		.loc 1 166 36 view .LVU564
 1888 08c4 37EEC77A 		vsub.f32	s14, s15, s14
 166:My_Top/Motor_Control/DcMotor_ClosedLoop.cpp ****       theta_m_last = theta_m; // µø┤µ¢░õĖŖõĖĆµ¼ĪńÜäµ£║µó░Ķ¦ÆÕ║”
 1889              		.loc 1 166 26 view .LVU565
 1890 08c8 414B     		ldr	r3, .L110+24
 1891 08ca 83ED007A 		vstr.32	s14, [r3]
 167:My_Top/Motor_Control/DcMotor_ClosedLoop.cpp ****       theta_m_offic = wrap_to_PI(theta_m_offic_temp);// Õ░åÕĘ«ÕĆ╝Ķ¦äµĢ┤Õł░ [-PI, PI) Õī║ķŚ┤
 1892              		.loc 1 167 7 is_stmt 1 view .LVU566
 167:My_Top/Motor_Control/DcMotor_ClosedLoop.cpp ****       theta_m_offic = wrap_to_PI(theta_m_offic_temp);// Õ░åÕĘ«ÕĆ╝Ķ¦äµĢ┤Õł░ [-PI, PI) Õī║ķŚ┤
 1893              		.loc 1 167 20 is_stmt 0 view .LVU567
 1894 08ce C4F8B000 		str	r0, [r4, #176]	@ float
 168:My_Top/Motor_Control/DcMotor_ClosedLoop.cpp **** 
 1895              		.loc 1 168 7 is_stmt 1 view .LVU568
 1896              	.LBB153:
 168:My_Top/Motor_Control/DcMotor_ClosedLoop.cpp **** 
 1897              		.loc 1 168 23 view .LVU569
 1898 08d2 17EE100A 		vmov	r0, s14
 1899 08d6 FFF7FEFF 		bl	__aeabi_f2d
 1900              	.LVL122:
 1901 08da 37A3     		adr	r3, .L110
 1902 08dc D3E90023 		ldrd	r2, [r3]
 1903 08e0 FFF7FEFF 		bl	__aeabi_dadd
 1904              	.LVL123:
 1905 08e4 FFF7FEFF 		bl	__aeabi_d2f
 1906              	.LVL124:
 1907 08e8 DFED380A 		vldr.32	s1, .L110+20
 1908 08ec 00EE100A 		vmov	s0, r0
 1909 08f0 FFF7FEFF 		bl	fmodf
 1910              	.LVL125:
 168:My_Top/Motor_Control/DcMotor_ClosedLoop.cpp **** 
 1911              		.loc 1 168 23 discriminator 1 view .LVU570
 1912 08f4 B5EEC00A 		vcmpe.f32	s0, #0
 1913 08f8 F1EE10FA 		vmrs	APSR_nzcv, FPSCR
 1914 08fc 3BD4     		bmi	.L109
 1915              	.LVL126:
 1916              	.L102:
 168:My_Top/Motor_Control/DcMotor_ClosedLoop.cpp **** 
 1917              		.loc 1 168 23 discriminator 3 view .LVU571
 1918 08fe 10EE100A 		vmov	r0, s0
 1919 0902 FFF7FEFF 		bl	__aeabi_f2d
 1920              	.LVL127:
 168:My_Top/Motor_Control/DcMotor_ClosedLoop.cpp **** 
 1921              		.loc 1 168 23 is_stmt 0 discriminator 3 view .LVU572
 1922 0906 2CA3     		adr	r3, .L110
 1923 0908 D3E90023 		ldrd	r2, [r3]
 1924 090c FFF7FEFF 		bl	__aeabi_dsub
 1925              	.LVL128:
 1926              	.LBE153:
 1927 0910 FFF7FEFF 		bl	__aeabi_d2f
 1928              	.LVL129:
 1929 0914 00EE100A 		vmov	s0, r0
 168:My_Top/Motor_Control/DcMotor_ClosedLoop.cpp **** 
 1930              		.loc 1 168 21 discriminator 3 view .LVU573
 1931 0918 C4F8B400 		str	r0, [r4, #180]	@ float
 170:My_Top/Motor_Control/DcMotor_ClosedLoop.cpp ****       theta_m_speed = theta_m_offic_filtered*DC_VELOCITY_LOOP_FREQ_HZ;//speed=ĶĘ»ń©ŗ/t 
ARM GAS  /tmp/ccuUIbvr.s 			page 49


 1932              		.loc 1 170 7 is_stmt 1 view .LVU574
 170:My_Top/Motor_Control/DcMotor_ClosedLoop.cpp ****       theta_m_speed = theta_m_offic_filtered*DC_VELOCITY_LOOP_FREQ_HZ;//speed=ĶĘ»ń©ŗ/t 
 1933              		.loc 1 170 48 is_stmt 0 view .LVU575
 1934 091c 04F16800 		add	r0, r4, #104
 1935 0920 FFF7FEFF 		bl	_ZN13LowpassFilter6filterEf
 1936              	.LVL130:
 170:My_Top/Motor_Control/DcMotor_ClosedLoop.cpp ****       theta_m_speed = theta_m_offic_filtered*DC_VELOCITY_LOOP_FREQ_HZ;//speed=ĶĘ»ń©ŗ/t 
 1937              		.loc 1 170 30 discriminator 1 view .LVU576
 1938 0924 84ED2E0A 		vstr.32	s0, [r4, #184]
 171:My_Top/Motor_Control/DcMotor_ClosedLoop.cpp ****       theta_av_speed = speed_avg.filter(theta_m_speed);//Õ»╣ķĆ¤Õ║”Ķ┐øĶĪīÕ╣│ÕØćÕĆ╝µ╗żµ│ó
 1939              		.loc 1 171 7 is_stmt 1 view .LVU577
 171:My_Top/Motor_Control/DcMotor_ClosedLoop.cpp ****       theta_av_speed = speed_avg.filter(theta_m_speed);//Õ»╣ķĆ¤Õ║”Ķ┐øĶĪīÕ╣│ÕØćÕĆ╝µ╗żµ│ó
 1940              		.loc 1 171 45 is_stmt 0 view .LVU578
 1941 0928 DFED2A7A 		vldr.32	s15, .L110+28
 1942 092c 20EE270A 		vmul.f32	s0, s0, s15
 171:My_Top/Motor_Control/DcMotor_ClosedLoop.cpp ****       theta_av_speed = speed_avg.filter(theta_m_speed);//Õ»╣ķĆ¤Õ║”Ķ┐øĶĪīÕ╣│ÕØćÕĆ╝µ╗żµ│ó
 1943              		.loc 1 171 21 view .LVU579
 1944 0930 84ED2F0A 		vstr.32	s0, [r4, #188]
 172:My_Top/Motor_Control/DcMotor_ClosedLoop.cpp ****       filtered_speed = speed_lpf.filter(theta_av_speed);//Õ»╣ķĆ¤Õ║”Ķ┐øĶĪīõĮÄķĆÜµ╗żµ│ó
 1945              		.loc 1 172 7 is_stmt 1 view .LVU580
 172:My_Top/Motor_Control/DcMotor_ClosedLoop.cpp ****       filtered_speed = speed_lpf.filter(theta_av_speed);//Õ»╣ķĆ¤Õ║”Ķ┐øĶĪīõĮÄķĆÜµ╗żµ│ó
 1946              		.loc 1 172 40 is_stmt 0 view .LVU581
 1947 0934 04F17000 		add	r0, r4, #112
 1948 0938 FFF7FEFF 		bl	_ZN9AvgFilter6filterEf
 1949              	.LVL131:
 172:My_Top/Motor_Control/DcMotor_ClosedLoop.cpp ****       filtered_speed = speed_lpf.filter(theta_av_speed);//Õ»╣ķĆ¤Õ║”Ķ┐øĶĪīõĮÄķĆÜµ╗żµ│ó
 1950              		.loc 1 172 22 discriminator 1 view .LVU582
 1951 093c 84ED300A 		vstr.32	s0, [r4, #192]
 173:My_Top/Motor_Control/DcMotor_ClosedLoop.cpp ****       reg_final = theta_m; //Õ░åµ£║µó░Ķ¦ÆÕ║”ĶĄŗÕĆ╝ń╗Öµ£Ćń╗łĶ¦ÆÕ║”
 1952              		.loc 1 173 7 is_stmt 1 view .LVU583
 173:My_Top/Motor_Control/DcMotor_ClosedLoop.cpp ****       reg_final = theta_m; //Õ░åµ£║µó░Ķ¦ÆÕ║”ĶĄŗÕĆ╝ń╗Öµ£Ćń╗łĶ¦ÆÕ║”
 1953              		.loc 1 173 40 is_stmt 0 view .LVU584
 1954 0940 04F16000 		add	r0, r4, #96
 1955 0944 FFF7FEFF 		bl	_ZN13LowpassFilter6filterEf
 1956              	.LVL132:
 1957 0948 10EE105A 		vmov	r5, s0
 173:My_Top/Motor_Control/DcMotor_ClosedLoop.cpp ****       reg_final = theta_m; //Õ░åµ£║µó░Ķ¦ÆÕ║”ĶĄŗÕĆ╝ń╗Öµ£Ćń╗łĶ¦ÆÕ║”
 1958              		.loc 1 173 22 discriminator 1 view .LVU585
 1959 094c 84ED310A 		vstr.32	s0, [r4, #196]
 174:My_Top/Motor_Control/DcMotor_ClosedLoop.cpp ****       theta_deg_final = rad2deg(reg_final); //Õ░åÕ╝¦Õ║”ĶĮ¼µŹóõĖ║360Õ║”
 1960              		.loc 1 174 7 is_stmt 1 view .LVU586
 174:My_Top/Motor_Control/DcMotor_ClosedLoop.cpp ****       theta_deg_final = rad2deg(reg_final); //Õ░åÕ╝¦Õ║”ĶĮ¼µŹóõĖ║360Õ║”
 1961              		.loc 1 174 19 is_stmt 0 view .LVU587
 1962 0950 6069     		ldr	r0, [r4, #20]	@ float
 174:My_Top/Motor_Control/DcMotor_ClosedLoop.cpp ****       theta_deg_final = rad2deg(reg_final); //Õ░åÕ╝¦Õ║”ĶĮ¼µŹóõĖ║360Õ║”
 1963              		.loc 1 174 17 view .LVU588
 1964 0952 A061     		str	r0, [r4, #24]	@ float
 175:My_Top/Motor_Control/DcMotor_ClosedLoop.cpp ****       Angular_velocity_final = filtered_speed;  //Õ░åµ£Ćń╗łķĆ¤Õ║”ĶĄŗÕĆ╝ń╗Öµ£Ćń╗łĶ¦ÆķĆ¤Õ║”
 1965              		.loc 1 175 7 is_stmt 1 view .LVU589
 175:My_Top/Motor_Control/DcMotor_ClosedLoop.cpp ****       Angular_velocity_final = filtered_speed;  //Õ░åµ£Ćń╗łķĆ¤Õ║”ĶĄŗÕĆ╝ń╗Öµ£Ćń╗łĶ¦ÆķĆ¤Õ║”
 1966              		.loc 1 175 25 is_stmt 0 view .LVU590
 1967 0954 FFF7FEFF 		bl	__aeabi_f2d
 1968              	.LVL133:
 1969 0958 19A3     		adr	r3, .L110+8
 1970 095a D3E90023 		ldrd	r2, [r3]
 1971 095e FFF7FEFF 		bl	__aeabi_dmul
 1972              	.LVL134:
ARM GAS  /tmp/ccuUIbvr.s 			page 50


 1973 0962 FFF7FEFF 		bl	__aeabi_d2f
 1974              	.LVL135:
 175:My_Top/Motor_Control/DcMotor_ClosedLoop.cpp ****       Angular_velocity_final = filtered_speed;  //Õ░åµ£Ćń╗łķĆ¤Õ║”ĶĄŗÕĆ╝ń╗Öµ£Ćń╗łĶ¦ÆķĆ¤Õ║”
 1975              		.loc 1 175 23 view .LVU591
 1976 0966 E061     		str	r0, [r4, #28]	@ float
 176:My_Top/Motor_Control/DcMotor_ClosedLoop.cpp ****       
 1977              		.loc 1 176 7 is_stmt 1 view .LVU592
 176:My_Top/Motor_Control/DcMotor_ClosedLoop.cpp ****       
 1978              		.loc 1 176 30 is_stmt 0 view .LVU593
 1979 0968 2562     		str	r5, [r4, #32]	@ float
 1980              	.LVL136:
 1981              	.L98:
 176:My_Top/Motor_Control/DcMotor_ClosedLoop.cpp ****       
 1982              		.loc 1 176 30 view .LVU594
 1983              	.LBE151:
 1984              	.LBE150:
 187:My_Top/Motor_Control/DcMotor_ClosedLoop.cpp **** 
 1985              		.loc 1 187 1 view .LVU595
 1986 096a 38BD     		pop	{r3, r4, r5, pc}
 1987              	.LVL137:
 1988              	.L108:
 1989              	.LBB157:
 1990              	.LBB156:
 1991              	.LBB154:
 164:My_Top/Motor_Control/DcMotor_ClosedLoop.cpp ****       //µ¢╣Õ╝Å1 õĮÄķĆÜµ╗żµ│ó µø┤µ¢░µ£║µó░Ķ¦ÆÕ║”ķĆ¤Õ║”
 1992              		.loc 1 164 17 is_stmt 1 discriminator 1 view .LVU596
 1993 096c DFED177A 		vldr.32	s15, .L110+20
 1994 0970 30EE270A 		vadd.f32	s0, s0, s15
 1995              	.LVL138:
 164:My_Top/Motor_Control/DcMotor_ClosedLoop.cpp ****       //µ¢╣Õ╝Å1 õĮÄķĆÜµ╗żµ│ó µø┤µ¢░µ£║µó░Ķ¦ÆÕ║”ķĆ¤Õ║”
 1996              		.loc 1 164 17 is_stmt 0 discriminator 1 view .LVU597
 1997 0974 96E7     		b	.L100
 1998              	.LVL139:
 1999              	.L109:
 164:My_Top/Motor_Control/DcMotor_ClosedLoop.cpp ****       //µ¢╣Õ╝Å1 õĮÄķĆÜµ╗żµ│ó µø┤µ¢░µ£║µó░Ķ¦ÆÕ║”ķĆ¤Õ║”
 2000              		.loc 1 164 17 discriminator 1 view .LVU598
 2001              	.LBE154:
 2002              	.LBB155:
 168:My_Top/Motor_Control/DcMotor_ClosedLoop.cpp **** 
 2003              		.loc 1 168 23 is_stmt 1 discriminator 1 view .LVU599
 2004 0976 DFED157A 		vldr.32	s15, .L110+20
 2005 097a 30EE270A 		vadd.f32	s0, s0, s15
 2006              	.LVL140:
 168:My_Top/Motor_Control/DcMotor_ClosedLoop.cpp **** 
 2007              		.loc 1 168 23 is_stmt 0 discriminator 1 view .LVU600
 2008 097e BEE7     		b	.L102
 2009              	.LVL141:
 2010              	.L99:
 168:My_Top/Motor_Control/DcMotor_ClosedLoop.cpp **** 
 2011              		.loc 1 168 23 discriminator 1 view .LVU601
 2012              	.LBE155:
 2013              	.LBE156:
 178:My_Top/Motor_Control/DcMotor_ClosedLoop.cpp ****     {
 2014              		.loc 1 178 11 is_stmt 1 view .LVU602
 181:My_Top/Motor_Control/DcMotor_ClosedLoop.cpp ****       reg_final = _pll_reg_out; //Õ░åPLLķöüńøĖńÄ»ńÜäĶŠōÕć║Ķ¦ÆÕ║”ĶĄŗÕĆ╝ń╗Öµ£Ćń╗łĶ¦ÆÕ║”
 2015              		.loc 1 181 7 view .LVU603
 181:My_Top/Motor_Control/DcMotor_ClosedLoop.cpp ****       reg_final = _pll_reg_out; //Õ░åPLLķöüńøĖńÄ»ńÜäĶŠōÕć║Ķ¦ÆÕ║”ĶĄŗÕĆ╝ń╗Öµ£Ćń╗łĶ¦ÆÕ║”
ARM GAS  /tmp/ccuUIbvr.s 			page 51


 2016              		.loc 1 181 18 is_stmt 0 view .LVU604
 2017 0980 04F1D002 		add	r2, r4, #208
 2018 0984 04F1CC01 		add	r1, r4, #204
 2019 0988 04F1C800 		add	r0, r4, #200
 2020 098c DFED120A 		vldr.32	s1, .L110+32
 2021 0990 FFF7FEFF 		bl	_Z11foc_pll_runffPfS_P13PLL_Parameter
 2022              	.LVL142:
 182:My_Top/Motor_Control/DcMotor_ClosedLoop.cpp ****       theta_deg_final = rad2deg(reg_final); //Õ░åÕ╝¦Õ║”ĶĮ¼µŹóõĖ║360Õ║”
 2023              		.loc 1 182 7 is_stmt 1 view .LVU605
 182:My_Top/Motor_Control/DcMotor_ClosedLoop.cpp ****       theta_deg_final = rad2deg(reg_final); //Õ░åÕ╝¦Õ║”ĶĮ¼µŹóõĖ║360Õ║”
 2024              		.loc 1 182 19 is_stmt 0 view .LVU606
 2025 0994 D4F8C800 		ldr	r0, [r4, #200]	@ float
 182:My_Top/Motor_Control/DcMotor_ClosedLoop.cpp ****       theta_deg_final = rad2deg(reg_final); //Õ░åÕ╝¦Õ║”ĶĮ¼µŹóõĖ║360Õ║”
 2026              		.loc 1 182 17 view .LVU607
 2027 0998 A061     		str	r0, [r4, #24]	@ float
 183:My_Top/Motor_Control/DcMotor_ClosedLoop.cpp ****       Angular_velocity_final = _pll_Angular_velocity; //Õ░åµ£Ćń╗łķĆ¤Õ║”ĶĄŗÕĆ╝ń╗Öµ£Ćń╗łĶ¦ÆķĆ¤Õ║”
 2028              		.loc 1 183 7 is_stmt 1 view .LVU608
 183:My_Top/Motor_Control/DcMotor_ClosedLoop.cpp ****       Angular_velocity_final = _pll_Angular_velocity; //Õ░åµ£Ćń╗łķĆ¤Õ║”ĶĄŗÕĆ╝ń╗Öµ£Ćń╗łĶ¦ÆķĆ¤Õ║”
 2029              		.loc 1 183 25 is_stmt 0 view .LVU609
 2030 099a FFF7FEFF 		bl	__aeabi_f2d
 2031              	.LVL143:
 2032 099e 08A3     		adr	r3, .L110+8
 2033 09a0 D3E90023 		ldrd	r2, [r3]
 2034 09a4 FFF7FEFF 		bl	__aeabi_dmul
 2035              	.LVL144:
 2036 09a8 FFF7FEFF 		bl	__aeabi_d2f
 2037              	.LVL145:
 183:My_Top/Motor_Control/DcMotor_ClosedLoop.cpp ****       Angular_velocity_final = _pll_Angular_velocity; //Õ░åµ£Ćń╗łķĆ¤Õ║”ĶĄŗÕĆ╝ń╗Öµ£Ćń╗łĶ¦ÆķĆ¤Õ║”
 2038              		.loc 1 183 23 view .LVU610
 2039 09ac E061     		str	r0, [r4, #28]	@ float
 184:My_Top/Motor_Control/DcMotor_ClosedLoop.cpp ****     }
 2040              		.loc 1 184 7 is_stmt 1 view .LVU611
 184:My_Top/Motor_Control/DcMotor_ClosedLoop.cpp ****     }
 2041              		.loc 1 184 32 is_stmt 0 view .LVU612
 2042 09ae D4F8CC30 		ldr	r3, [r4, #204]	@ float
 184:My_Top/Motor_Control/DcMotor_ClosedLoop.cpp ****     }
 2043              		.loc 1 184 30 view .LVU613
 2044 09b2 2362     		str	r3, [r4, #32]	@ float
 2045              	.LBE157:
 187:My_Top/Motor_Control/DcMotor_ClosedLoop.cpp **** 
 2046              		.loc 1 187 1 view .LVU614
 2047 09b4 D9E7     		b	.L98
 2048              	.L111:
 2049 09b6 00BF     		.align	3
 2050              	.L110:
 2051 09b8 182D4454 		.word	1413754136
 2052 09bc FB210940 		.word	1074340347
 2053 09c0 F8C1631A 		.word	442745336
 2054 09c4 DCA54C40 		.word	1078765020
 2055 09c8 90050000 		.word	.LANCHOR0+1424
 2056 09cc DB0FC940 		.word	1086918619
 2057 09d0 94050000 		.word	.LANCHOR0+1428
 2058 09d4 00007A45 		.word	1165623296
 2059 09d8 6F128339 		.word	964891247
 2060              		.cfi_endproc
 2061              	.LFE1357:
 2063              		.align	1
ARM GAS  /tmp/ccuUIbvr.s 			page 52


 2064              		.global	_ZN8DC_Motor10Speed_LoopEv
 2065              		.syntax unified
 2066              		.thumb
 2067              		.thumb_func
 2069              	_ZN8DC_Motor10Speed_LoopEv:
 2070              	.LVL146:
 2071              	.LFB1358:
 191:My_Top/Motor_Control/DcMotor_ClosedLoop.cpp ****     float _delta_pwm = 0.0f; //Ķ«Īń«ŚPIDÕó×ķćÅ
 2072              		.loc 1 191 1 is_stmt 1 view -0
 2073              		.cfi_startproc
 2074              		@ args = 0, pretend = 0, frame = 0
 2075              		@ frame_needed = 0, uses_anonymous_args = 0
 191:My_Top/Motor_Control/DcMotor_ClosedLoop.cpp ****     float _delta_pwm = 0.0f; //Ķ«Īń«ŚPIDÕó×ķćÅ
 2076              		.loc 1 191 1 is_stmt 0 view .LVU616
 2077 09dc 10B5     		push	{r4, lr}
 2078              		.cfi_def_cfa_offset 8
 2079              		.cfi_offset 4, -8
 2080              		.cfi_offset 14, -4
 2081 09de 0446     		mov	r4, r0
 192:My_Top/Motor_Control/DcMotor_ClosedLoop.cpp ****     float error_speed = _target_speed - Angular_velocity_final; //Ķ«Īń«ŚķĆ¤Õ║”Ķ»»ÕĘ«
 2082              		.loc 1 192 5 is_stmt 1 view .LVU617
 2083              	.LVL147:
 193:My_Top/Motor_Control/DcMotor_ClosedLoop.cpp **** 
 2084              		.loc 1 193 5 view .LVU618
 193:My_Top/Motor_Control/DcMotor_ClosedLoop.cpp **** 
 2085              		.loc 1 193 25 is_stmt 0 view .LVU619
 2086 09e0 90ED0A0A 		vldr.32	s0, [r0, #40]
 193:My_Top/Motor_Control/DcMotor_ClosedLoop.cpp **** 
 2087              		.loc 1 193 41 view .LVU620
 2088 09e4 D0ED087A 		vldr.32	s15, [r0, #32]
 2089              	.LVL148:
 195:My_Top/Motor_Control/DcMotor_ClosedLoop.cpp ****     updown_duty += _delta_pwm; //µø┤µ¢░ńöĄµ£║ķóæńÄć
 2090              		.loc 1 195 5 is_stmt 1 view .LVU621
 195:My_Top/Motor_Control/DcMotor_ClosedLoop.cpp ****     updown_duty += _delta_pwm; //µø┤µ¢░ńöĄµ£║ķóæńÄć
 2091              		.loc 1 195 44 is_stmt 0 view .LVU622
 2092 09e8 30EE670A 		vsub.f32	s0, s0, s15
 2093              	.LVL149:
 195:My_Top/Motor_Control/DcMotor_ClosedLoop.cpp ****     updown_duty += _delta_pwm; //µø┤µ¢░ńöĄµ£║ķóæńÄć
 2094              		.loc 1 195 44 view .LVU623
 2095 09ec C06B     		ldr	r0, [r0, #60]
 2096              	.LVL150:
 195:My_Top/Motor_Control/DcMotor_ClosedLoop.cpp ****     updown_duty += _delta_pwm; //µø┤µ¢░ńöĄµ£║ķóæńÄć
 2097              		.loc 1 195 44 view .LVU624
 2098 09ee FFF7FEFF 		bl	_ZN13PID_Increment6updateEf
 2099              	.LVL151:
 196:My_Top/Motor_Control/DcMotor_ClosedLoop.cpp ****     Set_Motor_Glo_Duty(); //Ķ«ŠńĮ«ńöĄµ£║Õģ©Õ▒ĆÕŹĀń®║µ»ö
 2100              		.loc 1 196 5 is_stmt 1 view .LVU625
 2101 09f2 D4ED047A 		vldr.32	s15, [r4, #16]
 196:My_Top/Motor_Control/DcMotor_ClosedLoop.cpp ****     Set_Motor_Glo_Duty(); //Ķ«ŠńĮ«ńöĄµ£║Õģ©Õ▒ĆÕŹĀń®║µ»ö
 2102              		.loc 1 196 17 is_stmt 0 view .LVU626
 2103 09f6 77EE807A 		vadd.f32	s15, s15, s0
 2104 09fa C4ED047A 		vstr.32	s15, [r4, #16]
 197:My_Top/Motor_Control/DcMotor_ClosedLoop.cpp **** }
 2105              		.loc 1 197 5 is_stmt 1 view .LVU627
 197:My_Top/Motor_Control/DcMotor_ClosedLoop.cpp **** }
 2106              		.loc 1 197 23 is_stmt 0 view .LVU628
 2107 09fe 2046     		mov	r0, r4
ARM GAS  /tmp/ccuUIbvr.s 			page 53


 2108 0a00 FFF7FEFF 		bl	_ZN8DC_Motor18Set_Motor_Glo_DutyEv
 2109              	.LVL152:
 198:My_Top/Motor_Control/DcMotor_ClosedLoop.cpp **** 
 2110              		.loc 1 198 1 view .LVU629
 2111 0a04 10BD     		pop	{r4, pc}
 198:My_Top/Motor_Control/DcMotor_ClosedLoop.cpp **** 
 2112              		.loc 1 198 1 view .LVU630
 2113              		.cfi_endproc
 2114              	.LFE1358:
 2116              		.align	1
 2117              		.global	_ZN8DC_Motor13Location_LoopEv
 2118              		.syntax unified
 2119              		.thumb
 2120              		.thumb_func
 2122              	_ZN8DC_Motor13Location_LoopEv:
 2123              	.LVL153:
 2124              	.LFB1359:
 202:My_Top/Motor_Control/DcMotor_ClosedLoop.cpp ****     float _delta_fre = 0.0f;
 2125              		.loc 1 202 1 is_stmt 1 view -0
 2126              		.cfi_startproc
 2127              		@ args = 0, pretend = 0, frame = 0
 2128              		@ frame_needed = 0, uses_anonymous_args = 0
 202:My_Top/Motor_Control/DcMotor_ClosedLoop.cpp ****     float _delta_fre = 0.0f;
 2129              		.loc 1 202 1 is_stmt 0 view .LVU632
 2130 0a06 D0B5     		push	{r4, r6, r7, lr}
 2131              		.cfi_def_cfa_offset 16
 2132              		.cfi_offset 4, -16
 2133              		.cfi_offset 6, -12
 2134              		.cfi_offset 7, -8
 2135              		.cfi_offset 14, -4
 2136 0a08 0446     		mov	r4, r0
 203:My_Top/Motor_Control/DcMotor_ClosedLoop.cpp ****     float _target_error_location = deg2rad(_target_location2) - reg_final; //Ķ«Īń«ŚõĮŹńĮ«Ķ»»ÕĘ«
 2137              		.loc 1 203 5 is_stmt 1 view .LVU633
 2138              	.LVL154:
 204:My_Top/Motor_Control/DcMotor_ClosedLoop.cpp ****     _target_speed = pid_location->update(_target_error_location); //
 2139              		.loc 1 204 5 view .LVU634
 204:My_Top/Motor_Control/DcMotor_ClosedLoop.cpp ****     _target_speed = pid_location->update(_target_error_location); //
 2140              		.loc 1 204 36 is_stmt 0 view .LVU635
 2141 0a0a C06A     		ldr	r0, [r0, #44]	@ float
 2142              	.LVL155:
 204:My_Top/Motor_Control/DcMotor_ClosedLoop.cpp ****     _target_speed = pid_location->update(_target_error_location); //
 2143              		.loc 1 204 36 view .LVU636
 2144 0a0c FFF7FEFF 		bl	__aeabi_f2d
 2145              	.LVL156:
 2146 0a10 0FA3     		adr	r3, .L116
 2147 0a12 D3E90023 		ldrd	r2, [r3]
 2148 0a16 FFF7FEFF 		bl	__aeabi_dmul
 2149              	.LVL157:
 2150 0a1a 0646     		mov	r6, r0
 2151 0a1c 0F46     		mov	r7, r1
 204:My_Top/Motor_Control/DcMotor_ClosedLoop.cpp ****     _target_speed = pid_location->update(_target_error_location); //
 2152              		.loc 1 204 65 view .LVU637
 2153 0a1e A069     		ldr	r0, [r4, #24]	@ float
 2154 0a20 FFF7FEFF 		bl	__aeabi_f2d
 2155              	.LVL158:
 2156 0a24 0246     		mov	r2, r0
 2157 0a26 0B46     		mov	r3, r1
ARM GAS  /tmp/ccuUIbvr.s 			page 54


 204:My_Top/Motor_Control/DcMotor_ClosedLoop.cpp ****     _target_speed = pid_location->update(_target_error_location); //
 2158              		.loc 1 204 63 view .LVU638
 2159 0a28 3046     		mov	r0, r6
 2160 0a2a 3946     		mov	r1, r7
 2161 0a2c FFF7FEFF 		bl	__aeabi_dsub
 2162              	.LVL159:
 204:My_Top/Motor_Control/DcMotor_ClosedLoop.cpp ****     _target_speed = pid_location->update(_target_error_location); //
 2163              		.loc 1 204 11 view .LVU639
 2164 0a30 FFF7FEFF 		bl	__aeabi_d2f
 2165              	.LVL160:
 205:My_Top/Motor_Control/DcMotor_ClosedLoop.cpp ****     Speed_Loop(); //õĮŹńĮ«ńÄ»Õåģķā©Ķ░āńö©ķĆ¤Õ║”ńÄ»µÄ¦ÕłČ
 2166              		.loc 1 205 5 is_stmt 1 view .LVU640
 205:My_Top/Motor_Control/DcMotor_ClosedLoop.cpp ****     Speed_Loop(); //õĮŹńĮ«ńÄ»Õåģķā©Ķ░āńö©ķĆ¤Õ║”ńÄ»µÄ¦ÕłČ
 2167              		.loc 1 205 41 is_stmt 0 view .LVU641
 2168 0a34 00EE100A 		vmov	s0, r0
 2169 0a38 206C     		ldr	r0, [r4, #64]
 2170              	.LVL161:
 205:My_Top/Motor_Control/DcMotor_ClosedLoop.cpp ****     Speed_Loop(); //õĮŹńĮ«ńÄ»Õåģķā©Ķ░āńö©ķĆ¤Õ║”ńÄ»µÄ¦ÕłČ
 2171              		.loc 1 205 41 view .LVU642
 2172 0a3a FFF7FEFF 		bl	_ZN3PID6updateEf
 2173              	.LVL162:
 205:My_Top/Motor_Control/DcMotor_ClosedLoop.cpp ****     Speed_Loop(); //õĮŹńĮ«ńÄ»Õåģķā©Ķ░āńö©ķĆ¤Õ║”ńÄ»µÄ¦ÕłČ
 2174              		.loc 1 205 19 discriminator 1 view .LVU643
 2175 0a3e 84ED0A0A 		vstr.32	s0, [r4, #40]
 206:My_Top/Motor_Control/DcMotor_ClosedLoop.cpp **** }
 2176              		.loc 1 206 5 is_stmt 1 view .LVU644
 206:My_Top/Motor_Control/DcMotor_ClosedLoop.cpp **** }
 2177              		.loc 1 206 15 is_stmt 0 view .LVU645
 2178 0a42 2046     		mov	r0, r4
 2179 0a44 FFF7FEFF 		bl	_ZN8DC_Motor10Speed_LoopEv
 2180              	.LVL163:
 207:My_Top/Motor_Control/DcMotor_ClosedLoop.cpp **** 
 2181              		.loc 1 207 1 view .LVU646
 2182 0a48 D0BD     		pop	{r4, r6, r7, pc}
 2183              	.LVL164:
 2184              	.L117:
 207:My_Top/Motor_Control/DcMotor_ClosedLoop.cpp **** 
 2185              		.loc 1 207 1 view .LVU647
 2186 0a4a 00BFAFF3 		.align	3
 2186      0080
 2187              	.L116:
 2188 0a50 399D52A2 		.word	-1571644103
 2189 0a54 46DF913F 		.word	1066524486
 2190              		.cfi_endproc
 2191              	.LFE1359:
 2193              		.align	1
 2194              		.global	_ZN8DC_Motor15Thermistor_TempEv
 2195              		.syntax unified
 2196              		.thumb
 2197              		.thumb_func
 2199              	_ZN8DC_Motor15Thermistor_TempEv:
 2200              	.LVL165:
 2201              	.LFB1360:
 214:My_Top/Motor_Control/DcMotor_ClosedLoop.cpp ****     float adc_av_val = 0.0f;
 2202              		.loc 1 214 1 is_stmt 1 view -0
 2203              		.cfi_startproc
 2204              		@ args = 0, pretend = 0, frame = 0
ARM GAS  /tmp/ccuUIbvr.s 			page 55


 2205              		@ frame_needed = 0, uses_anonymous_args = 0
 214:My_Top/Motor_Control/DcMotor_ClosedLoop.cpp ****     float adc_av_val = 0.0f;
 2206              		.loc 1 214 1 is_stmt 0 view .LVU649
 2207 0a58 D0B5     		push	{r4, r6, r7, lr}
 2208              		.cfi_def_cfa_offset 16
 2209              		.cfi_offset 4, -16
 2210              		.cfi_offset 6, -12
 2211              		.cfi_offset 7, -8
 2212              		.cfi_offset 14, -4
 2213 0a5a 2DED028B 		vpush.64	{d8}
 2214              		.cfi_def_cfa_offset 24
 2215              		.cfi_offset 80, -24
 2216              		.cfi_offset 81, -20
 2217 0a5e 0446     		mov	r4, r0
 215:My_Top/Motor_Control/DcMotor_ClosedLoop.cpp ****     
 2218              		.loc 1 215 5 is_stmt 1 view .LVU650
 2219              	.LVL166:
 217:My_Top/Motor_Control/DcMotor_ClosedLoop.cpp ****     // ADC ÕĆ╝Õ╝éÕĖĖ’╝łµé¼ń®║/µ£¬µÄźńāŁµĢÅńöĄķś╗ ĶĘ│Ķ┐ćĶ«Īń«Ś
 2220              		.loc 1 217 5 view .LVU651
 217:My_Top/Motor_Control/DcMotor_ClosedLoop.cpp ****     // ADC ÕĆ╝Õ╝éÕĖĖ’╝łµé¼ń®║/µ£¬µÄźńāŁµĢÅńöĄķś╗ ĶĘ│Ķ┐ćĶ«Īń«Ś
 2221              		.loc 1 217 54 is_stmt 0 view .LVU652
 2222 0a60 D0F8A830 		ldr	r3, [r0, #168]
 217:My_Top/Motor_Control/DcMotor_ClosedLoop.cpp ****     // ADC ÕĆ╝Õ╝éÕĖĖ’╝łµé¼ń®║/µ£¬µÄźńāŁµĢÅńöĄķś╗ ĶĘ│Ķ┐ćĶ«Īń«Ś
 2223              		.loc 1 217 69 view .LVU653
 2224 0a64 93F82220 		ldrb	r2, [r3, #34]	@ zero_extendqisi2
 217:My_Top/Motor_Control/DcMotor_ClosedLoop.cpp ****     // ADC ÕĆ╝Õ╝éÕĖĖ’╝łµé¼ń®║/µ£¬µÄźńāŁµĢÅńöĄķś╗ ĶĘ│Ķ┐ćĶ«Īń«Ś
 2225              		.loc 1 217 80 view .LVU654
 2226 0a68 394B     		ldr	r3, .L122+24
 2227 0a6a 03EB4203 		add	r3, r3, r2, lsl #1
 2228 0a6e B3F89835 		ldrh	r3, [r3, #1432]
 2229 0a72 00EE103A 		vmov	s0, r3	@ int
 217:My_Top/Motor_Control/DcMotor_ClosedLoop.cpp ****     // ADC ÕĆ╝Õ╝éÕĖĖ’╝łµé¼ń®║/µ£¬µÄźńāŁµĢÅńöĄķś╗ ĶĘ│Ķ┐ćĶ«Īń«Ś
 2230              		.loc 1 217 36 view .LVU655
 2231 0a76 B8EE400A 		vcvt.f32.u32	s0, s0
 2232 0a7a 8C30     		adds	r0, r0, #140
 2233              	.LVL167:
 217:My_Top/Motor_Control/DcMotor_ClosedLoop.cpp ****     // ADC ÕĆ╝Õ╝éÕĖĖ’╝łµé¼ń®║/µ£¬µÄźńāŁµĢÅńöĄķś╗ ĶĘ│Ķ┐ćĶ«Īń«Ś
 2234              		.loc 1 217 36 view .LVU656
 2235 0a7c FFF7FEFF 		bl	_ZN9AvgFilter6filterEf
 2236              	.LVL168:
 219:My_Top/Motor_Control/DcMotor_ClosedLoop.cpp **** 
 2237              		.loc 1 219 5 is_stmt 1 view .LVU657
 2238 0a80 F2EE047A 		vmov.f32	s15, #1.0e+1
 2239 0a84 B4EEE70A 		vcmpe.f32	s0, s15
 2240 0a88 F1EE10FA 		vmrs	APSR_nzcv, FPSCR
 2241 0a8c 08D4     		bmi	.L118
 2242 0a8e B0EE408A 		vmov.f32	s16, s0
 219:My_Top/Motor_Control/DcMotor_ClosedLoop.cpp **** 
 2243              		.loc 1 219 28 is_stmt 0 discriminator 2 view .LVU658
 2244 0a92 DFED307A 		vldr.32	s15, .L122+28
 2245 0a96 B4EEE70A 		vcmpe.f32	s0, s15
 2246 0a9a F1EE10FA 		vmrs	APSR_nzcv, FPSCR
 2247 0a9e 02DD     		ble	.L121
 2248              	.LVL169:
 2249              	.L118:
 2250              		.loc 1 226 1 view .LVU659
 2251 0aa0 BDEC028B 		vldm	sp!, {d8}
ARM GAS  /tmp/ccuUIbvr.s 			page 56


 2252              		.cfi_remember_state
 2253              		.cfi_restore 80
 2254              		.cfi_restore 81
 2255              		.cfi_def_cfa_offset 16
 2256 0aa4 D0BD     		pop	{r4, r6, r7, pc}
 2257              	.LVL170:
 2258              	.L121:
 2259              		.cfi_restore_state
 221:My_Top/Motor_Control/DcMotor_ClosedLoop.cpp **** 
 2260              		.loc 1 221 5 is_stmt 1 view .LVU660
 221:My_Top/Motor_Control/DcMotor_ClosedLoop.cpp **** 
 2261              		.loc 1 221 29 is_stmt 0 view .LVU661
 2262 0aa6 DFED2C7A 		vldr.32	s15, .L122+32
 2263 0aaa 77EEC07A 		vsub.f32	s15, s15, s0
 2264 0aae 17EE900A 		vmov	r0, s15
 2265 0ab2 FFF7FEFF 		bl	__aeabi_f2d
 2266              	.LVL171:
 221:My_Top/Motor_Control/DcMotor_ClosedLoop.cpp **** 
 2267              		.loc 1 221 23 view .LVU662
 2268 0ab6 0022     		movs	r2, #0
 2269 0ab8 284B     		ldr	r3, .L122+36
 2270 0aba FFF7FEFF 		bl	__aeabi_dmul
 2271              	.LVL172:
 2272 0abe 0646     		mov	r6, r0
 2273 0ac0 0F46     		mov	r7, r1
 221:My_Top/Motor_Control/DcMotor_ClosedLoop.cpp **** 
 2274              		.loc 1 221 44 view .LVU663
 2275 0ac2 18EE100A 		vmov	r0, s16
 2276 0ac6 FFF7FEFF 		bl	__aeabi_f2d
 2277              	.LVL173:
 2278 0aca 0246     		mov	r2, r0
 2279 0acc 0B46     		mov	r3, r1
 221:My_Top/Motor_Control/DcMotor_ClosedLoop.cpp **** 
 2280              		.loc 1 221 42 view .LVU664
 2281 0ace 3046     		mov	r0, r6
 2282 0ad0 3946     		mov	r1, r7
 2283 0ad2 FFF7FEFF 		bl	__aeabi_ddiv
 2284              	.LVL174:
 2285 0ad6 FFF7FEFF 		bl	__aeabi_d2f
 2286              	.LVL175:
 221:My_Top/Motor_Control/DcMotor_ClosedLoop.cpp **** 
 2287              		.loc 1 221 17 view .LVU665
 2288 0ada 2063     		str	r0, [r4, #48]	@ float
 223:My_Top/Motor_Control/DcMotor_ClosedLoop.cpp ****     
 2289              		.loc 1 223 5 is_stmt 1 view .LVU666
 223:My_Top/Motor_Control/DcMotor_ClosedLoop.cpp ****     
 2290              		.loc 1 223 37 is_stmt 0 view .LVU667
 2291 0adc FFF7FEFF 		bl	__aeabi_f2d
 2292              	.LVL176:
 223:My_Top/Motor_Control/DcMotor_ClosedLoop.cpp ****     
 2293              		.loc 1 223 36 view .LVU668
 2294 0ae0 0022     		movs	r2, #0
 2295 0ae2 1E4B     		ldr	r3, .L122+36
 2296 0ae4 FFF7FEFF 		bl	__aeabi_ddiv
 2297              	.LVL177:
 2298 0ae8 41EC100B 		vmov	d0, r0, r1
 2299 0aec FFF7FEFF 		bl	log
ARM GAS  /tmp/ccuUIbvr.s 			page 57


 2300              	.LVL178:
 2301 0af0 51EC100B 		vmov	r0, r1, d0
 223:My_Top/Motor_Control/DcMotor_ClosedLoop.cpp ****     
 2302              		.loc 1 223 59 discriminator 1 view .LVU669
 2303 0af4 10A3     		adr	r3, .L122
 2304 0af6 D3E90023 		ldrd	r2, [r3]
 2305 0afa FFF7FEFF 		bl	__aeabi_ddiv
 2306              	.LVL179:
 223:My_Top/Motor_Control/DcMotor_ClosedLoop.cpp ****     
 2307              		.loc 1 223 31 discriminator 1 view .LVU670
 2308 0afe 10A3     		adr	r3, .L122+8
 2309 0b00 D3E90023 		ldrd	r2, [r3]
 2310 0b04 FFF7FEFF 		bl	__aeabi_dadd
 2311              	.LVL180:
 223:My_Top/Motor_Control/DcMotor_ClosedLoop.cpp ****     
 2312              		.loc 1 223 61 discriminator 1 view .LVU671
 2313 0b08 FFF7FEFF 		bl	__aeabi_d2f
 2314              	.LVL181:
 2315 0b0c 07EE900A 		vmov	s15, r0
 2316              	.LVL182:
 225:My_Top/Motor_Control/DcMotor_ClosedLoop.cpp **** }
 2317              		.loc 1 225 5 is_stmt 1 view .LVU672
 225:My_Top/Motor_Control/DcMotor_ClosedLoop.cpp **** }
 2318              		.loc 1 225 26 is_stmt 0 view .LVU673
 2319 0b10 B7EE007A 		vmov.f32	s14, #1.0e+0
 2320 0b14 C7EE277A 		vdiv.f32	s15, s14, s15
 2321 0b18 17EE900A 		vmov	r0, s15
 2322              	.LVL183:
 225:My_Top/Motor_Control/DcMotor_ClosedLoop.cpp **** }
 2323              		.loc 1 225 26 view .LVU674
 2324 0b1c FFF7FEFF 		bl	__aeabi_f2d
 2325              	.LVL184:
 225:My_Top/Motor_Control/DcMotor_ClosedLoop.cpp **** }
 2326              		.loc 1 225 35 view .LVU675
 2327 0b20 09A3     		adr	r3, .L122+16
 2328 0b22 D3E90023 		ldrd	r2, [r3]
 2329 0b26 FFF7FEFF 		bl	__aeabi_dsub
 2330              	.LVL185:
 2331 0b2a FFF7FEFF 		bl	__aeabi_d2f
 2332              	.LVL186:
 225:My_Top/Motor_Control/DcMotor_ClosedLoop.cpp **** }
 2333              		.loc 1 225 18 view .LVU676
 2334 0b2e 6063     		str	r0, [r4, #52]	@ float
 2335 0b30 B6E7     		b	.L118
 2336              	.L123:
 2337 0b32 00BFAFF3 		.align	3
 2337      0080
 2338              	.L122:
 2339 0b38 00000000 		.word	0
 2340 0b3c 00DCAE40 		.word	1085201408
 2341 0b40 AA9D755E 		.word	1584766378
 2342 0b44 034B6B3F 		.word	1063996163
 2343 0b48 66666666 		.word	1717986918
 2344 0b4c 66327140 		.word	1081160294
 2345 0b50 00000000 		.word	.LANCHOR0
 2346 0b54 00607F45 		.word	1165975552
 2347 0b58 00008045 		.word	1166016512
ARM GAS  /tmp/ccuUIbvr.s 			page 58


 2348 0b5c 00002440 		.word	1076101120
 2349              		.cfi_endproc
 2350              	.LFE1360:
 2352              		.align	1
 2353              		.syntax unified
 2354              		.thumb
 2355              		.thumb_func
 2357              	_GLOBAL__sub_I__ZN8DC_Motor14selected_motorE:
 2358              	.LFB1512:
 2359              		.loc 1 226 1 is_stmt 1 view -0
 2360              		.cfi_startproc
 2361              		@ args = 0, pretend = 0, frame = 0
 2362              		@ frame_needed = 0, uses_anonymous_args = 0
 2363 0b60 08B5     		push	{r3, lr}
 2364              		.cfi_def_cfa_offset 8
 2365              		.cfi_offset 3, -8
 2366              		.cfi_offset 14, -4
 2367              		.loc 1 226 1 is_stmt 0 view .LVU678
 2368 0b62 FFF74DFA 		bl	_Z41__static_initialization_and_destruction_0v
 2369              	.LVL187:
 2370 0b66 08BD     		pop	{r3, pc}
 2371              		.cfi_endproc
 2372              	.LFE1512:
 2374              		.section	.init_array,"aw",%init_array
 2375              		.align	2
 2376 0000 00000000 		.word	_GLOBAL__sub_I__ZN8DC_Motor14selected_motorE(target1)
 2377              		.global	M4
 2378              		.global	M3
 2379              		.global	M2
 2380              		.global	M1
 2381              		.global	lqr_M4
 2382              		.global	pid_loc_M4
 2383              		.global	pid_spd_M4
 2384              		.global	lqr_M3
 2385              		.global	pid_loc_M3
 2386              		.global	pid_spd_M3
 2387              		.global	lqr_M2
 2388              		.global	pid_loc_M2
 2389              		.global	pid_spd_M2
 2390              		.global	lqr_M1
 2391              		.global	pid_loc_M1
 2392              		.global	pid_spd_M1
 2393              		.global	kth7111_M4
 2394              		.global	kth7111_M3
 2395              		.global	kth7111_M2
 2396              		.global	kth7111_M1
 2397              		.global	_ZN8DC_Motor9ADC_ValueE
 2398              		.global	_ZN8DC_Motor14selected_motorE
 2399              		.bss
 2400              		.align	3
 2401              		.set	.LANCHOR0,. + 0
 2404              	kth7111_M1:
 2405 0000 00000000 		.space	20
 2405      00000000 
 2405      00000000 
 2405      00000000 
 2405      00000000 
ARM GAS  /tmp/ccuUIbvr.s 			page 59


 2408              	kth7111_M2:
 2409 0014 00000000 		.space	20
 2409      00000000 
 2409      00000000 
 2409      00000000 
 2409      00000000 
 2412              	kth7111_M3:
 2413 0028 00000000 		.space	20
 2413      00000000 
 2413      00000000 
 2413      00000000 
 2413      00000000 
 2416              	kth7111_M4:
 2417 003c 00000000 		.space	20
 2417      00000000 
 2417      00000000 
 2417      00000000 
 2417      00000000 
 2420              	pid_spd_M1:
 2421 0050 00000000 		.space	36
 2421      00000000 
 2421      00000000 
 2421      00000000 
 2421      00000000 
 2424              	pid_loc_M1:
 2425 0074 00000000 		.space	56
 2425      00000000 
 2425      00000000 
 2425      00000000 
 2425      00000000 
 2428              	lqr_M1:
 2429 00ac 00000000 		.space	20
 2429      00000000 
 2429      00000000 
 2429      00000000 
 2429      00000000 
 2432              	pid_spd_M2:
 2433 00c0 00000000 		.space	36
 2433      00000000 
 2433      00000000 
 2433      00000000 
 2433      00000000 
 2436              	pid_loc_M2:
 2437 00e4 00000000 		.space	56
 2437      00000000 
 2437      00000000 
 2437      00000000 
 2437      00000000 
 2440              	lqr_M2:
 2441 011c 00000000 		.space	20
 2441      00000000 
 2441      00000000 
 2441      00000000 
 2441      00000000 
 2444              	pid_spd_M3:
 2445 0130 00000000 		.space	36
 2445      00000000 
ARM GAS  /tmp/ccuUIbvr.s 			page 60


 2445      00000000 
 2445      00000000 
 2445      00000000 
 2448              	pid_loc_M3:
 2449 0154 00000000 		.space	56
 2449      00000000 
 2449      00000000 
 2449      00000000 
 2449      00000000 
 2452              	lqr_M3:
 2453 018c 00000000 		.space	20
 2453      00000000 
 2453      00000000 
 2453      00000000 
 2453      00000000 
 2456              	pid_spd_M4:
 2457 01a0 00000000 		.space	36
 2457      00000000 
 2457      00000000 
 2457      00000000 
 2457      00000000 
 2460              	pid_loc_M4:
 2461 01c4 00000000 		.space	56
 2461      00000000 
 2461      00000000 
 2461      00000000 
 2461      00000000 
 2464              	lqr_M4:
 2465 01fc 00000000 		.space	20
 2465      00000000 
 2465      00000000 
 2465      00000000 
 2465      00000000 
 2468              	M1:
 2469 0210 00000000 		.space	224
 2469      00000000 
 2469      00000000 
 2469      00000000 
 2469      00000000 
 2472              	M2:
 2473 02f0 00000000 		.space	224
 2473      00000000 
 2473      00000000 
 2473      00000000 
 2473      00000000 
 2476              	M3:
 2477 03d0 00000000 		.space	224
 2477      00000000 
 2477      00000000 
 2477      00000000 
 2477      00000000 
 2480              	M4:
 2481 04b0 00000000 		.space	224
 2481      00000000 
 2481      00000000 
 2481      00000000 
 2481      00000000 
ARM GAS  /tmp/ccuUIbvr.s 			page 61


 2484              	_ZZN8DC_Motor28Update_Speed_Angle_LPFAndPLLEvE9fudu_test:
 2485 0590 00000000 		.space	4
 2488              	_ZZN8DC_Motor28Update_Speed_Angle_LPFAndPLLEvE18theta_m_offic_temp:
 2489 0594 00000000 		.space	4
 2492              	_ZN8DC_Motor9ADC_ValueE:
 2493 0598 00000000 		.space	16
 2493      00000000 
 2493      00000000 
 2493      00000000 
 2496              	_ZN8DC_Motor14selected_motorE:
 2497 05a8 00       		.space	1
 2498              		.text
 2499              	.Letext0:
 2500              		.file 8 "/opt/arm-gnu-toolchain-14.2/arm-none-eabi/include/machine/_default_types.h"
 2501              		.file 9 "/opt/arm-gnu-toolchain-14.2/arm-none-eabi/include/sys/_stdint.h"
 2502              		.file 10 "/opt/arm-gnu-toolchain-14.2/arm-none-eabi/include/c++/14.2.1/cmath"
 2503              		.file 11 "/opt/arm-gnu-toolchain-14.2/arm-none-eabi/include/c++/14.2.1/type_traits"
 2504              		.file 12 "/opt/arm-gnu-toolchain-14.2/arm-none-eabi/include/c++/14.2.1/debug/debug.h"
 2505              		.file 13 "/opt/arm-gnu-toolchain-14.2/arm-none-eabi/include/c++/14.2.1/bits/std_abs.h"
 2506              		.file 14 "/opt/arm-gnu-toolchain-14.2/arm-none-eabi/include/c++/14.2.1/bits/predefined_ops.h"
 2507              		.file 15 "/opt/arm-gnu-toolchain-14.2/arm-none-eabi/include/math.h"
 2508              		.file 16 "/opt/arm-gnu-toolchain-14.2/arm-none-eabi/include/c++/14.2.1/arm-none-eabi/thumb/v7e-m+f
 2509              		.file 17 "/opt/arm-gnu-toolchain-14.2/arm-none-eabi/include/c++/14.2.1/math.h"
 2510              		.file 18 "Lib/compute/ex_math.hpp"
 2511              		.file 19 "Drivers/CMSIS/Device/ST/STM32G4xx/Include/stm32g474xx.h"
 2512              		.file 20 "Drivers/STM32G4xx_HAL_Driver/Inc/stm32g4xx_hal_def.h"
 2513              		.file 21 "Drivers/STM32G4xx_HAL_Driver/Inc/stm32g4xx_hal_dma.h"
 2514              		.file 22 "Drivers/STM32G4xx_HAL_Driver/Inc/stm32g4xx_hal_spi.h"
 2515              		.file 23 "Drivers/STM32G4xx_HAL_Driver/Inc/stm32g4xx_hal_tim.h"
 2516              		.file 24 "My_Top/System/bsp.hpp"
 2517              		.file 25 "Core/Inc/tim.h"
 2518              		.file 26 "Middlewares/Third_Party/FreeRTOS/Source/portable/GCC/ARM_CM4F/portmacro.h"
 2519              		.file 27 "Drivers/STM32G4xx_HAL_Driver/Inc/stm32g4xx_hal_tim_ex.h"
 2520              		.file 28 "Middlewares/Third_Party/FreeRTOS/Source/include/task.h"
 2521              		.file 29 "Drivers/STM32G4xx_HAL_Driver/Inc/stm32g4xx_hal_rcc.h"
ARM GAS  /tmp/ccuUIbvr.s 			page 62


DEFINED SYMBOLS
                            *ABS*:00000000 DcMotor_ClosedLoop.cpp
     /tmp/ccuUIbvr.s:20     .text:00000000 $t
     /tmp/ccuUIbvr.s:25     .text:00000000 _Z41__static_initialization_and_destruction_0v
     /tmp/ccuUIbvr.s:715    .text:000003a0 $d
     /tmp/ccuUIbvr.s:733    .text:000003e0 $t
     /tmp/ccuUIbvr.s:773    .text._ZN3PID6updateEf:00000000 $t
     /tmp/ccuUIbvr.s:779    .text._ZN3PID6updateEf:00000000 _ZN3PID6updateEf
     /tmp/ccuUIbvr.s:893    .text._ZN13PID_Increment6updateEf:00000000 $t
     /tmp/ccuUIbvr.s:899    .text._ZN13PID_Increment6updateEf:00000000 _ZN13PID_Increment6updateEf
     /tmp/ccuUIbvr.s:998    .text:0000041c _ZN8DC_Motor9test_lajiEv
     /tmp/ccuUIbvr.s:1054   .text:00000450 $d
     /tmp/ccuUIbvr.s:1058   .text:00000454 $t
     /tmp/ccuUIbvr.s:1064   .text:00000454 _ZN8DC_Motor8Motor_ENEb
     /tmp/ccuUIbvr.s:1182   .text:000004cc _ZN8DC_Motor19Set_Motor_FrequencyEv
     /tmp/ccuUIbvr.s:1356   .text:000005be $d
     /tmp/ccuUIbvr.s:1441   .text:00000678 $d
     /tmp/ccuUIbvr.s:1550   .text:0000072c $d
     /tmp/ccuUIbvr.s:1554   .text:00000730 $t
     /tmp/ccuUIbvr.s:1560   .text:00000730 _ZN8DC_Motor18Set_Motor_Glo_DutyEv
     /tmp/ccuUIbvr.s:1679   .text:000007d0 $d
     /tmp/ccuUIbvr.s:1683   .text:000007d4 $t
     /tmp/ccuUIbvr.s:1689   .text:000007d4 _ZN8DC_Motor16My_DC_Motor_InitEv
     /tmp/ccuUIbvr.s:1794   .text:00000850 $d
     /tmp/ccuUIbvr.s:1798   .text:00000854 $t
     /tmp/ccuUIbvr.s:1804   .text:00000854 _ZN8DC_Motor28Update_Speed_Angle_LPFAndPLLEv
     /tmp/ccuUIbvr.s:2051   .text:000009b8 $d
     /tmp/ccuUIbvr.s:2063   .text:000009dc $t
     /tmp/ccuUIbvr.s:2069   .text:000009dc _ZN8DC_Motor10Speed_LoopEv
     /tmp/ccuUIbvr.s:2122   .text:00000a06 _ZN8DC_Motor13Location_LoopEv
     /tmp/ccuUIbvr.s:2188   .text:00000a50 $d
     /tmp/ccuUIbvr.s:2193   .text:00000a58 $t
     /tmp/ccuUIbvr.s:2199   .text:00000a58 _ZN8DC_Motor15Thermistor_TempEv
     /tmp/ccuUIbvr.s:2339   .text:00000b38 $d
     /tmp/ccuUIbvr.s:2352   .text:00000b60 $t
     /tmp/ccuUIbvr.s:2357   .text:00000b60 _GLOBAL__sub_I__ZN8DC_Motor14selected_motorE
     /tmp/ccuUIbvr.s:2375   .init_array:00000000 $d
     /tmp/ccuUIbvr.s:2480   .bss:000004b0 M4
     /tmp/ccuUIbvr.s:2476   .bss:000003d0 M3
     /tmp/ccuUIbvr.s:2472   .bss:000002f0 M2
     /tmp/ccuUIbvr.s:2468   .bss:00000210 M1
     /tmp/ccuUIbvr.s:2464   .bss:000001fc lqr_M4
     /tmp/ccuUIbvr.s:2460   .bss:000001c4 pid_loc_M4
     /tmp/ccuUIbvr.s:2456   .bss:000001a0 pid_spd_M4
     /tmp/ccuUIbvr.s:2452   .bss:0000018c lqr_M3
     /tmp/ccuUIbvr.s:2448   .bss:00000154 pid_loc_M3
     /tmp/ccuUIbvr.s:2444   .bss:00000130 pid_spd_M3
     /tmp/ccuUIbvr.s:2440   .bss:0000011c lqr_M2
     /tmp/ccuUIbvr.s:2436   .bss:000000e4 pid_loc_M2
     /tmp/ccuUIbvr.s:2432   .bss:000000c0 pid_spd_M2
     /tmp/ccuUIbvr.s:2428   .bss:000000ac lqr_M1
     /tmp/ccuUIbvr.s:2424   .bss:00000074 pid_loc_M1
     /tmp/ccuUIbvr.s:2420   .bss:00000050 pid_spd_M1
     /tmp/ccuUIbvr.s:2416   .bss:0000003c kth7111_M4
     /tmp/ccuUIbvr.s:2412   .bss:00000028 kth7111_M3
     /tmp/ccuUIbvr.s:2408   .bss:00000014 kth7111_M2
     /tmp/ccuUIbvr.s:2404   .bss:00000000 kth7111_M1
ARM GAS  /tmp/ccuUIbvr.s 			page 63


     /tmp/ccuUIbvr.s:2492   .bss:00000598 _ZN8DC_Motor9ADC_ValueE
     /tmp/ccuUIbvr.s:2496   .bss:000005a8 _ZN8DC_Motor14selected_motorE
     /tmp/ccuUIbvr.s:2400   .bss:00000000 $d
     /tmp/ccuUIbvr.s:2484   .bss:00000590 _ZZN8DC_Motor28Update_Speed_Angle_LPFAndPLLEvE9fudu_test
     /tmp/ccuUIbvr.s:2488   .bss:00000594 _ZZN8DC_Motor28Update_Speed_Angle_LPFAndPLLEvE18theta_m_offic_temp
     /tmp/ccuUIbvr.s:1373   .text:000005cf $d
     /tmp/ccuUIbvr.s:1373   .text:000005d0 $t
     /tmp/ccuUIbvr.s:1458   .text:00000689 $d
     /tmp/ccuUIbvr.s:1458   .text:0000068a $t

UNDEFINED SYMBOLS
M2_PWM
M3_PWM
M4_PWM
M1_PWM
HAL_TIM_PWM_Start
HAL_TIMEx_PWMN_Start
htim1
HAL_TIM_PWM_Stop
HAL_TIMEx_PWMN_Stop
HAL_RCC_GetSysClockFreq
_ZN13LowpassFilter4initEf
_ZN9AvgFilter4initEh
vTaskDelay
_ZN7KTH711112KTH7111_InitEb
_ZN7KTH711121KTH7111_Send_JIAO_CMDEv
_ZN7KTH711118Get_KTH7111_RadianEv
__aeabi_f2d
__aeabi_dadd
__aeabi_d2f
fmodf
__aeabi_dsub
_ZN13LowpassFilter6filterEf
_ZN9AvgFilter6filterEf
__aeabi_dmul
_Z11foc_pll_runffPfS_P13PLL_Parameter
__aeabi_ddiv
log
