ARM GAS  /tmp/cc5lp4CL.s 			page 1


   1              		.cpu cortex-m4
   2              		.arch armv7e-m
   3              		.fpu fpv4-sp-d16
   4              		.eabi_attribute 27, 1
   5              		.eabi_attribute 28, 1
   6              		.eabi_attribute 20, 1
   7              		.eabi_attribute 21, 1
   8              		.eabi_attribute 23, 3
   9              		.eabi_attribute 24, 1
  10              		.eabi_attribute 25, 1
  11              		.eabi_attribute 26, 1
  12              		.eabi_attribute 30, 1
  13              		.eabi_attribute 34, 1
  14              		.eabi_attribute 18, 4
  15              		.file	"DcMotor_ClosedLoop.cpp"
  16              		.text
  17              	.Ltext0:
  18              		.cfi_sections	.debug_frame
  19              		.file 1 "My_Top/Motor_Control/DcMotor_ClosedLoop.cpp"
  20              		.section	.text._ZN13PID_Increment6updateEf,"axG",%progbits,_ZN13PID_Increment6updateEf,comdat
  21              		.align	1
  22              		.weak	_ZN13PID_Increment6updateEf
  23              		.syntax unified
  24              		.thumb
  25              		.thumb_func
  27              	_ZN13PID_Increment6updateEf:
  28              	.LVL0:
  29              	.LFB11:
  30              		.file 2 "Lib/compute/pid/pid_Increment.hpp"
   1:Lib/compute/pid/pid_Increment.hpp **** #pragma once
   2:Lib/compute/pid/pid_Increment.hpp **** 
   3:Lib/compute/pid/pid_Increment.hpp **** // ============================================================
   4:Lib/compute/pid/pid_Increment.hpp **** // Õó×ķćÅÕ╝Å PID µÄ¦ÕłČÕÖ©
   5:Lib/compute/pid/pid_Increment.hpp **** //
   6:Lib/compute/pid/pid_Increment.hpp **** // Õģ¼Õ╝Å:
   7:Lib/compute/pid/pid_Increment.hpp **** //   ╬öu(k) = Kp * (e(k) - e(k-1))
   8:Lib/compute/pid/pid_Increment.hpp **** //         + Ki * T * e(k)
   9:Lib/compute/pid/pid_Increment.hpp **** //         + (Kd / T) * (e(k) - 2*e(k-1) + e(k-2))
  10:Lib/compute/pid/pid_Increment.hpp **** //
  11:Lib/compute/pid/pid_Increment.hpp **** //   u(k) = u(k-1) + ╬öu(k)
  12:Lib/compute/pid/pid_Increment.hpp **** //
  13:Lib/compute/pid/pid_Increment.hpp **** // ÕģČõĖŁ T = dt’╝łķććµĀĘÕæ©µ£¤’╝ē
  14:Lib/compute/pid/pid_Increment.hpp **** // ============================================================
  15:Lib/compute/pid/pid_Increment.hpp **** 
  16:Lib/compute/pid/pid_Increment.hpp **** 
  17:Lib/compute/pid/pid_Increment.hpp **** class PID_Increment
  18:Lib/compute/pid/pid_Increment.hpp **** {
  19:Lib/compute/pid/pid_Increment.hpp **** public:
  20:Lib/compute/pid/pid_Increment.hpp ****     float _kp, _ki, _kd;
  21:Lib/compute/pid/pid_Increment.hpp ****     PID_Increment(void) //Õ«Üõ╣ēµŚČµŚĀÕÅéńÜäµ×äķĆĀÕćĮµĢ░µĀ╝Õ╝Å
  22:Lib/compute/pid/pid_Increment.hpp ****     {
  23:Lib/compute/pid/pid_Increment.hpp ****         _kp = _ki = _kd = _dt = 0.0f;
  24:Lib/compute/pid/pid_Increment.hpp ****         _max = _min = 0.0f;
  25:Lib/compute/pid/pid_Increment.hpp ****         _e_prev = _e_prev2 = 0.0f;
  26:Lib/compute/pid/pid_Increment.hpp ****         _delta_u = 0.0f;
  27:Lib/compute/pid/pid_Increment.hpp ****     }
  28:Lib/compute/pid/pid_Increment.hpp **** 
ARM GAS  /tmp/cc5lp4CL.s 			page 2


  29:Lib/compute/pid/pid_Increment.hpp ****     PID_Increment(float kp, float ki, float kd, float dt, float max, float min) //Õ«Üõ╣ēµŚČÕĖ”ÕÅéńÜ
  30:Lib/compute/pid/pid_Increment.hpp ****     {
  31:Lib/compute/pid/pid_Increment.hpp ****         _kp = kp;
  32:Lib/compute/pid/pid_Increment.hpp ****         _ki = ki;
  33:Lib/compute/pid/pid_Increment.hpp ****         _kd = kd;
  34:Lib/compute/pid/pid_Increment.hpp ****         _dt = dt;
  35:Lib/compute/pid/pid_Increment.hpp ****         _max = max;
  36:Lib/compute/pid/pid_Increment.hpp ****         _min = min;
  37:Lib/compute/pid/pid_Increment.hpp ****         _e_prev = _e_prev2 = 0.0f;
  38:Lib/compute/pid/pid_Increment.hpp ****         _delta_u = 0.0f;
  39:Lib/compute/pid/pid_Increment.hpp ****     }
  40:Lib/compute/pid/pid_Increment.hpp **** 
  41:Lib/compute/pid/pid_Increment.hpp ****     // ============================================================
  42:Lib/compute/pid/pid_Increment.hpp ****     // µĀĖÕ┐āµø┤µ¢░ÕćĮµĢ░
  43:Lib/compute/pid/pid_Increment.hpp ****     // @error: ÕĮōÕēŹĶ»»ÕĘ« e(k)
  44:Lib/compute/pid/pid_Increment.hpp ****     // @return: ķÖÉÕ╣ģÕÉÄńÜäĶŠōÕć║ÕĆ╝ u(k)
  45:Lib/compute/pid/pid_Increment.hpp ****     // ============================================================
  46:Lib/compute/pid/pid_Increment.hpp ****     float update(float error) 
  31              		.loc 2 46 11 view -0
  32              		.cfi_startproc
  33              		@ args = 0, pretend = 0, frame = 0
  34              		@ frame_needed = 0, uses_anonymous_args = 0
  35              		@ link register save eliminated.
  47:Lib/compute/pid/pid_Increment.hpp ****     {                         
  48:Lib/compute/pid/pid_Increment.hpp ****         
  49:Lib/compute/pid/pid_Increment.hpp ****         // ╬öu = Kp * (e - e_prev) + Ki * T * e + (Kd / T) * (e - 2*e_prev + e_prev2)
  50:Lib/compute/pid/pid_Increment.hpp ****         float p_term = _kp * (error - _e_prev);
  36              		.loc 2 50 9 view .LVU1
  37              		.loc 2 50 24 is_stmt 0 view .LVU2
  38 0000 D0ED007A 		vldr.32	s15, [r0]
  39              		.loc 2 50 39 view .LVU3
  40 0004 90ED066A 		vldr.32	s12, [r0, #24]
  41              		.loc 2 50 37 view .LVU4
  42 0008 30EE467A 		vsub.f32	s14, s0, s12
  43              		.loc 2 50 15 view .LVU5
  44 000c 67EE877A 		vmul.f32	s15, s15, s14
  45              	.LVL1:
  51:Lib/compute/pid/pid_Increment.hpp ****         float i_term = _ki * _dt * error;
  46              		.loc 2 51 9 is_stmt 1 view .LVU6
  47              		.loc 2 51 24 is_stmt 0 view .LVU7
  48 0010 90ED017A 		vldr.32	s14, [r0, #4]
  49              		.loc 2 51 30 view .LVU8
  50 0014 D0ED036A 		vldr.32	s13, [r0, #12]
  51              		.loc 2 51 28 view .LVU9
  52 0018 27EE267A 		vmul.f32	s14, s14, s13
  53              		.loc 2 51 15 view .LVU10
  54 001c 27EE007A 		vmul.f32	s14, s14, s0
  55              	.LVL2:
  52:Lib/compute/pid/pid_Increment.hpp ****         float d_term = (_kd / _dt) * (error - 2.0f * _e_prev + _e_prev2);
  56              		.loc 2 52 9 is_stmt 1 view .LVU11
  57              		.loc 2 52 25 is_stmt 0 view .LVU12
  58 0020 90ED025A 		vldr.32	s10, [r0, #8]
  59              		.loc 2 52 29 view .LVU13
  60 0024 C5EE265A 		vdiv.f32	s11, s10, s13
  61              		.loc 2 52 52 view .LVU14
  62 0028 76EE066A 		vadd.f32	s13, s12, s12
  63              		.loc 2 52 45 view .LVU15
ARM GAS  /tmp/cc5lp4CL.s 			page 3


  64 002c 70EE666A 		vsub.f32	s13, s0, s13
  65              		.loc 2 52 64 view .LVU16
  66 0030 90ED075A 		vldr.32	s10, [r0, #28]
  67              		.loc 2 52 62 view .LVU17
  68 0034 76EE856A 		vadd.f32	s13, s13, s10
  69              		.loc 2 52 15 view .LVU18
  70 0038 65EEA66A 		vmul.f32	s13, s11, s13
  71              	.LVL3:
  53:Lib/compute/pid/pid_Increment.hpp **** 
  54:Lib/compute/pid/pid_Increment.hpp ****         _delta_u = p_term + i_term + d_term; // Ķ«Īń«ŚÕó×ķćÅ
  72              		.loc 2 54 9 is_stmt 1 view .LVU19
  73              		.loc 2 54 27 is_stmt 0 view .LVU20
  74 003c 77EE877A 		vadd.f32	s15, s15, s14
  75              	.LVL4:
  76              		.loc 2 54 36 view .LVU21
  77 0040 77EEA67A 		vadd.f32	s15, s15, s13
  78              		.loc 2 54 18 view .LVU22
  79 0044 C0ED087A 		vstr.32	s15, [r0, #32]
  55:Lib/compute/pid/pid_Increment.hpp **** 
  56:Lib/compute/pid/pid_Increment.hpp ****         // ķÖÉÕ╣ģÕó×ķćÅĶŠōÕć║
  57:Lib/compute/pid/pid_Increment.hpp ****         if (_delta_u > _max)
  80              		.loc 2 57 9 is_stmt 1 view .LVU23
  81              		.loc 2 57 24 is_stmt 0 view .LVU24
  82 0048 90ED047A 		vldr.32	s14, [r0, #16]
  83              	.LVL5:
  84              		.loc 2 57 9 view .LVU25
  85 004c F4EEC77A 		vcmpe.f32	s15, s14
  86 0050 F1EE10FA 		vmrs	APSR_nzcv, FPSCR
  87 0054 08DD     		ble	.L8
  58:Lib/compute/pid/pid_Increment.hpp ****             _delta_u = _max;
  88              		.loc 2 58 13 is_stmt 1 view .LVU26
  89              		.loc 2 58 22 is_stmt 0 view .LVU27
  90 0056 80ED087A 		vstr.32	s14, [r0, #32]
  91              	.L4:
  59:Lib/compute/pid/pid_Increment.hpp ****         else if (_delta_u < _min)
  60:Lib/compute/pid/pid_Increment.hpp ****             _delta_u = _min;
  61:Lib/compute/pid/pid_Increment.hpp **** 
  62:Lib/compute/pid/pid_Increment.hpp ****         // µø┤µ¢░Ķ»»ÕĘ«ÕÄåÕÅ▓
  63:Lib/compute/pid/pid_Increment.hpp ****         _e_prev2 = _e_prev; //µø┤µ¢░õĖŖõĖŖµ¼ĪĶ»»ÕĘ«
  92              		.loc 2 63 9 is_stmt 1 view .LVU28
  93              		.loc 2 63 18 is_stmt 0 view .LVU29
  94 005a 80ED076A 		vstr.32	s12, [r0, #28]
  64:Lib/compute/pid/pid_Increment.hpp ****         _e_prev  = error; //µø┤µ¢░õĖŖõĖĆµ¼ĪĶ»»ÕĘ«
  95              		.loc 2 64 9 is_stmt 1 view .LVU30
  96              		.loc 2 64 18 is_stmt 0 view .LVU31
  97 005e 80ED060A 		vstr.32	s0, [r0, #24]
  65:Lib/compute/pid/pid_Increment.hpp **** 
  66:Lib/compute/pid/pid_Increment.hpp ****         return _delta_u; // Ķ┐öÕø×Õó×ķćÅĶŠōÕć║
  98              		.loc 2 66 9 is_stmt 1 view .LVU32
  67:Lib/compute/pid/pid_Increment.hpp ****     }
  99              		.loc 2 67 5 is_stmt 0 view .LVU33
 100 0062 90ED080A 		vldr.32	s0, [r0, #32]
 101              	.LVL6:
 102              		.loc 2 67 5 view .LVU34
 103 0066 7047     		bx	lr
 104              	.LVL7:
 105              	.L8:
ARM GAS  /tmp/cc5lp4CL.s 			page 4


  59:Lib/compute/pid/pid_Increment.hpp ****             _delta_u = _min;
 106              		.loc 2 59 14 is_stmt 1 view .LVU35
  59:Lib/compute/pid/pid_Increment.hpp ****             _delta_u = _min;
 107              		.loc 2 59 29 is_stmt 0 view .LVU36
 108 0068 90ED057A 		vldr.32	s14, [r0, #20]
  59:Lib/compute/pid/pid_Increment.hpp ****             _delta_u = _min;
 109              		.loc 2 59 14 view .LVU37
 110 006c F4EEC77A 		vcmpe.f32	s15, s14
 111 0070 F1EE10FA 		vmrs	APSR_nzcv, FPSCR
 112 0074 F1D5     		bpl	.L4
  60:Lib/compute/pid/pid_Increment.hpp **** 
 113              		.loc 2 60 13 is_stmt 1 view .LVU38
  60:Lib/compute/pid/pid_Increment.hpp **** 
 114              		.loc 2 60 22 is_stmt 0 view .LVU39
 115 0076 80ED087A 		vstr.32	s14, [r0, #32]
 116 007a EEE7     		b	.L4
 117              		.cfi_endproc
 118              	.LFE11:
 120              		.section	.text._ZN8DC_MotorC2EPK15MotorPWM_ConfigP7KTH7111P13PID_IncrementP3PIDP3LQR,"axG",%progbi
 121              		.align	1
 122              		.weak	_ZN8DC_MotorC2EPK15MotorPWM_ConfigP7KTH7111P13PID_IncrementP3PIDP3LQR
 123              		.syntax unified
 124              		.thumb
 125              		.thumb_func
 127              	_ZN8DC_MotorC2EPK15MotorPWM_ConfigP7KTH7111P13PID_IncrementP3PIDP3LQR:
 128              	.LVL8:
 129              	.LFB1350:
 130              		.file 3 "My_Top/Motor_Control/DcMotor_ClosedLoop.hpp"
   1:My_Top/Motor_Control/DcMotor_ClosedLoop.hpp **** #pragma once
   2:My_Top/Motor_Control/DcMotor_ClosedLoop.hpp **** #include "pid.hpp"
   3:My_Top/Motor_Control/DcMotor_ClosedLoop.hpp **** #include "pid_Increment.hpp"
   4:My_Top/Motor_Control/DcMotor_ClosedLoop.hpp **** #include "pll.hpp"
   5:My_Top/Motor_Control/DcMotor_ClosedLoop.hpp **** #include "LQR.hpp"
   6:My_Top/Motor_Control/DcMotor_ClosedLoop.hpp **** #include "kth_read.hpp"
   7:My_Top/Motor_Control/DcMotor_ClosedLoop.hpp **** #include "ex_math.hpp"
   8:My_Top/Motor_Control/DcMotor_ClosedLoop.hpp **** #include "bsp.hpp"
   9:My_Top/Motor_Control/DcMotor_ClosedLoop.hpp **** #include "XBLW24C64.hpp"
  10:My_Top/Motor_Control/DcMotor_ClosedLoop.hpp **** #include "my_dronecan.hpp"
  11:My_Top/Motor_Control/DcMotor_ClosedLoop.hpp **** 
  12:My_Top/Motor_Control/DcMotor_ClosedLoop.hpp **** #define max_chl_num 8 //µ£ĆÕż¦ķĆÜķüōµĢ░
  13:My_Top/Motor_Control/DcMotor_ClosedLoop.hpp **** 
  14:My_Top/Motor_Control/DcMotor_ClosedLoop.hpp **** enum Work_Mode
  15:My_Top/Motor_Control/DcMotor_ClosedLoop.hpp **** {
  16:My_Top/Motor_Control/DcMotor_ClosedLoop.hpp ****     open_loop = 0,//Õ╝ĆńÄ»µ©ĪÕ╝Å
  17:My_Top/Motor_Control/DcMotor_ClosedLoop.hpp ****     speed = 1,//ķĆ¤Õ║”µ©ĪÕ╝Å
  18:My_Top/Motor_Control/DcMotor_ClosedLoop.hpp ****     position = 2,//õĮŹńĮ«µ©ĪÕ╝Å
  19:My_Top/Motor_Control/DcMotor_ClosedLoop.hpp **** 
  20:My_Top/Motor_Control/DcMotor_ClosedLoop.hpp ****     EncoderCalibration = 99,//ń╝¢ńĀüÕÖ©µĀĪÕćåµ©ĪÕ╝Å
  21:My_Top/Motor_Control/DcMotor_ClosedLoop.hpp ****     null_mode = 100,        //µŚĀµ©ĪÕ╝Å
  22:My_Top/Motor_Control/DcMotor_ClosedLoop.hpp **** };
  23:My_Top/Motor_Control/DcMotor_ClosedLoop.hpp **** 
  24:My_Top/Motor_Control/DcMotor_ClosedLoop.hpp **** 
  25:My_Top/Motor_Control/DcMotor_ClosedLoop.hpp **** class DC_Motor
  26:My_Top/Motor_Control/DcMotor_ClosedLoop.hpp **** {
  27:My_Top/Motor_Control/DcMotor_ClosedLoop.hpp **** public:
  28:My_Top/Motor_Control/DcMotor_ClosedLoop.hpp ****     DC_Motor(const MotorPWM_Config *motor_config, KTH7111 *encoder,
 131              		.loc 3 28 5 is_stmt 1 view -0
ARM GAS  /tmp/cc5lp4CL.s 			page 5


 132              		.cfi_startproc
 133              		@ args = 8, pretend = 0, frame = 0
 134              		@ frame_needed = 0, uses_anonymous_args = 0
 135              		.loc 3 28 5 is_stmt 0 view .LVU41
 136 0000 30B5     		push	{r4, r5, lr}
 137              		.cfi_def_cfa_offset 12
 138              		.cfi_offset 4, -12
 139              		.cfi_offset 5, -8
 140              		.cfi_offset 14, -4
 141              	.LBB67:
  29:My_Top/Motor_Control/DcMotor_ClosedLoop.hpp ****             PID_Increment *pid_inc_param ,PID *pid,LQR *lqr)
  30:My_Top/Motor_Control/DcMotor_ClosedLoop.hpp ****             : _motor_config(motor_config), _encoder(encoder), 
  31:My_Top/Motor_Control/DcMotor_ClosedLoop.hpp ****             pid_speed_incparam(pid_inc_param) ,pid_location(pid),_lqr(lqr)
 142              		.loc 3 31 74 view .LVU42
 143 0002 0024     		movs	r4, #0
 144 0004 0470     		strb	r4, [r0]
 145 0006 0125     		movs	r5, #1
 146 0008 4570     		strb	r5, [r0, #1]
 147 000a 8470     		strb	r4, [r0, #2]
 148 000c DFF880E0 		ldr	lr, .L11+16
 149 0010 C0F804E0 		str	lr, [r0, #4]	@ float
 150 0014 4FF0000E 		mov	lr, #0
 151 0018 C0F808E0 		str	lr, [r0, #8]	@ float
 152 001c C0F80CE0 		str	lr, [r0, #12]	@ float
 153 0020 C0F810E0 		str	lr, [r0, #16]	@ float
 154 0024 C0F82CE0 		str	lr, [r0, #44]	@ float
 155 0028 C0F830E0 		str	lr, [r0, #48]	@ float
 156 002c C0F834E0 		str	lr, [r0, #52]	@ float
  30:My_Top/Motor_Control/DcMotor_ClosedLoop.hpp ****             pid_speed_incparam(pid_inc_param) ,pid_location(pid),_lqr(lqr)
 157              		.loc 3 30 44 view .LVU43
 158 0030 0264     		str	r2, [r0, #64]
 159              		.loc 3 31 13 view .LVU44
 160 0032 4364     		str	r3, [r0, #68]
 161              		.loc 3 31 48 view .LVU45
 162 0034 039B     		ldr	r3, [sp, #12]
 163              	.LVL9:
 164              		.loc 3 31 48 view .LVU46
 165 0036 8364     		str	r3, [r0, #72]
 166              		.loc 3 31 66 view .LVU47
 167 0038 049B     		ldr	r3, [sp, #16]
 168 003a C364     		str	r3, [r0, #76]
 169              		.loc 3 31 74 view .LVU48
 170 003c FF23     		movs	r3, #255
 171 003e A0F85430 		strh	r3, [r0, #84]	@ movhi
 172 0042 114B     		ldr	r3, .L11+8
 173 0044 8365     		str	r3, [r0, #88]	@ float
 174 0046 C365     		str	r3, [r0, #92]	@ float
 175 0048 80F86040 		strb	r4, [r0, #96]
 176 004c 80F86140 		strb	r4, [r0, #97]
 177 0050 A0F86240 		strh	r4, [r0, #98]	@ movhi
 178 0054 C0F864E0 		str	lr, [r0, #100]	@ float
  30:My_Top/Motor_Control/DcMotor_ClosedLoop.hpp ****             pid_speed_incparam(pid_inc_param) ,pid_location(pid),_lqr(lqr)
 179              		.loc 3 30 15 view .LVU49
 180 0058 C0F8B410 		str	r1, [r0, #180]
 181              		.loc 3 31 74 view .LVU50
 182 005c 80F8B850 		strb	r5, [r0, #184]
 183 0060 C0F8D0E0 		str	lr, [r0, #208]	@ float
ARM GAS  /tmp/cc5lp4CL.s 			page 6


 184 0064 C0F8D4E0 		str	lr, [r0, #212]	@ float
 185              	.LVL10:
 186              	.LBB68:
 187              	.LBI68:
 188              		.file 4 "Lib/compute/pid/pll.hpp"
   1:Lib/compute/pid/pll.hpp **** #pragma once
   2:Lib/compute/pid/pll.hpp **** #include "ex_math.hpp"
   3:Lib/compute/pid/pll.hpp **** 
   4:Lib/compute/pid/pll.hpp **** #include "bsp.hpp"
   5:Lib/compute/pid/pll.hpp **** 
   6:Lib/compute/pid/pll.hpp **** 
   7:Lib/compute/pid/pll.hpp **** #define Motor_RPM (12) //ńöĄµ£║µ£ĆÕż¦ĶĮ¼ķĆ¤ Õ«×µĄŗńöĄµ£║µ£Ćķ½ś0.2Õ£ł/s =12rpm
   8:Lib/compute/pid/pll.hpp **** // #define Motor_PolesNub (7) //µ×üÕ»╣µĢ░ ???
   9:Lib/compute/pid/pll.hpp **** // #define Motor_Fe (Motor_RPM*Motor_PolesNub/60) //
  10:Lib/compute/pid/pll.hpp **** // #define Wn_min  (M_2PI*Motor_Fe/10) //µ£ĆÕ░ÅĶć¬ńäČķóæńÄć = 2pi*Fe/10 = 219.911482 
  11:Lib/compute/pid/pll.hpp **** 
  12:Lib/compute/pid/pll.hpp **** 
  13:Lib/compute/pid/pll.hpp **** #define Stepper_Max_RPS (Motor_RPM / 60.0f) //ńöĄµ£║µ£ĆÕż¦ĶĮ¼ķĆ¤ µ»Åń¦ÆĶĮ¼ńÜäÕ£łµĢ░
  14:Lib/compute/pid/pll.hpp **** #define Wn_min  (M_2PI * Stepper_Max_RPS / 10) // µ£ĆÕ░ÅÕĖ”Õ«Į 3.30
  15:Lib/compute/pid/pll.hpp **** 
  16:Lib/compute/pid/pll.hpp **** #define Wn_max  (M_2PI*DC_VELOCITY_UP_FREQ_HZ/10) //µ£ĆÕż¦Ķć¬ńäČķóæńÄć = 2pi*ķććµĀĘÕæ©µ£¤/10   2513
  17:Lib/compute/pid/pll.hpp **** #define Ts_min  (3.0/(PLL_ZETA*Wn_max)*1000) //µ£ĆÕ░ÅµöČµĢøµŚČķŚ┤ Ts = 3/(╬Č*Wn_max) = 1.688ms 
  18:Lib/compute/pid/pll.hpp **** #define Ts_max  (3.0/(PLL_ZETA*Wn_min)*1000) //µ£ĆÕż¦µöČµĢøµŚČķŚ┤ Ts = 3/(╬Č*Wn_min) =19.2954ms /12
  19:Lib/compute/pid/pll.hpp **** 
  20:Lib/compute/pid/pll.hpp **** #define PLL_FREQ_Dt   (1.0/DC_VELOCITY_UP_FREQ_HZ)//ķććµĀĘÕæ©µ£¤
  21:Lib/compute/pid/pll.hpp **** #define PLL_ts_temp   (100) //µöČµĢøµŚČķŚ┤ ÕŹĢõĮŹms 
  22:Lib/compute/pid/pll.hpp **** #define PLL_ts  constraint_value(PLL_ts_temp, Ts_min, Ts_max) //ń║”µØ¤µöČµĢøµŚČķŚ┤Õ£©µ£ĆÕ░ÅÕÆīµ£ĆÕż
  23:Lib/compute/pid/pll.hpp **** 
  24:Lib/compute/pid/pll.hpp **** // #define PLL_ts 1 
  25:Lib/compute/pid/pll.hpp **** #define PLL_ZETA (0.707) //ķś╗Õ░╝µ»ö
  26:Lib/compute/pid/pll.hpp **** #define PLL_Wn   (3.0/(PLL_ZETA*PLL_ts*0.001)) //223.33hzĶć¬ńäČķóæńÄć Ķ«Īń«ŚÕģ¼Õ╝Å wn = 3/(╬Č*ts)  
  27:Lib/compute/pid/pll.hpp **** #define FOC_PLL_KP    (2*PLL_ZETA*PLL_Wn) //PIÕÅéµĢ░Ķ«Īń«ŚÕģ¼Õ╝Å kp = 2╬ČŽēn = 310.9548 
  28:Lib/compute/pid/pll.hpp **** #define FOC_PLL_KI    (PLL_Wn*PLL_Wn) //PIÕÅéµĢ░Ķ«Īń«ŚÕģ¼Õ╝Å ki = Žēn┬▓ = 48361.06 
  29:Lib/compute/pid/pll.hpp **** 
  30:Lib/compute/pid/pll.hpp **** 
  31:Lib/compute/pid/pll.hpp **** 
  32:Lib/compute/pid/pll.hpp **** struct PLL_Parameter
  33:Lib/compute/pid/pll.hpp **** {
  34:Lib/compute/pid/pll.hpp ****     PLL_Parameter(double kp, double ki) : foc_pll_kp(kp), foc_pll_ki(ki) {}
 189              		.loc 4 34 5 is_stmt 1 view .LVU51
 190              	.LBB69:
 191              	.LBB70:
 192              		.loc 4 34 43 is_stmt 0 view .LVU52
 193 0068 0022     		movs	r2, #0
 194              	.LVL11:
 195              		.loc 4 34 43 view .LVU53
 196 006a 084B     		ldr	r3, .L11+12
 197 006c C0E93623 		strd	r2, [r0, #216]
 198              		.loc 4 34 59 view .LVU54
 199 0070 03A3     		adr	r3, .L11
 200 0072 D3E90023 		ldrd	r2, [r3]
 201 0076 C0E93823 		strd	r2, [r0, #224]
 202              	.LVL12:
 203              		.loc 4 34 59 view .LVU55
 204              	.LBE70:
 205              	.LBE69:
 206              	.LBE68:
ARM GAS  /tmp/cc5lp4CL.s 			page 7


 207              	.LBE67:
  32:My_Top/Motor_Control/DcMotor_ClosedLoop.hpp ****             {}//µ×äķĆĀÕćĮµĢ░
 208              		.loc 3 32 14 view .LVU56
 209 007a 30BD     		pop	{r4, r5, pc}
 210              	.LVL13:
 211              	.L12:
 212              		.loc 3 32 14 view .LVU57
 213 007c AFF30080 		.align	3
 214              	.L11:
 215 0080 75DF86D0 		.word	-796467339
 216 0084 2C229C40 		.word	1083974188
 217 0088 000080BF 		.word	-1082130432
 218 008c 00004E40 		.word	1078853632
 219 0090 00401C46 		.word	1176256512
 220              		.cfi_endproc
 221              	.LFE1350:
 223              		.weak	_ZN8DC_MotorC1EPK15MotorPWM_ConfigP7KTH7111P13PID_IncrementP3PIDP3LQR
 224              		.thumb_set _ZN8DC_MotorC1EPK15MotorPWM_ConfigP7KTH7111P13PID_IncrementP3PIDP3LQR,_ZN8DC_MotorC2EPK
 225              		.text
 226              		.align	1
 227              		.syntax unified
 228              		.thumb
 229              		.thumb_func
 231              	_Z41__static_initialization_and_destruction_0v:
 232              	.LFB1512:
   1:My_Top/Motor_Control/DcMotor_ClosedLoop.cpp **** #include "DcMotor_ClosedLoop.hpp"
   2:My_Top/Motor_Control/DcMotor_ClosedLoop.cpp **** #include "Motor_Param.hpp"
   3:My_Top/Motor_Control/DcMotor_ClosedLoop.cpp **** 
   4:My_Top/Motor_Control/DcMotor_ClosedLoop.cpp **** 
   5:My_Top/Motor_Control/DcMotor_ClosedLoop.cpp **** // 7.17Õæ©õ║öµø┤µ¢░LQRµ£ĆõĮ│ÕÅéµĢ░3SÕōŹÕ║öń©│Õ«ÜÕĆ╝
   6:My_Top/Motor_Control/DcMotor_ClosedLoop.cpp **** uint8_t DC_Motor::selected_motor = 0;// ķØÖµĆüµłÉÕæśÕ«Üõ╣ē
   7:My_Top/Motor_Control/DcMotor_ClosedLoop.cpp **** uint16_t DC_Motor::ADC_Value[max_chl_num] = {0};// ķØÖµĆüµłÉÕæśÕ«Üõ╣ē
   8:My_Top/Motor_Control/DcMotor_ClosedLoop.cpp **** 
   9:My_Top/Motor_Control/DcMotor_ClosedLoop.cpp **** 
  10:My_Top/Motor_Control/DcMotor_ClosedLoop.cpp **** KTH7111 kth7111_M1(&M1_PWM); //ń╝¢ńĀüÕÖ©Õ»╣Ķ▒Ī’╝ī
  11:My_Top/Motor_Control/DcMotor_ClosedLoop.cpp **** KTH7111 kth7111_M2(&M2_PWM); //ń╝¢ńĀüÕÖ©Õ»╣Ķ▒Ī
  12:My_Top/Motor_Control/DcMotor_ClosedLoop.cpp **** KTH7111 kth7111_M3(&M3_PWM); //ń╝¢ńĀüÕÖ©Õ»╣Ķ▒Ī’╝ī
  13:My_Top/Motor_Control/DcMotor_ClosedLoop.cpp **** KTH7111 kth7111_M4(&M4_PWM); //ń╝¢ńĀüÕÖ©Õ»╣Ķ▒Ī
  14:My_Top/Motor_Control/DcMotor_ClosedLoop.cpp **** 
  15:My_Top/Motor_Control/DcMotor_ClosedLoop.cpp **** PID_Increment pid_spd_M1
  16:My_Top/Motor_Control/DcMotor_ClosedLoop.cpp **** (
  17:My_Top/Motor_Control/DcMotor_ClosedLoop.cpp ****     MOTOR_DEFAULT_PARAM.speed_pid.kp,
  18:My_Top/Motor_Control/DcMotor_ClosedLoop.cpp ****     MOTOR_DEFAULT_PARAM.speed_pid.ki,
  19:My_Top/Motor_Control/DcMotor_ClosedLoop.cpp ****     MOTOR_DEFAULT_PARAM.speed_pid.kd,
  20:My_Top/Motor_Control/DcMotor_ClosedLoop.cpp **** 
  21:My_Top/Motor_Control/DcMotor_ClosedLoop.cpp ****     1.0/DC_VELOCITY_LOOP_FREQ_HZ,
  22:My_Top/Motor_Control/DcMotor_ClosedLoop.cpp **** 
  23:My_Top/Motor_Control/DcMotor_ClosedLoop.cpp ****     MOTOR_DEFAULT_PARAM.limit.max_duty,
  24:My_Top/Motor_Control/DcMotor_ClosedLoop.cpp ****     MOTOR_DEFAULT_PARAM.limit.min_duty
  25:My_Top/Motor_Control/DcMotor_ClosedLoop.cpp **** );
  26:My_Top/Motor_Control/DcMotor_ClosedLoop.cpp **** 
  27:My_Top/Motor_Control/DcMotor_ClosedLoop.cpp **** PID pid_loc_M1
  28:My_Top/Motor_Control/DcMotor_ClosedLoop.cpp **** (
  29:My_Top/Motor_Control/DcMotor_ClosedLoop.cpp ****     MOTOR_DEFAULT_PARAM.location_pid.kp,
  30:My_Top/Motor_Control/DcMotor_ClosedLoop.cpp ****     MOTOR_DEFAULT_PARAM.location_pid.ki,
  31:My_Top/Motor_Control/DcMotor_ClosedLoop.cpp ****     MOTOR_DEFAULT_PARAM.location_pid.kd,
  32:My_Top/Motor_Control/DcMotor_ClosedLoop.cpp **** 
ARM GAS  /tmp/cc5lp4CL.s 			page 8


  33:My_Top/Motor_Control/DcMotor_ClosedLoop.cpp ****     1.0/DC_POSITION_LOOP_FREQ_HZ,
  34:My_Top/Motor_Control/DcMotor_ClosedLoop.cpp **** 
  35:My_Top/Motor_Control/DcMotor_ClosedLoop.cpp ****     MOTOR_DEFAULT_PARAM.limit.i_ratio *
  36:My_Top/Motor_Control/DcMotor_ClosedLoop.cpp ****     MOTOR_DEFAULT_PARAM.limit.max_duty,
  37:My_Top/Motor_Control/DcMotor_ClosedLoop.cpp **** 
  38:My_Top/Motor_Control/DcMotor_ClosedLoop.cpp ****     MOTOR_DEFAULT_PARAM.limit.max_speed,
  39:My_Top/Motor_Control/DcMotor_ClosedLoop.cpp ****     MOTOR_DEFAULT_PARAM.limit.min_speed
  40:My_Top/Motor_Control/DcMotor_ClosedLoop.cpp **** );
  41:My_Top/Motor_Control/DcMotor_ClosedLoop.cpp **** LQR lqr_M1
  42:My_Top/Motor_Control/DcMotor_ClosedLoop.cpp **** (
  43:My_Top/Motor_Control/DcMotor_ClosedLoop.cpp ****     MOTOR_DEFAULT_PARAM.lqr.k1,
  44:My_Top/Motor_Control/DcMotor_ClosedLoop.cpp ****     MOTOR_DEFAULT_PARAM.lqr.k2,
  45:My_Top/Motor_Control/DcMotor_ClosedLoop.cpp ****     MOTOR_DEFAULT_PARAM.lqr.max_speed,
  46:My_Top/Motor_Control/DcMotor_ClosedLoop.cpp ****     MOTOR_DEFAULT_PARAM.lqr.min_speed
  47:My_Top/Motor_Control/DcMotor_ClosedLoop.cpp **** );
  48:My_Top/Motor_Control/DcMotor_ClosedLoop.cpp **** 
  49:My_Top/Motor_Control/DcMotor_ClosedLoop.cpp **** 
  50:My_Top/Motor_Control/DcMotor_ClosedLoop.cpp **** 
  51:My_Top/Motor_Control/DcMotor_ClosedLoop.cpp **** 
  52:My_Top/Motor_Control/DcMotor_ClosedLoop.cpp **** PID_Increment pid_spd_M2
  53:My_Top/Motor_Control/DcMotor_ClosedLoop.cpp **** (
  54:My_Top/Motor_Control/DcMotor_ClosedLoop.cpp ****     MOTOR_DEFAULT_PARAM.speed_pid.kp,
  55:My_Top/Motor_Control/DcMotor_ClosedLoop.cpp ****     MOTOR_DEFAULT_PARAM.speed_pid.ki,
  56:My_Top/Motor_Control/DcMotor_ClosedLoop.cpp ****     MOTOR_DEFAULT_PARAM.speed_pid.kd,
  57:My_Top/Motor_Control/DcMotor_ClosedLoop.cpp **** 
  58:My_Top/Motor_Control/DcMotor_ClosedLoop.cpp ****     1.0/DC_VELOCITY_LOOP_FREQ_HZ,
  59:My_Top/Motor_Control/DcMotor_ClosedLoop.cpp **** 
  60:My_Top/Motor_Control/DcMotor_ClosedLoop.cpp ****     MOTOR_DEFAULT_PARAM.limit.max_duty,
  61:My_Top/Motor_Control/DcMotor_ClosedLoop.cpp ****     MOTOR_DEFAULT_PARAM.limit.min_duty
  62:My_Top/Motor_Control/DcMotor_ClosedLoop.cpp **** );
  63:My_Top/Motor_Control/DcMotor_ClosedLoop.cpp **** 
  64:My_Top/Motor_Control/DcMotor_ClosedLoop.cpp **** PID pid_loc_M2
  65:My_Top/Motor_Control/DcMotor_ClosedLoop.cpp **** (
  66:My_Top/Motor_Control/DcMotor_ClosedLoop.cpp ****     MOTOR_DEFAULT_PARAM.location_pid.kp,
  67:My_Top/Motor_Control/DcMotor_ClosedLoop.cpp ****     MOTOR_DEFAULT_PARAM.location_pid.ki,
  68:My_Top/Motor_Control/DcMotor_ClosedLoop.cpp ****     MOTOR_DEFAULT_PARAM.location_pid.kd,
  69:My_Top/Motor_Control/DcMotor_ClosedLoop.cpp **** 
  70:My_Top/Motor_Control/DcMotor_ClosedLoop.cpp ****     1.0/DC_POSITION_LOOP_FREQ_HZ,
  71:My_Top/Motor_Control/DcMotor_ClosedLoop.cpp **** 
  72:My_Top/Motor_Control/DcMotor_ClosedLoop.cpp ****     MOTOR_DEFAULT_PARAM.limit.i_ratio *
  73:My_Top/Motor_Control/DcMotor_ClosedLoop.cpp ****     MOTOR_DEFAULT_PARAM.limit.max_duty,
  74:My_Top/Motor_Control/DcMotor_ClosedLoop.cpp **** 
  75:My_Top/Motor_Control/DcMotor_ClosedLoop.cpp ****     MOTOR_DEFAULT_PARAM.limit.max_speed,
  76:My_Top/Motor_Control/DcMotor_ClosedLoop.cpp ****     MOTOR_DEFAULT_PARAM.limit.min_speed
  77:My_Top/Motor_Control/DcMotor_ClosedLoop.cpp **** );
  78:My_Top/Motor_Control/DcMotor_ClosedLoop.cpp **** 
  79:My_Top/Motor_Control/DcMotor_ClosedLoop.cpp **** LQR lqr_M2
  80:My_Top/Motor_Control/DcMotor_ClosedLoop.cpp **** (
  81:My_Top/Motor_Control/DcMotor_ClosedLoop.cpp ****     MOTOR_DEFAULT_PARAM.lqr.k1,
  82:My_Top/Motor_Control/DcMotor_ClosedLoop.cpp ****     MOTOR_DEFAULT_PARAM.lqr.k2,
  83:My_Top/Motor_Control/DcMotor_ClosedLoop.cpp ****     MOTOR_DEFAULT_PARAM.lqr.max_speed,
  84:My_Top/Motor_Control/DcMotor_ClosedLoop.cpp ****     MOTOR_DEFAULT_PARAM.lqr.min_speed
  85:My_Top/Motor_Control/DcMotor_ClosedLoop.cpp **** );
  86:My_Top/Motor_Control/DcMotor_ClosedLoop.cpp **** 
  87:My_Top/Motor_Control/DcMotor_ClosedLoop.cpp **** 
  88:My_Top/Motor_Control/DcMotor_ClosedLoop.cpp **** 
  89:My_Top/Motor_Control/DcMotor_ClosedLoop.cpp **** 
ARM GAS  /tmp/cc5lp4CL.s 			page 9


  90:My_Top/Motor_Control/DcMotor_ClosedLoop.cpp **** 
  91:My_Top/Motor_Control/DcMotor_ClosedLoop.cpp **** 
  92:My_Top/Motor_Control/DcMotor_ClosedLoop.cpp **** PID_Increment pid_spd_M3
  93:My_Top/Motor_Control/DcMotor_ClosedLoop.cpp **** (
  94:My_Top/Motor_Control/DcMotor_ClosedLoop.cpp ****     MOTOR_DEFAULT_PARAM.speed_pid.kp,
  95:My_Top/Motor_Control/DcMotor_ClosedLoop.cpp ****     MOTOR_DEFAULT_PARAM.speed_pid.ki,
  96:My_Top/Motor_Control/DcMotor_ClosedLoop.cpp ****     MOTOR_DEFAULT_PARAM.speed_pid.kd,
  97:My_Top/Motor_Control/DcMotor_ClosedLoop.cpp **** 
  98:My_Top/Motor_Control/DcMotor_ClosedLoop.cpp ****     1.0/DC_VELOCITY_LOOP_FREQ_HZ,
  99:My_Top/Motor_Control/DcMotor_ClosedLoop.cpp **** 
 100:My_Top/Motor_Control/DcMotor_ClosedLoop.cpp ****     MOTOR_DEFAULT_PARAM.limit.max_duty,
 101:My_Top/Motor_Control/DcMotor_ClosedLoop.cpp ****     MOTOR_DEFAULT_PARAM.limit.min_duty
 102:My_Top/Motor_Control/DcMotor_ClosedLoop.cpp **** );
 103:My_Top/Motor_Control/DcMotor_ClosedLoop.cpp **** 
 104:My_Top/Motor_Control/DcMotor_ClosedLoop.cpp **** PID pid_loc_M3
 105:My_Top/Motor_Control/DcMotor_ClosedLoop.cpp **** (
 106:My_Top/Motor_Control/DcMotor_ClosedLoop.cpp ****     MOTOR_DEFAULT_PARAM.location_pid.kp,
 107:My_Top/Motor_Control/DcMotor_ClosedLoop.cpp ****     MOTOR_DEFAULT_PARAM.location_pid.ki,
 108:My_Top/Motor_Control/DcMotor_ClosedLoop.cpp ****     MOTOR_DEFAULT_PARAM.location_pid.kd,
 109:My_Top/Motor_Control/DcMotor_ClosedLoop.cpp **** 
 110:My_Top/Motor_Control/DcMotor_ClosedLoop.cpp ****     1.0/DC_POSITION_LOOP_FREQ_HZ,
 111:My_Top/Motor_Control/DcMotor_ClosedLoop.cpp **** 
 112:My_Top/Motor_Control/DcMotor_ClosedLoop.cpp ****     MOTOR_DEFAULT_PARAM.limit.i_ratio *
 113:My_Top/Motor_Control/DcMotor_ClosedLoop.cpp ****     MOTOR_DEFAULT_PARAM.limit.max_duty,
 114:My_Top/Motor_Control/DcMotor_ClosedLoop.cpp **** 
 115:My_Top/Motor_Control/DcMotor_ClosedLoop.cpp ****     MOTOR_DEFAULT_PARAM.limit.max_speed,
 116:My_Top/Motor_Control/DcMotor_ClosedLoop.cpp ****     MOTOR_DEFAULT_PARAM.limit.min_speed
 117:My_Top/Motor_Control/DcMotor_ClosedLoop.cpp **** );
 118:My_Top/Motor_Control/DcMotor_ClosedLoop.cpp **** 
 119:My_Top/Motor_Control/DcMotor_ClosedLoop.cpp **** LQR lqr_M3
 120:My_Top/Motor_Control/DcMotor_ClosedLoop.cpp **** (
 121:My_Top/Motor_Control/DcMotor_ClosedLoop.cpp ****     MOTOR_DEFAULT_PARAM.lqr.k1,
 122:My_Top/Motor_Control/DcMotor_ClosedLoop.cpp ****     MOTOR_DEFAULT_PARAM.lqr.k2,
 123:My_Top/Motor_Control/DcMotor_ClosedLoop.cpp ****     MOTOR_DEFAULT_PARAM.lqr.max_speed,
 124:My_Top/Motor_Control/DcMotor_ClosedLoop.cpp ****     MOTOR_DEFAULT_PARAM.lqr.min_speed
 125:My_Top/Motor_Control/DcMotor_ClosedLoop.cpp **** );
 126:My_Top/Motor_Control/DcMotor_ClosedLoop.cpp **** 
 127:My_Top/Motor_Control/DcMotor_ClosedLoop.cpp **** 
 128:My_Top/Motor_Control/DcMotor_ClosedLoop.cpp **** 
 129:My_Top/Motor_Control/DcMotor_ClosedLoop.cpp **** 
 130:My_Top/Motor_Control/DcMotor_ClosedLoop.cpp **** 
 131:My_Top/Motor_Control/DcMotor_ClosedLoop.cpp **** PID_Increment pid_spd_M4
 132:My_Top/Motor_Control/DcMotor_ClosedLoop.cpp **** (
 133:My_Top/Motor_Control/DcMotor_ClosedLoop.cpp ****     MOTOR_DEFAULT_PARAM.speed_pid.kp,
 134:My_Top/Motor_Control/DcMotor_ClosedLoop.cpp ****     MOTOR_DEFAULT_PARAM.speed_pid.ki,
 135:My_Top/Motor_Control/DcMotor_ClosedLoop.cpp ****     MOTOR_DEFAULT_PARAM.speed_pid.kd,
 136:My_Top/Motor_Control/DcMotor_ClosedLoop.cpp **** 
 137:My_Top/Motor_Control/DcMotor_ClosedLoop.cpp ****     1.0/DC_VELOCITY_LOOP_FREQ_HZ,
 138:My_Top/Motor_Control/DcMotor_ClosedLoop.cpp **** 
 139:My_Top/Motor_Control/DcMotor_ClosedLoop.cpp ****     MOTOR_DEFAULT_PARAM.limit.max_duty,
 140:My_Top/Motor_Control/DcMotor_ClosedLoop.cpp ****     MOTOR_DEFAULT_PARAM.limit.min_duty
 141:My_Top/Motor_Control/DcMotor_ClosedLoop.cpp **** );
 142:My_Top/Motor_Control/DcMotor_ClosedLoop.cpp **** 
 143:My_Top/Motor_Control/DcMotor_ClosedLoop.cpp **** PID pid_loc_M4
 144:My_Top/Motor_Control/DcMotor_ClosedLoop.cpp **** (
 145:My_Top/Motor_Control/DcMotor_ClosedLoop.cpp ****     MOTOR_DEFAULT_PARAM.location_pid.kp,
 146:My_Top/Motor_Control/DcMotor_ClosedLoop.cpp ****     MOTOR_DEFAULT_PARAM.location_pid.ki,
ARM GAS  /tmp/cc5lp4CL.s 			page 10


 147:My_Top/Motor_Control/DcMotor_ClosedLoop.cpp ****     MOTOR_DEFAULT_PARAM.location_pid.kd,
 148:My_Top/Motor_Control/DcMotor_ClosedLoop.cpp **** 
 149:My_Top/Motor_Control/DcMotor_ClosedLoop.cpp ****     1.0/DC_POSITION_LOOP_FREQ_HZ,
 150:My_Top/Motor_Control/DcMotor_ClosedLoop.cpp **** 
 151:My_Top/Motor_Control/DcMotor_ClosedLoop.cpp ****     MOTOR_DEFAULT_PARAM.limit.i_ratio *
 152:My_Top/Motor_Control/DcMotor_ClosedLoop.cpp ****     MOTOR_DEFAULT_PARAM.limit.max_duty,
 153:My_Top/Motor_Control/DcMotor_ClosedLoop.cpp **** 
 154:My_Top/Motor_Control/DcMotor_ClosedLoop.cpp ****     MOTOR_DEFAULT_PARAM.limit.max_speed,
 155:My_Top/Motor_Control/DcMotor_ClosedLoop.cpp ****     MOTOR_DEFAULT_PARAM.limit.min_speed
 156:My_Top/Motor_Control/DcMotor_ClosedLoop.cpp **** );
 157:My_Top/Motor_Control/DcMotor_ClosedLoop.cpp **** 
 158:My_Top/Motor_Control/DcMotor_ClosedLoop.cpp **** LQR lqr_M4
 159:My_Top/Motor_Control/DcMotor_ClosedLoop.cpp **** (
 160:My_Top/Motor_Control/DcMotor_ClosedLoop.cpp ****     MOTOR_DEFAULT_PARAM.lqr.k1,
 161:My_Top/Motor_Control/DcMotor_ClosedLoop.cpp ****     MOTOR_DEFAULT_PARAM.lqr.k2,
 162:My_Top/Motor_Control/DcMotor_ClosedLoop.cpp ****     MOTOR_DEFAULT_PARAM.lqr.max_speed,
 163:My_Top/Motor_Control/DcMotor_ClosedLoop.cpp ****     MOTOR_DEFAULT_PARAM.lqr.min_speed
 164:My_Top/Motor_Control/DcMotor_ClosedLoop.cpp **** );
 165:My_Top/Motor_Control/DcMotor_ClosedLoop.cpp **** 
 166:My_Top/Motor_Control/DcMotor_ClosedLoop.cpp **** 
 167:My_Top/Motor_Control/DcMotor_ClosedLoop.cpp **** 
 168:My_Top/Motor_Control/DcMotor_ClosedLoop.cpp **** DC_Motor M1(&M1_PWM, &kth7111_M1, &pid_spd_M1, &pid_loc_M1,&lqr_M1); //ńöĄµ£║1
 169:My_Top/Motor_Control/DcMotor_ClosedLoop.cpp **** DC_Motor M2(&M2_PWM, &kth7111_M2, &pid_spd_M2, &pid_loc_M2,&lqr_M2); //ńöĄµ£║2
 170:My_Top/Motor_Control/DcMotor_ClosedLoop.cpp **** DC_Motor M3(&M3_PWM, &kth7111_M3, &pid_spd_M3, &pid_loc_M3,&lqr_M3); //ńöĄµ£║3
 171:My_Top/Motor_Control/DcMotor_ClosedLoop.cpp **** DC_Motor M4(&M4_PWM, &kth7111_M4, &pid_spd_M4, &pid_loc_M4,&lqr_M4); //ńöĄµ£║4
 172:My_Top/Motor_Control/DcMotor_ClosedLoop.cpp **** 
 173:My_Top/Motor_Control/DcMotor_ClosedLoop.cpp **** 
 174:My_Top/Motor_Control/DcMotor_ClosedLoop.cpp **** 
 175:My_Top/Motor_Control/DcMotor_ClosedLoop.cpp **** void DC_Motor::test_laji()
 176:My_Top/Motor_Control/DcMotor_ClosedLoop.cpp **** {
 177:My_Top/Motor_Control/DcMotor_ClosedLoop.cpp ****    
 178:My_Top/Motor_Control/DcMotor_ClosedLoop.cpp ****     __HAL_TIM_SET_AUTORELOAD(&htim1, 100);//Ķ«ŠńĮ«Õæ©µ£¤ 
 179:My_Top/Motor_Control/DcMotor_ClosedLoop.cpp ****     __HAL_TIM_SET_COMPARE(&htim1, TIM_CHANNEL_1, 100);//Ķ«ŠńĮ«õĖŖµĪźĶćéÕŹĀń®║µ»ö 
 180:My_Top/Motor_Control/DcMotor_ClosedLoop.cpp ****     __HAL_TIM_SET_COMPARE(&htim1, TIM_CHANNEL_2, 100);//Ķ«ŠńĮ«õĖŗµĪźĶćéÕŹĀń®║µ»ö
 181:My_Top/Motor_Control/DcMotor_ClosedLoop.cpp ****     HAL_TIM_PWM_Start(&htim1, TIM_CHANNEL_1);
 182:My_Top/Motor_Control/DcMotor_ClosedLoop.cpp ****     HAL_TIMEx_PWMN_Start(&htim1, TIM_CHANNEL_1);
 183:My_Top/Motor_Control/DcMotor_ClosedLoop.cpp ****     HAL_TIM_PWM_Start(&htim1, TIM_CHANNEL_2);
 184:My_Top/Motor_Control/DcMotor_ClosedLoop.cpp ****     HAL_TIMEx_PWMN_Start(&htim1, TIM_CHANNEL_2);
 185:My_Top/Motor_Control/DcMotor_ClosedLoop.cpp **** }
 186:My_Top/Motor_Control/DcMotor_ClosedLoop.cpp **** 
 187:My_Top/Motor_Control/DcMotor_ClosedLoop.cpp **** void DC_Motor::My_DC_Motor_Reset()
 188:My_Top/Motor_Control/DcMotor_ClosedLoop.cpp **** {
 189:My_Top/Motor_Control/DcMotor_ClosedLoop.cpp ****     _target_location2 = rad2deg(reg_final);
 190:My_Top/Motor_Control/DcMotor_ClosedLoop.cpp ****     _target_location2_cmd = _target_location2;
 191:My_Top/Motor_Control/DcMotor_ClosedLoop.cpp ****     _target_speed = 0.0;
 192:My_Top/Motor_Control/DcMotor_ClosedLoop.cpp ****     updown_duty = 0.0;
 193:My_Top/Motor_Control/DcMotor_ClosedLoop.cpp ****     Motor_EN(false);
 194:My_Top/Motor_Control/DcMotor_ClosedLoop.cpp ****     pid_speed_incparam->reset(); //ÕżŹõĮŹpid
 195:My_Top/Motor_Control/DcMotor_ClosedLoop.cpp ****     pid_location->reset(); //ÕżŹõĮŹpid
 196:My_Top/Motor_Control/DcMotor_ClosedLoop.cpp **** }
 197:My_Top/Motor_Control/DcMotor_ClosedLoop.cpp **** 
 198:My_Top/Motor_Control/DcMotor_ClosedLoop.cpp **** 
 199:My_Top/Motor_Control/DcMotor_ClosedLoop.cpp **** 
 200:My_Top/Motor_Control/DcMotor_ClosedLoop.cpp **** 
 201:My_Top/Motor_Control/DcMotor_ClosedLoop.cpp **** void DC_Motor::My_DC_Motor_Init()
 202:My_Top/Motor_Control/DcMotor_ClosedLoop.cpp **** {
 203:My_Top/Motor_Control/DcMotor_ClosedLoop.cpp ****     uint32_t sysclk = HAL_RCC_GetSysClockFreq();
ARM GAS  /tmp/cc5lp4CL.s 			page 11


 204:My_Top/Motor_Control/DcMotor_ClosedLoop.cpp ****     timer_clock_freq_ = sysclk / (_motor_config->htim->Instance->PSC + 1);
 205:My_Top/Motor_Control/DcMotor_ClosedLoop.cpp **** 
 206:My_Top/Motor_Control/DcMotor_ClosedLoop.cpp ****     speed_lpf.init(0.7);
 207:My_Top/Motor_Control/DcMotor_ClosedLoop.cpp ****     error_lpf.init(0.7);
 208:My_Top/Motor_Control/DcMotor_ClosedLoop.cpp ****     speed_avg.init(5);
 209:My_Top/Motor_Control/DcMotor_ClosedLoop.cpp ****     adc_val_avg.init(100);//ADCķććµĀĘÕĆ╝µ╗żµ│ó //67µ×üķÖÉ
 210:My_Top/Motor_Control/DcMotor_ClosedLoop.cpp **** 
 211:My_Top/Motor_Control/DcMotor_ClosedLoop.cpp ****     // ===== ŌæĀ Ķ«ŠķóæńÄćÕÆīÕŹĀń®║µ»ö’╝ł0% ńö©õ║ÄÕģģńöĄ’╝ē =====
 212:My_Top/Motor_Control/DcMotor_ClosedLoop.cpp ****     Set_Motor_Glo_Duty();//Ķ«ŠńĮ«ńöĄµ£║Õģ©Õ▒ĆÕŹĀń®║µ»ö
 213:My_Top/Motor_Control/DcMotor_ClosedLoop.cpp **** 
 214:My_Top/Motor_Control/DcMotor_ClosedLoop.cpp ****     // ===== ŌæĪ Ķć¬õĖŠńöĄÕ«╣ķóäÕģģńöĄ’╝ÜCCR=0 ŌåÆ õĖŗń«ĪÕ»╝ķĆÜ ŌåÆ ńöĄÕ«╣ÕģģńöĄ =====
 215:My_Top/Motor_Control/DcMotor_ClosedLoop.cpp ****     Motor_EN(true);  // µēōÕ╝ĆPWMĶŠōÕć║
 216:My_Top/Motor_Control/DcMotor_ClosedLoop.cpp ****     vTaskDelay(pdMS_TO_TICKS(1));  // ńŁē 1ms Õģģµ╗Ī
 217:My_Top/Motor_Control/DcMotor_ClosedLoop.cpp ****     Motor_EN(false); // Õģ│ķŚŁPWMĶŠōÕć║
 218:My_Top/Motor_Control/DcMotor_ClosedLoop.cpp ****     _encoder->KTH7111_Init(motor_encoder_dir);
 219:My_Top/Motor_Control/DcMotor_ClosedLoop.cpp ****     control_init_flag = true;
 220:My_Top/Motor_Control/DcMotor_ClosedLoop.cpp **** }
 221:My_Top/Motor_Control/DcMotor_ClosedLoop.cpp **** 
 222:My_Top/Motor_Control/DcMotor_ClosedLoop.cpp **** 
 223:My_Top/Motor_Control/DcMotor_ClosedLoop.cpp **** 
 224:My_Top/Motor_Control/DcMotor_ClosedLoop.cpp **** void DC_Motor::Set_Motor_Frequency() //ÕŹĢńŗ¼Ķ«ŠńĮ«ńöĄµ£║ķóæńÄćÕÆīÕŹĀń®║µ»ö
 225:My_Top/Motor_Control/DcMotor_ClosedLoop.cpp **** {
 226:My_Top/Motor_Control/DcMotor_ClosedLoop.cpp ****     bool new_dir = false;
 227:My_Top/Motor_Control/DcMotor_ClosedLoop.cpp ****     uint32_t arr = 0;
 228:My_Top/Motor_Control/DcMotor_ClosedLoop.cpp ****     uint16_t Fre = (uint16_t)motor_freq;//ĶĮ¼µĢ┤µĢ░Ķ«Īń«Ś
 229:My_Top/Motor_Control/DcMotor_ClosedLoop.cpp ****     float up_duty = constraint_value(motor_up_duty, 0.0f, MOTOR_DEFAULT_PARAM.limit.max_duty); //ķÖ
 230:My_Top/Motor_Control/DcMotor_ClosedLoop.cpp ****     float down_duty = constraint_value(motor_down_duty, 0.0f, MOTOR_DEFAULT_PARAM.limit.max_duty); 
 231:My_Top/Motor_Control/DcMotor_ClosedLoop.cpp **** 
 232:My_Top/Motor_Control/DcMotor_ClosedLoop.cpp ****     if (Fre == Fre_last && up_duty == up_duty_last && down_duty == down_duty_last) return;// Õ”éµ×£
 233:My_Top/Motor_Control/DcMotor_ClosedLoop.cpp ****     Fre_last = Fre;
 234:My_Top/Motor_Control/DcMotor_ClosedLoop.cpp ****     up_duty_last = up_duty;
 235:My_Top/Motor_Control/DcMotor_ClosedLoop.cpp ****     down_duty_last = down_duty;
 236:My_Top/Motor_Control/DcMotor_ClosedLoop.cpp **** 
 237:My_Top/Motor_Control/DcMotor_ClosedLoop.cpp ****     if (Fre == 0 ){Motor_EN(false); return;}
 238:My_Top/Motor_Control/DcMotor_ClosedLoop.cpp ****     else {Motor_EN(true);}
 239:My_Top/Motor_Control/DcMotor_ClosedLoop.cpp **** 
 240:My_Top/Motor_Control/DcMotor_ClosedLoop.cpp ****     arr = timer_clock_freq_ / Fre;
 241:My_Top/Motor_Control/DcMotor_ClosedLoop.cpp ****     if (arr >= 65535) arr = 65535;
 242:My_Top/Motor_Control/DcMotor_ClosedLoop.cpp ****     else if (arr <= 1) arr = 1;
 243:My_Top/Motor_Control/DcMotor_ClosedLoop.cpp **** 
 244:My_Top/Motor_Control/DcMotor_ClosedLoop.cpp ****     _motor_config->htim->Instance->CNT = 0; // µĖģķøČĶ«ĪµĢ░ÕÖ©
 245:My_Top/Motor_Control/DcMotor_ClosedLoop.cpp ****     __HAL_TIM_SET_AUTORELOAD(_motor_config->htim, (uint16_t)(arr - 1));//Ķ«ŠńĮ«Õæ©µ£¤ 
 246:My_Top/Motor_Control/DcMotor_ClosedLoop.cpp ****     __HAL_TIM_SET_COMPARE(_motor_config->htim, _motor_config->ch_hin1, (uint32_t)(arr*up_duty));//Ķ
 247:My_Top/Motor_Control/DcMotor_ClosedLoop.cpp ****     __HAL_TIM_SET_COMPARE(_motor_config->htim, _motor_config->ch_hin2, (uint32_t)(arr*down_duty));/
 248:My_Top/Motor_Control/DcMotor_ClosedLoop.cpp **** }
 249:My_Top/Motor_Control/DcMotor_ClosedLoop.cpp **** 
 250:My_Top/Motor_Control/DcMotor_ClosedLoop.cpp **** 
 251:My_Top/Motor_Control/DcMotor_ClosedLoop.cpp **** 
 252:My_Top/Motor_Control/DcMotor_ClosedLoop.cpp **** void DC_Motor::Set_Motor_Glo_Duty() //Ķ«ŠńĮ«ńöĄµ£║Õģ©Õ▒ĆÕŹĀń®║µ»ö
 253:My_Top/Motor_Control/DcMotor_ClosedLoop.cpp **** {
 254:My_Top/Motor_Control/DcMotor_ClosedLoop.cpp ****     float duty = constraint_value(updown_duty, MOTOR_DEFAULT_PARAM.limit.min_duty, MOTOR_DEFAULT_PA
 255:My_Top/Motor_Control/DcMotor_ClosedLoop.cpp **** 
 256:My_Top/Motor_Control/DcMotor_ClosedLoop.cpp ****     if (duty == 0.0f || fabsf(duty) < 1e-6f)
 257:My_Top/Motor_Control/DcMotor_ClosedLoop.cpp ****     {
 258:My_Top/Motor_Control/DcMotor_ClosedLoop.cpp ****         motor_up_duty = motor_down_duty = 0.0f; //ńöĄµĄüµ×üÕż¦ ?????
 259:My_Top/Motor_Control/DcMotor_ClosedLoop.cpp ****         Motor_EN(false);
 260:My_Top/Motor_Control/DcMotor_ClosedLoop.cpp ****     }else if (duty > 0.0f) 
ARM GAS  /tmp/cc5lp4CL.s 			page 12


 261:My_Top/Motor_Control/DcMotor_ClosedLoop.cpp ****     {
 262:My_Top/Motor_Control/DcMotor_ClosedLoop.cpp ****         motor_up_duty = duty;
 263:My_Top/Motor_Control/DcMotor_ClosedLoop.cpp ****         motor_down_duty = 0.0f;
 264:My_Top/Motor_Control/DcMotor_ClosedLoop.cpp ****         Motor_EN(true);
 265:My_Top/Motor_Control/DcMotor_ClosedLoop.cpp ****     }else if (duty < 0.0f) 
 266:My_Top/Motor_Control/DcMotor_ClosedLoop.cpp ****     {
 267:My_Top/Motor_Control/DcMotor_ClosedLoop.cpp ****         motor_up_duty = 0.0f;
 268:My_Top/Motor_Control/DcMotor_ClosedLoop.cpp ****         motor_down_duty = -duty;
 269:My_Top/Motor_Control/DcMotor_ClosedLoop.cpp ****         Motor_EN(true);
 270:My_Top/Motor_Control/DcMotor_ClosedLoop.cpp ****     }
 271:My_Top/Motor_Control/DcMotor_ClosedLoop.cpp **** 
 272:My_Top/Motor_Control/DcMotor_ClosedLoop.cpp ****     Set_Motor_Frequency();
 273:My_Top/Motor_Control/DcMotor_ClosedLoop.cpp **** }
 274:My_Top/Motor_Control/DcMotor_ClosedLoop.cpp **** 
 275:My_Top/Motor_Control/DcMotor_ClosedLoop.cpp **** 
 276:My_Top/Motor_Control/DcMotor_ClosedLoop.cpp **** 
 277:My_Top/Motor_Control/DcMotor_ClosedLoop.cpp **** 
 278:My_Top/Motor_Control/DcMotor_ClosedLoop.cpp **** 
 279:My_Top/Motor_Control/DcMotor_ClosedLoop.cpp **** 
 280:My_Top/Motor_Control/DcMotor_ClosedLoop.cpp **** 
 281:My_Top/Motor_Control/DcMotor_ClosedLoop.cpp **** void DC_Motor::Motor_EN(bool en)
 282:My_Top/Motor_Control/DcMotor_ClosedLoop.cpp **** {
 283:My_Top/Motor_Control/DcMotor_ClosedLoop.cpp ****     if (en == _motor_is_on_last) return;  // ńŖČµĆüµ▓ĪÕÅś’╝īĶĘ│Ķ┐ć
 284:My_Top/Motor_Control/DcMotor_ClosedLoop.cpp ****     _motor_is_on_last = en;
 285:My_Top/Motor_Control/DcMotor_ClosedLoop.cpp **** 
 286:My_Top/Motor_Control/DcMotor_ClosedLoop.cpp ****     if (en)
 287:My_Top/Motor_Control/DcMotor_ClosedLoop.cpp ****     {
 288:My_Top/Motor_Control/DcMotor_ClosedLoop.cpp ****         HAL_TIM_PWM_Start(_motor_config->htim, _motor_config->ch_hin1);
 289:My_Top/Motor_Control/DcMotor_ClosedLoop.cpp ****         HAL_TIMEx_PWMN_Start(_motor_config->htim, _motor_config->ch_hin1);
 290:My_Top/Motor_Control/DcMotor_ClosedLoop.cpp ****         HAL_TIM_PWM_Start(_motor_config->htim, _motor_config->ch_hin2);
 291:My_Top/Motor_Control/DcMotor_ClosedLoop.cpp ****         HAL_TIMEx_PWMN_Start(_motor_config->htim, _motor_config->ch_hin2);
 292:My_Top/Motor_Control/DcMotor_ClosedLoop.cpp ****     }else
 293:My_Top/Motor_Control/DcMotor_ClosedLoop.cpp ****     {
 294:My_Top/Motor_Control/DcMotor_ClosedLoop.cpp ****         HAL_TIM_PWM_Stop(_motor_config->htim, _motor_config->ch_hin1);
 295:My_Top/Motor_Control/DcMotor_ClosedLoop.cpp ****         HAL_TIMEx_PWMN_Stop(_motor_config->htim, _motor_config->ch_hin1);
 296:My_Top/Motor_Control/DcMotor_ClosedLoop.cpp ****         HAL_TIM_PWM_Stop(_motor_config->htim, _motor_config->ch_hin2);
 297:My_Top/Motor_Control/DcMotor_ClosedLoop.cpp ****         HAL_TIMEx_PWMN_Stop(_motor_config->htim, _motor_config->ch_hin2);
 298:My_Top/Motor_Control/DcMotor_ClosedLoop.cpp ****     }
 299:My_Top/Motor_Control/DcMotor_ClosedLoop.cpp **** }
 300:My_Top/Motor_Control/DcMotor_ClosedLoop.cpp **** 
 301:My_Top/Motor_Control/DcMotor_ClosedLoop.cpp **** 
 302:My_Top/Motor_Control/DcMotor_ClosedLoop.cpp **** void DC_Motor::Update_Speed_Angle_LPFAndPLL() //µø┤µ¢░ķĆ¤Õ║”ÕÆīĶ¦ÆÕ║”
 303:My_Top/Motor_Control/DcMotor_ClosedLoop.cpp **** {
 304:My_Top/Motor_Control/DcMotor_ClosedLoop.cpp ****     // ķØÖµĆüÕÅśķćÅ’╝īńö©õ║ÄõĖ┤µŚČÕŁśÕé©Ķ¦ÆÕ║”ÕĆ╝ÕÆīõĖŖõĖĆµ¼ĪńÜäĶ¦ÆÕ║”ÕĆ╝
 305:My_Top/Motor_Control/DcMotor_ClosedLoop.cpp ****     static float fudu_test = 0.0f;
 306:My_Top/Motor_Control/DcMotor_ClosedLoop.cpp ****     static float theta_m_offic_temp = 0.0;
 307:My_Top/Motor_Control/DcMotor_ClosedLoop.cpp **** 
 308:My_Top/Motor_Control/DcMotor_ClosedLoop.cpp ****     _encoder->KTH7111_Send_JIAO_CMD();//ÕÅæķĆüĶ¦ÆÕ║”µīćõ╗ż
 309:My_Top/Motor_Control/DcMotor_ClosedLoop.cpp ****     fudu_test = _encoder->Get_KTH7111_Radian();//ĶÄĘÕÅ¢ń╝¢ńĀüÕÖ©Ķ¦ÆÕ║”
 310:My_Top/Motor_Control/DcMotor_ClosedLoop.cpp **** 
 311:My_Top/Motor_Control/DcMotor_ClosedLoop.cpp ****     if (LPFAndPLL == false) //õĮÄķĆÜµ╗żµ│óĶ¦ÆÕ║”
 312:My_Top/Motor_Control/DcMotor_ClosedLoop.cpp ****     {
 313:My_Top/Motor_Control/DcMotor_ClosedLoop.cpp ****       theta_m = wrap_to_PI(fudu_test);
 314:My_Top/Motor_Control/DcMotor_ClosedLoop.cpp ****       //µ¢╣Õ╝Å1 õĮÄķĆÜµ╗żµ│ó µø┤µ¢░µ£║µó░Ķ¦ÆÕ║”ķĆ¤Õ║”
 315:My_Top/Motor_Control/DcMotor_ClosedLoop.cpp ****       theta_m_offic_temp = theta_m - theta_m_last; 
 316:My_Top/Motor_Control/DcMotor_ClosedLoop.cpp ****       theta_m_last = theta_m; // µø┤µ¢░õĖŖõĖĆµ¼ĪńÜäµ£║µó░Ķ¦ÆÕ║”
 317:My_Top/Motor_Control/DcMotor_ClosedLoop.cpp ****       theta_m_offic = wrap_to_PI(theta_m_offic_temp);// Õ░åÕĘ«ÕĆ╝Ķ¦äµĢ┤Õł░ [-PI, PI) Õī║ķŚ┤
ARM GAS  /tmp/cc5lp4CL.s 			page 13


 318:My_Top/Motor_Control/DcMotor_ClosedLoop.cpp **** 
 319:My_Top/Motor_Control/DcMotor_ClosedLoop.cpp ****       theta_m_offic_filtered = error_lpf.filter(theta_m_offic);//Õ»╣Ķ»»ÕĘ«Ķ¦ÆÕ║”õĮÄķĆÜµ╗żµ│ó
 320:My_Top/Motor_Control/DcMotor_ClosedLoop.cpp ****       theta_m_speed = theta_m_offic_filtered*DC_VELOCITY_LOOP_FREQ_HZ;//speed=ĶĘ»ń©ŗ/t 
 321:My_Top/Motor_Control/DcMotor_ClosedLoop.cpp ****       theta_av_speed = speed_avg.filter(theta_m_speed);//Õ»╣ķĆ¤Õ║”Ķ┐øĶĪīÕ╣│ÕØćÕĆ╝µ╗żµ│ó
 322:My_Top/Motor_Control/DcMotor_ClosedLoop.cpp ****       filtered_speed = speed_lpf.filter(theta_av_speed);//Õ»╣ķĆ¤Õ║”Ķ┐øĶĪīõĮÄķĆÜµ╗żµ│ó
 323:My_Top/Motor_Control/DcMotor_ClosedLoop.cpp ****       reg_final = theta_m; //Õ░åµ£║µó░Ķ¦ÆÕ║”ĶĄŗÕĆ╝ń╗Öµ£Ćń╗łĶ¦ÆÕ║”
 324:My_Top/Motor_Control/DcMotor_ClosedLoop.cpp ****       theta_deg_final = rad2deg(reg_final); //Õ░åÕ╝¦Õ║”ĶĮ¼µŹóõĖ║360Õ║”
 325:My_Top/Motor_Control/DcMotor_ClosedLoop.cpp ****       Angular_velocity_final = filtered_speed;  //Õ░åµ£Ćń╗łķĆ¤Õ║”ĶĄŗÕĆ╝ń╗Öµ£Ćń╗łĶ¦ÆķĆ¤Õ║”
 326:My_Top/Motor_Control/DcMotor_ClosedLoop.cpp ****       
 327:My_Top/Motor_Control/DcMotor_ClosedLoop.cpp ****     }else if (LPFAndPLL == true)
 328:My_Top/Motor_Control/DcMotor_ClosedLoop.cpp ****     {
 329:My_Top/Motor_Control/DcMotor_ClosedLoop.cpp ****       // µ¢╣Õ╝Å2PLLķöüńøĖńÄ» µø┤µ¢░PLLķöüńøĖńÄ»ńÜäĶŠōÕć║Ķ¦ÆÕ║”ÕÆīĶ¦ÆķĆ¤Õ║”
 330:My_Top/Motor_Control/DcMotor_ClosedLoop.cpp ****       theta_m = fudu_test; // ĶÄĘÕÅ¢ÕÄ¤Õ¦ŗµ£║µó░Ķ¦ÆÕ║” Õ╝¦Õ║”
 331:My_Top/Motor_Control/DcMotor_ClosedLoop.cpp ****       foc_pll_run(theta_m,PLL_FREQ_Dt,&_pll_reg_out,&_pll_Angular_velocity,&_pll_conf); //µø┤µ¢░PLL
 332:My_Top/Motor_Control/DcMotor_ClosedLoop.cpp ****       reg_final = _pll_reg_out; //Õ░åPLLķöüńøĖńÄ»ńÜäĶŠōÕć║Ķ¦ÆÕ║”ĶĄŗÕĆ╝ń╗Öµ£Ćń╗łĶ¦ÆÕ║”
 333:My_Top/Motor_Control/DcMotor_ClosedLoop.cpp ****       theta_deg_final = rad2deg(reg_final); //Õ░åÕ╝¦Õ║”ĶĮ¼µŹóõĖ║360Õ║”
 334:My_Top/Motor_Control/DcMotor_ClosedLoop.cpp ****       Angular_velocity_final = _pll_Angular_velocity; //Õ░åµ£Ćń╗łķĆ¤Õ║”ĶĄŗÕĆ╝ń╗Öµ£Ćń╗łĶ¦ÆķĆ¤Õ║”
 335:My_Top/Motor_Control/DcMotor_ClosedLoop.cpp ****     }
 336:My_Top/Motor_Control/DcMotor_ClosedLoop.cpp **** 
 337:My_Top/Motor_Control/DcMotor_ClosedLoop.cpp **** }
 338:My_Top/Motor_Control/DcMotor_ClosedLoop.cpp **** 
 339:My_Top/Motor_Control/DcMotor_ClosedLoop.cpp **** 
 340:My_Top/Motor_Control/DcMotor_ClosedLoop.cpp **** void DC_Motor::Speed_Loop(void) //ķĆ¤Õ║”ńÄ»
 341:My_Top/Motor_Control/DcMotor_ClosedLoop.cpp **** {
 342:My_Top/Motor_Control/DcMotor_ClosedLoop.cpp ****     float _delta_pwm = 0.0f; //Ķ«Īń«ŚPIDÕó×ķćÅ
 343:My_Top/Motor_Control/DcMotor_ClosedLoop.cpp ****     float error_speed = _target_speed - Angular_velocity_final; //Ķ«Īń«ŚķĆ¤Õ║”Ķ»»ÕĘ«
 344:My_Top/Motor_Control/DcMotor_ClosedLoop.cpp **** 
 345:My_Top/Motor_Control/DcMotor_ClosedLoop.cpp ****     _delta_pwm = pid_speed_incparam->update(error_speed); //Ķ«Īń«ŚPIDÕó×ķćÅ
 346:My_Top/Motor_Control/DcMotor_ClosedLoop.cpp ****     updown_duty += _delta_pwm; //µø┤µ¢░ńöĄµ£║ÕŹĀń®║µ»ö
 347:My_Top/Motor_Control/DcMotor_ClosedLoop.cpp ****     Set_Motor_Glo_Duty(); //Ķ«ŠńĮ«ńöĄµ£║Õģ©Õ▒ĆÕŹĀń®║µ»ö
 348:My_Top/Motor_Control/DcMotor_ClosedLoop.cpp **** }
 349:My_Top/Motor_Control/DcMotor_ClosedLoop.cpp **** 
 350:My_Top/Motor_Control/DcMotor_ClosedLoop.cpp **** 
 351:My_Top/Motor_Control/DcMotor_ClosedLoop.cpp **** // void DC_Motor::Location_Loop(void) //õĮŹńĮ«ńÄ»
 352:My_Top/Motor_Control/DcMotor_ClosedLoop.cpp **** // {
 353:My_Top/Motor_Control/DcMotor_ClosedLoop.cpp **** //     float error = wrap_to_PI(deg2rad(_target_location2) - reg_final); //Ķ«Īń«ŚõĮŹńĮ«Ķ»»ÕĘ«
 354:My_Top/Motor_Control/DcMotor_ClosedLoop.cpp **** //     _target_speed = pid_location->update(error); //õ╝ĀÕģźÕ«×ķÖģĶ»»ÕĘ«ÕĆ╝
 355:My_Top/Motor_Control/DcMotor_ClosedLoop.cpp **** // }
 356:My_Top/Motor_Control/DcMotor_ClosedLoop.cpp **** 
 357:My_Top/Motor_Control/DcMotor_ClosedLoop.cpp **** 
 358:My_Top/Motor_Control/DcMotor_ClosedLoop.cpp **** 
 359:My_Top/Motor_Control/DcMotor_ClosedLoop.cpp **** // void DC_Motor::Location_Loop(void)
 360:My_Top/Motor_Control/DcMotor_ClosedLoop.cpp **** // {
 361:My_Top/Motor_Control/DcMotor_ClosedLoop.cpp **** //     float diff = _target_location2_cmd - _target_location2;
 362:My_Top/Motor_Control/DcMotor_ClosedLoop.cpp **** 
 363:My_Top/Motor_Control/DcMotor_ClosedLoop.cpp **** //     while (diff > 180.0f) diff -= 360.0f;    // µö╣µłÉ while’╝īńĪ«õ┐Ø diff Õ£© [-180, 180]
 364:My_Top/Motor_Control/DcMotor_ClosedLoop.cpp **** //     while (diff < -180.0f) diff += 360.0f;
 365:My_Top/Motor_Control/DcMotor_ClosedLoop.cpp **** 
 366:My_Top/Motor_Control/DcMotor_ClosedLoop.cpp **** //     if (diff > 60.0f) diff = 60.0f;
 367:My_Top/Motor_Control/DcMotor_ClosedLoop.cpp **** //     if (diff < -60.0f) diff = -60.0f;
 368:My_Top/Motor_Control/DcMotor_ClosedLoop.cpp **** //     _target_location2 += diff;
 369:My_Top/Motor_Control/DcMotor_ClosedLoop.cpp **** 
 370:My_Top/Motor_Control/DcMotor_ClosedLoop.cpp **** //     while (_target_location2 > 180.0f) _target_location2 -= 360.0f;
 371:My_Top/Motor_Control/DcMotor_ClosedLoop.cpp **** //     while (_target_location2 < -180.0f) _target_location2 += 360.0f;
 372:My_Top/Motor_Control/DcMotor_ClosedLoop.cpp **** 
 373:My_Top/Motor_Control/DcMotor_ClosedLoop.cpp **** //     float error = wrap_to_PI(deg2rad(_target_location2) - reg_final);
 374:My_Top/Motor_Control/DcMotor_ClosedLoop.cpp **** //     float raw_speed = pid_location->update(error);
ARM GAS  /tmp/cc5lp4CL.s 			page 14


 375:My_Top/Motor_Control/DcMotor_ClosedLoop.cpp **** //     _target_speed = raw_speed;
 376:My_Top/Motor_Control/DcMotor_ClosedLoop.cpp **** 
 377:My_Top/Motor_Control/DcMotor_ClosedLoop.cpp **** //     if (_target_speed > PID_Max_Speed) _target_speed = PID_Max_Speed;
 378:My_Top/Motor_Control/DcMotor_ClosedLoop.cpp **** //     if (_target_speed < PID_Min_Speed) _target_speed = PID_Min_Speed;
 379:My_Top/Motor_Control/DcMotor_ClosedLoop.cpp **** // }
 380:My_Top/Motor_Control/DcMotor_ClosedLoop.cpp **** 
 381:My_Top/Motor_Control/DcMotor_ClosedLoop.cpp **** 
 382:My_Top/Motor_Control/DcMotor_ClosedLoop.cpp **** 
 383:My_Top/Motor_Control/DcMotor_ClosedLoop.cpp **** 
 384:My_Top/Motor_Control/DcMotor_ClosedLoop.cpp **** 
 385:My_Top/Motor_Control/DcMotor_ClosedLoop.cpp **** void DC_Motor::Location_Loop(void)
 386:My_Top/Motor_Control/DcMotor_ClosedLoop.cpp **** {
 387:My_Top/Motor_Control/DcMotor_ClosedLoop.cpp ****     float pos_error = wrap_to_PI(deg2rad(_target_location2) - reg_final);  // Ķ«Īń«ŚÕĮōÕēŹõĮŹńĮ«Ķ»»
 388:My_Top/Motor_Control/DcMotor_ClosedLoop.cpp **** 
 389:My_Top/Motor_Control/DcMotor_ClosedLoop.cpp ****     float pos_abs = fabs(pos_error); // Ķ»»ÕĘ«õĮŹńĮ«ń╗ØÕ»╣ÕĆ╝
 390:My_Top/Motor_Control/DcMotor_ClosedLoop.cpp **** 
 391:My_Top/Motor_Control/DcMotor_ClosedLoop.cpp ****     float vel_abs = fabs(Angular_velocity_final); //ń£¤Õ«×ķĆ¤Õ║”ń╗ØÕ»╣ÕĆ╝
 392:My_Top/Motor_Control/DcMotor_ClosedLoop.cpp **** 
 393:My_Top/Motor_Control/DcMotor_ClosedLoop.cpp **** 
 394:My_Top/Motor_Control/DcMotor_ClosedLoop.cpp ****     if(position_done) // õĮŹńĮ«ńÄ»Õł░õĮŹ
 395:My_Top/Motor_Control/DcMotor_ClosedLoop.cpp ****     {
 396:My_Top/Motor_Control/DcMotor_ClosedLoop.cpp ****         if(pos_abs > deg2rad(0.6f))
 397:My_Top/Motor_Control/DcMotor_ClosedLoop.cpp ****         {
 398:My_Top/Motor_Control/DcMotor_ClosedLoop.cpp ****             position_done = false;
 399:My_Top/Motor_Control/DcMotor_ClosedLoop.cpp ****         }
 400:My_Top/Motor_Control/DcMotor_ClosedLoop.cpp ****     }else // õĮŹńĮ«ńÄ»µ£¬Õł░õĮŹ
 401:My_Top/Motor_Control/DcMotor_ClosedLoop.cpp ****     {
 402:My_Top/Motor_Control/DcMotor_ClosedLoop.cpp ****         if(pos_abs < deg2rad(0.3f) &&vel_abs < deg2rad(4.0f))
 403:My_Top/Motor_Control/DcMotor_ClosedLoop.cpp ****         {
 404:My_Top/Motor_Control/DcMotor_ClosedLoop.cpp ****             position_ok_cnt++;//Ķ┐×ń╗Ł10µ¼Īµ╗ĪĶČ│µØĪõ╗Č’╝īĶ«żõĖ║õĮŹńĮ«Õł░õĮŹ
 405:My_Top/Motor_Control/DcMotor_ClosedLoop.cpp ****             if(position_ok_cnt >= 10)
 406:My_Top/Motor_Control/DcMotor_ClosedLoop.cpp ****             {
 407:My_Top/Motor_Control/DcMotor_ClosedLoop.cpp ****                 position_done = true;
 408:My_Top/Motor_Control/DcMotor_ClosedLoop.cpp ****             }
 409:My_Top/Motor_Control/DcMotor_ClosedLoop.cpp ****         }else
 410:My_Top/Motor_Control/DcMotor_ClosedLoop.cpp ****         {
 411:My_Top/Motor_Control/DcMotor_ClosedLoop.cpp ****             position_ok_cnt = 0;
 412:My_Top/Motor_Control/DcMotor_ClosedLoop.cpp ****         }
 413:My_Top/Motor_Control/DcMotor_ClosedLoop.cpp ****     }
 414:My_Top/Motor_Control/DcMotor_ClosedLoop.cpp **** 
 415:My_Top/Motor_Control/DcMotor_ClosedLoop.cpp **** 
 416:My_Top/Motor_Control/DcMotor_ClosedLoop.cpp ****     if(position_done)  // õĮŹńĮ«ńÄ»Õł░õĮŹ’╝īÕü£µŁóĶŠōÕć║ķĆ¤Õ║”
 417:My_Top/Motor_Control/DcMotor_ClosedLoop.cpp ****     {
 418:My_Top/Motor_Control/DcMotor_ClosedLoop.cpp ****         _target_speed = 0.0f;
 419:My_Top/Motor_Control/DcMotor_ClosedLoop.cpp ****         target_speed_last = 0.0f;
 420:My_Top/Motor_Control/DcMotor_ClosedLoop.cpp ****         return;
 421:My_Top/Motor_Control/DcMotor_ClosedLoop.cpp ****     }
 422:My_Top/Motor_Control/DcMotor_ClosedLoop.cpp **** 
 423:My_Top/Motor_Control/DcMotor_ClosedLoop.cpp ****     float vel_error = -Angular_velocity_final;  //Ķ«Īń«ŚķĆ¤Õ║”Ķ»»ÕĘ«
 424:My_Top/Motor_Control/DcMotor_ClosedLoop.cpp ****     _target_speed = _lqr->update(pos_error, vel_error);  // LQRĶŠōÕć║ńø«µĀćķĆ¤Õ║”
 425:My_Top/Motor_Control/DcMotor_ClosedLoop.cpp ****     //ķĆ¤Õ║”ÕÅśÕī¢µ¢£ÕØĪ
 426:My_Top/Motor_Control/DcMotor_ClosedLoop.cpp ****     float lqr_speed = _lqr->update(pos_error, vel_error);  // LQRĶŠōÕć║ńø«µĀćķĆ¤Õ║”
 427:My_Top/Motor_Control/DcMotor_ClosedLoop.cpp ****     float speed_delta = lqr_speed - target_speed_last;
 428:My_Top/Motor_Control/DcMotor_ClosedLoop.cpp ****     if(speed_delta > 0.002f)
 429:My_Top/Motor_Control/DcMotor_ClosedLoop.cpp ****     {
 430:My_Top/Motor_Control/DcMotor_ClosedLoop.cpp ****         speed_delta = 0.002f;
 431:My_Top/Motor_Control/DcMotor_ClosedLoop.cpp ****     }
ARM GAS  /tmp/cc5lp4CL.s 			page 15


 432:My_Top/Motor_Control/DcMotor_ClosedLoop.cpp ****     else if(speed_delta < -0.002f)
 433:My_Top/Motor_Control/DcMotor_ClosedLoop.cpp ****     {
 434:My_Top/Motor_Control/DcMotor_ClosedLoop.cpp ****         speed_delta = -0.002f;
 435:My_Top/Motor_Control/DcMotor_ClosedLoop.cpp ****     }
 436:My_Top/Motor_Control/DcMotor_ClosedLoop.cpp **** 
 437:My_Top/Motor_Control/DcMotor_ClosedLoop.cpp ****     target_speed_last += speed_delta;
 438:My_Top/Motor_Control/DcMotor_ClosedLoop.cpp **** 
 439:My_Top/Motor_Control/DcMotor_ClosedLoop.cpp ****     _target_speed = target_speed_last;
 440:My_Top/Motor_Control/DcMotor_ClosedLoop.cpp **** 
 441:My_Top/Motor_Control/DcMotor_ClosedLoop.cpp **** }
 442:My_Top/Motor_Control/DcMotor_ClosedLoop.cpp **** 
 443:My_Top/Motor_Control/DcMotor_ClosedLoop.cpp **** 
 444:My_Top/Motor_Control/DcMotor_ClosedLoop.cpp **** 
 445:My_Top/Motor_Control/DcMotor_ClosedLoop.cpp **** 
 446:My_Top/Motor_Control/DcMotor_ClosedLoop.cpp **** 
 447:My_Top/Motor_Control/DcMotor_ClosedLoop.cpp **** void DC_Motor::Thermistor_Temp() //Ķ«Īń«ŚńāŁµĢÅńöĄķś╗µĖ®Õ║”
 448:My_Top/Motor_Control/DcMotor_ClosedLoop.cpp **** {
 449:My_Top/Motor_Control/DcMotor_ClosedLoop.cpp ****     float adc_av_val = 0.0f;
 450:My_Top/Motor_Control/DcMotor_ClosedLoop.cpp ****     
 451:My_Top/Motor_Control/DcMotor_ClosedLoop.cpp ****     adc_av_val = adc_val_avg.filter((float)ADC_Value[_motor_config->adc_channel]); //Õ»╣ADCÕĆ╝Ķ┐øĶĪ
 452:My_Top/Motor_Control/DcMotor_ClosedLoop.cpp ****     // ADC ÕĆ╝Õ╝éÕĖĖ’╝łµé¼ń®║/µ£¬µÄźńāŁµĢÅńöĄķś╗ ĶĘ│Ķ┐ćĶ«Īń«Ś
 453:My_Top/Motor_Control/DcMotor_ClosedLoop.cpp ****     if (adc_av_val < 10.0f || adc_av_val > 4086.0f) return;  // õ┐ØµīüõĖŖµ¼Īµ£ēµĢłµĖ®Õ║”’╝īõĖŹµø┤µ¢
 454:My_Top/Motor_Control/DcMotor_ClosedLoop.cpp **** 
 455:My_Top/Motor_Control/DcMotor_ClosedLoop.cpp ****     ADC_RES_Val = 10.0*(4096-adc_av_val) / adc_av_val; //Ķ«Īń«ŚADCÕĆ╝Õ»╣Õ║öńÜäńöĄķś╗ÕĆ╝Õż¦Õ░Å
 456:My_Top/Motor_Control/DcMotor_ClosedLoop.cpp **** 
 457:My_Top/Motor_Control/DcMotor_ClosedLoop.cpp ****     float inv_T = 1.0f / T0_K + log(ADC_RES_Val / NTC_R0) / NTC_B; //Ķ«Īń«ŚµĖ®Õ║”ńÜäÕĆÆµĢ░ ÕŹĢõĮŹÕ╝
 458:My_Top/Motor_Control/DcMotor_ClosedLoop.cpp ****     
 459:My_Top/Motor_Control/DcMotor_ClosedLoop.cpp ****     ADC_Temp_Val = (1.0f / inv_T) - T0;  //ĶĮ¼µŹóõĖ║µæäµ░ÅÕ║”µĖ®Õ║”
 460:My_Top/Motor_Control/DcMotor_ClosedLoop.cpp **** }
 233              		.loc 1 460 1 is_stmt 1 view -0
 234              		.cfi_startproc
 235              		@ args = 0, pretend = 0, frame = 0
 236              		@ frame_needed = 0, uses_anonymous_args = 0
 237 0000 F0B5     		push	{r4, r5, r6, r7, lr}
 238              		.cfi_def_cfa_offset 20
 239              		.cfi_offset 4, -20
 240              		.cfi_offset 5, -16
 241              		.cfi_offset 6, -12
 242              		.cfi_offset 7, -8
 243              		.cfi_offset 14, -4
 244 0002 83B0     		sub	sp, sp, #12
 245              		.cfi_def_cfa_offset 32
 246              	.LVL14:
 247              	.LBB71:
 248              	.LBI71:
 249              		.file 5 "My_Top/System/kth_read.hpp"
   1:My_Top/System/kth_read.hpp **** #pragma once
   2:My_Top/System/kth_read.hpp **** 
   3:My_Top/System/kth_read.hpp **** #include <stdbool.h>
   4:My_Top/System/kth_read.hpp **** #include "spi.h"
   5:My_Top/System/kth_read.hpp **** #include "FreeRTOS.h"
   6:My_Top/System/kth_read.hpp **** #include "task.h"
   7:My_Top/System/kth_read.hpp **** #include "bsp.hpp"
   8:My_Top/System/kth_read.hpp **** 
   9:My_Top/System/kth_read.hpp **** #define KTH7111_PRECISION (65535.0f) // 2^16-1’╝īń╝¢ńĀüÕÖ©ÕłåĶŠ©ńÄć
  10:My_Top/System/kth_read.hpp **** #define RAW_TO_RAD  (6.28318530717f / KTH7111_PRECISION)// ń╝¢ńĀüÕÖ©ÕÄ¤Õ¦ŗÕĆ╝ĶĮ¼Õ╝¦Õ║”ń│╗µĢ░’╝Ü2ŽĆ 
  11:My_Top/System/kth_read.hpp **** #define RAD_TO_DEG  (180.0f / 3.14159265358979323846f)// Õ╝¦Õ║”ĶĮ¼Ķ¦ÆÕ║”ń│╗µĢ░’╝Ü180 / ŽĆ Ōēł 57.29
ARM GAS  /tmp/cc5lp4CL.s 			page 16


  12:My_Top/System/kth_read.hpp **** #include "ex_math.hpp" 
  13:My_Top/System/kth_read.hpp **** 
  14:My_Top/System/kth_read.hpp **** enum ANLC_Status
  15:My_Top/System/kth_read.hpp **** {
  16:My_Top/System/kth_read.hpp ****     NotStarted = 0,   // µ£¬Õ╝ĆÕ¦ŗĶć¬µĀĪÕćå
  17:My_Top/System/kth_read.hpp ****     InProgress = 1,   // µĀĪÕćåĶ┐øĶĪīõĖŁ
  18:My_Top/System/kth_read.hpp ****     Failed     = 2,   // µĀĪÕćåÕż▒Ķ┤ź
  19:My_Top/System/kth_read.hpp ****     Completed  = 3    // µĀĪÕćåÕ«īµłÉ
  20:My_Top/System/kth_read.hpp **** };
  21:My_Top/System/kth_read.hpp **** 
  22:My_Top/System/kth_read.hpp **** class KTH7111
  23:My_Top/System/kth_read.hpp **** {
  24:My_Top/System/kth_read.hpp **** public:
  25:My_Top/System/kth_read.hpp **** 
  26:My_Top/System/kth_read.hpp **** 
  27:My_Top/System/kth_read.hpp **** 
  28:My_Top/System/kth_read.hpp ****     uint16_t single_turn; // ÕŹĢÕ£łÕÄ¤Õ¦ŗÕĆ╝16õĮŹ
  29:My_Top/System/kth_read.hpp ****     float theta;          // ĶĮ¼µŹóÕÉÄńÜäÕ╝¦Õ║”Ķ¦Æ (0 ~ 2ŽĆ)
  30:My_Top/System/kth_read.hpp ****     float angle;          // ĶĮ¼µŹóÕÉÄńÜäĶ¦ÆÕ║” (0 ~ 360)
  31:My_Top/System/kth_read.hpp ****     bool  encoder_dir; // ń╝¢ńĀüÕÖ©µ¢╣ÕÉæ
  32:My_Top/System/kth_read.hpp ****     KTH7111(const MotorPWM_Config *motor_config)
 250              		.loc 5 32 5 view .LVU59
 251              	.LBB72:
 252              	.LBB73:
  33:My_Top/System/kth_read.hpp ****     : _motor_config(motor_config),
  34:My_Top/System/kth_read.hpp ****       single_turn(0), theta(0.0f), angle(0.0f) {}
 253              		.loc 5 34 7 is_stmt 0 view .LVU60
 254 0004 A54C     		ldr	r4, .L15
 255 0006 0022     		movs	r2, #0
 256 0008 2280     		strh	r2, [r4]	@ movhi
 257              		.loc 5 34 23 view .LVU61
 258 000a 0023     		movs	r3, #0
 259 000c 6360     		str	r3, [r4, #4]	@ float
 260              		.loc 5 34 36 view .LVU62
 261 000e A360     		str	r3, [r4, #8]	@ float
  33:My_Top/System/kth_read.hpp ****     : _motor_config(motor_config),
 262              		.loc 5 33 7 view .LVU63
 263 0010 A349     		ldr	r1, .L15+4
 264 0012 2161     		str	r1, [r4, #16]
 265              	.LVL15:
  33:My_Top/System/kth_read.hpp ****     : _motor_config(motor_config),
 266              		.loc 5 33 7 view .LVU64
 267              	.LBE73:
 268              	.LBE72:
 269              	.LBE71:
 270              	.LBB74:
 271              	.LBI74:
  32:My_Top/System/kth_read.hpp ****     : _motor_config(motor_config),
 272              		.loc 5 32 5 is_stmt 1 view .LVU65
 273              	.LBB75:
 274              	.LBB76:
 275              		.loc 5 34 7 is_stmt 0 view .LVU66
 276 0014 A282     		strh	r2, [r4, #20]	@ movhi
 277              		.loc 5 34 23 view .LVU67
 278 0016 A361     		str	r3, [r4, #24]	@ float
 279              		.loc 5 34 36 view .LVU68
 280 0018 E361     		str	r3, [r4, #28]	@ float
ARM GAS  /tmp/cc5lp4CL.s 			page 17


  33:My_Top/System/kth_read.hpp ****     : _motor_config(motor_config),
 281              		.loc 5 33 7 view .LVU69
 282 001a A24F     		ldr	r7, .L15+8
 283 001c 6762     		str	r7, [r4, #36]
 284              	.LVL16:
  33:My_Top/System/kth_read.hpp ****     : _motor_config(motor_config),
 285              		.loc 5 33 7 view .LVU70
 286              	.LBE76:
 287              	.LBE75:
 288              	.LBE74:
 289              	.LBB77:
 290              	.LBI77:
  32:My_Top/System/kth_read.hpp ****     : _motor_config(motor_config),
 291              		.loc 5 32 5 is_stmt 1 view .LVU71
 292              	.LBB78:
 293              	.LBB79:
 294              		.loc 5 34 7 is_stmt 0 view .LVU72
 295 001e 2285     		strh	r2, [r4, #40]	@ movhi
 296              		.loc 5 34 23 view .LVU73
 297 0020 E362     		str	r3, [r4, #44]	@ float
 298              		.loc 5 34 36 view .LVU74
 299 0022 2363     		str	r3, [r4, #48]	@ float
  33:My_Top/System/kth_read.hpp ****     : _motor_config(motor_config),
 300              		.loc 5 33 7 view .LVU75
 301 0024 A04E     		ldr	r6, .L15+12
 302 0026 A663     		str	r6, [r4, #56]
 303              	.LVL17:
  33:My_Top/System/kth_read.hpp ****     : _motor_config(motor_config),
 304              		.loc 5 33 7 view .LVU76
 305              	.LBE79:
 306              	.LBE78:
 307              	.LBE77:
 308              	.LBB80:
 309              	.LBI80:
  32:My_Top/System/kth_read.hpp ****     : _motor_config(motor_config),
 310              		.loc 5 32 5 is_stmt 1 view .LVU77
 311              	.LBB81:
 312              	.LBB82:
 313              		.loc 5 34 7 is_stmt 0 view .LVU78
 314 0028 A287     		strh	r2, [r4, #60]	@ movhi
 315              		.loc 5 34 23 view .LVU79
 316 002a 2364     		str	r3, [r4, #64]	@ float
 317              		.loc 5 34 36 view .LVU80
 318 002c 6364     		str	r3, [r4, #68]	@ float
  33:My_Top/System/kth_read.hpp ****     : _motor_config(motor_config),
 319              		.loc 5 33 7 view .LVU81
 320 002e 9F4D     		ldr	r5, .L15+16
 321 0030 E564     		str	r5, [r4, #76]
 322              	.LVL18:
  33:My_Top/System/kth_read.hpp ****     : _motor_config(motor_config),
 323              		.loc 5 33 7 view .LVU82
 324              	.LBE82:
 325              	.LBE81:
 326              	.LBE80:
 327              	.LBB83:
 328              	.LBI83:
  29:Lib/compute/pid/pid_Increment.hpp ****     {
ARM GAS  /tmp/cc5lp4CL.s 			page 18


 329              		.loc 2 29 5 is_stmt 1 view .LVU83
 330              	.LBB84:
 331              	.LBB85:
  31:Lib/compute/pid/pid_Increment.hpp ****         _ki = ki;
 332              		.loc 2 31 9 view .LVU84
  31:Lib/compute/pid/pid_Increment.hpp ****         _ki = ki;
 333              		.loc 2 31 13 is_stmt 0 view .LVU85
 334 0032 9FED9F2A 		vldr.32	s4, .L15+20
 335 0036 84ED142A 		vstr.32	s4, [r4, #80]
  32:Lib/compute/pid/pid_Increment.hpp ****         _kd = kd;
 336              		.loc 2 32 9 is_stmt 1 view .LVU86
  32:Lib/compute/pid/pid_Increment.hpp ****         _kd = kd;
 337              		.loc 2 32 13 is_stmt 0 view .LVU87
 338 003a F3EE092A 		vmov.f32	s5, #2.5e+1
 339 003e C4ED152A 		vstr.32	s5, [r4, #84]
  33:Lib/compute/pid/pid_Increment.hpp ****         _dt = dt;
 340              		.loc 2 33 9 is_stmt 1 view .LVU88
  33:Lib/compute/pid/pid_Increment.hpp ****         _dt = dt;
 341              		.loc 2 33 13 is_stmt 0 view .LVU89
 342 0042 9FED9C3A 		vldr.32	s6, .L15+24
 343 0046 84ED163A 		vstr.32	s6, [r4, #88]
  34:Lib/compute/pid/pid_Increment.hpp ****         _max = max;
 344              		.loc 2 34 9 is_stmt 1 view .LVU90
  34:Lib/compute/pid/pid_Increment.hpp ****         _max = max;
 345              		.loc 2 34 13 is_stmt 0 view .LVU91
 346 004a DFED9B3A 		vldr.32	s7, .L15+28
 347 004e C4ED173A 		vstr.32	s7, [r4, #92]
  35:Lib/compute/pid/pid_Increment.hpp ****         _min = min;
 348              		.loc 2 35 9 is_stmt 1 view .LVU92
  35:Lib/compute/pid/pid_Increment.hpp ****         _min = min;
 349              		.loc 2 35 14 is_stmt 0 view .LVU93
 350 0052 9FED9A4A 		vldr.32	s8, .L15+32
 351 0056 84ED184A 		vstr.32	s8, [r4, #96]
  36:Lib/compute/pid/pid_Increment.hpp ****         _e_prev = _e_prev2 = 0.0f;
 352              		.loc 2 36 9 is_stmt 1 view .LVU94
  36:Lib/compute/pid/pid_Increment.hpp ****         _e_prev = _e_prev2 = 0.0f;
 353              		.loc 2 36 14 is_stmt 0 view .LVU95
 354 005a DFED994A 		vldr.32	s9, .L15+36
 355 005e C4ED194A 		vstr.32	s9, [r4, #100]
  37:Lib/compute/pid/pid_Increment.hpp ****         _delta_u = 0.0f;
 356              		.loc 2 37 9 is_stmt 1 view .LVU96
  37:Lib/compute/pid/pid_Increment.hpp ****         _delta_u = 0.0f;
 357              		.loc 2 37 28 is_stmt 0 view .LVU97
 358 0062 E366     		str	r3, [r4, #108]	@ float
  37:Lib/compute/pid/pid_Increment.hpp ****         _delta_u = 0.0f;
 359              		.loc 2 37 17 view .LVU98
 360 0064 A366     		str	r3, [r4, #104]	@ float
  38:Lib/compute/pid/pid_Increment.hpp ****     }
 361              		.loc 2 38 9 is_stmt 1 view .LVU99
  38:Lib/compute/pid/pid_Increment.hpp ****     }
 362              		.loc 2 38 18 is_stmt 0 view .LVU100
 363 0066 2367     		str	r3, [r4, #112]	@ float
 364              	.LVL19:
  38:Lib/compute/pid/pid_Increment.hpp ****     }
 365              		.loc 2 38 18 view .LVU101
 366              	.LBE85:
 367              	.LBE84:
ARM GAS  /tmp/cc5lp4CL.s 			page 19


 368              	.LBE83:
 369              	.LBB86:
 370              	.LBI86:
 371              		.file 6 "Lib/compute/pid/pid.hpp"
   1:Lib/compute/pid/pid.hpp **** #pragma once
   2:Lib/compute/pid/pid.hpp **** 
   3:Lib/compute/pid/pid.hpp **** #define PID_DtHZ (1.0f/16000.0f)
   4:Lib/compute/pid/pid.hpp **** 
   5:Lib/compute/pid/pid.hpp **** class PID
   6:Lib/compute/pid/pid.hpp **** {
   7:Lib/compute/pid/pid.hpp **** public:
   8:Lib/compute/pid/pid.hpp **** 
   9:Lib/compute/pid/pid.hpp **** // µ×äķĆĀÕćĮµĢ░’╝īÕĖ”ķ╗śĶ«żÕÅéµĢ░’╝īµ¢╣õŠ┐õĮ┐ńö©
  10:Lib/compute/pid/pid.hpp ****     PID(float kp = 0.0f, float ki = 0.0f, float kd = 0.0f, float dt = PID_DtHZ, float i_max = 0.66*
 372              		.loc 6 10 5 is_stmt 1 view .LVU102
 373              	.LBB87:
 374              	.LBB88:
  11:Lib/compute/pid/pid.hpp ****         float max = 1.0f, float min = -1.0f)
  12:Lib/compute/pid/pid.hpp ****         : _kp(kp), _ki(ki), _kd(kd), _dt(dt), _i_max(i_max),_max(max), _min(min),
 375              		.loc 6 12 11 is_stmt 0 view .LVU103
 376 0068 9FED965A 		vldr.32	s10, .L15+40
 377 006c 84ED1D5A 		vstr.32	s10, [r4, #116]
 378              		.loc 6 12 20 view .LVU104
 379 0070 A367     		str	r3, [r4, #120]	@ float
 380              		.loc 6 12 29 view .LVU105
 381 0072 E367     		str	r3, [r4, #124]	@ float
 382              		.loc 6 12 38 view .LVU106
 383 0074 DFED945A 		vldr.32	s11, .L15+44
 384 0078 C4ED205A 		vstr.32	s11, [r4, #128]
 385              		.loc 6 12 47 view .LVU107
 386 007c 9FED936A 		vldr.32	s12, .L15+48
 387 0080 84ED216A 		vstr.32	s12, [r4, #132]
 388              		.loc 6 12 61 view .LVU108
 389 0084 DFED926A 		vldr.32	s13, .L15+52
 390 0088 C4ED226A 		vstr.32	s13, [r4, #136]
 391              		.loc 6 12 72 view .LVU109
 392 008c 9FED917A 		vldr.32	s14, .L15+56
 393 0090 84ED237A 		vstr.32	s14, [r4, #140]
  13:Lib/compute/pid/pid.hpp ****           _error(0.0f), _prev_error(0.0f), P_OUT(0.0f), I_OUT(0.0f), D_OUT(0.0f),
 394              		.loc 6 13 11 view .LVU110
 395 0094 C4F89030 		str	r3, [r4, #144]	@ float
 396              		.loc 6 13 25 view .LVU111
 397 0098 C4F89430 		str	r3, [r4, #148]	@ float
 398              		.loc 6 13 44 view .LVU112
 399 009c C4F89830 		str	r3, [r4, #152]	@ float
 400              		.loc 6 13 57 view .LVU113
 401 00a0 C4F89C30 		str	r3, [r4, #156]	@ float
 402              		.loc 6 13 70 view .LVU114
 403 00a4 C4F8A030 		str	r3, [r4, #160]	@ float
  14:Lib/compute/pid/pid.hpp ****           _output(0.0f), max_out_flag(false) {}
 404              		.loc 6 14 11 view .LVU115
 405 00a8 C4F8A430 		str	r3, [r4, #164]	@ float
 406              		.loc 6 14 26 view .LVU116
 407 00ac 84F8A820 		strb	r2, [r4, #168]
 408              	.LVL20:
 409              		.loc 6 14 26 view .LVU117
 410              	.LBE88:
ARM GAS  /tmp/cc5lp4CL.s 			page 20


 411              	.LBE87:
 412              	.LBE86:
 413              	.LBB89:
 414              	.LBI89:
 415              		.file 7 "Lib/compute/pid/LQR.hpp"
   1:Lib/compute/pid/LQR.hpp **** #pragma once 
   2:Lib/compute/pid/LQR.hpp **** 
   3:Lib/compute/pid/LQR.hpp **** class LQR
   4:Lib/compute/pid/LQR.hpp **** {
   5:Lib/compute/pid/LQR.hpp **** public:
   6:Lib/compute/pid/LQR.hpp ****     float _k1;   // õĮŹńĮ«Ķ»»ÕĘ«Õó×ńøŖ’╝łń”╗ń║┐ń«ŚÕźĮ’╝ē
   7:Lib/compute/pid/LQR.hpp ****     float _k2;   // ķĆ¤Õ║”Ķ»»ÕĘ«Õó×ńøŖ’╝łń”╗ń║┐ń«ŚÕźĮ’╝ē
   8:Lib/compute/pid/LQR.hpp ****     float _max;  // ĶŠōÕć║õĖŖķÖÉ
   9:Lib/compute/pid/LQR.hpp ****     float _min;  // ĶŠōÕć║õĖŗķÖÉ
  10:Lib/compute/pid/LQR.hpp **** 
  11:Lib/compute/pid/LQR.hpp ****     // µ×äķĆĀÕćĮµĢ░’╝īÕĖ”ķ╗śĶ«żÕÅéµĢ░
  12:Lib/compute/pid/LQR.hpp ****     LQR(float k1 = 0.0f, float k2 = 0.0f, float max = 1.0f, float min = -1.0f)
 416              		.loc 7 12 5 is_stmt 1 view .LVU118
 417              	.LBB90:
 418              	.LBB91:
  13:Lib/compute/pid/LQR.hpp ****         : _k1(k1), _k2(k2), _max(max), _min(min), _output(0.0f) {}
 419              		.loc 7 13 11 is_stmt 0 view .LVU119
 420 00b0 F1EE067A 		vmov.f32	s15, #5.5e+0
 421 00b4 C4ED2B7A 		vstr.32	s15, [r4, #172]
 422              		.loc 7 13 20 view .LVU120
 423 00b8 DFF820E2 		ldr	lr, .L15+64
 424 00bc C4F8B0E0 		str	lr, [r4, #176]	@ float
 425              		.loc 7 13 29 view .LVU121
 426 00c0 DFF81CC2 		ldr	ip, .L15+68
 427 00c4 C4F8B4C0 		str	ip, [r4, #180]	@ float
 428              		.loc 7 13 40 view .LVU122
 429 00c8 8348     		ldr	r0, .L15+60
 430 00ca C4F8B800 		str	r0, [r4, #184]	@ float
 431              		.loc 7 13 51 view .LVU123
 432 00ce C4F8BC30 		str	r3, [r4, #188]	@ float
 433              	.LVL21:
 434              		.loc 7 13 51 view .LVU124
 435              	.LBE91:
 436              	.LBE90:
 437              	.LBE89:
 438              	.LBB92:
 439              	.LBI92:
  29:Lib/compute/pid/pid_Increment.hpp ****     {
 440              		.loc 2 29 5 is_stmt 1 view .LVU125
 441              	.LBB93:
 442              	.LBB94:
  31:Lib/compute/pid/pid_Increment.hpp ****         _ki = ki;
 443              		.loc 2 31 9 view .LVU126
  31:Lib/compute/pid/pid_Increment.hpp ****         _ki = ki;
 444              		.loc 2 31 13 is_stmt 0 view .LVU127
 445 00d2 84ED302A 		vstr.32	s4, [r4, #192]
  32:Lib/compute/pid/pid_Increment.hpp ****         _kd = kd;
 446              		.loc 2 32 9 is_stmt 1 view .LVU128
  32:Lib/compute/pid/pid_Increment.hpp ****         _kd = kd;
 447              		.loc 2 32 13 is_stmt 0 view .LVU129
 448 00d6 C4ED312A 		vstr.32	s5, [r4, #196]
  33:Lib/compute/pid/pid_Increment.hpp ****         _dt = dt;
ARM GAS  /tmp/cc5lp4CL.s 			page 21


 449              		.loc 2 33 9 is_stmt 1 view .LVU130
  33:Lib/compute/pid/pid_Increment.hpp ****         _dt = dt;
 450              		.loc 2 33 13 is_stmt 0 view .LVU131
 451 00da 84ED323A 		vstr.32	s6, [r4, #200]
  34:Lib/compute/pid/pid_Increment.hpp ****         _max = max;
 452              		.loc 2 34 9 is_stmt 1 view .LVU132
  34:Lib/compute/pid/pid_Increment.hpp ****         _max = max;
 453              		.loc 2 34 13 is_stmt 0 view .LVU133
 454 00de C4ED333A 		vstr.32	s7, [r4, #204]
  35:Lib/compute/pid/pid_Increment.hpp ****         _min = min;
 455              		.loc 2 35 9 is_stmt 1 view .LVU134
  35:Lib/compute/pid/pid_Increment.hpp ****         _min = min;
 456              		.loc 2 35 14 is_stmt 0 view .LVU135
 457 00e2 84ED344A 		vstr.32	s8, [r4, #208]
  36:Lib/compute/pid/pid_Increment.hpp ****         _e_prev = _e_prev2 = 0.0f;
 458              		.loc 2 36 9 is_stmt 1 view .LVU136
  36:Lib/compute/pid/pid_Increment.hpp ****         _e_prev = _e_prev2 = 0.0f;
 459              		.loc 2 36 14 is_stmt 0 view .LVU137
 460 00e6 C4ED354A 		vstr.32	s9, [r4, #212]
  37:Lib/compute/pid/pid_Increment.hpp ****         _delta_u = 0.0f;
 461              		.loc 2 37 9 is_stmt 1 view .LVU138
  37:Lib/compute/pid/pid_Increment.hpp ****         _delta_u = 0.0f;
 462              		.loc 2 37 28 is_stmt 0 view .LVU139
 463 00ea C4F8DC30 		str	r3, [r4, #220]	@ float
  37:Lib/compute/pid/pid_Increment.hpp ****         _delta_u = 0.0f;
 464              		.loc 2 37 17 view .LVU140
 465 00ee C4F8D830 		str	r3, [r4, #216]	@ float
  38:Lib/compute/pid/pid_Increment.hpp ****     }
 466              		.loc 2 38 9 is_stmt 1 view .LVU141
  38:Lib/compute/pid/pid_Increment.hpp ****     }
 467              		.loc 2 38 18 is_stmt 0 view .LVU142
 468 00f2 C4F8E030 		str	r3, [r4, #224]	@ float
 469              	.LVL22:
  38:Lib/compute/pid/pid_Increment.hpp ****     }
 470              		.loc 2 38 18 view .LVU143
 471              	.LBE94:
 472              	.LBE93:
 473              	.LBE92:
 474              	.LBB95:
 475              	.LBI95:
  10:Lib/compute/pid/pid.hpp ****         float max = 1.0f, float min = -1.0f)
 476              		.loc 6 10 5 is_stmt 1 view .LVU144
 477              	.LBB96:
 478              	.LBB97:
  12:Lib/compute/pid/pid.hpp ****           _error(0.0f), _prev_error(0.0f), P_OUT(0.0f), I_OUT(0.0f), D_OUT(0.0f),
 479              		.loc 6 12 11 is_stmt 0 view .LVU145
 480 00f6 84ED395A 		vstr.32	s10, [r4, #228]
  12:Lib/compute/pid/pid.hpp ****           _error(0.0f), _prev_error(0.0f), P_OUT(0.0f), I_OUT(0.0f), D_OUT(0.0f),
 481              		.loc 6 12 20 view .LVU146
 482 00fa C4F8E830 		str	r3, [r4, #232]	@ float
  12:Lib/compute/pid/pid.hpp ****           _error(0.0f), _prev_error(0.0f), P_OUT(0.0f), I_OUT(0.0f), D_OUT(0.0f),
 483              		.loc 6 12 29 view .LVU147
 484 00fe C4F8EC30 		str	r3, [r4, #236]	@ float
  12:Lib/compute/pid/pid.hpp ****           _error(0.0f), _prev_error(0.0f), P_OUT(0.0f), I_OUT(0.0f), D_OUT(0.0f),
 485              		.loc 6 12 38 view .LVU148
 486 0102 C4ED3C5A 		vstr.32	s11, [r4, #240]
  12:Lib/compute/pid/pid.hpp ****           _error(0.0f), _prev_error(0.0f), P_OUT(0.0f), I_OUT(0.0f), D_OUT(0.0f),
ARM GAS  /tmp/cc5lp4CL.s 			page 22


 487              		.loc 6 12 47 view .LVU149
 488 0106 84ED3D6A 		vstr.32	s12, [r4, #244]
  12:Lib/compute/pid/pid.hpp ****           _error(0.0f), _prev_error(0.0f), P_OUT(0.0f), I_OUT(0.0f), D_OUT(0.0f),
 489              		.loc 6 12 61 view .LVU150
 490 010a C4ED3E6A 		vstr.32	s13, [r4, #248]
  12:Lib/compute/pid/pid.hpp ****           _error(0.0f), _prev_error(0.0f), P_OUT(0.0f), I_OUT(0.0f), D_OUT(0.0f),
 491              		.loc 6 12 72 view .LVU151
 492 010e 84ED3F7A 		vstr.32	s14, [r4, #252]
  13:Lib/compute/pid/pid.hpp ****           _output(0.0f), max_out_flag(false) {}
 493              		.loc 6 13 11 view .LVU152
 494 0112 C4F80031 		str	r3, [r4, #256]	@ float
  13:Lib/compute/pid/pid.hpp ****           _output(0.0f), max_out_flag(false) {}
 495              		.loc 6 13 25 view .LVU153
 496 0116 C4F80431 		str	r3, [r4, #260]	@ float
  13:Lib/compute/pid/pid.hpp ****           _output(0.0f), max_out_flag(false) {}
 497              		.loc 6 13 44 view .LVU154
 498 011a C4F80831 		str	r3, [r4, #264]	@ float
  13:Lib/compute/pid/pid.hpp ****           _output(0.0f), max_out_flag(false) {}
 499              		.loc 6 13 57 view .LVU155
 500 011e C4F80C31 		str	r3, [r4, #268]	@ float
  13:Lib/compute/pid/pid.hpp ****           _output(0.0f), max_out_flag(false) {}
 501              		.loc 6 13 70 view .LVU156
 502 0122 C4F81031 		str	r3, [r4, #272]	@ float
 503              		.loc 6 14 11 view .LVU157
 504 0126 C4F81431 		str	r3, [r4, #276]	@ float
 505              		.loc 6 14 26 view .LVU158
 506 012a 84F81821 		strb	r2, [r4, #280]
 507              	.LVL23:
 508              		.loc 6 14 26 view .LVU159
 509              	.LBE97:
 510              	.LBE96:
 511              	.LBE95:
 512              	.LBB98:
 513              	.LBI98:
  12:Lib/compute/pid/LQR.hpp ****         : _k1(k1), _k2(k2), _max(max), _min(min), _output(0.0f) {}
 514              		.loc 7 12 5 is_stmt 1 view .LVU160
 515              	.LBB99:
 516              	.LBB100:
 517              		.loc 7 13 11 is_stmt 0 view .LVU161
 518 012e C4ED477A 		vstr.32	s15, [r4, #284]
 519              		.loc 7 13 20 view .LVU162
 520 0132 C4F820E1 		str	lr, [r4, #288]	@ float
 521              		.loc 7 13 29 view .LVU163
 522 0136 C4F824C1 		str	ip, [r4, #292]	@ float
 523              		.loc 7 13 40 view .LVU164
 524 013a C4F82801 		str	r0, [r4, #296]	@ float
 525              		.loc 7 13 51 view .LVU165
 526 013e C4F82C31 		str	r3, [r4, #300]	@ float
 527              	.LVL24:
 528              		.loc 7 13 51 view .LVU166
 529              	.LBE100:
 530              	.LBE99:
 531              	.LBE98:
 532              	.LBB101:
 533              	.LBI101:
  29:Lib/compute/pid/pid_Increment.hpp ****     {
 534              		.loc 2 29 5 is_stmt 1 view .LVU167
ARM GAS  /tmp/cc5lp4CL.s 			page 23


 535              	.LBB102:
 536              	.LBB103:
  31:Lib/compute/pid/pid_Increment.hpp ****         _ki = ki;
 537              		.loc 2 31 9 view .LVU168
  31:Lib/compute/pid/pid_Increment.hpp ****         _ki = ki;
 538              		.loc 2 31 13 is_stmt 0 view .LVU169
 539 0142 84ED4C2A 		vstr.32	s4, [r4, #304]
  32:Lib/compute/pid/pid_Increment.hpp ****         _kd = kd;
 540              		.loc 2 32 9 is_stmt 1 view .LVU170
  32:Lib/compute/pid/pid_Increment.hpp ****         _kd = kd;
 541              		.loc 2 32 13 is_stmt 0 view .LVU171
 542 0146 C4ED4D2A 		vstr.32	s5, [r4, #308]
  33:Lib/compute/pid/pid_Increment.hpp ****         _dt = dt;
 543              		.loc 2 33 9 is_stmt 1 view .LVU172
  33:Lib/compute/pid/pid_Increment.hpp ****         _dt = dt;
 544              		.loc 2 33 13 is_stmt 0 view .LVU173
 545 014a 84ED4E3A 		vstr.32	s6, [r4, #312]
  34:Lib/compute/pid/pid_Increment.hpp ****         _max = max;
 546              		.loc 2 34 9 is_stmt 1 view .LVU174
  34:Lib/compute/pid/pid_Increment.hpp ****         _max = max;
 547              		.loc 2 34 13 is_stmt 0 view .LVU175
 548 014e C4ED4F3A 		vstr.32	s7, [r4, #316]
  35:Lib/compute/pid/pid_Increment.hpp ****         _min = min;
 549              		.loc 2 35 9 is_stmt 1 view .LVU176
  35:Lib/compute/pid/pid_Increment.hpp ****         _min = min;
 550              		.loc 2 35 14 is_stmt 0 view .LVU177
 551 0152 84ED504A 		vstr.32	s8, [r4, #320]
  36:Lib/compute/pid/pid_Increment.hpp ****         _e_prev = _e_prev2 = 0.0f;
 552              		.loc 2 36 9 is_stmt 1 view .LVU178
  36:Lib/compute/pid/pid_Increment.hpp ****         _e_prev = _e_prev2 = 0.0f;
 553              		.loc 2 36 14 is_stmt 0 view .LVU179
 554 0156 C4ED514A 		vstr.32	s9, [r4, #324]
  37:Lib/compute/pid/pid_Increment.hpp ****         _delta_u = 0.0f;
 555              		.loc 2 37 9 is_stmt 1 view .LVU180
  37:Lib/compute/pid/pid_Increment.hpp ****         _delta_u = 0.0f;
 556              		.loc 2 37 28 is_stmt 0 view .LVU181
 557 015a C4F84C31 		str	r3, [r4, #332]	@ float
  37:Lib/compute/pid/pid_Increment.hpp ****         _delta_u = 0.0f;
 558              		.loc 2 37 17 view .LVU182
 559 015e C4F84831 		str	r3, [r4, #328]	@ float
  38:Lib/compute/pid/pid_Increment.hpp ****     }
 560              		.loc 2 38 9 is_stmt 1 view .LVU183
  38:Lib/compute/pid/pid_Increment.hpp ****     }
 561              		.loc 2 38 18 is_stmt 0 view .LVU184
 562 0162 C4F85031 		str	r3, [r4, #336]	@ float
 563              	.LVL25:
  38:Lib/compute/pid/pid_Increment.hpp ****     }
 564              		.loc 2 38 18 view .LVU185
 565              	.LBE103:
 566              	.LBE102:
 567              	.LBE101:
 568              	.LBB104:
 569              	.LBI104:
  10:Lib/compute/pid/pid.hpp ****         float max = 1.0f, float min = -1.0f)
 570              		.loc 6 10 5 is_stmt 1 view .LVU186
 571              	.LBB105:
 572              	.LBB106:
ARM GAS  /tmp/cc5lp4CL.s 			page 24


  12:Lib/compute/pid/pid.hpp ****           _error(0.0f), _prev_error(0.0f), P_OUT(0.0f), I_OUT(0.0f), D_OUT(0.0f),
 573              		.loc 6 12 11 is_stmt 0 view .LVU187
 574 0166 84ED555A 		vstr.32	s10, [r4, #340]
  12:Lib/compute/pid/pid.hpp ****           _error(0.0f), _prev_error(0.0f), P_OUT(0.0f), I_OUT(0.0f), D_OUT(0.0f),
 575              		.loc 6 12 20 view .LVU188
 576 016a C4F85831 		str	r3, [r4, #344]	@ float
  12:Lib/compute/pid/pid.hpp ****           _error(0.0f), _prev_error(0.0f), P_OUT(0.0f), I_OUT(0.0f), D_OUT(0.0f),
 577              		.loc 6 12 29 view .LVU189
 578 016e C4F85C31 		str	r3, [r4, #348]	@ float
  12:Lib/compute/pid/pid.hpp ****           _error(0.0f), _prev_error(0.0f), P_OUT(0.0f), I_OUT(0.0f), D_OUT(0.0f),
 579              		.loc 6 12 38 view .LVU190
 580 0172 C4ED585A 		vstr.32	s11, [r4, #352]
  12:Lib/compute/pid/pid.hpp ****           _error(0.0f), _prev_error(0.0f), P_OUT(0.0f), I_OUT(0.0f), D_OUT(0.0f),
 581              		.loc 6 12 47 view .LVU191
 582 0176 84ED596A 		vstr.32	s12, [r4, #356]
  12:Lib/compute/pid/pid.hpp ****           _error(0.0f), _prev_error(0.0f), P_OUT(0.0f), I_OUT(0.0f), D_OUT(0.0f),
 583              		.loc 6 12 61 view .LVU192
 584 017a C4ED5A6A 		vstr.32	s13, [r4, #360]
  12:Lib/compute/pid/pid.hpp ****           _error(0.0f), _prev_error(0.0f), P_OUT(0.0f), I_OUT(0.0f), D_OUT(0.0f),
 585              		.loc 6 12 72 view .LVU193
 586 017e 84ED5B7A 		vstr.32	s14, [r4, #364]
  13:Lib/compute/pid/pid.hpp ****           _output(0.0f), max_out_flag(false) {}
 587              		.loc 6 13 11 view .LVU194
 588 0182 C4F87031 		str	r3, [r4, #368]	@ float
  13:Lib/compute/pid/pid.hpp ****           _output(0.0f), max_out_flag(false) {}
 589              		.loc 6 13 25 view .LVU195
 590 0186 C4F87431 		str	r3, [r4, #372]	@ float
  13:Lib/compute/pid/pid.hpp ****           _output(0.0f), max_out_flag(false) {}
 591              		.loc 6 13 44 view .LVU196
 592 018a C4F87831 		str	r3, [r4, #376]	@ float
  13:Lib/compute/pid/pid.hpp ****           _output(0.0f), max_out_flag(false) {}
 593              		.loc 6 13 57 view .LVU197
 594 018e C4F87C31 		str	r3, [r4, #380]	@ float
  13:Lib/compute/pid/pid.hpp ****           _output(0.0f), max_out_flag(false) {}
 595              		.loc 6 13 70 view .LVU198
 596 0192 C4F88031 		str	r3, [r4, #384]	@ float
 597              		.loc 6 14 11 view .LVU199
 598 0196 C4F88431 		str	r3, [r4, #388]	@ float
 599              		.loc 6 14 26 view .LVU200
 600 019a 84F88821 		strb	r2, [r4, #392]
 601              	.LVL26:
 602              		.loc 6 14 26 view .LVU201
 603              	.LBE106:
 604              	.LBE105:
 605              	.LBE104:
 606              	.LBB107:
 607              	.LBI107:
  12:Lib/compute/pid/LQR.hpp ****         : _k1(k1), _k2(k2), _max(max), _min(min), _output(0.0f) {}
 608              		.loc 7 12 5 is_stmt 1 view .LVU202
 609              	.LBB108:
 610              	.LBB109:
 611              		.loc 7 13 11 is_stmt 0 view .LVU203
 612 019e C4ED637A 		vstr.32	s15, [r4, #396]
 613              		.loc 7 13 20 view .LVU204
 614 01a2 C4F890E1 		str	lr, [r4, #400]	@ float
 615              		.loc 7 13 29 view .LVU205
 616 01a6 C4F894C1 		str	ip, [r4, #404]	@ float
ARM GAS  /tmp/cc5lp4CL.s 			page 25


 617              		.loc 7 13 40 view .LVU206
 618 01aa C4F89801 		str	r0, [r4, #408]	@ float
 619              		.loc 7 13 51 view .LVU207
 620 01ae C4F89C31 		str	r3, [r4, #412]	@ float
 621              	.LVL27:
 622              		.loc 7 13 51 view .LVU208
 623              	.LBE109:
 624              	.LBE108:
 625              	.LBE107:
 626              	.LBB110:
 627              	.LBI110:
  29:Lib/compute/pid/pid_Increment.hpp ****     {
 628              		.loc 2 29 5 is_stmt 1 view .LVU209
 629              	.LBB111:
 630              	.LBB112:
  31:Lib/compute/pid/pid_Increment.hpp ****         _ki = ki;
 631              		.loc 2 31 9 view .LVU210
  31:Lib/compute/pid/pid_Increment.hpp ****         _ki = ki;
 632              		.loc 2 31 13 is_stmt 0 view .LVU211
 633 01b2 84ED682A 		vstr.32	s4, [r4, #416]
  32:Lib/compute/pid/pid_Increment.hpp ****         _kd = kd;
 634              		.loc 2 32 9 is_stmt 1 view .LVU212
  32:Lib/compute/pid/pid_Increment.hpp ****         _kd = kd;
 635              		.loc 2 32 13 is_stmt 0 view .LVU213
 636 01b6 C4ED692A 		vstr.32	s5, [r4, #420]
  33:Lib/compute/pid/pid_Increment.hpp ****         _dt = dt;
 637              		.loc 2 33 9 is_stmt 1 view .LVU214
  33:Lib/compute/pid/pid_Increment.hpp ****         _dt = dt;
 638              		.loc 2 33 13 is_stmt 0 view .LVU215
 639 01ba 84ED6A3A 		vstr.32	s6, [r4, #424]
  34:Lib/compute/pid/pid_Increment.hpp ****         _max = max;
 640              		.loc 2 34 9 is_stmt 1 view .LVU216
  34:Lib/compute/pid/pid_Increment.hpp ****         _max = max;
 641              		.loc 2 34 13 is_stmt 0 view .LVU217
 642 01be C4ED6B3A 		vstr.32	s7, [r4, #428]
  35:Lib/compute/pid/pid_Increment.hpp ****         _min = min;
 643              		.loc 2 35 9 is_stmt 1 view .LVU218
  35:Lib/compute/pid/pid_Increment.hpp ****         _min = min;
 644              		.loc 2 35 14 is_stmt 0 view .LVU219
 645 01c2 84ED6C4A 		vstr.32	s8, [r4, #432]
  36:Lib/compute/pid/pid_Increment.hpp ****         _e_prev = _e_prev2 = 0.0f;
 646              		.loc 2 36 9 is_stmt 1 view .LVU220
  36:Lib/compute/pid/pid_Increment.hpp ****         _e_prev = _e_prev2 = 0.0f;
 647              		.loc 2 36 14 is_stmt 0 view .LVU221
 648 01c6 C4ED6D4A 		vstr.32	s9, [r4, #436]
  37:Lib/compute/pid/pid_Increment.hpp ****         _delta_u = 0.0f;
 649              		.loc 2 37 9 is_stmt 1 view .LVU222
  37:Lib/compute/pid/pid_Increment.hpp ****         _delta_u = 0.0f;
 650              		.loc 2 37 28 is_stmt 0 view .LVU223
 651 01ca C4F8BC31 		str	r3, [r4, #444]	@ float
  37:Lib/compute/pid/pid_Increment.hpp ****         _delta_u = 0.0f;
 652              		.loc 2 37 17 view .LVU224
 653 01ce C4F8B831 		str	r3, [r4, #440]	@ float
  38:Lib/compute/pid/pid_Increment.hpp ****     }
 654              		.loc 2 38 9 is_stmt 1 view .LVU225
  38:Lib/compute/pid/pid_Increment.hpp ****     }
 655              		.loc 2 38 18 is_stmt 0 view .LVU226
ARM GAS  /tmp/cc5lp4CL.s 			page 26


 656 01d2 C4F8C031 		str	r3, [r4, #448]	@ float
 657              	.LVL28:
  38:Lib/compute/pid/pid_Increment.hpp ****     }
 658              		.loc 2 38 18 view .LVU227
 659              	.LBE112:
 660              	.LBE111:
 661              	.LBE110:
 662              	.LBB113:
 663              	.LBI113:
  10:Lib/compute/pid/pid.hpp ****         float max = 1.0f, float min = -1.0f)
 664              		.loc 6 10 5 is_stmt 1 view .LVU228
 665              	.LBB114:
 666              	.LBB115:
  12:Lib/compute/pid/pid.hpp ****           _error(0.0f), _prev_error(0.0f), P_OUT(0.0f), I_OUT(0.0f), D_OUT(0.0f),
 667              		.loc 6 12 11 is_stmt 0 view .LVU229
 668 01d6 84ED715A 		vstr.32	s10, [r4, #452]
  12:Lib/compute/pid/pid.hpp ****           _error(0.0f), _prev_error(0.0f), P_OUT(0.0f), I_OUT(0.0f), D_OUT(0.0f),
 669              		.loc 6 12 20 view .LVU230
 670 01da C4F8C831 		str	r3, [r4, #456]	@ float
  12:Lib/compute/pid/pid.hpp ****           _error(0.0f), _prev_error(0.0f), P_OUT(0.0f), I_OUT(0.0f), D_OUT(0.0f),
 671              		.loc 6 12 29 view .LVU231
 672 01de C4F8CC31 		str	r3, [r4, #460]	@ float
  12:Lib/compute/pid/pid.hpp ****           _error(0.0f), _prev_error(0.0f), P_OUT(0.0f), I_OUT(0.0f), D_OUT(0.0f),
 673              		.loc 6 12 38 view .LVU232
 674 01e2 C4ED745A 		vstr.32	s11, [r4, #464]
  12:Lib/compute/pid/pid.hpp ****           _error(0.0f), _prev_error(0.0f), P_OUT(0.0f), I_OUT(0.0f), D_OUT(0.0f),
 675              		.loc 6 12 47 view .LVU233
 676 01e6 84ED756A 		vstr.32	s12, [r4, #468]
  12:Lib/compute/pid/pid.hpp ****           _error(0.0f), _prev_error(0.0f), P_OUT(0.0f), I_OUT(0.0f), D_OUT(0.0f),
 677              		.loc 6 12 61 view .LVU234
 678 01ea C4ED766A 		vstr.32	s13, [r4, #472]
  12:Lib/compute/pid/pid.hpp ****           _error(0.0f), _prev_error(0.0f), P_OUT(0.0f), I_OUT(0.0f), D_OUT(0.0f),
 679              		.loc 6 12 72 view .LVU235
 680 01ee 84ED777A 		vstr.32	s14, [r4, #476]
  13:Lib/compute/pid/pid.hpp ****           _output(0.0f), max_out_flag(false) {}
 681              		.loc 6 13 11 view .LVU236
 682 01f2 C4F8E031 		str	r3, [r4, #480]	@ float
  13:Lib/compute/pid/pid.hpp ****           _output(0.0f), max_out_flag(false) {}
 683              		.loc 6 13 25 view .LVU237
 684 01f6 C4F8E431 		str	r3, [r4, #484]	@ float
  13:Lib/compute/pid/pid.hpp ****           _output(0.0f), max_out_flag(false) {}
 685              		.loc 6 13 44 view .LVU238
 686 01fa C4F8E831 		str	r3, [r4, #488]	@ float
  13:Lib/compute/pid/pid.hpp ****           _output(0.0f), max_out_flag(false) {}
 687              		.loc 6 13 57 view .LVU239
 688 01fe C4F8EC31 		str	r3, [r4, #492]	@ float
  13:Lib/compute/pid/pid.hpp ****           _output(0.0f), max_out_flag(false) {}
 689              		.loc 6 13 70 view .LVU240
 690 0202 C4F8F031 		str	r3, [r4, #496]	@ float
 691              		.loc 6 14 11 view .LVU241
 692 0206 C4F8F431 		str	r3, [r4, #500]	@ float
 693              		.loc 6 14 26 view .LVU242
 694 020a 84F8F821 		strb	r2, [r4, #504]
 695              	.LVL29:
 696              		.loc 6 14 26 view .LVU243
 697              	.LBE115:
 698              	.LBE114:
ARM GAS  /tmp/cc5lp4CL.s 			page 27


 699              	.LBE113:
 700              	.LBB116:
 701              	.LBI116:
  12:Lib/compute/pid/LQR.hpp ****         : _k1(k1), _k2(k2), _max(max), _min(min), _output(0.0f) {}
 702              		.loc 7 12 5 is_stmt 1 view .LVU244
 703              	.LBB117:
 704              	.LBB118:
 705              		.loc 7 13 11 is_stmt 0 view .LVU245
 706 020e C4ED7F7A 		vstr.32	s15, [r4, #508]
 707              		.loc 7 13 20 view .LVU246
 708 0212 C4F800E2 		str	lr, [r4, #512]	@ float
 709              		.loc 7 13 29 view .LVU247
 710 0216 C4F804C2 		str	ip, [r4, #516]	@ float
 711              		.loc 7 13 40 view .LVU248
 712 021a C4F80802 		str	r0, [r4, #520]	@ float
 713              		.loc 7 13 51 view .LVU249
 714 021e C4F80C32 		str	r3, [r4, #524]	@ float
 715              	.LVL30:
 716              		.loc 7 13 51 view .LVU250
 717              	.LBE118:
 718              	.LBE117:
 719              	.LBE116:
 168:My_Top/Motor_Control/DcMotor_ClosedLoop.cpp **** DC_Motor M2(&M2_PWM, &kth7111_M2, &pid_spd_M2, &pid_loc_M2,&lqr_M2); //ńöĄµ£║2
 720              		.loc 1 168 67 view .LVU251
 721 0222 04F1AC03 		add	r3, r4, #172
 722 0226 0193     		str	r3, [sp, #4]
 723 0228 04F17403 		add	r3, r4, #116
 724 022c 0093     		str	r3, [sp]
 725 022e 04F15003 		add	r3, r4, #80
 726 0232 2246     		mov	r2, r4
 727 0234 04F50470 		add	r0, r4, #528
 728 0238 FFF7FEFF 		bl	_ZN8DC_MotorC1EPK15MotorPWM_ConfigP7KTH7111P13PID_IncrementP3PIDP3LQR
 729              	.LVL31:
 169:My_Top/Motor_Control/DcMotor_ClosedLoop.cpp **** DC_Motor M3(&M3_PWM, &kth7111_M3, &pid_spd_M3, &pid_loc_M3,&lqr_M3); //ńöĄµ£║3
 730              		.loc 1 169 67 view .LVU252
 731 023c 04F58E73 		add	r3, r4, #284
 732 0240 0193     		str	r3, [sp, #4]
 733 0242 04F1E403 		add	r3, r4, #228
 734 0246 0093     		str	r3, [sp]
 735 0248 04F1C003 		add	r3, r4, #192
 736 024c 04F11402 		add	r2, r4, #20
 737 0250 3946     		mov	r1, r7
 738 0252 04F53E70 		add	r0, r4, #760
 739 0256 FFF7FEFF 		bl	_ZN8DC_MotorC1EPK15MotorPWM_ConfigP7KTH7111P13PID_IncrementP3PIDP3LQR
 740              	.LVL32:
 170:My_Top/Motor_Control/DcMotor_ClosedLoop.cpp **** DC_Motor M4(&M4_PWM, &kth7111_M4, &pid_spd_M4, &pid_loc_M4,&lqr_M4); //ńöĄµ£║4
 741              		.loc 1 170 67 view .LVU253
 742 025a 04F5C673 		add	r3, r4, #396
 743 025e 0193     		str	r3, [sp, #4]
 744 0260 04F5AA73 		add	r3, r4, #340
 745 0264 0093     		str	r3, [sp]
 746 0266 04F59873 		add	r3, r4, #304
 747 026a 04F12802 		add	r2, r4, #40
 748 026e 3146     		mov	r1, r6
 749 0270 04F57870 		add	r0, r4, #992
 750 0274 FFF7FEFF 		bl	_ZN8DC_MotorC1EPK15MotorPWM_ConfigP7KTH7111P13PID_IncrementP3PIDP3LQR
 751              	.LVL33:
ARM GAS  /tmp/cc5lp4CL.s 			page 28


 171:My_Top/Motor_Control/DcMotor_ClosedLoop.cpp **** 
 752              		.loc 1 171 67 view .LVU254
 753 0278 04F5FE73 		add	r3, r4, #508
 754 027c 0193     		str	r3, [sp, #4]
 755 027e 04F5E273 		add	r3, r4, #452
 756 0282 0093     		str	r3, [sp]
 757 0284 04F5D073 		add	r3, r4, #416
 758 0288 04F13C02 		add	r2, r4, #60
 759 028c 2946     		mov	r1, r5
 760 028e 04F59960 		add	r0, r4, #1224
 761 0292 FFF7FEFF 		bl	_ZN8DC_MotorC1EPK15MotorPWM_ConfigP7KTH7111P13PID_IncrementP3PIDP3LQR
 762              	.LVL34:
 763              		.loc 1 460 1 view .LVU255
 764 0296 03B0     		add	sp, sp, #12
 765              		.cfi_def_cfa_offset 20
 766              		@ sp needed
 767 0298 F0BD     		pop	{r4, r5, r6, r7, pc}
 768              	.L16:
 769 029a 00BF     		.align	2
 770              	.L15:
 771 029c 00000000 		.word	.LANCHOR0
 772 02a0 00000000 		.word	M1_PWM
 773 02a4 00000000 		.word	M2_PWM
 774 02a8 00000000 		.word	M3_PWM
 775 02ac 00000000 		.word	M4_PWM
 776 02b0 52B81E3F 		.word	1058977874
 777 02b4 CDCCCC3D 		.word	1036831949
 778 02b8 6F128339 		.word	964891247
 779 02bc EC51783F 		.word	1064849900
 780 02c0 EC5178BF 		.word	-1082633748
 781 02c4 9A99193F 		.word	1058642330
 782 02c8 6F12833A 		.word	981668463
 783 02cc F4FD143F 		.word	1058340340
 784 02d0 6666E63F 		.word	1072064102
 785 02d4 6666E6BF 		.word	-1075419546
 786 02d8 3333B3BF 		.word	-1078774989
 787 02dc 6666663F 		.word	1063675494
 788 02e0 3333B33F 		.word	1068708659
 789              		.cfi_endproc
 790              	.LFE1512:
 792              		.align	1
 793              		.global	_ZN8DC_Motor9test_lajiEv
 794              		.syntax unified
 795              		.thumb
 796              		.thumb_func
 798              	_ZN8DC_Motor9test_lajiEv:
 799              	.LVL35:
 800              	.LFB1352:
 176:My_Top/Motor_Control/DcMotor_ClosedLoop.cpp ****    
 801              		.loc 1 176 1 is_stmt 1 view -0
 802              		.cfi_startproc
 803              		@ args = 0, pretend = 0, frame = 0
 804              		@ frame_needed = 0, uses_anonymous_args = 0
 176:My_Top/Motor_Control/DcMotor_ClosedLoop.cpp ****    
 805              		.loc 1 176 1 is_stmt 0 view .LVU257
 806 02e4 10B5     		push	{r4, lr}
 807              		.cfi_def_cfa_offset 8
ARM GAS  /tmp/cc5lp4CL.s 			page 29


 808              		.cfi_offset 4, -8
 809              		.cfi_offset 14, -4
 178:My_Top/Motor_Control/DcMotor_ClosedLoop.cpp ****     __HAL_TIM_SET_COMPARE(&htim1, TIM_CHANNEL_1, 100);//Ķ«ŠńĮ«õĖŖµĪźĶćéÕŹĀń®║µ»ö 
 810              		.loc 1 178 5 is_stmt 1 view .LVU258
 178:My_Top/Motor_Control/DcMotor_ClosedLoop.cpp ****     __HAL_TIM_SET_COMPARE(&htim1, TIM_CHANNEL_1, 100);//Ķ«ŠńĮ«õĖŖµĪźĶćéÕŹĀń®║µ»ö 
 811              		.loc 1 178 5 view .LVU259
 812 02e6 0C4C     		ldr	r4, .L19
 813 02e8 2268     		ldr	r2, [r4]
 814 02ea 6423     		movs	r3, #100
 815 02ec D362     		str	r3, [r2, #44]
 178:My_Top/Motor_Control/DcMotor_ClosedLoop.cpp ****     __HAL_TIM_SET_COMPARE(&htim1, TIM_CHANNEL_1, 100);//Ķ«ŠńĮ«õĖŖµĪźĶćéÕŹĀń®║µ»ö 
 816              		.loc 1 178 5 view .LVU260
 817 02ee E360     		str	r3, [r4, #12]
 178:My_Top/Motor_Control/DcMotor_ClosedLoop.cpp ****     __HAL_TIM_SET_COMPARE(&htim1, TIM_CHANNEL_1, 100);//Ķ«ŠńĮ«õĖŖµĪźĶćéÕŹĀń®║µ»ö 
 818              		.loc 1 178 5 view .LVU261
 179:My_Top/Motor_Control/DcMotor_ClosedLoop.cpp ****     __HAL_TIM_SET_COMPARE(&htim1, TIM_CHANNEL_2, 100);//Ķ«ŠńĮ«õĖŗµĪźĶćéÕŹĀń®║µ»ö
 819              		.loc 1 179 5 view .LVU262
 820 02f0 5363     		str	r3, [r2, #52]
 180:My_Top/Motor_Control/DcMotor_ClosedLoop.cpp ****     HAL_TIM_PWM_Start(&htim1, TIM_CHANNEL_1);
 821              		.loc 1 180 5 view .LVU263
 822 02f2 9363     		str	r3, [r2, #56]
 181:My_Top/Motor_Control/DcMotor_ClosedLoop.cpp ****     HAL_TIMEx_PWMN_Start(&htim1, TIM_CHANNEL_1);
 823              		.loc 1 181 5 view .LVU264
 181:My_Top/Motor_Control/DcMotor_ClosedLoop.cpp ****     HAL_TIMEx_PWMN_Start(&htim1, TIM_CHANNEL_1);
 824              		.loc 1 181 22 is_stmt 0 view .LVU265
 825 02f4 0021     		movs	r1, #0
 826 02f6 2046     		mov	r0, r4
 827              	.LVL36:
 181:My_Top/Motor_Control/DcMotor_ClosedLoop.cpp ****     HAL_TIMEx_PWMN_Start(&htim1, TIM_CHANNEL_1);
 828              		.loc 1 181 22 view .LVU266
 829 02f8 FFF7FEFF 		bl	HAL_TIM_PWM_Start
 830              	.LVL37:
 182:My_Top/Motor_Control/DcMotor_ClosedLoop.cpp ****     HAL_TIM_PWM_Start(&htim1, TIM_CHANNEL_2);
 831              		.loc 1 182 5 is_stmt 1 view .LVU267
 182:My_Top/Motor_Control/DcMotor_ClosedLoop.cpp ****     HAL_TIM_PWM_Start(&htim1, TIM_CHANNEL_2);
 832              		.loc 1 182 25 is_stmt 0 view .LVU268
 833 02fc 0021     		movs	r1, #0
 834 02fe 2046     		mov	r0, r4
 835 0300 FFF7FEFF 		bl	HAL_TIMEx_PWMN_Start
 836              	.LVL38:
 183:My_Top/Motor_Control/DcMotor_ClosedLoop.cpp ****     HAL_TIMEx_PWMN_Start(&htim1, TIM_CHANNEL_2);
 837              		.loc 1 183 5 is_stmt 1 view .LVU269
 183:My_Top/Motor_Control/DcMotor_ClosedLoop.cpp ****     HAL_TIMEx_PWMN_Start(&htim1, TIM_CHANNEL_2);
 838              		.loc 1 183 22 is_stmt 0 view .LVU270
 839 0304 0421     		movs	r1, #4
 840 0306 2046     		mov	r0, r4
 841 0308 FFF7FEFF 		bl	HAL_TIM_PWM_Start
 842              	.LVL39:
 184:My_Top/Motor_Control/DcMotor_ClosedLoop.cpp **** }
 843              		.loc 1 184 5 is_stmt 1 view .LVU271
 184:My_Top/Motor_Control/DcMotor_ClosedLoop.cpp **** }
 844              		.loc 1 184 25 is_stmt 0 view .LVU272
 845 030c 0421     		movs	r1, #4
 846 030e 2046     		mov	r0, r4
 847 0310 FFF7FEFF 		bl	HAL_TIMEx_PWMN_Start
 848              	.LVL40:
 185:My_Top/Motor_Control/DcMotor_ClosedLoop.cpp **** 
ARM GAS  /tmp/cc5lp4CL.s 			page 30


 849              		.loc 1 185 1 view .LVU273
 850 0314 10BD     		pop	{r4, pc}
 851              	.L20:
 852 0316 00BF     		.align	2
 853              	.L19:
 854 0318 00000000 		.word	htim1
 855              		.cfi_endproc
 856              	.LFE1352:
 858              		.align	1
 859              		.global	_ZN8DC_Motor8Motor_ENEb
 860              		.syntax unified
 861              		.thumb
 862              		.thumb_func
 864              	_ZN8DC_Motor8Motor_ENEb:
 865              	.LVL41:
 866              	.LFB1357:
 282:My_Top/Motor_Control/DcMotor_ClosedLoop.cpp ****     if (en == _motor_is_on_last) return;  // ńŖČµĆüµ▓ĪÕÅś’╝īĶĘ│Ķ┐ć
 867              		.loc 1 282 1 is_stmt 1 view -0
 868              		.cfi_startproc
 869              		@ args = 0, pretend = 0, frame = 0
 870              		@ frame_needed = 0, uses_anonymous_args = 0
 283:My_Top/Motor_Control/DcMotor_ClosedLoop.cpp ****     _motor_is_on_last = en;
 871              		.loc 1 283 5 view .LVU275
 283:My_Top/Motor_Control/DcMotor_ClosedLoop.cpp ****     _motor_is_on_last = en;
 872              		.loc 1 283 15 is_stmt 0 view .LVU276
 873 031c 90F86030 		ldrb	r3, [r0, #96]	@ zero_extendqisi2
 283:My_Top/Motor_Control/DcMotor_ClosedLoop.cpp ****     _motor_is_on_last = en;
 874              		.loc 1 283 5 view .LVU277
 875 0320 8B42     		cmp	r3, r1
 876 0322 36D0     		beq	.L25
 282:My_Top/Motor_Control/DcMotor_ClosedLoop.cpp ****     if (en == _motor_is_on_last) return;  // ńŖČµĆüµ▓ĪÕÅś’╝īĶĘ│Ķ┐ć
 877              		.loc 1 282 1 view .LVU278
 878 0324 10B5     		push	{r4, lr}
 879              		.cfi_def_cfa_offset 8
 880              		.cfi_offset 4, -8
 881              		.cfi_offset 14, -4
 882 0326 0446     		mov	r4, r0
 284:My_Top/Motor_Control/DcMotor_ClosedLoop.cpp **** 
 883              		.loc 1 284 5 is_stmt 1 view .LVU279
 284:My_Top/Motor_Control/DcMotor_ClosedLoop.cpp **** 
 884              		.loc 1 284 23 is_stmt 0 view .LVU280
 885 0328 80F86010 		strb	r1, [r0, #96]
 286:My_Top/Motor_Control/DcMotor_ClosedLoop.cpp ****     {
 886              		.loc 1 286 5 is_stmt 1 view .LVU281
 887 032c C1B1     		cbz	r1, .L23
 288:My_Top/Motor_Control/DcMotor_ClosedLoop.cpp ****         HAL_TIMEx_PWMN_Start(_motor_config->htim, _motor_config->ch_hin1);
 888              		.loc 1 288 9 view .LVU282
 288:My_Top/Motor_Control/DcMotor_ClosedLoop.cpp ****         HAL_TIMEx_PWMN_Start(_motor_config->htim, _motor_config->ch_hin1);
 889              		.loc 1 288 27 is_stmt 0 view .LVU283
 890 032e D0F8B430 		ldr	r3, [r0, #180]
 288:My_Top/Motor_Control/DcMotor_ClosedLoop.cpp ****         HAL_TIMEx_PWMN_Start(_motor_config->htim, _motor_config->ch_hin1);
 891              		.loc 1 288 26 view .LVU284
 892 0332 9968     		ldr	r1, [r3, #8]
 893              	.LVL42:
 288:My_Top/Motor_Control/DcMotor_ClosedLoop.cpp ****         HAL_TIMEx_PWMN_Start(_motor_config->htim, _motor_config->ch_hin1);
 894              		.loc 1 288 26 view .LVU285
 895 0334 1868     		ldr	r0, [r3]
ARM GAS  /tmp/cc5lp4CL.s 			page 31


 896              	.LVL43:
 288:My_Top/Motor_Control/DcMotor_ClosedLoop.cpp ****         HAL_TIMEx_PWMN_Start(_motor_config->htim, _motor_config->ch_hin1);
 897              		.loc 1 288 26 view .LVU286
 898 0336 FFF7FEFF 		bl	HAL_TIM_PWM_Start
 899              	.LVL44:
 289:My_Top/Motor_Control/DcMotor_ClosedLoop.cpp ****         HAL_TIM_PWM_Start(_motor_config->htim, _motor_config->ch_hin2);
 900              		.loc 1 289 9 is_stmt 1 view .LVU287
 289:My_Top/Motor_Control/DcMotor_ClosedLoop.cpp ****         HAL_TIM_PWM_Start(_motor_config->htim, _motor_config->ch_hin2);
 901              		.loc 1 289 30 is_stmt 0 view .LVU288
 902 033a D4F8B430 		ldr	r3, [r4, #180]
 289:My_Top/Motor_Control/DcMotor_ClosedLoop.cpp ****         HAL_TIM_PWM_Start(_motor_config->htim, _motor_config->ch_hin2);
 903              		.loc 1 289 29 view .LVU289
 904 033e 9968     		ldr	r1, [r3, #8]
 905 0340 1868     		ldr	r0, [r3]
 906 0342 FFF7FEFF 		bl	HAL_TIMEx_PWMN_Start
 907              	.LVL45:
 290:My_Top/Motor_Control/DcMotor_ClosedLoop.cpp ****         HAL_TIMEx_PWMN_Start(_motor_config->htim, _motor_config->ch_hin2);
 908              		.loc 1 290 9 is_stmt 1 view .LVU290
 290:My_Top/Motor_Control/DcMotor_ClosedLoop.cpp ****         HAL_TIMEx_PWMN_Start(_motor_config->htim, _motor_config->ch_hin2);
 909              		.loc 1 290 27 is_stmt 0 view .LVU291
 910 0346 D4F8B430 		ldr	r3, [r4, #180]
 290:My_Top/Motor_Control/DcMotor_ClosedLoop.cpp ****         HAL_TIMEx_PWMN_Start(_motor_config->htim, _motor_config->ch_hin2);
 911              		.loc 1 290 26 view .LVU292
 912 034a D968     		ldr	r1, [r3, #12]
 913 034c 1868     		ldr	r0, [r3]
 914 034e FFF7FEFF 		bl	HAL_TIM_PWM_Start
 915              	.LVL46:
 291:My_Top/Motor_Control/DcMotor_ClosedLoop.cpp ****     }else
 916              		.loc 1 291 9 is_stmt 1 view .LVU293
 291:My_Top/Motor_Control/DcMotor_ClosedLoop.cpp ****     }else
 917              		.loc 1 291 30 is_stmt 0 view .LVU294
 918 0352 D4F8B430 		ldr	r3, [r4, #180]
 291:My_Top/Motor_Control/DcMotor_ClosedLoop.cpp ****     }else
 919              		.loc 1 291 29 view .LVU295
 920 0356 D968     		ldr	r1, [r3, #12]
 921 0358 1868     		ldr	r0, [r3]
 922 035a FFF7FEFF 		bl	HAL_TIMEx_PWMN_Start
 923              	.LVL47:
 924              	.L21:
 299:My_Top/Motor_Control/DcMotor_ClosedLoop.cpp **** 
 925              		.loc 1 299 1 view .LVU296
 926 035e 10BD     		pop	{r4, pc}
 927              	.LVL48:
 928              	.L23:
 294:My_Top/Motor_Control/DcMotor_ClosedLoop.cpp ****         HAL_TIMEx_PWMN_Stop(_motor_config->htim, _motor_config->ch_hin1);
 929              		.loc 1 294 9 is_stmt 1 view .LVU297
 294:My_Top/Motor_Control/DcMotor_ClosedLoop.cpp ****         HAL_TIMEx_PWMN_Stop(_motor_config->htim, _motor_config->ch_hin1);
 930              		.loc 1 294 26 is_stmt 0 view .LVU298
 931 0360 D0F8B430 		ldr	r3, [r0, #180]
 294:My_Top/Motor_Control/DcMotor_ClosedLoop.cpp ****         HAL_TIMEx_PWMN_Stop(_motor_config->htim, _motor_config->ch_hin1);
 932              		.loc 1 294 25 view .LVU299
 933 0364 9968     		ldr	r1, [r3, #8]
 934              	.LVL49:
 294:My_Top/Motor_Control/DcMotor_ClosedLoop.cpp ****         HAL_TIMEx_PWMN_Stop(_motor_config->htim, _motor_config->ch_hin1);
 935              		.loc 1 294 25 view .LVU300
 936 0366 1868     		ldr	r0, [r3]
 937              	.LVL50:
ARM GAS  /tmp/cc5lp4CL.s 			page 32


 294:My_Top/Motor_Control/DcMotor_ClosedLoop.cpp ****         HAL_TIMEx_PWMN_Stop(_motor_config->htim, _motor_config->ch_hin1);
 938              		.loc 1 294 25 view .LVU301
 939 0368 FFF7FEFF 		bl	HAL_TIM_PWM_Stop
 940              	.LVL51:
 295:My_Top/Motor_Control/DcMotor_ClosedLoop.cpp ****         HAL_TIM_PWM_Stop(_motor_config->htim, _motor_config->ch_hin2);
 941              		.loc 1 295 9 is_stmt 1 view .LVU302
 295:My_Top/Motor_Control/DcMotor_ClosedLoop.cpp ****         HAL_TIM_PWM_Stop(_motor_config->htim, _motor_config->ch_hin2);
 942              		.loc 1 295 29 is_stmt 0 view .LVU303
 943 036c D4F8B430 		ldr	r3, [r4, #180]
 295:My_Top/Motor_Control/DcMotor_ClosedLoop.cpp ****         HAL_TIM_PWM_Stop(_motor_config->htim, _motor_config->ch_hin2);
 944              		.loc 1 295 28 view .LVU304
 945 0370 9968     		ldr	r1, [r3, #8]
 946 0372 1868     		ldr	r0, [r3]
 947 0374 FFF7FEFF 		bl	HAL_TIMEx_PWMN_Stop
 948              	.LVL52:
 296:My_Top/Motor_Control/DcMotor_ClosedLoop.cpp ****         HAL_TIMEx_PWMN_Stop(_motor_config->htim, _motor_config->ch_hin2);
 949              		.loc 1 296 9 is_stmt 1 view .LVU305
 296:My_Top/Motor_Control/DcMotor_ClosedLoop.cpp ****         HAL_TIMEx_PWMN_Stop(_motor_config->htim, _motor_config->ch_hin2);
 950              		.loc 1 296 26 is_stmt 0 view .LVU306
 951 0378 D4F8B430 		ldr	r3, [r4, #180]
 296:My_Top/Motor_Control/DcMotor_ClosedLoop.cpp ****         HAL_TIMEx_PWMN_Stop(_motor_config->htim, _motor_config->ch_hin2);
 952              		.loc 1 296 25 view .LVU307
 953 037c D968     		ldr	r1, [r3, #12]
 954 037e 1868     		ldr	r0, [r3]
 955 0380 FFF7FEFF 		bl	HAL_TIM_PWM_Stop
 956              	.LVL53:
 297:My_Top/Motor_Control/DcMotor_ClosedLoop.cpp ****     }
 957              		.loc 1 297 9 is_stmt 1 view .LVU308
 297:My_Top/Motor_Control/DcMotor_ClosedLoop.cpp ****     }
 958              		.loc 1 297 29 is_stmt 0 view .LVU309
 959 0384 D4F8B430 		ldr	r3, [r4, #180]
 297:My_Top/Motor_Control/DcMotor_ClosedLoop.cpp ****     }
 960              		.loc 1 297 28 view .LVU310
 961 0388 D968     		ldr	r1, [r3, #12]
 962 038a 1868     		ldr	r0, [r3]
 963 038c FFF7FEFF 		bl	HAL_TIMEx_PWMN_Stop
 964              	.LVL54:
 965 0390 E5E7     		b	.L21
 966              	.LVL55:
 967              	.L25:
 968              		.cfi_def_cfa_offset 0
 969              		.cfi_restore 4
 970              		.cfi_restore 14
 297:My_Top/Motor_Control/DcMotor_ClosedLoop.cpp ****     }
 971              		.loc 1 297 28 view .LVU311
 972 0392 7047     		bx	lr
 973              		.cfi_endproc
 974              	.LFE1357:
 976              		.align	1
 977              		.global	_ZN8DC_Motor17My_DC_Motor_ResetEv
 978              		.syntax unified
 979              		.thumb
 980              		.thumb_func
 982              	_ZN8DC_Motor17My_DC_Motor_ResetEv:
 983              	.LVL56:
 984              	.LFB1353:
 188:My_Top/Motor_Control/DcMotor_ClosedLoop.cpp ****     _target_location2 = rad2deg(reg_final);
ARM GAS  /tmp/cc5lp4CL.s 			page 33


 985              		.loc 1 188 1 is_stmt 1 view -0
 986              		.cfi_startproc
 987              		@ args = 0, pretend = 0, frame = 0
 988              		@ frame_needed = 0, uses_anonymous_args = 0
 188:My_Top/Motor_Control/DcMotor_ClosedLoop.cpp ****     _target_location2 = rad2deg(reg_final);
 989              		.loc 1 188 1 is_stmt 0 view .LVU313
 990 0394 38B5     		push	{r3, r4, r5, lr}
 991              		.cfi_def_cfa_offset 16
 992              		.cfi_offset 3, -16
 993              		.cfi_offset 4, -12
 994              		.cfi_offset 5, -8
 995              		.cfi_offset 14, -4
 996 0396 0546     		mov	r5, r0
 189:My_Top/Motor_Control/DcMotor_ClosedLoop.cpp ****     _target_location2_cmd = _target_location2;
 997              		.loc 1 189 5 is_stmt 1 view .LVU314
 189:My_Top/Motor_Control/DcMotor_ClosedLoop.cpp ****     _target_location2_cmd = _target_location2;
 998              		.loc 1 189 25 is_stmt 0 view .LVU315
 999 0398 C069     		ldr	r0, [r0, #28]	@ float
 1000              	.LVL57:
 189:My_Top/Motor_Control/DcMotor_ClosedLoop.cpp ****     _target_location2_cmd = _target_location2;
 1001              		.loc 1 189 25 view .LVU316
 1002 039a FFF7FEFF 		bl	__aeabi_f2d
 1003              	.LVL58:
 1004 039e 0EA3     		adr	r3, .L30
 1005 03a0 D3E90023 		ldrd	r2, [r3]
 1006 03a4 FFF7FEFF 		bl	__aeabi_dmul
 1007              	.LVL59:
 1008 03a8 FFF7FEFF 		bl	__aeabi_d2f
 1009              	.LVL60:
 189:My_Top/Motor_Control/DcMotor_ClosedLoop.cpp ****     _target_location2_cmd = _target_location2;
 1010              		.loc 1 189 23 view .LVU317
 1011 03ac 2863     		str	r0, [r5, #48]	@ float
 190:My_Top/Motor_Control/DcMotor_ClosedLoop.cpp ****     _target_speed = 0.0;
 1012              		.loc 1 190 5 is_stmt 1 view .LVU318
 190:My_Top/Motor_Control/DcMotor_ClosedLoop.cpp ****     _target_speed = 0.0;
 1013              		.loc 1 190 27 is_stmt 0 view .LVU319
 1014 03ae 6863     		str	r0, [r5, #52]	@ float
 191:My_Top/Motor_Control/DcMotor_ClosedLoop.cpp ****     updown_duty = 0.0;
 1015              		.loc 1 191 5 is_stmt 1 view .LVU320
 191:My_Top/Motor_Control/DcMotor_ClosedLoop.cpp ****     updown_duty = 0.0;
 1016              		.loc 1 191 19 is_stmt 0 view .LVU321
 1017 03b0 0024     		movs	r4, #0
 1018 03b2 EC62     		str	r4, [r5, #44]	@ float
 192:My_Top/Motor_Control/DcMotor_ClosedLoop.cpp ****     Motor_EN(false);
 1019              		.loc 1 192 5 is_stmt 1 view .LVU322
 192:My_Top/Motor_Control/DcMotor_ClosedLoop.cpp ****     Motor_EN(false);
 1020              		.loc 1 192 17 is_stmt 0 view .LVU323
 1021 03b4 2C61     		str	r4, [r5, #16]	@ float
 193:My_Top/Motor_Control/DcMotor_ClosedLoop.cpp ****     pid_speed_incparam->reset(); //ÕżŹõĮŹpid
 1022              		.loc 1 193 5 is_stmt 1 view .LVU324
 193:My_Top/Motor_Control/DcMotor_ClosedLoop.cpp ****     pid_speed_incparam->reset(); //ÕżŹõĮŹpid
 1023              		.loc 1 193 13 is_stmt 0 view .LVU325
 1024 03b6 0021     		movs	r1, #0
 1025 03b8 2846     		mov	r0, r5
 1026 03ba FFF7FEFF 		bl	_ZN8DC_Motor8Motor_ENEb
 1027              	.LVL61:
 194:My_Top/Motor_Control/DcMotor_ClosedLoop.cpp ****     pid_location->reset(); //ÕżŹõĮŹpid
ARM GAS  /tmp/cc5lp4CL.s 			page 34


 1028              		.loc 1 194 5 is_stmt 1 view .LVU326
 1029 03be 6B6C     		ldr	r3, [r5, #68]
 1030              	.LVL62:
 1031              	.LBB119:
 1032              	.LBI119:
  68:Lib/compute/pid/pid_Increment.hpp **** 
  69:Lib/compute/pid/pid_Increment.hpp ****     // ============================================================
  70:Lib/compute/pid/pid_Increment.hpp ****     // ķćŹńĮ«Õåģķā©ńŖČµĆü’╝łµĖģķøČÕÄåÕÅ▓Ķ»»ÕĘ«ÕÆīń┤»Ķ«ĪĶŠōÕć║’╝ē
  71:Lib/compute/pid/pid_Increment.hpp ****     // ============================================================
  72:Lib/compute/pid/pid_Increment.hpp ****     void reset(void)
 1033              		.loc 2 72 10 view .LVU327
 1034              	.LBB120:
  73:Lib/compute/pid/pid_Increment.hpp ****     {
  74:Lib/compute/pid/pid_Increment.hpp ****         
  75:Lib/compute/pid/pid_Increment.hpp ****         _e_prev  = 0.0f;
 1035              		.loc 2 75 9 view .LVU328
 1036              		.loc 2 75 18 is_stmt 0 view .LVU329
 1037 03c0 9C61     		str	r4, [r3, #24]	@ float
  76:Lib/compute/pid/pid_Increment.hpp ****         _e_prev2 = 0.0f;
 1038              		.loc 2 76 9 is_stmt 1 view .LVU330
 1039              		.loc 2 76 18 is_stmt 0 view .LVU331
 1040 03c2 DC61     		str	r4, [r3, #28]	@ float
  77:Lib/compute/pid/pid_Increment.hpp ****         _delta_u = 0.0f;
 1041              		.loc 2 77 9 is_stmt 1 view .LVU332
 1042              		.loc 2 77 18 is_stmt 0 view .LVU333
 1043 03c4 1C62     		str	r4, [r3, #32]	@ float
 1044              	.LVL63:
 1045              		.loc 2 77 18 view .LVU334
 1046              	.LBE120:
 1047              	.LBE119:
 195:My_Top/Motor_Control/DcMotor_ClosedLoop.cpp **** }
 1048              		.loc 1 195 5 is_stmt 1 view .LVU335
 1049 03c6 AB6C     		ldr	r3, [r5, #72]
 1050              	.LVL64:
 1051              	.LBB121:
 1052              	.LBI121:
  15:Lib/compute/pid/pid.hpp **** 
  16:Lib/compute/pid/pid.hpp ****     float _kp; // µ»öõŠŗÕó×ńøŖ
  17:Lib/compute/pid/pid.hpp ****     float _ki; // ń¦»ÕłåÕó×ńøŖ
  18:Lib/compute/pid/pid.hpp ****     float _kd; // ÕŠ«ÕłåÕó×ńøŖ
  19:Lib/compute/pid/pid.hpp ****     float _dt; // ķććµĀĘµŚČķŚ┤
  20:Lib/compute/pid/pid.hpp ****     float _i_max; //
  21:Lib/compute/pid/pid.hpp **** 
  22:Lib/compute/pid/pid.hpp ****     float _max; // ĶŠōÕć║õĖŖķÖÉ
  23:Lib/compute/pid/pid.hpp ****     float _min; // ĶŠōÕć║õĖŗķÖÉ
  24:Lib/compute/pid/pid.hpp ****     float _error; // ÕĮōÕēŹĶ»»ÕĘ«
  25:Lib/compute/pid/pid.hpp ****     float _prev_error; // õĖŖõĖĆµ¼ĪĶ»»ÕĘ«
  26:Lib/compute/pid/pid.hpp **** 
  27:Lib/compute/pid/pid.hpp **** 
  28:Lib/compute/pid/pid.hpp ****     float update(float error)
  29:Lib/compute/pid/pid.hpp ****     {
  30:Lib/compute/pid/pid.hpp ****         _error = error;
  31:Lib/compute/pid/pid.hpp **** 
  32:Lib/compute/pid/pid.hpp ****         P_OUT = _kp * _error; 
  33:Lib/compute/pid/pid.hpp **** 
  34:Lib/compute/pid/pid.hpp ****         I_OUT += _ki * _error*_dt;
  35:Lib/compute/pid/pid.hpp ****         if (I_OUT>=_i_max) I_OUT = _i_max;
ARM GAS  /tmp/cc5lp4CL.s 			page 35


  36:Lib/compute/pid/pid.hpp ****         if (I_OUT<=-_i_max) I_OUT = -_i_max;
  37:Lib/compute/pid/pid.hpp **** 
  38:Lib/compute/pid/pid.hpp ****         D_OUT = _kd * (_error - _prev_error)/_dt;
  39:Lib/compute/pid/pid.hpp ****         // Calculate output
  40:Lib/compute/pid/pid.hpp ****         _output = P_OUT + I_OUT + D_OUT; //???
  41:Lib/compute/pid/pid.hpp **** 
  42:Lib/compute/pid/pid.hpp ****         // Clamp output
  43:Lib/compute/pid/pid.hpp ****         if (_output > _max)
  44:Lib/compute/pid/pid.hpp ****         {
  45:Lib/compute/pid/pid.hpp ****             _output = _max;
  46:Lib/compute/pid/pid.hpp ****             // max_out_flag = true; // Ķ«ŠńĮ«ĶŠōÕć║õĖŖķÖÉµĀćÕ┐ŚõĮŹ 
  47:Lib/compute/pid/pid.hpp ****         }else if (_output < _min)
  48:Lib/compute/pid/pid.hpp ****         {
  49:Lib/compute/pid/pid.hpp ****             _output = _min;
  50:Lib/compute/pid/pid.hpp ****             // max_out_flag = true; // Ķ«ŠńĮ«ĶŠōÕć║õĖŖķÖÉµĀćÕ┐ŚõĮŹ
  51:Lib/compute/pid/pid.hpp ****         }
  52:Lib/compute/pid/pid.hpp ****         _prev_error = _error;
  53:Lib/compute/pid/pid.hpp **** 
  54:Lib/compute/pid/pid.hpp ****         return _output;
  55:Lib/compute/pid/pid.hpp ****     }
  56:Lib/compute/pid/pid.hpp **** 
  57:Lib/compute/pid/pid.hpp ****     void reset()
 1053              		.loc 6 57 10 view .LVU336
 1054              	.LBB122:
  58:Lib/compute/pid/pid.hpp ****     {
  59:Lib/compute/pid/pid.hpp ****         P_OUT = I_OUT = D_OUT = _output = _error =_prev_error = 0;
 1055              		.loc 6 59 9 view .LVU337
 1056              		.loc 6 59 63 is_stmt 0 view .LVU338
 1057 03c8 1C62     		str	r4, [r3, #32]	@ float
 1058              		.loc 6 59 50 view .LVU339
 1059 03ca DC61     		str	r4, [r3, #28]	@ float
 1060              		.loc 6 59 41 view .LVU340
 1061 03cc 1C63     		str	r4, [r3, #48]	@ float
 1062              		.loc 6 59 31 view .LVU341
 1063 03ce DC62     		str	r4, [r3, #44]	@ float
 1064              		.loc 6 59 23 view .LVU342
 1065 03d0 9C62     		str	r4, [r3, #40]	@ float
 1066              		.loc 6 59 15 view .LVU343
 1067 03d2 5C62     		str	r4, [r3, #36]	@ float
 1068              	.LVL65:
 1069              		.loc 6 59 15 view .LVU344
 1070              	.LBE122:
 1071              	.LBE121:
 196:My_Top/Motor_Control/DcMotor_ClosedLoop.cpp **** 
 1072              		.loc 1 196 1 view .LVU345
 1073 03d4 38BD     		pop	{r3, r4, r5, pc}
 1074              	.LVL66:
 1075              	.L31:
 196:My_Top/Motor_Control/DcMotor_ClosedLoop.cpp **** 
 1076              		.loc 1 196 1 view .LVU346
 1077 03d6 00BF     		.align	3
 1078              	.L30:
 1079 03d8 F8C1631A 		.word	442745336
 1080 03dc DCA54C40 		.word	1078765020
 1081              		.cfi_endproc
 1082              	.LFE1353:
 1084              		.align	1
ARM GAS  /tmp/cc5lp4CL.s 			page 36


 1085              		.global	_ZN8DC_Motor19Set_Motor_FrequencyEv
 1086              		.syntax unified
 1087              		.thumb
 1088              		.thumb_func
 1090              	_ZN8DC_Motor19Set_Motor_FrequencyEv:
 1091              	.LVL67:
 1092              	.LFB1355:
 225:My_Top/Motor_Control/DcMotor_ClosedLoop.cpp ****     bool new_dir = false;
 1093              		.loc 1 225 1 is_stmt 1 view -0
 1094              		.cfi_startproc
 1095              		@ args = 0, pretend = 0, frame = 0
 1096              		@ frame_needed = 0, uses_anonymous_args = 0
 225:My_Top/Motor_Control/DcMotor_ClosedLoop.cpp ****     bool new_dir = false;
 1097              		.loc 1 225 1 is_stmt 0 view .LVU348
 1098 03e0 38B5     		push	{r3, r4, r5, lr}
 1099              		.cfi_def_cfa_offset 16
 1100              		.cfi_offset 3, -16
 1101              		.cfi_offset 4, -12
 1102              		.cfi_offset 5, -8
 1103              		.cfi_offset 14, -4
 1104 03e2 2DED028B 		vpush.64	{d8}
 1105              		.cfi_def_cfa_offset 24
 1106              		.cfi_offset 80, -24
 1107              		.cfi_offset 81, -20
 1108 03e6 0446     		mov	r4, r0
 226:My_Top/Motor_Control/DcMotor_ClosedLoop.cpp ****     uint32_t arr = 0;
 1109              		.loc 1 226 5 is_stmt 1 view .LVU349
 1110              	.LVL68:
 227:My_Top/Motor_Control/DcMotor_ClosedLoop.cpp ****     uint16_t Fre = (uint16_t)motor_freq;//ĶĮ¼µĢ┤µĢ░Ķ«Īń«Ś
 1111              		.loc 1 227 5 view .LVU350
 228:My_Top/Motor_Control/DcMotor_ClosedLoop.cpp ****     float up_duty = constraint_value(motor_up_duty, 0.0f, MOTOR_DEFAULT_PARAM.limit.max_duty); //ķÖ
 1112              		.loc 1 228 5 view .LVU351
 228:My_Top/Motor_Control/DcMotor_ClosedLoop.cpp ****     float up_duty = constraint_value(motor_up_duty, 0.0f, MOTOR_DEFAULT_PARAM.limit.max_duty); //ķÖ
 1113              		.loc 1 228 30 is_stmt 0 view .LVU352
 1114 03e8 D0ED017A 		vldr.32	s15, [r0, #4]
 228:My_Top/Motor_Control/DcMotor_ClosedLoop.cpp ****     float up_duty = constraint_value(motor_up_duty, 0.0f, MOTOR_DEFAULT_PARAM.limit.max_duty); //ķÖ
 1115              		.loc 1 228 14 view .LVU353
 1116 03ec FCEEE77A 		vcvt.u32.f32	s15, s15
 1117 03f0 17EE903A 		vmov	r3, s15	@ int
 1118 03f4 9DB2     		uxth	r5, r3
 1119              	.LVL69:
 229:My_Top/Motor_Control/DcMotor_ClosedLoop.cpp ****     float down_duty = constraint_value(motor_down_duty, 0.0f, MOTOR_DEFAULT_PARAM.limit.max_duty); 
 1120              		.loc 1 229 5 is_stmt 1 view .LVU354
 229:My_Top/Motor_Control/DcMotor_ClosedLoop.cpp ****     float down_duty = constraint_value(motor_down_duty, 0.0f, MOTOR_DEFAULT_PARAM.limit.max_duty); 
 1121              		.loc 1 229 21 is_stmt 0 view .LVU355
 1122 03f6 90ED028A 		vldr.32	s16, [r0, #8]
 1123 03fa B5EEC08A 		vcmpe.f32	s16, #0
 1124 03fe F1EE10FA 		vmrs	APSR_nzcv, FPSCR
 1125 0402 09D4     		bmi	.L56
 229:My_Top/Motor_Control/DcMotor_ClosedLoop.cpp ****     float down_duty = constraint_value(motor_down_duty, 0.0f, MOTOR_DEFAULT_PARAM.limit.max_duty); 
 1126              		.loc 1 229 21 discriminator 2 view .LVU356
 1127 0404 DFED8E7A 		vldr.32	s15, .L65
 1128 0408 B4EEE78A 		vcmpe.f32	s16, s15
 1129 040c F1EE10FA 		vmrs	APSR_nzcv, FPSCR
 1130 0410 04DD     		ble	.L33
 229:My_Top/Motor_Control/DcMotor_ClosedLoop.cpp ****     float down_duty = constraint_value(motor_down_duty, 0.0f, MOTOR_DEFAULT_PARAM.limit.max_duty); 
 1131              		.loc 1 229 21 discriminator 4 view .LVU357
ARM GAS  /tmp/cc5lp4CL.s 			page 37


 1132 0412 B0EE678A 		vmov.f32	s16, s15
 1133 0416 01E0     		b	.L33
 1134              	.L56:
 229:My_Top/Motor_Control/DcMotor_ClosedLoop.cpp ****     float down_duty = constraint_value(motor_down_duty, 0.0f, MOTOR_DEFAULT_PARAM.limit.max_duty); 
 1135              		.loc 1 229 21 discriminator 1 view .LVU358
 1136 0418 9FED8A8A 		vldr.32	s16, .L65+4
 1137              	.L33:
 1138              	.LVL70:
 230:My_Top/Motor_Control/DcMotor_ClosedLoop.cpp **** 
 1139              		.loc 1 230 5 is_stmt 1 view .LVU359
 230:My_Top/Motor_Control/DcMotor_ClosedLoop.cpp **** 
 1140              		.loc 1 230 23 is_stmt 0 view .LVU360
 1141 041c D4ED038A 		vldr.32	s17, [r4, #12]
 1142 0420 F5EEC08A 		vcmpe.f32	s17, #0
 1143 0424 F1EE10FA 		vmrs	APSR_nzcv, FPSCR
 1144 0428 09D4     		bmi	.L57
 230:My_Top/Motor_Control/DcMotor_ClosedLoop.cpp **** 
 1145              		.loc 1 230 23 discriminator 2 view .LVU361
 1146 042a DFED857A 		vldr.32	s15, .L65
 1147 042e F4EEE78A 		vcmpe.f32	s17, s15
 1148 0432 F1EE10FA 		vmrs	APSR_nzcv, FPSCR
 1149 0436 04DD     		ble	.L35
 230:My_Top/Motor_Control/DcMotor_ClosedLoop.cpp **** 
 1150              		.loc 1 230 23 discriminator 4 view .LVU362
 1151 0438 F0EE678A 		vmov.f32	s17, s15
 1152 043c 01E0     		b	.L35
 1153              	.L57:
 230:My_Top/Motor_Control/DcMotor_ClosedLoop.cpp **** 
 1154              		.loc 1 230 23 discriminator 1 view .LVU363
 1155 043e DFED818A 		vldr.32	s17, .L65+4
 1156              	.L35:
 1157              	.LVL71:
 232:My_Top/Motor_Control/DcMotor_ClosedLoop.cpp ****     Fre_last = Fre;
 1158              		.loc 1 232 5 is_stmt 1 view .LVU364
 232:My_Top/Motor_Control/DcMotor_ClosedLoop.cpp ****     Fre_last = Fre;
 1159              		.loc 1 232 16 is_stmt 0 view .LVU365
 1160 0442 B4F85430 		ldrh	r3, [r4, #84]
 232:My_Top/Motor_Control/DcMotor_ClosedLoop.cpp ****     Fre_last = Fre;
 1161              		.loc 1 232 5 view .LVU366
 1162 0446 AB42     		cmp	r3, r5
 1163 0448 15D0     		beq	.L63
 1164              	.L37:
 233:My_Top/Motor_Control/DcMotor_ClosedLoop.cpp ****     up_duty_last = up_duty;
 1165              		.loc 1 233 5 is_stmt 1 view .LVU367
 233:My_Top/Motor_Control/DcMotor_ClosedLoop.cpp ****     up_duty_last = up_duty;
 1166              		.loc 1 233 14 is_stmt 0 view .LVU368
 1167 044a A4F85450 		strh	r5, [r4, #84]	@ movhi
 234:My_Top/Motor_Control/DcMotor_ClosedLoop.cpp ****     down_duty_last = down_duty;
 1168              		.loc 1 234 5 is_stmt 1 view .LVU369
 234:My_Top/Motor_Control/DcMotor_ClosedLoop.cpp ****     down_duty_last = down_duty;
 1169              		.loc 1 234 18 is_stmt 0 view .LVU370
 1170 044e 84ED168A 		vstr.32	s16, [r4, #88]
 235:My_Top/Motor_Control/DcMotor_ClosedLoop.cpp **** 
 1171              		.loc 1 235 5 is_stmt 1 view .LVU371
 235:My_Top/Motor_Control/DcMotor_ClosedLoop.cpp **** 
 1172              		.loc 1 235 20 is_stmt 0 view .LVU372
 1173 0452 C4ED178A 		vstr.32	s17, [r4, #92]
ARM GAS  /tmp/cc5lp4CL.s 			page 38


 237:My_Top/Motor_Control/DcMotor_ClosedLoop.cpp ****     else {Motor_EN(true);}
 1174              		.loc 1 237 5 is_stmt 1 view .LVU373
 1175 0456 EDB1     		cbz	r5, .L64
 238:My_Top/Motor_Control/DcMotor_ClosedLoop.cpp **** 
 1176              		.loc 1 238 11 view .LVU374
 238:My_Top/Motor_Control/DcMotor_ClosedLoop.cpp **** 
 1177              		.loc 1 238 19 is_stmt 0 view .LVU375
 1178 0458 0121     		movs	r1, #1
 1179 045a 2046     		mov	r0, r4
 1180              	.LVL72:
 238:My_Top/Motor_Control/DcMotor_ClosedLoop.cpp **** 
 1181              		.loc 1 238 19 view .LVU376
 1182 045c FFF7FEFF 		bl	_ZN8DC_Motor8Motor_ENEb
 1183              	.LVL73:
 240:My_Top/Motor_Control/DcMotor_ClosedLoop.cpp ****     if (arr >= 65535) arr = 65535;
 1184              		.loc 1 240 5 is_stmt 1 view .LVU377
 240:My_Top/Motor_Control/DcMotor_ClosedLoop.cpp ****     if (arr >= 65535) arr = 65535;
 1185              		.loc 1 240 11 is_stmt 0 view .LVU378
 1186 0460 A36E     		ldr	r3, [r4, #104]
 240:My_Top/Motor_Control/DcMotor_ClosedLoop.cpp ****     if (arr >= 65535) arr = 65535;
 1187              		.loc 1 240 9 view .LVU379
 1188 0462 B3FBF5F3 		udiv	r3, r3, r5
 1189              	.LVL74:
 241:My_Top/Motor_Control/DcMotor_ClosedLoop.cpp ****     else if (arr <= 1) arr = 1;
 1190              		.loc 1 241 5 is_stmt 1 view .LVU380
 1191 0466 4FF6FE72 		movw	r2, #65534
 1192 046a 9342     		cmp	r3, r2
 1193 046c 17D8     		bhi	.L58
 242:My_Top/Motor_Control/DcMotor_ClosedLoop.cpp **** 
 1194              		.loc 1 242 10 view .LVU381
 1195 046e 012B     		cmp	r3, #1
 1196 0470 17D8     		bhi	.L40
 242:My_Top/Motor_Control/DcMotor_ClosedLoop.cpp **** 
 1197              		.loc 1 242 28 is_stmt 0 discriminator 1 view .LVU382
 1198 0472 0123     		movs	r3, #1
 1199              	.LVL75:
 242:My_Top/Motor_Control/DcMotor_ClosedLoop.cpp **** 
 1200              		.loc 1 242 28 discriminator 1 view .LVU383
 1201 0474 15E0     		b	.L40
 1202              	.LVL76:
 1203              	.L63:
 232:My_Top/Motor_Control/DcMotor_ClosedLoop.cpp ****     Fre_last = Fre;
 1204              		.loc 1 232 39 discriminator 1 view .LVU384
 1205 0476 D4ED167A 		vldr.32	s15, [r4, #88]
 232:My_Top/Motor_Control/DcMotor_ClosedLoop.cpp ****     Fre_last = Fre;
 1206              		.loc 1 232 25 discriminator 1 view .LVU385
 1207 047a F4EE487A 		vcmp.f32	s15, s16
 1208 047e F1EE10FA 		vmrs	APSR_nzcv, FPSCR
 1209 0482 E2D1     		bne	.L37
 232:My_Top/Motor_Control/DcMotor_ClosedLoop.cpp ****     Fre_last = Fre;
 1210              		.loc 1 232 68 discriminator 2 view .LVU386
 1211 0484 D4ED177A 		vldr.32	s15, [r4, #92]
 232:My_Top/Motor_Control/DcMotor_ClosedLoop.cpp ****     Fre_last = Fre;
 1212              		.loc 1 232 52 discriminator 2 view .LVU387
 1213 0488 F4EE687A 		vcmp.f32	s15, s17
 1214 048c F1EE10FA 		vmrs	APSR_nzcv, FPSCR
 1215 0490 DBD1     		bne	.L37
ARM GAS  /tmp/cc5lp4CL.s 			page 39


 1216 0492 D1E0     		b	.L32
 1217              	.L64:
 237:My_Top/Motor_Control/DcMotor_ClosedLoop.cpp ****     else {Motor_EN(true);}
 1218              		.loc 1 237 20 is_stmt 1 discriminator 1 view .LVU388
 237:My_Top/Motor_Control/DcMotor_ClosedLoop.cpp ****     else {Motor_EN(true);}
 1219              		.loc 1 237 28 is_stmt 0 discriminator 1 view .LVU389
 1220 0494 0021     		movs	r1, #0
 1221 0496 2046     		mov	r0, r4
 1222              	.LVL77:
 237:My_Top/Motor_Control/DcMotor_ClosedLoop.cpp ****     else {Motor_EN(true);}
 1223              		.loc 1 237 28 discriminator 1 view .LVU390
 1224 0498 FFF7FEFF 		bl	_ZN8DC_Motor8Motor_ENEb
 1225              	.LVL78:
 237:My_Top/Motor_Control/DcMotor_ClosedLoop.cpp ****     else {Motor_EN(true);}
 1226              		.loc 1 237 37 is_stmt 1 discriminator 1 view .LVU391
 237:My_Top/Motor_Control/DcMotor_ClosedLoop.cpp ****     else {Motor_EN(true);}
 1227              		.loc 1 237 37 is_stmt 0 view .LVU392
 1228 049c CCE0     		b	.L32
 1229              	.LVL79:
 1230              	.L58:
 241:My_Top/Motor_Control/DcMotor_ClosedLoop.cpp ****     else if (arr <= 1) arr = 1;
 1231              		.loc 1 241 27 discriminator 1 view .LVU393
 1232 049e 4FF6FF73 		movw	r3, #65535
 1233              	.LVL80:
 1234              	.L40:
 244:My_Top/Motor_Control/DcMotor_ClosedLoop.cpp ****     __HAL_TIM_SET_AUTORELOAD(_motor_config->htim, (uint16_t)(arr - 1));//Ķ«ŠńĮ«Õæ©µ£¤ 
 1235              		.loc 1 244 5 is_stmt 1 view .LVU394
 1236 04a2 D4F8B420 		ldr	r2, [r4, #180]
 244:My_Top/Motor_Control/DcMotor_ClosedLoop.cpp ****     __HAL_TIM_SET_AUTORELOAD(_motor_config->htim, (uint16_t)(arr - 1));//Ķ«ŠńĮ«Õæ©µ£¤ 
 1237              		.loc 1 244 20 is_stmt 0 view .LVU395
 1238 04a6 1268     		ldr	r2, [r2]
 244:My_Top/Motor_Control/DcMotor_ClosedLoop.cpp ****     __HAL_TIM_SET_AUTORELOAD(_motor_config->htim, (uint16_t)(arr - 1));//Ķ«ŠńĮ«Õæ©µ£¤ 
 1239              		.loc 1 244 26 view .LVU396
 1240 04a8 1268     		ldr	r2, [r2]
 244:My_Top/Motor_Control/DcMotor_ClosedLoop.cpp ****     __HAL_TIM_SET_AUTORELOAD(_motor_config->htim, (uint16_t)(arr - 1));//Ķ«ŠńĮ«Õæ©µ£¤ 
 1241              		.loc 1 244 40 view .LVU397
 1242 04aa 0021     		movs	r1, #0
 1243 04ac 5162     		str	r1, [r2, #36]
 245:My_Top/Motor_Control/DcMotor_ClosedLoop.cpp ****     __HAL_TIM_SET_COMPARE(_motor_config->htim, _motor_config->ch_hin1, (uint32_t)(arr*up_duty));//Ķ
 1244              		.loc 1 245 5 is_stmt 1 view .LVU398
 245:My_Top/Motor_Control/DcMotor_ClosedLoop.cpp ****     __HAL_TIM_SET_COMPARE(_motor_config->htim, _motor_config->ch_hin1, (uint32_t)(arr*up_duty));//Ķ
 1245              		.loc 1 245 5 view .LVU399
 1246 04ae 5A1E     		subs	r2, r3, #1
 1247 04b0 92B2     		uxth	r2, r2
 1248 04b2 D4F8B410 		ldr	r1, [r4, #180]
 1249 04b6 0968     		ldr	r1, [r1]
 1250 04b8 0968     		ldr	r1, [r1]
 1251 04ba CA62     		str	r2, [r1, #44]
 245:My_Top/Motor_Control/DcMotor_ClosedLoop.cpp ****     __HAL_TIM_SET_COMPARE(_motor_config->htim, _motor_config->ch_hin1, (uint32_t)(arr*up_duty));//Ķ
 1252              		.loc 1 245 5 view .LVU400
 1253 04bc D4F8B410 		ldr	r1, [r4, #180]
 1254 04c0 0968     		ldr	r1, [r1]
 1255 04c2 CA60     		str	r2, [r1, #12]
 245:My_Top/Motor_Control/DcMotor_ClosedLoop.cpp ****     __HAL_TIM_SET_COMPARE(_motor_config->htim, _motor_config->ch_hin1, (uint32_t)(arr*up_duty));//Ķ
 1256              		.loc 1 245 5 view .LVU401
 246:My_Top/Motor_Control/DcMotor_ClosedLoop.cpp ****     __HAL_TIM_SET_COMPARE(_motor_config->htim, _motor_config->ch_hin2, (uint32_t)(arr*down_duty));/
 1257              		.loc 1 246 5 view .LVU402
ARM GAS  /tmp/cc5lp4CL.s 			page 40


 1258 04c4 D4F8B410 		ldr	r1, [r4, #180]
 1259 04c8 8A68     		ldr	r2, [r1, #8]
 1260 04ca 102A     		cmp	r2, #16
 1261 04cc 4BD8     		bhi	.L41
 1262 04ce DFE802F0 		tbb	[pc, r2]
 1263              	.L43:
 1264 04d2 09       		.byte	(.L47-.L43)/2
 1265 04d3 4A       		.byte	(.L41-.L43)/2
 1266 04d4 4A       		.byte	(.L41-.L43)/2
 1267 04d5 4A       		.byte	(.L41-.L43)/2
 1268 04d6 16       		.byte	(.L46-.L43)/2
 1269 04d7 4A       		.byte	(.L41-.L43)/2
 1270 04d8 4A       		.byte	(.L41-.L43)/2
 1271 04d9 4A       		.byte	(.L41-.L43)/2
 1272 04da 23       		.byte	(.L45-.L43)/2
 1273 04db 4A       		.byte	(.L41-.L43)/2
 1274 04dc 4A       		.byte	(.L41-.L43)/2
 1275 04dd 4A       		.byte	(.L41-.L43)/2
 1276 04de 30       		.byte	(.L44-.L43)/2
 1277 04df 4A       		.byte	(.L41-.L43)/2
 1278 04e0 4A       		.byte	(.L41-.L43)/2
 1279 04e1 4A       		.byte	(.L41-.L43)/2
 1280 04e2 3D       		.byte	(.L42-.L43)/2
 1281 04e3 00       		.p2align 1
 1282              	.L47:
 246:My_Top/Motor_Control/DcMotor_ClosedLoop.cpp ****     __HAL_TIM_SET_COMPARE(_motor_config->htim, _motor_config->ch_hin2, (uint32_t)(arr*down_duty));/
 1283              		.loc 1 246 5 is_stmt 0 discriminator 1 view .LVU403
 1284 04e4 07EE903A 		vmov	s15, r3	@ int
 1285 04e8 F8EE677A 		vcvt.f32.u32	s15, s15
 1286 04ec 67EE887A 		vmul.f32	s15, s15, s16
 1287 04f0 0A68     		ldr	r2, [r1]
 1288 04f2 1268     		ldr	r2, [r2]
 1289 04f4 FCEEE77A 		vcvt.u32.f32	s15, s15
 1290 04f8 C2ED0D7A 		vstr.32	s15, [r2, #52]	@ int
 1291 04fc 3FE0     		b	.L48
 1292              	.L46:
 246:My_Top/Motor_Control/DcMotor_ClosedLoop.cpp ****     __HAL_TIM_SET_COMPARE(_motor_config->htim, _motor_config->ch_hin2, (uint32_t)(arr*down_duty));/
 1293              		.loc 1 246 5 discriminator 3 view .LVU404
 1294 04fe 07EE903A 		vmov	s15, r3	@ int
 1295 0502 F8EE677A 		vcvt.f32.u32	s15, s15
 1296 0506 67EE887A 		vmul.f32	s15, s15, s16
 1297 050a 0A68     		ldr	r2, [r1]
 1298 050c 1268     		ldr	r2, [r2]
 1299 050e FCEEE77A 		vcvt.u32.f32	s15, s15
 1300 0512 C2ED0E7A 		vstr.32	s15, [r2, #56]	@ int
 1301 0516 32E0     		b	.L48
 1302              	.L45:
 246:My_Top/Motor_Control/DcMotor_ClosedLoop.cpp ****     __HAL_TIM_SET_COMPARE(_motor_config->htim, _motor_config->ch_hin2, (uint32_t)(arr*down_duty));/
 1303              		.loc 1 246 5 discriminator 5 view .LVU405
 1304 0518 07EE903A 		vmov	s15, r3	@ int
 1305 051c F8EE677A 		vcvt.f32.u32	s15, s15
 1306 0520 67EE887A 		vmul.f32	s15, s15, s16
 1307 0524 0A68     		ldr	r2, [r1]
 1308 0526 1268     		ldr	r2, [r2]
 1309 0528 FCEEE77A 		vcvt.u32.f32	s15, s15
 1310 052c C2ED0F7A 		vstr.32	s15, [r2, #60]	@ int
 1311 0530 25E0     		b	.L48
ARM GAS  /tmp/cc5lp4CL.s 			page 41


 1312              	.L44:
 246:My_Top/Motor_Control/DcMotor_ClosedLoop.cpp ****     __HAL_TIM_SET_COMPARE(_motor_config->htim, _motor_config->ch_hin2, (uint32_t)(arr*down_duty));/
 1313              		.loc 1 246 5 discriminator 7 view .LVU406
 1314 0532 07EE903A 		vmov	s15, r3	@ int
 1315 0536 F8EE677A 		vcvt.f32.u32	s15, s15
 1316 053a 67EE887A 		vmul.f32	s15, s15, s16
 1317 053e 0A68     		ldr	r2, [r1]
 1318 0540 1268     		ldr	r2, [r2]
 1319 0542 FCEEE77A 		vcvt.u32.f32	s15, s15
 1320 0546 C2ED107A 		vstr.32	s15, [r2, #64]	@ int
 1321 054a 18E0     		b	.L48
 1322              	.L42:
 246:My_Top/Motor_Control/DcMotor_ClosedLoop.cpp ****     __HAL_TIM_SET_COMPARE(_motor_config->htim, _motor_config->ch_hin2, (uint32_t)(arr*down_duty));/
 1323              		.loc 1 246 5 discriminator 9 view .LVU407
 1324 054c 07EE903A 		vmov	s15, r3	@ int
 1325 0550 F8EE677A 		vcvt.f32.u32	s15, s15
 1326 0554 67EE887A 		vmul.f32	s15, s15, s16
 1327 0558 0A68     		ldr	r2, [r1]
 1328 055a 1268     		ldr	r2, [r2]
 1329 055c FCEEE77A 		vcvt.u32.f32	s15, s15
 1330 0560 C2ED127A 		vstr.32	s15, [r2, #72]	@ int
 1331 0564 0BE0     		b	.L48
 1332              	.L41:
 246:My_Top/Motor_Control/DcMotor_ClosedLoop.cpp ****     __HAL_TIM_SET_COMPARE(_motor_config->htim, _motor_config->ch_hin2, (uint32_t)(arr*down_duty));/
 1333              		.loc 1 246 5 discriminator 10 view .LVU408
 1334 0566 07EE903A 		vmov	s15, r3	@ int
 1335 056a F8EE677A 		vcvt.f32.u32	s15, s15
 1336 056e 67EE887A 		vmul.f32	s15, s15, s16
 1337 0572 0A68     		ldr	r2, [r1]
 1338 0574 1268     		ldr	r2, [r2]
 1339 0576 FCEEE77A 		vcvt.u32.f32	s15, s15
 1340 057a C2ED137A 		vstr.32	s15, [r2, #76]	@ int
 1341              	.L48:
 247:My_Top/Motor_Control/DcMotor_ClosedLoop.cpp **** }
 1342              		.loc 1 247 5 is_stmt 1 view .LVU409
 1343 057e D4F8B410 		ldr	r1, [r4, #180]
 1344 0582 CA68     		ldr	r2, [r1, #12]
 1345 0584 102A     		cmp	r2, #16
 1346 0586 4BD8     		bhi	.L49
 1347 0588 DFE802F0 		tbb	[pc, r2]
 1348              	.L51:
 1349 058c 09       		.byte	(.L55-.L51)/2
 1350 058d 4A       		.byte	(.L49-.L51)/2
 1351 058e 4A       		.byte	(.L49-.L51)/2
 1352 058f 4A       		.byte	(.L49-.L51)/2
 1353 0590 16       		.byte	(.L54-.L51)/2
 1354 0591 4A       		.byte	(.L49-.L51)/2
 1355 0592 4A       		.byte	(.L49-.L51)/2
 1356 0593 4A       		.byte	(.L49-.L51)/2
 1357 0594 23       		.byte	(.L53-.L51)/2
 1358 0595 4A       		.byte	(.L49-.L51)/2
 1359 0596 4A       		.byte	(.L49-.L51)/2
 1360 0597 4A       		.byte	(.L49-.L51)/2
 1361 0598 30       		.byte	(.L52-.L51)/2
 1362 0599 4A       		.byte	(.L49-.L51)/2
 1363 059a 4A       		.byte	(.L49-.L51)/2
 1364 059b 4A       		.byte	(.L49-.L51)/2
ARM GAS  /tmp/cc5lp4CL.s 			page 42


 1365 059c 3D       		.byte	(.L50-.L51)/2
 1366 059d 00       		.p2align 1
 1367              	.L55:
 247:My_Top/Motor_Control/DcMotor_ClosedLoop.cpp **** }
 1368              		.loc 1 247 5 is_stmt 0 discriminator 1 view .LVU410
 1369 059e 07EE903A 		vmov	s15, r3	@ int
 1370 05a2 F8EE677A 		vcvt.f32.u32	s15, s15
 1371 05a6 67EEA87A 		vmul.f32	s15, s15, s17
 1372 05aa 0B68     		ldr	r3, [r1]
 1373              	.LVL81:
 247:My_Top/Motor_Control/DcMotor_ClosedLoop.cpp **** }
 1374              		.loc 1 247 5 discriminator 1 view .LVU411
 1375 05ac 1B68     		ldr	r3, [r3]
 1376 05ae FCEEE77A 		vcvt.u32.f32	s15, s15
 1377 05b2 C3ED0D7A 		vstr.32	s15, [r3, #52]	@ int
 1378 05b6 3FE0     		b	.L32
 1379              	.LVL82:
 1380              	.L54:
 247:My_Top/Motor_Control/DcMotor_ClosedLoop.cpp **** }
 1381              		.loc 1 247 5 discriminator 3 view .LVU412
 1382 05b8 07EE903A 		vmov	s15, r3	@ int
 1383 05bc F8EE677A 		vcvt.f32.u32	s15, s15
 1384 05c0 67EEA87A 		vmul.f32	s15, s15, s17
 1385 05c4 0B68     		ldr	r3, [r1]
 1386              	.LVL83:
 247:My_Top/Motor_Control/DcMotor_ClosedLoop.cpp **** }
 1387              		.loc 1 247 5 discriminator 3 view .LVU413
 1388 05c6 1B68     		ldr	r3, [r3]
 1389 05c8 FCEEE77A 		vcvt.u32.f32	s15, s15
 1390 05cc C3ED0E7A 		vstr.32	s15, [r3, #56]	@ int
 1391 05d0 32E0     		b	.L32
 1392              	.LVL84:
 1393              	.L53:
 247:My_Top/Motor_Control/DcMotor_ClosedLoop.cpp **** }
 1394              		.loc 1 247 5 discriminator 5 view .LVU414
 1395 05d2 07EE903A 		vmov	s15, r3	@ int
 1396 05d6 F8EE677A 		vcvt.f32.u32	s15, s15
 1397 05da 67EEA87A 		vmul.f32	s15, s15, s17
 1398 05de 0B68     		ldr	r3, [r1]
 1399              	.LVL85:
 247:My_Top/Motor_Control/DcMotor_ClosedLoop.cpp **** }
 1400              		.loc 1 247 5 discriminator 5 view .LVU415
 1401 05e0 1B68     		ldr	r3, [r3]
 1402 05e2 FCEEE77A 		vcvt.u32.f32	s15, s15
 1403 05e6 C3ED0F7A 		vstr.32	s15, [r3, #60]	@ int
 1404 05ea 25E0     		b	.L32
 1405              	.LVL86:
 1406              	.L52:
 247:My_Top/Motor_Control/DcMotor_ClosedLoop.cpp **** }
 1407              		.loc 1 247 5 discriminator 7 view .LVU416
 1408 05ec 07EE903A 		vmov	s15, r3	@ int
 1409 05f0 F8EE677A 		vcvt.f32.u32	s15, s15
 1410 05f4 67EEA87A 		vmul.f32	s15, s15, s17
 1411 05f8 0B68     		ldr	r3, [r1]
 1412              	.LVL87:
 247:My_Top/Motor_Control/DcMotor_ClosedLoop.cpp **** }
 1413              		.loc 1 247 5 discriminator 7 view .LVU417
ARM GAS  /tmp/cc5lp4CL.s 			page 43


 1414 05fa 1B68     		ldr	r3, [r3]
 1415 05fc FCEEE77A 		vcvt.u32.f32	s15, s15
 1416 0600 C3ED107A 		vstr.32	s15, [r3, #64]	@ int
 1417 0604 18E0     		b	.L32
 1418              	.LVL88:
 1419              	.L50:
 247:My_Top/Motor_Control/DcMotor_ClosedLoop.cpp **** }
 1420              		.loc 1 247 5 discriminator 9 view .LVU418
 1421 0606 07EE903A 		vmov	s15, r3	@ int
 1422 060a F8EE677A 		vcvt.f32.u32	s15, s15
 1423 060e 67EEA87A 		vmul.f32	s15, s15, s17
 1424 0612 0B68     		ldr	r3, [r1]
 1425              	.LVL89:
 247:My_Top/Motor_Control/DcMotor_ClosedLoop.cpp **** }
 1426              		.loc 1 247 5 discriminator 9 view .LVU419
 1427 0614 1B68     		ldr	r3, [r3]
 1428 0616 FCEEE77A 		vcvt.u32.f32	s15, s15
 1429 061a C3ED127A 		vstr.32	s15, [r3, #72]	@ int
 1430 061e 0BE0     		b	.L32
 1431              	.LVL90:
 1432              	.L49:
 247:My_Top/Motor_Control/DcMotor_ClosedLoop.cpp **** }
 1433              		.loc 1 247 5 discriminator 10 view .LVU420
 1434 0620 07EE903A 		vmov	s15, r3	@ int
 1435 0624 F8EE677A 		vcvt.f32.u32	s15, s15
 1436 0628 67EEA87A 		vmul.f32	s15, s15, s17
 1437 062c 0B68     		ldr	r3, [r1]
 1438              	.LVL91:
 247:My_Top/Motor_Control/DcMotor_ClosedLoop.cpp **** }
 1439              		.loc 1 247 5 discriminator 10 view .LVU421
 1440 062e 1B68     		ldr	r3, [r3]
 1441 0630 FCEEE77A 		vcvt.u32.f32	s15, s15
 1442 0634 C3ED137A 		vstr.32	s15, [r3, #76]	@ int
 1443              	.LVL92:
 1444              	.L32:
 248:My_Top/Motor_Control/DcMotor_ClosedLoop.cpp **** 
 1445              		.loc 1 248 1 view .LVU422
 1446 0638 BDEC028B 		vldm	sp!, {d8}
 1447              		.cfi_restore 80
 1448              		.cfi_restore 81
 1449              		.cfi_def_cfa_offset 16
 1450              	.LVL93:
 248:My_Top/Motor_Control/DcMotor_ClosedLoop.cpp **** 
 1451              		.loc 1 248 1 view .LVU423
 1452 063c 38BD     		pop	{r3, r4, r5, pc}
 1453              	.LVL94:
 1454              	.L66:
 248:My_Top/Motor_Control/DcMotor_ClosedLoop.cpp **** 
 1455              		.loc 1 248 1 view .LVU424
 1456 063e 00BF     		.align	2
 1457              	.L65:
 1458 0640 EC51783F 		.word	1064849900
 1459 0644 00000000 		.word	0
 1460              		.cfi_endproc
 1461              	.LFE1355:
 1463              		.align	1
 1464              		.global	_ZN8DC_Motor18Set_Motor_Glo_DutyEv
ARM GAS  /tmp/cc5lp4CL.s 			page 44


 1465              		.syntax unified
 1466              		.thumb
 1467              		.thumb_func
 1469              	_ZN8DC_Motor18Set_Motor_Glo_DutyEv:
 1470              	.LVL95:
 1471              	.LFB1356:
 253:My_Top/Motor_Control/DcMotor_ClosedLoop.cpp ****     float duty = constraint_value(updown_duty, MOTOR_DEFAULT_PARAM.limit.min_duty, MOTOR_DEFAULT_PA
 1472              		.loc 1 253 1 is_stmt 1 view -0
 1473              		.cfi_startproc
 1474              		@ args = 0, pretend = 0, frame = 0
 1475              		@ frame_needed = 0, uses_anonymous_args = 0
 253:My_Top/Motor_Control/DcMotor_ClosedLoop.cpp ****     float duty = constraint_value(updown_duty, MOTOR_DEFAULT_PARAM.limit.min_duty, MOTOR_DEFAULT_PA
 1476              		.loc 1 253 1 is_stmt 0 view .LVU426
 1477 0648 10B5     		push	{r4, lr}
 1478              		.cfi_def_cfa_offset 8
 1479              		.cfi_offset 4, -8
 1480              		.cfi_offset 14, -4
 1481 064a 0446     		mov	r4, r0
 254:My_Top/Motor_Control/DcMotor_ClosedLoop.cpp **** 
 1482              		.loc 1 254 5 is_stmt 1 view .LVU427
 254:My_Top/Motor_Control/DcMotor_ClosedLoop.cpp **** 
 1483              		.loc 1 254 18 is_stmt 0 view .LVU428
 1484 064c D0ED047A 		vldr.32	s15, [r0, #16]
 1485 0650 9FED257A 		vldr.32	s14, .L84
 1486 0654 F4EEC77A 		vcmpe.f32	s15, s14
 1487 0658 F1EE10FA 		vmrs	APSR_nzcv, FPSCR
 1488 065c 0CD4     		bmi	.L76
 254:My_Top/Motor_Control/DcMotor_ClosedLoop.cpp **** 
 1489              		.loc 1 254 18 discriminator 2 view .LVU429
 1490 065e 9FED237A 		vldr.32	s14, .L84+4
 1491 0662 F4EEC77A 		vcmpe.f32	s15, s14
 1492 0666 F1EE10FA 		vmrs	APSR_nzcv, FPSCR
 1493 066a 1BDC     		bgt	.L77
 1494              	.LVL96:
 256:My_Top/Motor_Control/DcMotor_ClosedLoop.cpp ****     {
 1495              		.loc 1 256 5 is_stmt 1 view .LVU430
 1496 066c F5EE407A 		vcmp.f32	s15, #0
 1497 0670 F1EE10FA 		vmrs	APSR_nzcv, FPSCR
 1498 0674 0BD0     		beq	.L69
 1499 0676 01E0     		b	.L68
 1500              	.LVL97:
 1501              	.L76:
 254:My_Top/Motor_Control/DcMotor_ClosedLoop.cpp **** 
 1502              		.loc 1 254 18 is_stmt 0 discriminator 1 view .LVU431
 1503 0678 DFED1B7A 		vldr.32	s15, .L84
 1504              	.L68:
 256:My_Top/Motor_Control/DcMotor_ClosedLoop.cpp ****     {
 1505              		.loc 1 256 30 discriminator 1 view .LVU432
 1506 067c B0EEE77A 		vabs.f32	s14, s15
 256:My_Top/Motor_Control/DcMotor_ClosedLoop.cpp ****     {
 1507              		.loc 1 256 22 discriminator 1 view .LVU433
 1508 0680 DFED1B6A 		vldr.32	s13, .L84+8
 1509 0684 B4EEE67A 		vcmpe.f32	s14, s13
 1510 0688 F1EE10FA 		vmrs	APSR_nzcv, FPSCR
 1511 068c 0DD5     		bpl	.L80
 1512              	.L69:
 258:My_Top/Motor_Control/DcMotor_ClosedLoop.cpp ****         Motor_EN(false);
ARM GAS  /tmp/cc5lp4CL.s 			page 45


 1513              		.loc 1 258 9 is_stmt 1 view .LVU434
 258:My_Top/Motor_Control/DcMotor_ClosedLoop.cpp ****         Motor_EN(false);
 1514              		.loc 1 258 41 is_stmt 0 view .LVU435
 1515 068e 0023     		movs	r3, #0
 1516 0690 E360     		str	r3, [r4, #12]	@ float
 258:My_Top/Motor_Control/DcMotor_ClosedLoop.cpp ****         Motor_EN(false);
 1517              		.loc 1 258 23 view .LVU436
 1518 0692 A360     		str	r3, [r4, #8]	@ float
 259:My_Top/Motor_Control/DcMotor_ClosedLoop.cpp ****     }else if (duty > 0.0f) 
 1519              		.loc 1 259 9 is_stmt 1 view .LVU437
 259:My_Top/Motor_Control/DcMotor_ClosedLoop.cpp ****     }else if (duty > 0.0f) 
 1520              		.loc 1 259 17 is_stmt 0 view .LVU438
 1521 0694 0021     		movs	r1, #0
 1522 0696 2046     		mov	r0, r4
 1523              	.LVL98:
 259:My_Top/Motor_Control/DcMotor_ClosedLoop.cpp ****     }else if (duty > 0.0f) 
 1524              		.loc 1 259 17 view .LVU439
 1525 0698 FFF7FEFF 		bl	_ZN8DC_Motor8Motor_ENEb
 1526              	.LVL99:
 1527              	.L72:
 272:My_Top/Motor_Control/DcMotor_ClosedLoop.cpp **** }
 1528              		.loc 1 272 5 is_stmt 1 view .LVU440
 272:My_Top/Motor_Control/DcMotor_ClosedLoop.cpp **** }
 1529              		.loc 1 272 24 is_stmt 0 view .LVU441
 1530 069c 2046     		mov	r0, r4
 1531 069e FFF7FEFF 		bl	_ZN8DC_Motor19Set_Motor_FrequencyEv
 1532              	.LVL100:
 273:My_Top/Motor_Control/DcMotor_ClosedLoop.cpp **** 
 1533              		.loc 1 273 1 view .LVU442
 1534 06a2 10BD     		pop	{r4, pc}
 1535              	.LVL101:
 1536              	.L77:
 254:My_Top/Motor_Control/DcMotor_ClosedLoop.cpp **** 
 1537              		.loc 1 254 18 discriminator 7 view .LVU443
 1538 06a4 DFED117A 		vldr.32	s15, .L84+4
 1539 06a8 E8E7     		b	.L68
 1540              	.L80:
 260:My_Top/Motor_Control/DcMotor_ClosedLoop.cpp ****     {
 1541              		.loc 1 260 11 is_stmt 1 view .LVU444
 1542 06aa F5EEC07A 		vcmpe.f32	s15, #0
 1543 06ae F1EE10FA 		vmrs	APSR_nzcv, FPSCR
 1544 06b2 0FDC     		bgt	.L83
 265:My_Top/Motor_Control/DcMotor_ClosedLoop.cpp ****     {
 1545              		.loc 1 265 11 view .LVU445
 1546 06b4 F5EEC07A 		vcmpe.f32	s15, #0
 1547 06b8 F1EE10FA 		vmrs	APSR_nzcv, FPSCR
 1548 06bc EED5     		bpl	.L72
 267:My_Top/Motor_Control/DcMotor_ClosedLoop.cpp ****         motor_down_duty = -duty;
 1549              		.loc 1 267 9 view .LVU446
 267:My_Top/Motor_Control/DcMotor_ClosedLoop.cpp ****         motor_down_duty = -duty;
 1550              		.loc 1 267 23 is_stmt 0 view .LVU447
 1551 06be 0023     		movs	r3, #0
 1552 06c0 A360     		str	r3, [r4, #8]	@ float
 268:My_Top/Motor_Control/DcMotor_ClosedLoop.cpp ****         Motor_EN(true);
 1553              		.loc 1 268 9 is_stmt 1 view .LVU448
 268:My_Top/Motor_Control/DcMotor_ClosedLoop.cpp ****         Motor_EN(true);
 1554              		.loc 1 268 27 is_stmt 0 view .LVU449
ARM GAS  /tmp/cc5lp4CL.s 			page 46


 1555 06c2 F1EE677A 		vneg.f32	s15, s15
 268:My_Top/Motor_Control/DcMotor_ClosedLoop.cpp ****         Motor_EN(true);
 1556              		.loc 1 268 25 view .LVU450
 1557 06c6 C4ED037A 		vstr.32	s15, [r4, #12]
 269:My_Top/Motor_Control/DcMotor_ClosedLoop.cpp ****     }
 1558              		.loc 1 269 9 is_stmt 1 view .LVU451
 269:My_Top/Motor_Control/DcMotor_ClosedLoop.cpp ****     }
 1559              		.loc 1 269 17 is_stmt 0 view .LVU452
 1560 06ca 0121     		movs	r1, #1
 1561 06cc 2046     		mov	r0, r4
 1562              	.LVL102:
 269:My_Top/Motor_Control/DcMotor_ClosedLoop.cpp ****     }
 1563              		.loc 1 269 17 view .LVU453
 1564 06ce FFF7FEFF 		bl	_ZN8DC_Motor8Motor_ENEb
 1565              	.LVL103:
 1566 06d2 E3E7     		b	.L72
 1567              	.LVL104:
 1568              	.L83:
 262:My_Top/Motor_Control/DcMotor_ClosedLoop.cpp ****         motor_down_duty = 0.0f;
 1569              		.loc 1 262 9 is_stmt 1 view .LVU454
 262:My_Top/Motor_Control/DcMotor_ClosedLoop.cpp ****         motor_down_duty = 0.0f;
 1570              		.loc 1 262 23 is_stmt 0 view .LVU455
 1571 06d4 C4ED027A 		vstr.32	s15, [r4, #8]
 263:My_Top/Motor_Control/DcMotor_ClosedLoop.cpp ****         Motor_EN(true);
 1572              		.loc 1 263 9 is_stmt 1 view .LVU456
 263:My_Top/Motor_Control/DcMotor_ClosedLoop.cpp ****         Motor_EN(true);
 1573              		.loc 1 263 25 is_stmt 0 view .LVU457
 1574 06d8 0023     		movs	r3, #0
 1575 06da E360     		str	r3, [r4, #12]	@ float
 264:My_Top/Motor_Control/DcMotor_ClosedLoop.cpp ****     }else if (duty < 0.0f) 
 1576              		.loc 1 264 9 is_stmt 1 view .LVU458
 264:My_Top/Motor_Control/DcMotor_ClosedLoop.cpp ****     }else if (duty < 0.0f) 
 1577              		.loc 1 264 17 is_stmt 0 view .LVU459
 1578 06dc 0121     		movs	r1, #1
 1579 06de 2046     		mov	r0, r4
 1580              	.LVL105:
 264:My_Top/Motor_Control/DcMotor_ClosedLoop.cpp ****     }else if (duty < 0.0f) 
 1581              		.loc 1 264 17 view .LVU460
 1582 06e0 FFF7FEFF 		bl	_ZN8DC_Motor8Motor_ENEb
 1583              	.LVL106:
 1584 06e4 DAE7     		b	.L72
 1585              	.L85:
 1586 06e6 00BF     		.align	2
 1587              	.L84:
 1588 06e8 EC5178BF 		.word	-1082633748
 1589 06ec EC51783F 		.word	1064849900
 1590 06f0 BD378635 		.word	897988541
 1591              		.cfi_endproc
 1592              	.LFE1356:
 1594              		.align	1
 1595              		.global	_ZN8DC_Motor16My_DC_Motor_InitEv
 1596              		.syntax unified
 1597              		.thumb
 1598              		.thumb_func
 1600              	_ZN8DC_Motor16My_DC_Motor_InitEv:
 1601              	.LVL107:
 1602              	.LFB1354:
ARM GAS  /tmp/cc5lp4CL.s 			page 47


 202:My_Top/Motor_Control/DcMotor_ClosedLoop.cpp ****     uint32_t sysclk = HAL_RCC_GetSysClockFreq();
 1603              		.loc 1 202 1 is_stmt 1 view -0
 1604              		.cfi_startproc
 1605              		@ args = 0, pretend = 0, frame = 0
 1606              		@ frame_needed = 0, uses_anonymous_args = 0
 202:My_Top/Motor_Control/DcMotor_ClosedLoop.cpp ****     uint32_t sysclk = HAL_RCC_GetSysClockFreq();
 1607              		.loc 1 202 1 is_stmt 0 view .LVU462
 1608 06f4 10B5     		push	{r4, lr}
 1609              		.cfi_def_cfa_offset 8
 1610              		.cfi_offset 4, -8
 1611              		.cfi_offset 14, -4
 1612 06f6 2DED028B 		vpush.64	{d8}
 1613              		.cfi_def_cfa_offset 16
 1614              		.cfi_offset 80, -16
 1615              		.cfi_offset 81, -12
 1616 06fa 0446     		mov	r4, r0
 203:My_Top/Motor_Control/DcMotor_ClosedLoop.cpp ****     timer_clock_freq_ = sysclk / (_motor_config->htim->Instance->PSC + 1);
 1617              		.loc 1 203 5 is_stmt 1 view .LVU463
 203:My_Top/Motor_Control/DcMotor_ClosedLoop.cpp ****     timer_clock_freq_ = sysclk / (_motor_config->htim->Instance->PSC + 1);
 1618              		.loc 1 203 46 is_stmt 0 view .LVU464
 1619 06fc FFF7FEFF 		bl	HAL_RCC_GetSysClockFreq
 1620              	.LVL108:
 204:My_Top/Motor_Control/DcMotor_ClosedLoop.cpp **** 
 1621              		.loc 1 204 5 is_stmt 1 view .LVU465
 204:My_Top/Motor_Control/DcMotor_ClosedLoop.cpp **** 
 1622              		.loc 1 204 35 is_stmt 0 view .LVU466
 1623 0700 D4F8B430 		ldr	r3, [r4, #180]
 204:My_Top/Motor_Control/DcMotor_ClosedLoop.cpp **** 
 1624              		.loc 1 204 50 view .LVU467
 1625 0704 1B68     		ldr	r3, [r3]
 204:My_Top/Motor_Control/DcMotor_ClosedLoop.cpp **** 
 1626              		.loc 1 204 56 view .LVU468
 1627 0706 1B68     		ldr	r3, [r3]
 204:My_Top/Motor_Control/DcMotor_ClosedLoop.cpp **** 
 1628              		.loc 1 204 66 view .LVU469
 1629 0708 9B6A     		ldr	r3, [r3, #40]
 204:My_Top/Motor_Control/DcMotor_ClosedLoop.cpp **** 
 1630              		.loc 1 204 70 view .LVU470
 1631 070a 0133     		adds	r3, r3, #1
 204:My_Top/Motor_Control/DcMotor_ClosedLoop.cpp **** 
 1632              		.loc 1 204 32 view .LVU471
 1633 070c B0FBF3F0 		udiv	r0, r0, r3
 1634              	.LVL109:
 204:My_Top/Motor_Control/DcMotor_ClosedLoop.cpp **** 
 1635              		.loc 1 204 23 view .LVU472
 1636 0710 A066     		str	r0, [r4, #104]
 206:My_Top/Motor_Control/DcMotor_ClosedLoop.cpp ****     error_lpf.init(0.7);
 1637              		.loc 1 206 5 is_stmt 1 view .LVU473
 206:My_Top/Motor_Control/DcMotor_ClosedLoop.cpp ****     error_lpf.init(0.7);
 1638              		.loc 1 206 19 is_stmt 0 view .LVU474
 1639 0712 9FED178A 		vldr.32	s16, .L88
 1640 0716 B0EE480A 		vmov.f32	s0, s16
 1641 071a 04F16C00 		add	r0, r4, #108
 1642 071e FFF7FEFF 		bl	_ZN13LowpassFilter4initEf
 1643              	.LVL110:
 207:My_Top/Motor_Control/DcMotor_ClosedLoop.cpp ****     speed_avg.init(5);
 1644              		.loc 1 207 5 is_stmt 1 view .LVU475
ARM GAS  /tmp/cc5lp4CL.s 			page 48


 207:My_Top/Motor_Control/DcMotor_ClosedLoop.cpp ****     speed_avg.init(5);
 1645              		.loc 1 207 19 is_stmt 0 view .LVU476
 1646 0722 B0EE480A 		vmov.f32	s0, s16
 1647 0726 04F17400 		add	r0, r4, #116
 1648 072a FFF7FEFF 		bl	_ZN13LowpassFilter4initEf
 1649              	.LVL111:
 208:My_Top/Motor_Control/DcMotor_ClosedLoop.cpp ****     adc_val_avg.init(100);//ADCķććµĀĘÕĆ╝µ╗żµ│ó //67µ×üķÖÉ
 1650              		.loc 1 208 5 is_stmt 1 view .LVU477
 208:My_Top/Motor_Control/DcMotor_ClosedLoop.cpp ****     adc_val_avg.init(100);//ADCķććµĀĘÕĆ╝µ╗żµ│ó //67µ×üķÖÉ
 1651              		.loc 1 208 19 is_stmt 0 view .LVU478
 1652 072e 0521     		movs	r1, #5
 1653 0730 04F17C00 		add	r0, r4, #124
 1654 0734 FFF7FEFF 		bl	_ZN9AvgFilter4initEh
 1655              	.LVL112:
 209:My_Top/Motor_Control/DcMotor_ClosedLoop.cpp **** 
 1656              		.loc 1 209 5 is_stmt 1 view .LVU479
 209:My_Top/Motor_Control/DcMotor_ClosedLoop.cpp **** 
 1657              		.loc 1 209 21 is_stmt 0 view .LVU480
 1658 0738 6421     		movs	r1, #100
 1659 073a 04F19800 		add	r0, r4, #152
 1660 073e FFF7FEFF 		bl	_ZN9AvgFilter4initEh
 1661              	.LVL113:
 212:My_Top/Motor_Control/DcMotor_ClosedLoop.cpp **** 
 1662              		.loc 1 212 5 is_stmt 1 view .LVU481
 212:My_Top/Motor_Control/DcMotor_ClosedLoop.cpp **** 
 1663              		.loc 1 212 23 is_stmt 0 view .LVU482
 1664 0742 2046     		mov	r0, r4
 1665 0744 FFF7FEFF 		bl	_ZN8DC_Motor18Set_Motor_Glo_DutyEv
 1666              	.LVL114:
 215:My_Top/Motor_Control/DcMotor_ClosedLoop.cpp ****     vTaskDelay(pdMS_TO_TICKS(1));  // ńŁē 1ms Õģģµ╗Ī
 1667              		.loc 1 215 5 is_stmt 1 view .LVU483
 215:My_Top/Motor_Control/DcMotor_ClosedLoop.cpp ****     vTaskDelay(pdMS_TO_TICKS(1));  // ńŁē 1ms Õģģµ╗Ī
 1668              		.loc 1 215 13 is_stmt 0 view .LVU484
 1669 0748 0121     		movs	r1, #1
 1670 074a 2046     		mov	r0, r4
 1671 074c FFF7FEFF 		bl	_ZN8DC_Motor8Motor_ENEb
 1672              	.LVL115:
 216:My_Top/Motor_Control/DcMotor_ClosedLoop.cpp ****     Motor_EN(false); // Õģ│ķŚŁPWMĶŠōÕć║
 1673              		.loc 1 216 5 is_stmt 1 view .LVU485
 216:My_Top/Motor_Control/DcMotor_ClosedLoop.cpp ****     Motor_EN(false); // Õģ│ķŚŁPWMĶŠōÕć║
 1674              		.loc 1 216 15 is_stmt 0 view .LVU486
 1675 0750 0120     		movs	r0, #1
 1676 0752 FFF7FEFF 		bl	vTaskDelay
 1677              	.LVL116:
 217:My_Top/Motor_Control/DcMotor_ClosedLoop.cpp ****     _encoder->KTH7111_Init(motor_encoder_dir);
 1678              		.loc 1 217 5 is_stmt 1 view .LVU487
 217:My_Top/Motor_Control/DcMotor_ClosedLoop.cpp ****     _encoder->KTH7111_Init(motor_encoder_dir);
 1679              		.loc 1 217 13 is_stmt 0 view .LVU488
 1680 0756 0021     		movs	r1, #0
 1681 0758 2046     		mov	r0, r4
 1682 075a FFF7FEFF 		bl	_ZN8DC_Motor8Motor_ENEb
 1683              	.LVL117:
 218:My_Top/Motor_Control/DcMotor_ClosedLoop.cpp ****     control_init_flag = true;
 1684              		.loc 1 218 5 is_stmt 1 view .LVU489
 218:My_Top/Motor_Control/DcMotor_ClosedLoop.cpp ****     control_init_flag = true;
 1685              		.loc 1 218 27 is_stmt 0 view .LVU490
 1686 075e 6178     		ldrb	r1, [r4, #1]	@ zero_extendqisi2
ARM GAS  /tmp/cc5lp4CL.s 			page 49


 1687 0760 206C     		ldr	r0, [r4, #64]
 1688 0762 FFF7FEFF 		bl	_ZN7KTH711112KTH7111_InitEb
 1689              	.LVL118:
 219:My_Top/Motor_Control/DcMotor_ClosedLoop.cpp **** }
 1690              		.loc 1 219 5 is_stmt 1 view .LVU491
 219:My_Top/Motor_Control/DcMotor_ClosedLoop.cpp **** }
 1691              		.loc 1 219 23 is_stmt 0 view .LVU492
 1692 0766 0123     		movs	r3, #1
 1693 0768 A370     		strb	r3, [r4, #2]
 220:My_Top/Motor_Control/DcMotor_ClosedLoop.cpp **** 
 1694              		.loc 1 220 1 view .LVU493
 1695 076a BDEC028B 		vldm	sp!, {d8}
 1696              		.cfi_restore 80
 1697              		.cfi_restore 81
 1698              		.cfi_def_cfa_offset 8
 1699 076e 10BD     		pop	{r4, pc}
 1700              	.LVL119:
 1701              	.L89:
 220:My_Top/Motor_Control/DcMotor_ClosedLoop.cpp **** 
 1702              		.loc 1 220 1 view .LVU494
 1703              		.align	2
 1704              	.L88:
 1705 0770 3333333F 		.word	1060320051
 1706              		.cfi_endproc
 1707              	.LFE1354:
 1709              		.align	1
 1710              		.global	_ZN8DC_Motor28Update_Speed_Angle_LPFAndPLLEv
 1711              		.syntax unified
 1712              		.thumb
 1713              		.thumb_func
 1715              	_ZN8DC_Motor28Update_Speed_Angle_LPFAndPLLEv:
 1716              	.LVL120:
 1717              	.LFB1358:
 303:My_Top/Motor_Control/DcMotor_ClosedLoop.cpp ****     // ķØÖµĆüÕÅśķćÅ’╝īńö©õ║ÄõĖ┤µŚČÕŁśÕé©Ķ¦ÆÕ║”ÕĆ╝ÕÆīõĖŖõĖĆµ¼ĪńÜäĶ¦ÆÕ║”ÕĆ╝
 1718              		.loc 1 303 1 is_stmt 1 view -0
 1719              		.cfi_startproc
 1720              		@ args = 0, pretend = 0, frame = 0
 1721              		@ frame_needed = 0, uses_anonymous_args = 0
 303:My_Top/Motor_Control/DcMotor_ClosedLoop.cpp ****     // ķØÖµĆüÕÅśķćÅ’╝īńö©õ║ÄõĖ┤µŚČÕŁśÕé©Ķ¦ÆÕ║”ÕĆ╝ÕÆīõĖŖõĖĆµ¼ĪńÜäĶ¦ÆÕ║”ÕĆ╝
 1722              		.loc 1 303 1 is_stmt 0 view .LVU496
 1723 0774 38B5     		push	{r3, r4, r5, lr}
 1724              		.cfi_def_cfa_offset 16
 1725              		.cfi_offset 3, -16
 1726              		.cfi_offset 4, -12
 1727              		.cfi_offset 5, -8
 1728              		.cfi_offset 14, -4
 1729 0776 0446     		mov	r4, r0
 305:My_Top/Motor_Control/DcMotor_ClosedLoop.cpp ****     static float theta_m_offic_temp = 0.0;
 1730              		.loc 1 305 5 is_stmt 1 view .LVU497
 306:My_Top/Motor_Control/DcMotor_ClosedLoop.cpp **** 
 1731              		.loc 1 306 5 view .LVU498
 308:My_Top/Motor_Control/DcMotor_ClosedLoop.cpp ****     fudu_test = _encoder->Get_KTH7111_Radian();//ĶÄĘÕÅ¢ń╝¢ńĀüÕÖ©Ķ¦ÆÕ║”
 1732              		.loc 1 308 5 view .LVU499
 308:My_Top/Motor_Control/DcMotor_ClosedLoop.cpp ****     fudu_test = _encoder->Get_KTH7111_Radian();//ĶÄĘÕÅ¢ń╝¢ńĀüÕÖ©Ķ¦ÆÕ║”
 1733              		.loc 1 308 36 is_stmt 0 view .LVU500
 1734 0778 006C     		ldr	r0, [r0, #64]
 1735              	.LVL121:
ARM GAS  /tmp/cc5lp4CL.s 			page 50


 308:My_Top/Motor_Control/DcMotor_ClosedLoop.cpp ****     fudu_test = _encoder->Get_KTH7111_Radian();//ĶÄĘÕÅ¢ń╝¢ńĀüÕÖ©Ķ¦ÆÕ║”
 1736              		.loc 1 308 36 view .LVU501
 1737 077a FFF7FEFF 		bl	_ZN7KTH711121KTH7111_Send_JIAO_CMDEv
 1738              	.LVL122:
 309:My_Top/Motor_Control/DcMotor_ClosedLoop.cpp **** 
 1739              		.loc 1 309 5 is_stmt 1 view .LVU502
 309:My_Top/Motor_Control/DcMotor_ClosedLoop.cpp **** 
 1740              		.loc 1 309 45 is_stmt 0 view .LVU503
 1741 077e 206C     		ldr	r0, [r4, #64]
 1742 0780 FFF7FEFF 		bl	_ZN7KTH711118Get_KTH7111_RadianEv
 1743              	.LVL123:
 309:My_Top/Motor_Control/DcMotor_ClosedLoop.cpp **** 
 1744              		.loc 1 309 15 discriminator 1 view .LVU504
 1745 0784 584B     		ldr	r3, .L102+16
 1746 0786 83ED000A 		vstr.32	s0, [r3]
 311:My_Top/Motor_Control/DcMotor_ClosedLoop.cpp ****     {
 1747              		.loc 1 311 5 is_stmt 1 view .LVU505
 1748              	.LBB123:
 311:My_Top/Motor_Control/DcMotor_ClosedLoop.cpp ****     {
 1749              		.loc 1 311 9 is_stmt 0 view .LVU506
 1750 078a 94F8B830 		ldrb	r3, [r4, #184]	@ zero_extendqisi2
 311:My_Top/Motor_Control/DcMotor_ClosedLoop.cpp ****     {
 1751              		.loc 1 311 5 view .LVU507
 1752 078e 002B     		cmp	r3, #0
 1753 0790 40F08480 		bne	.L91
 1754              	.LBB124:
 313:My_Top/Motor_Control/DcMotor_ClosedLoop.cpp ****       //µ¢╣Õ╝Å1 õĮÄķĆÜµ╗żµ│ó µø┤µ¢░µ£║µó░Ķ¦ÆÕ║”ķĆ¤Õ║”
 1755              		.loc 1 313 7 is_stmt 1 view .LVU508
 1756              	.LBB125:
 313:My_Top/Motor_Control/DcMotor_ClosedLoop.cpp ****       //µ¢╣Õ╝Å1 õĮÄķĆÜµ╗żµ│ó µø┤µ¢░µ£║µó░Ķ¦ÆÕ║”ķĆ¤Õ║”
 1757              		.loc 1 313 17 view .LVU509
 1758 0794 10EE100A 		vmov	r0, s0
 1759 0798 FFF7FEFF 		bl	__aeabi_f2d
 1760              	.LVL124:
 1761 079c 4EA3     		adr	r3, .L102
 1762 079e D3E90023 		ldrd	r2, [r3]
 1763 07a2 FFF7FEFF 		bl	__aeabi_dadd
 1764              	.LVL125:
 1765 07a6 FFF7FEFF 		bl	__aeabi_d2f
 1766              	.LVL126:
 1767 07aa DFED500A 		vldr.32	s1, .L102+20
 1768 07ae 00EE100A 		vmov	s0, r0
 1769 07b2 FFF7FEFF 		bl	fmodf
 1770              	.LVL127:
 313:My_Top/Motor_Control/DcMotor_ClosedLoop.cpp ****       //µ¢╣Õ╝Å1 õĮÄķĆÜµ╗żµ│ó µø┤µ¢░µ£║µó░Ķ¦ÆÕ║”ķĆ¤Õ║”
 1771              		.loc 1 313 17 discriminator 1 view .LVU510
 1772 07b6 B5EEC00A 		vcmpe.f32	s0, #0
 1773 07ba F1EE10FA 		vmrs	APSR_nzcv, FPSCR
 1774 07be 63D4     		bmi	.L100
 1775              	.LVL128:
 1776              	.L92:
 313:My_Top/Motor_Control/DcMotor_ClosedLoop.cpp ****       //µ¢╣Õ╝Å1 õĮÄķĆÜµ╗żµ│ó µø┤µ¢░µ£║µó░Ķ¦ÆÕ║”ķĆ¤Õ║”
 1777              		.loc 1 313 17 discriminator 3 view .LVU511
 1778 07c0 10EE100A 		vmov	r0, s0
 1779 07c4 FFF7FEFF 		bl	__aeabi_f2d
 1780              	.LVL129:
 313:My_Top/Motor_Control/DcMotor_ClosedLoop.cpp ****       //µ¢╣Õ╝Å1 õĮÄķĆÜµ╗żµ│ó µø┤µ¢░µ£║µó░Ķ¦ÆÕ║”ķĆ¤Õ║”
ARM GAS  /tmp/cc5lp4CL.s 			page 51


 1781              		.loc 1 313 17 is_stmt 0 discriminator 3 view .LVU512
 1782 07c8 43A3     		adr	r3, .L102
 1783 07ca D3E90023 		ldrd	r2, [r3]
 1784 07ce FFF7FEFF 		bl	__aeabi_dsub
 1785              	.LVL130:
 1786              	.LBE125:
 1787 07d2 FFF7FEFF 		bl	__aeabi_d2f
 1788              	.LVL131:
 1789 07d6 07EE900A 		vmov	s15, r0
 313:My_Top/Motor_Control/DcMotor_ClosedLoop.cpp ****       //µ¢╣Õ╝Å1 õĮÄķĆÜµ╗żµ│ó µø┤µ¢░µ£║µó░Ķ¦ÆÕ║”ķĆ¤Õ║”
 1790              		.loc 1 313 15 discriminator 3 view .LVU513
 1791 07da 6061     		str	r0, [r4, #20]	@ float
 315:My_Top/Motor_Control/DcMotor_ClosedLoop.cpp ****       theta_m_last = theta_m; // µø┤µ¢░õĖŖõĖĆµ¼ĪńÜäµ£║µó░Ķ¦ÆÕ║”
 1792              		.loc 1 315 7 is_stmt 1 view .LVU514
 315:My_Top/Motor_Control/DcMotor_ClosedLoop.cpp ****       theta_m_last = theta_m; // µø┤µ¢░õĖŖõĖĆµ¼ĪńÜäµ£║µó░Ķ¦ÆÕ║”
 1793              		.loc 1 315 38 is_stmt 0 view .LVU515
 1794 07dc 94ED2F7A 		vldr.32	s14, [r4, #188]
 315:My_Top/Motor_Control/DcMotor_ClosedLoop.cpp ****       theta_m_last = theta_m; // µø┤µ¢░õĖŖõĖĆµ¼ĪńÜäµ£║µó░Ķ¦ÆÕ║”
 1795              		.loc 1 315 36 view .LVU516
 1796 07e0 37EEC77A 		vsub.f32	s14, s15, s14
 315:My_Top/Motor_Control/DcMotor_ClosedLoop.cpp ****       theta_m_last = theta_m; // µø┤µ¢░õĖŖõĖĆµ¼ĪńÜäµ£║µó░Ķ¦ÆÕ║”
 1797              		.loc 1 315 26 view .LVU517
 1798 07e4 424B     		ldr	r3, .L102+24
 1799 07e6 83ED007A 		vstr.32	s14, [r3]
 316:My_Top/Motor_Control/DcMotor_ClosedLoop.cpp ****       theta_m_offic = wrap_to_PI(theta_m_offic_temp);// Õ░åÕĘ«ÕĆ╝Ķ¦äµĢ┤Õł░ [-PI, PI) Õī║ķŚ┤
 1800              		.loc 1 316 7 is_stmt 1 view .LVU518
 316:My_Top/Motor_Control/DcMotor_ClosedLoop.cpp ****       theta_m_offic = wrap_to_PI(theta_m_offic_temp);// Õ░åÕĘ«ÕĆ╝Ķ¦äµĢ┤Õł░ [-PI, PI) Õī║ķŚ┤
 1801              		.loc 1 316 20 is_stmt 0 view .LVU519
 1802 07ea C4F8BC00 		str	r0, [r4, #188]	@ float
 317:My_Top/Motor_Control/DcMotor_ClosedLoop.cpp **** 
 1803              		.loc 1 317 7 is_stmt 1 view .LVU520
 1804              	.LBB126:
 317:My_Top/Motor_Control/DcMotor_ClosedLoop.cpp **** 
 1805              		.loc 1 317 23 view .LVU521
 1806 07ee 17EE100A 		vmov	r0, s14
 1807 07f2 FFF7FEFF 		bl	__aeabi_f2d
 1808              	.LVL132:
 1809 07f6 38A3     		adr	r3, .L102
 1810 07f8 D3E90023 		ldrd	r2, [r3]
 1811 07fc FFF7FEFF 		bl	__aeabi_dadd
 1812              	.LVL133:
 1813 0800 FFF7FEFF 		bl	__aeabi_d2f
 1814              	.LVL134:
 1815 0804 DFED390A 		vldr.32	s1, .L102+20
 1816 0808 00EE100A 		vmov	s0, r0
 1817 080c FFF7FEFF 		bl	fmodf
 1818              	.LVL135:
 317:My_Top/Motor_Control/DcMotor_ClosedLoop.cpp **** 
 1819              		.loc 1 317 23 discriminator 1 view .LVU522
 1820 0810 B5EEC00A 		vcmpe.f32	s0, #0
 1821 0814 F1EE10FA 		vmrs	APSR_nzcv, FPSCR
 1822 0818 3BD4     		bmi	.L101
 1823              	.LVL136:
 1824              	.L94:
 317:My_Top/Motor_Control/DcMotor_ClosedLoop.cpp **** 
 1825              		.loc 1 317 23 discriminator 3 view .LVU523
 1826 081a 10EE100A 		vmov	r0, s0
ARM GAS  /tmp/cc5lp4CL.s 			page 52


 1827 081e FFF7FEFF 		bl	__aeabi_f2d
 1828              	.LVL137:
 317:My_Top/Motor_Control/DcMotor_ClosedLoop.cpp **** 
 1829              		.loc 1 317 23 is_stmt 0 discriminator 3 view .LVU524
 1830 0822 2DA3     		adr	r3, .L102
 1831 0824 D3E90023 		ldrd	r2, [r3]
 1832 0828 FFF7FEFF 		bl	__aeabi_dsub
 1833              	.LVL138:
 1834              	.LBE126:
 1835 082c FFF7FEFF 		bl	__aeabi_d2f
 1836              	.LVL139:
 1837 0830 00EE100A 		vmov	s0, r0
 317:My_Top/Motor_Control/DcMotor_ClosedLoop.cpp **** 
 1838              		.loc 1 317 21 discriminator 3 view .LVU525
 1839 0834 C4F8C000 		str	r0, [r4, #192]	@ float
 319:My_Top/Motor_Control/DcMotor_ClosedLoop.cpp ****       theta_m_speed = theta_m_offic_filtered*DC_VELOCITY_LOOP_FREQ_HZ;//speed=ĶĘ»ń©ŗ/t 
 1840              		.loc 1 319 7 is_stmt 1 view .LVU526
 319:My_Top/Motor_Control/DcMotor_ClosedLoop.cpp ****       theta_m_speed = theta_m_offic_filtered*DC_VELOCITY_LOOP_FREQ_HZ;//speed=ĶĘ»ń©ŗ/t 
 1841              		.loc 1 319 48 is_stmt 0 view .LVU527
 1842 0838 04F17400 		add	r0, r4, #116
 1843 083c FFF7FEFF 		bl	_ZN13LowpassFilter6filterEf
 1844              	.LVL140:
 319:My_Top/Motor_Control/DcMotor_ClosedLoop.cpp ****       theta_m_speed = theta_m_offic_filtered*DC_VELOCITY_LOOP_FREQ_HZ;//speed=ĶĘ»ń©ŗ/t 
 1845              		.loc 1 319 30 discriminator 1 view .LVU528
 1846 0840 84ED310A 		vstr.32	s0, [r4, #196]
 320:My_Top/Motor_Control/DcMotor_ClosedLoop.cpp ****       theta_av_speed = speed_avg.filter(theta_m_speed);//Õ»╣ķĆ¤Õ║”Ķ┐øĶĪīÕ╣│ÕØćÕĆ╝µ╗żµ│ó
 1847              		.loc 1 320 7 is_stmt 1 view .LVU529
 320:My_Top/Motor_Control/DcMotor_ClosedLoop.cpp ****       theta_av_speed = speed_avg.filter(theta_m_speed);//Õ»╣ķĆ¤Õ║”Ķ┐øĶĪīÕ╣│ÕØćÕĆ╝µ╗żµ│ó
 1848              		.loc 1 320 45 is_stmt 0 view .LVU530
 1849 0844 DFED2B7A 		vldr.32	s15, .L102+28
 1850 0848 20EE270A 		vmul.f32	s0, s0, s15
 320:My_Top/Motor_Control/DcMotor_ClosedLoop.cpp ****       theta_av_speed = speed_avg.filter(theta_m_speed);//Õ»╣ķĆ¤Õ║”Ķ┐øĶĪīÕ╣│ÕØćÕĆ╝µ╗żµ│ó
 1851              		.loc 1 320 21 view .LVU531
 1852 084c 84ED060A 		vstr.32	s0, [r4, #24]
 321:My_Top/Motor_Control/DcMotor_ClosedLoop.cpp ****       filtered_speed = speed_lpf.filter(theta_av_speed);//Õ»╣ķĆ¤Õ║”Ķ┐øĶĪīõĮÄķĆÜµ╗żµ│ó
 1853              		.loc 1 321 7 is_stmt 1 view .LVU532
 321:My_Top/Motor_Control/DcMotor_ClosedLoop.cpp ****       filtered_speed = speed_lpf.filter(theta_av_speed);//Õ»╣ķĆ¤Õ║”Ķ┐øĶĪīõĮÄķĆÜµ╗żµ│ó
 1854              		.loc 1 321 40 is_stmt 0 view .LVU533
 1855 0850 04F17C00 		add	r0, r4, #124
 1856 0854 FFF7FEFF 		bl	_ZN9AvgFilter6filterEf
 1857              	.LVL141:
 321:My_Top/Motor_Control/DcMotor_ClosedLoop.cpp ****       filtered_speed = speed_lpf.filter(theta_av_speed);//Õ»╣ķĆ¤Õ║”Ķ┐øĶĪīõĮÄķĆÜµ╗żµ│ó
 1858              		.loc 1 321 22 discriminator 1 view .LVU534
 1859 0858 84ED320A 		vstr.32	s0, [r4, #200]
 322:My_Top/Motor_Control/DcMotor_ClosedLoop.cpp ****       reg_final = theta_m; //Õ░åµ£║µó░Ķ¦ÆÕ║”ĶĄŗÕĆ╝ń╗Öµ£Ćń╗łĶ¦ÆÕ║”
 1860              		.loc 1 322 7 is_stmt 1 view .LVU535
 322:My_Top/Motor_Control/DcMotor_ClosedLoop.cpp ****       reg_final = theta_m; //Õ░åµ£║µó░Ķ¦ÆÕ║”ĶĄŗÕĆ╝ń╗Öµ£Ćń╗łĶ¦ÆÕ║”
 1861              		.loc 1 322 40 is_stmt 0 view .LVU536
 1862 085c 04F16C00 		add	r0, r4, #108
 1863 0860 FFF7FEFF 		bl	_ZN13LowpassFilter6filterEf
 1864              	.LVL142:
 1865 0864 10EE105A 		vmov	r5, s0
 322:My_Top/Motor_Control/DcMotor_ClosedLoop.cpp ****       reg_final = theta_m; //Õ░åµ£║µó░Ķ¦ÆÕ║”ĶĄŗÕĆ╝ń╗Öµ£Ćń╗łĶ¦ÆÕ║”
 1866              		.loc 1 322 22 discriminator 1 view .LVU537
 1867 0868 84ED330A 		vstr.32	s0, [r4, #204]
 323:My_Top/Motor_Control/DcMotor_ClosedLoop.cpp ****       theta_deg_final = rad2deg(reg_final); //Õ░åÕ╝¦Õ║”ĶĮ¼µŹóõĖ║360Õ║”
 1868              		.loc 1 323 7 is_stmt 1 view .LVU538
ARM GAS  /tmp/cc5lp4CL.s 			page 53


 323:My_Top/Motor_Control/DcMotor_ClosedLoop.cpp ****       theta_deg_final = rad2deg(reg_final); //Õ░åÕ╝¦Õ║”ĶĮ¼µŹóõĖ║360Õ║”
 1869              		.loc 1 323 19 is_stmt 0 view .LVU539
 1870 086c 6069     		ldr	r0, [r4, #20]	@ float
 323:My_Top/Motor_Control/DcMotor_ClosedLoop.cpp ****       theta_deg_final = rad2deg(reg_final); //Õ░åÕ╝¦Õ║”ĶĮ¼µŹóõĖ║360Õ║”
 1871              		.loc 1 323 17 view .LVU540
 1872 086e E061     		str	r0, [r4, #28]	@ float
 324:My_Top/Motor_Control/DcMotor_ClosedLoop.cpp ****       Angular_velocity_final = filtered_speed;  //Õ░åµ£Ćń╗łķĆ¤Õ║”ĶĄŗÕĆ╝ń╗Öµ£Ćń╗łĶ¦ÆķĆ¤Õ║”
 1873              		.loc 1 324 7 is_stmt 1 view .LVU541
 324:My_Top/Motor_Control/DcMotor_ClosedLoop.cpp ****       Angular_velocity_final = filtered_speed;  //Õ░åµ£Ćń╗łķĆ¤Õ║”ĶĄŗÕĆ╝ń╗Öµ£Ćń╗łĶ¦ÆķĆ¤Õ║”
 1874              		.loc 1 324 25 is_stmt 0 view .LVU542
 1875 0870 FFF7FEFF 		bl	__aeabi_f2d
 1876              	.LVL143:
 1877 0874 1AA3     		adr	r3, .L102+8
 1878 0876 D3E90023 		ldrd	r2, [r3]
 1879 087a FFF7FEFF 		bl	__aeabi_dmul
 1880              	.LVL144:
 1881 087e FFF7FEFF 		bl	__aeabi_d2f
 1882              	.LVL145:
 324:My_Top/Motor_Control/DcMotor_ClosedLoop.cpp ****       Angular_velocity_final = filtered_speed;  //Õ░åµ£Ćń╗łķĆ¤Õ║”ĶĄŗÕĆ╝ń╗Öµ£Ćń╗łĶ¦ÆķĆ¤Õ║”
 1883              		.loc 1 324 23 view .LVU543
 1884 0882 2062     		str	r0, [r4, #32]	@ float
 325:My_Top/Motor_Control/DcMotor_ClosedLoop.cpp ****       
 1885              		.loc 1 325 7 is_stmt 1 view .LVU544
 325:My_Top/Motor_Control/DcMotor_ClosedLoop.cpp ****       
 1886              		.loc 1 325 30 is_stmt 0 view .LVU545
 1887 0884 6562     		str	r5, [r4, #36]	@ float
 1888              	.LVL146:
 1889              	.L90:
 325:My_Top/Motor_Control/DcMotor_ClosedLoop.cpp ****       
 1890              		.loc 1 325 30 view .LVU546
 1891              	.LBE124:
 1892              	.LBE123:
 337:My_Top/Motor_Control/DcMotor_ClosedLoop.cpp **** 
 1893              		.loc 1 337 1 view .LVU547
 1894 0886 38BD     		pop	{r3, r4, r5, pc}
 1895              	.LVL147:
 1896              	.L100:
 1897              	.LBB130:
 1898              	.LBB129:
 1899              	.LBB127:
 313:My_Top/Motor_Control/DcMotor_ClosedLoop.cpp ****       //µ¢╣Õ╝Å1 õĮÄķĆÜµ╗żµ│ó µø┤µ¢░µ£║µó░Ķ¦ÆÕ║”ķĆ¤Õ║”
 1900              		.loc 1 313 17 is_stmt 1 discriminator 1 view .LVU548
 1901 0888 DFED187A 		vldr.32	s15, .L102+20
 1902 088c 30EE270A 		vadd.f32	s0, s0, s15
 1903              	.LVL148:
 313:My_Top/Motor_Control/DcMotor_ClosedLoop.cpp ****       //µ¢╣Õ╝Å1 õĮÄķĆÜµ╗żµ│ó µø┤µ¢░µ£║µó░Ķ¦ÆÕ║”ķĆ¤Õ║”
 1904              		.loc 1 313 17 is_stmt 0 discriminator 1 view .LVU549
 1905 0890 96E7     		b	.L92
 1906              	.LVL149:
 1907              	.L101:
 313:My_Top/Motor_Control/DcMotor_ClosedLoop.cpp ****       //µ¢╣Õ╝Å1 õĮÄķĆÜµ╗żµ│ó µø┤µ¢░µ£║µó░Ķ¦ÆÕ║”ķĆ¤Õ║”
 1908              		.loc 1 313 17 discriminator 1 view .LVU550
 1909              	.LBE127:
 1910              	.LBB128:
 317:My_Top/Motor_Control/DcMotor_ClosedLoop.cpp **** 
 1911              		.loc 1 317 23 is_stmt 1 discriminator 1 view .LVU551
 1912 0892 DFED167A 		vldr.32	s15, .L102+20
ARM GAS  /tmp/cc5lp4CL.s 			page 54


 1913 0896 30EE270A 		vadd.f32	s0, s0, s15
 1914              	.LVL150:
 317:My_Top/Motor_Control/DcMotor_ClosedLoop.cpp **** 
 1915              		.loc 1 317 23 is_stmt 0 discriminator 1 view .LVU552
 1916 089a BEE7     		b	.L94
 1917              	.LVL151:
 1918              	.L91:
 317:My_Top/Motor_Control/DcMotor_ClosedLoop.cpp **** 
 1919              		.loc 1 317 23 discriminator 1 view .LVU553
 1920              	.LBE128:
 1921              	.LBE129:
 327:My_Top/Motor_Control/DcMotor_ClosedLoop.cpp ****     {
 1922              		.loc 1 327 11 is_stmt 1 view .LVU554
 330:My_Top/Motor_Control/DcMotor_ClosedLoop.cpp ****       foc_pll_run(theta_m,PLL_FREQ_Dt,&_pll_reg_out,&_pll_Angular_velocity,&_pll_conf); //µø┤µ¢░PLL
 1923              		.loc 1 330 7 view .LVU555
 330:My_Top/Motor_Control/DcMotor_ClosedLoop.cpp ****       foc_pll_run(theta_m,PLL_FREQ_Dt,&_pll_reg_out,&_pll_Angular_velocity,&_pll_conf); //µø┤µ¢░PLL
 1924              		.loc 1 330 15 is_stmt 0 view .LVU556
 1925 089c 84ED050A 		vstr.32	s0, [r4, #20]
 331:My_Top/Motor_Control/DcMotor_ClosedLoop.cpp ****       reg_final = _pll_reg_out; //Õ░åPLLķöüńøĖńÄ»ńÜäĶŠōÕć║Ķ¦ÆÕ║”ĶĄŗÕĆ╝ń╗Öµ£Ćń╗łĶ¦ÆÕ║”
 1926              		.loc 1 331 7 is_stmt 1 view .LVU557
 331:My_Top/Motor_Control/DcMotor_ClosedLoop.cpp ****       reg_final = _pll_reg_out; //Õ░åPLLķöüńøĖńÄ»ńÜäĶŠōÕć║Ķ¦ÆÕ║”ĶĄŗÕĆ╝ń╗Öµ£Ćń╗łĶ¦ÆÕ║”
 1927              		.loc 1 331 18 is_stmt 0 view .LVU558
 1928 08a0 04F1D802 		add	r2, r4, #216
 1929 08a4 04F1D401 		add	r1, r4, #212
 1930 08a8 04F1D000 		add	r0, r4, #208
 1931 08ac DFED120A 		vldr.32	s1, .L102+32
 1932 08b0 FFF7FEFF 		bl	_Z11foc_pll_runffPfS_P13PLL_Parameter
 1933              	.LVL152:
 332:My_Top/Motor_Control/DcMotor_ClosedLoop.cpp ****       theta_deg_final = rad2deg(reg_final); //Õ░åÕ╝¦Õ║”ĶĮ¼µŹóõĖ║360Õ║”
 1934              		.loc 1 332 7 is_stmt 1 view .LVU559
 332:My_Top/Motor_Control/DcMotor_ClosedLoop.cpp ****       theta_deg_final = rad2deg(reg_final); //Õ░åÕ╝¦Õ║”ĶĮ¼µŹóõĖ║360Õ║”
 1935              		.loc 1 332 19 is_stmt 0 view .LVU560
 1936 08b4 D4F8D000 		ldr	r0, [r4, #208]	@ float
 332:My_Top/Motor_Control/DcMotor_ClosedLoop.cpp ****       theta_deg_final = rad2deg(reg_final); //Õ░åÕ╝¦Õ║”ĶĮ¼µŹóõĖ║360Õ║”
 1937              		.loc 1 332 17 view .LVU561
 1938 08b8 E061     		str	r0, [r4, #28]	@ float
 333:My_Top/Motor_Control/DcMotor_ClosedLoop.cpp ****       Angular_velocity_final = _pll_Angular_velocity; //Õ░åµ£Ćń╗łķĆ¤Õ║”ĶĄŗÕĆ╝ń╗Öµ£Ćń╗łĶ¦ÆķĆ¤Õ║”
 1939              		.loc 1 333 7 is_stmt 1 view .LVU562
 333:My_Top/Motor_Control/DcMotor_ClosedLoop.cpp ****       Angular_velocity_final = _pll_Angular_velocity; //Õ░åµ£Ćń╗łķĆ¤Õ║”ĶĄŗÕĆ╝ń╗Öµ£Ćń╗łĶ¦ÆķĆ¤Õ║”
 1940              		.loc 1 333 25 is_stmt 0 view .LVU563
 1941 08ba FFF7FEFF 		bl	__aeabi_f2d
 1942              	.LVL153:
 1943 08be 08A3     		adr	r3, .L102+8
 1944 08c0 D3E90023 		ldrd	r2, [r3]
 1945 08c4 FFF7FEFF 		bl	__aeabi_dmul
 1946              	.LVL154:
 1947 08c8 FFF7FEFF 		bl	__aeabi_d2f
 1948              	.LVL155:
 333:My_Top/Motor_Control/DcMotor_ClosedLoop.cpp ****       Angular_velocity_final = _pll_Angular_velocity; //Õ░åµ£Ćń╗łķĆ¤Õ║”ĶĄŗÕĆ╝ń╗Öµ£Ćń╗łĶ¦ÆķĆ¤Õ║”
 1949              		.loc 1 333 23 view .LVU564
 1950 08cc 2062     		str	r0, [r4, #32]	@ float
 334:My_Top/Motor_Control/DcMotor_ClosedLoop.cpp ****     }
 1951              		.loc 1 334 7 is_stmt 1 view .LVU565
 334:My_Top/Motor_Control/DcMotor_ClosedLoop.cpp ****     }
 1952              		.loc 1 334 32 is_stmt 0 view .LVU566
 1953 08ce D4F8D430 		ldr	r3, [r4, #212]	@ float
 334:My_Top/Motor_Control/DcMotor_ClosedLoop.cpp ****     }
ARM GAS  /tmp/cc5lp4CL.s 			page 55


 1954              		.loc 1 334 30 view .LVU567
 1955 08d2 6362     		str	r3, [r4, #36]	@ float
 1956              	.LBE130:
 337:My_Top/Motor_Control/DcMotor_ClosedLoop.cpp **** 
 1957              		.loc 1 337 1 view .LVU568
 1958 08d4 D7E7     		b	.L90
 1959              	.L103:
 1960 08d6 00BF     		.align	3
 1961              	.L102:
 1962 08d8 182D4454 		.word	1413754136
 1963 08dc FB210940 		.word	1074340347
 1964 08e0 F8C1631A 		.word	442745336
 1965 08e4 DCA54C40 		.word	1078765020
 1966 08e8 B0050000 		.word	.LANCHOR0+1456
 1967 08ec DB0FC940 		.word	1086918619
 1968 08f0 B4050000 		.word	.LANCHOR0+1460
 1969 08f4 00007A45 		.word	1165623296
 1970 08f8 6F128339 		.word	964891247
 1971              		.cfi_endproc
 1972              	.LFE1358:
 1974              		.align	1
 1975              		.global	_ZN8DC_Motor10Speed_LoopEv
 1976              		.syntax unified
 1977              		.thumb
 1978              		.thumb_func
 1980              	_ZN8DC_Motor10Speed_LoopEv:
 1981              	.LVL156:
 1982              	.LFB1359:
 341:My_Top/Motor_Control/DcMotor_ClosedLoop.cpp ****     float _delta_pwm = 0.0f; //Ķ«Īń«ŚPIDÕó×ķćÅ
 1983              		.loc 1 341 1 is_stmt 1 view -0
 1984              		.cfi_startproc
 1985              		@ args = 0, pretend = 0, frame = 0
 1986              		@ frame_needed = 0, uses_anonymous_args = 0
 341:My_Top/Motor_Control/DcMotor_ClosedLoop.cpp ****     float _delta_pwm = 0.0f; //Ķ«Īń«ŚPIDÕó×ķćÅ
 1987              		.loc 1 341 1 is_stmt 0 view .LVU570
 1988 08fc 10B5     		push	{r4, lr}
 1989              		.cfi_def_cfa_offset 8
 1990              		.cfi_offset 4, -8
 1991              		.cfi_offset 14, -4
 1992 08fe 0446     		mov	r4, r0
 342:My_Top/Motor_Control/DcMotor_ClosedLoop.cpp ****     float error_speed = _target_speed - Angular_velocity_final; //Ķ«Īń«ŚķĆ¤Õ║”Ķ»»ÕĘ«
 1993              		.loc 1 342 5 is_stmt 1 view .LVU571
 1994              	.LVL157:
 343:My_Top/Motor_Control/DcMotor_ClosedLoop.cpp **** 
 1995              		.loc 1 343 5 view .LVU572
 343:My_Top/Motor_Control/DcMotor_ClosedLoop.cpp **** 
 1996              		.loc 1 343 25 is_stmt 0 view .LVU573
 1997 0900 90ED0B0A 		vldr.32	s0, [r0, #44]
 343:My_Top/Motor_Control/DcMotor_ClosedLoop.cpp **** 
 1998              		.loc 1 343 41 view .LVU574
 1999 0904 D0ED097A 		vldr.32	s15, [r0, #36]
 2000              	.LVL158:
 345:My_Top/Motor_Control/DcMotor_ClosedLoop.cpp ****     updown_duty += _delta_pwm; //µø┤µ¢░ńöĄµ£║ÕŹĀń®║µ»ö
 2001              		.loc 1 345 5 is_stmt 1 view .LVU575
 345:My_Top/Motor_Control/DcMotor_ClosedLoop.cpp ****     updown_duty += _delta_pwm; //µø┤µ¢░ńöĄµ£║ÕŹĀń®║µ»ö
 2002              		.loc 1 345 44 is_stmt 0 view .LVU576
 2003 0908 30EE670A 		vsub.f32	s0, s0, s15
ARM GAS  /tmp/cc5lp4CL.s 			page 56


 2004              	.LVL159:
 345:My_Top/Motor_Control/DcMotor_ClosedLoop.cpp ****     updown_duty += _delta_pwm; //µø┤µ¢░ńöĄµ£║ÕŹĀń®║µ»ö
 2005              		.loc 1 345 44 view .LVU577
 2006 090c 406C     		ldr	r0, [r0, #68]
 2007              	.LVL160:
 345:My_Top/Motor_Control/DcMotor_ClosedLoop.cpp ****     updown_duty += _delta_pwm; //µø┤µ¢░ńöĄµ£║ÕŹĀń®║µ»ö
 2008              		.loc 1 345 44 view .LVU578
 2009 090e FFF7FEFF 		bl	_ZN13PID_Increment6updateEf
 2010              	.LVL161:
 346:My_Top/Motor_Control/DcMotor_ClosedLoop.cpp ****     Set_Motor_Glo_Duty(); //Ķ«ŠńĮ«ńöĄµ£║Õģ©Õ▒ĆÕŹĀń®║µ»ö
 2011              		.loc 1 346 5 is_stmt 1 view .LVU579
 2012 0912 D4ED047A 		vldr.32	s15, [r4, #16]
 346:My_Top/Motor_Control/DcMotor_ClosedLoop.cpp ****     Set_Motor_Glo_Duty(); //Ķ«ŠńĮ«ńöĄµ£║Õģ©Õ▒ĆÕŹĀń®║µ»ö
 2013              		.loc 1 346 17 is_stmt 0 view .LVU580
 2014 0916 77EE807A 		vadd.f32	s15, s15, s0
 2015 091a C4ED047A 		vstr.32	s15, [r4, #16]
 347:My_Top/Motor_Control/DcMotor_ClosedLoop.cpp **** }
 2016              		.loc 1 347 5 is_stmt 1 view .LVU581
 347:My_Top/Motor_Control/DcMotor_ClosedLoop.cpp **** }
 2017              		.loc 1 347 23 is_stmt 0 view .LVU582
 2018 091e 2046     		mov	r0, r4
 2019 0920 FFF7FEFF 		bl	_ZN8DC_Motor18Set_Motor_Glo_DutyEv
 2020              	.LVL162:
 348:My_Top/Motor_Control/DcMotor_ClosedLoop.cpp **** 
 2021              		.loc 1 348 1 view .LVU583
 2022 0924 10BD     		pop	{r4, pc}
 348:My_Top/Motor_Control/DcMotor_ClosedLoop.cpp **** 
 2023              		.loc 1 348 1 view .LVU584
 2024              		.cfi_endproc
 2025              	.LFE1359:
 2027              		.align	1
 2028              		.global	_ZN8DC_Motor13Location_LoopEv
 2029              		.syntax unified
 2030              		.thumb
 2031              		.thumb_func
 2033              	_ZN8DC_Motor13Location_LoopEv:
 2034              	.LVL163:
 2035              	.LFB1360:
 386:My_Top/Motor_Control/DcMotor_ClosedLoop.cpp ****     float pos_error = wrap_to_PI(deg2rad(_target_location2) - reg_final);  // Ķ«Īń«ŚÕĮōÕēŹõĮŹńĮ«Ķ»»
 2036              		.loc 1 386 1 is_stmt 1 view -0
 2037              		.cfi_startproc
 2038              		@ args = 0, pretend = 0, frame = 0
 2039              		@ frame_needed = 0, uses_anonymous_args = 0
 386:My_Top/Motor_Control/DcMotor_ClosedLoop.cpp ****     float pos_error = wrap_to_PI(deg2rad(_target_location2) - reg_final);  // Ķ«Īń«ŚÕĮōÕēŹõĮŹńĮ«Ķ»»
 2040              		.loc 1 386 1 is_stmt 0 view .LVU586
 2041 0926 D0B5     		push	{r4, r6, r7, lr}
 2042              		.cfi_def_cfa_offset 16
 2043              		.cfi_offset 4, -16
 2044              		.cfi_offset 6, -12
 2045              		.cfi_offset 7, -8
 2046              		.cfi_offset 14, -4
 2047 0928 2DED048B 		vpush.64	{d8, d9}
 2048              		.cfi_def_cfa_offset 32
 2049              		.cfi_offset 80, -32
 2050              		.cfi_offset 81, -28
 2051              		.cfi_offset 82, -24
 2052              		.cfi_offset 83, -20
ARM GAS  /tmp/cc5lp4CL.s 			page 57


 2053 092c 0446     		mov	r4, r0
 387:My_Top/Motor_Control/DcMotor_ClosedLoop.cpp **** 
 2054              		.loc 1 387 5 is_stmt 1 view .LVU587
 2055              	.LBB131:
 387:My_Top/Motor_Control/DcMotor_ClosedLoop.cpp **** 
 2056              		.loc 1 387 23 view .LVU588
 2057 092e 006B     		ldr	r0, [r0, #48]	@ float
 2058              	.LVL164:
 387:My_Top/Motor_Control/DcMotor_ClosedLoop.cpp **** 
 2059              		.loc 1 387 23 is_stmt 0 view .LVU589
 2060 0930 FFF7FEFF 		bl	__aeabi_f2d
 2061              	.LVL165:
 2062 0934 79A3     		adr	r3, .L141+44
 2063 0936 D3E90023 		ldrd	r2, [r3]
 2064 093a FFF7FEFF 		bl	__aeabi_dmul
 2065              	.LVL166:
 2066 093e 0646     		mov	r6, r0
 2067 0940 0F46     		mov	r7, r1
 2068 0942 E069     		ldr	r0, [r4, #28]	@ float
 2069 0944 FFF7FEFF 		bl	__aeabi_f2d
 2070              	.LVL167:
 2071 0948 0246     		mov	r2, r0
 2072 094a 0B46     		mov	r3, r1
 2073 094c 3046     		mov	r0, r6
 2074 094e 3946     		mov	r1, r7
 2075 0950 FFF7FEFF 		bl	__aeabi_dsub
 2076              	.LVL168:
 2077 0954 66A3     		adr	r3, .L141
 2078 0956 D3E90023 		ldrd	r2, [r3]
 2079 095a FFF7FEFF 		bl	__aeabi_dadd
 2080              	.LVL169:
 2081 095e FFF7FEFF 		bl	__aeabi_d2f
 2082              	.LVL170:
 2083 0962 DFED6B0A 		vldr.32	s1, .L141+32
 2084 0966 00EE100A 		vmov	s0, r0
 2085 096a FFF7FEFF 		bl	fmodf
 2086              	.LVL171:
 387:My_Top/Motor_Control/DcMotor_ClosedLoop.cpp **** 
 2087              		.loc 1 387 23 is_stmt 1 discriminator 1 view .LVU590
 2088 096e B5EEC00A 		vcmpe.f32	s0, #0
 2089 0972 F1EE10FA 		vmrs	APSR_nzcv, FPSCR
 2090 0976 23D4     		bmi	.L139
 2091              	.LVL172:
 2092              	.L107:
 387:My_Top/Motor_Control/DcMotor_ClosedLoop.cpp **** 
 2093              		.loc 1 387 23 discriminator 3 view .LVU591
 2094 0978 10EE100A 		vmov	r0, s0
 2095 097c FFF7FEFF 		bl	__aeabi_f2d
 2096              	.LVL173:
 387:My_Top/Motor_Control/DcMotor_ClosedLoop.cpp **** 
 2097              		.loc 1 387 23 is_stmt 0 discriminator 3 view .LVU592
 2098 0980 5BA3     		adr	r3, .L141
 2099 0982 D3E90023 		ldrd	r2, [r3]
 2100 0986 FFF7FEFF 		bl	__aeabi_dsub
 2101              	.LVL174:
 2102              	.LBE131:
 2103 098a FFF7FEFF 		bl	__aeabi_d2f
ARM GAS  /tmp/cc5lp4CL.s 			page 58


 2104              	.LVL175:
 2105 098e 08EE100A 		vmov	s16, r0
 2106              	.LVL176:
 389:My_Top/Motor_Control/DcMotor_ClosedLoop.cpp **** 
 2107              		.loc 1 389 5 is_stmt 1 view .LVU593
 2108              	.LBB132:
 2109              	.LBI132:
 2110              		.file 8 "/opt/arm-gnu-toolchain-14.2/arm-none-eabi/include/c++/14.2.1/cmath"
   1:/opt/arm-gnu-toolchain-14.2/arm-none-eabi/include/c++/14.2.1/cmath **** // -*- C++ -*- C forwarding header.
   2:/opt/arm-gnu-toolchain-14.2/arm-none-eabi/include/c++/14.2.1/cmath **** 
   3:/opt/arm-gnu-toolchain-14.2/arm-none-eabi/include/c++/14.2.1/cmath **** // Copyright (C) 1997-2024 Free Software Foundation, Inc.
   4:/opt/arm-gnu-toolchain-14.2/arm-none-eabi/include/c++/14.2.1/cmath **** //
   5:/opt/arm-gnu-toolchain-14.2/arm-none-eabi/include/c++/14.2.1/cmath **** // This file is part of the GNU ISO C++ Library.  This library is free
   6:/opt/arm-gnu-toolchain-14.2/arm-none-eabi/include/c++/14.2.1/cmath **** // software; you can redistribute it and/or modify it under the
   7:/opt/arm-gnu-toolchain-14.2/arm-none-eabi/include/c++/14.2.1/cmath **** // terms of the GNU General Public License as published by the
   8:/opt/arm-gnu-toolchain-14.2/arm-none-eabi/include/c++/14.2.1/cmath **** // Free Software Foundation; either version 3, or (at your option)
   9:/opt/arm-gnu-toolchain-14.2/arm-none-eabi/include/c++/14.2.1/cmath **** // any later version.
  10:/opt/arm-gnu-toolchain-14.2/arm-none-eabi/include/c++/14.2.1/cmath **** 
  11:/opt/arm-gnu-toolchain-14.2/arm-none-eabi/include/c++/14.2.1/cmath **** // This library is distributed in the hope that it will be useful,
  12:/opt/arm-gnu-toolchain-14.2/arm-none-eabi/include/c++/14.2.1/cmath **** // but WITHOUT ANY WARRANTY; without even the implied warranty of
  13:/opt/arm-gnu-toolchain-14.2/arm-none-eabi/include/c++/14.2.1/cmath **** // MERCHANTABILITY or FITNESS FOR A PARTICULAR PURPOSE.  See the
  14:/opt/arm-gnu-toolchain-14.2/arm-none-eabi/include/c++/14.2.1/cmath **** // GNU General Public License for more details.
  15:/opt/arm-gnu-toolchain-14.2/arm-none-eabi/include/c++/14.2.1/cmath **** 
  16:/opt/arm-gnu-toolchain-14.2/arm-none-eabi/include/c++/14.2.1/cmath **** // Under Section 7 of GPL version 3, you are granted additional
  17:/opt/arm-gnu-toolchain-14.2/arm-none-eabi/include/c++/14.2.1/cmath **** // permissions described in the GCC Runtime Library Exception, version
  18:/opt/arm-gnu-toolchain-14.2/arm-none-eabi/include/c++/14.2.1/cmath **** // 3.1, as published by the Free Software Foundation.
  19:/opt/arm-gnu-toolchain-14.2/arm-none-eabi/include/c++/14.2.1/cmath **** 
  20:/opt/arm-gnu-toolchain-14.2/arm-none-eabi/include/c++/14.2.1/cmath **** // You should have received a copy of the GNU General Public License and
  21:/opt/arm-gnu-toolchain-14.2/arm-none-eabi/include/c++/14.2.1/cmath **** // a copy of the GCC Runtime Library Exception along with this program;
  22:/opt/arm-gnu-toolchain-14.2/arm-none-eabi/include/c++/14.2.1/cmath **** // see the files COPYING3 and COPYING.RUNTIME respectively.  If not, see
  23:/opt/arm-gnu-toolchain-14.2/arm-none-eabi/include/c++/14.2.1/cmath **** // <http://www.gnu.org/licenses/>.
  24:/opt/arm-gnu-toolchain-14.2/arm-none-eabi/include/c++/14.2.1/cmath **** 
  25:/opt/arm-gnu-toolchain-14.2/arm-none-eabi/include/c++/14.2.1/cmath **** /** @file include/cmath
  26:/opt/arm-gnu-toolchain-14.2/arm-none-eabi/include/c++/14.2.1/cmath ****  *  This is a Standard C++ Library file.  You should @c \#include this file
  27:/opt/arm-gnu-toolchain-14.2/arm-none-eabi/include/c++/14.2.1/cmath ****  *  in your programs, rather than any of the @a *.h implementation files.
  28:/opt/arm-gnu-toolchain-14.2/arm-none-eabi/include/c++/14.2.1/cmath ****  *
  29:/opt/arm-gnu-toolchain-14.2/arm-none-eabi/include/c++/14.2.1/cmath ****  *  This is the C++ version of the Standard C Library header @c math.h,
  30:/opt/arm-gnu-toolchain-14.2/arm-none-eabi/include/c++/14.2.1/cmath ****  *  and its contents are (mostly) the same as that header, but are all
  31:/opt/arm-gnu-toolchain-14.2/arm-none-eabi/include/c++/14.2.1/cmath ****  *  contained in the namespace @c std (except for names which are defined
  32:/opt/arm-gnu-toolchain-14.2/arm-none-eabi/include/c++/14.2.1/cmath ****  *  as macros in C).
  33:/opt/arm-gnu-toolchain-14.2/arm-none-eabi/include/c++/14.2.1/cmath ****  */
  34:/opt/arm-gnu-toolchain-14.2/arm-none-eabi/include/c++/14.2.1/cmath **** 
  35:/opt/arm-gnu-toolchain-14.2/arm-none-eabi/include/c++/14.2.1/cmath **** //
  36:/opt/arm-gnu-toolchain-14.2/arm-none-eabi/include/c++/14.2.1/cmath **** // ISO C++ 14882: 26.5  C library
  37:/opt/arm-gnu-toolchain-14.2/arm-none-eabi/include/c++/14.2.1/cmath **** //
  38:/opt/arm-gnu-toolchain-14.2/arm-none-eabi/include/c++/14.2.1/cmath **** 
  39:/opt/arm-gnu-toolchain-14.2/arm-none-eabi/include/c++/14.2.1/cmath **** #pragma GCC system_header
  40:/opt/arm-gnu-toolchain-14.2/arm-none-eabi/include/c++/14.2.1/cmath **** 
  41:/opt/arm-gnu-toolchain-14.2/arm-none-eabi/include/c++/14.2.1/cmath **** #include <bits/requires_hosted.h>
  42:/opt/arm-gnu-toolchain-14.2/arm-none-eabi/include/c++/14.2.1/cmath **** 
  43:/opt/arm-gnu-toolchain-14.2/arm-none-eabi/include/c++/14.2.1/cmath **** #include <bits/c++config.h>
  44:/opt/arm-gnu-toolchain-14.2/arm-none-eabi/include/c++/14.2.1/cmath **** #include <bits/cpp_type_traits.h>
  45:/opt/arm-gnu-toolchain-14.2/arm-none-eabi/include/c++/14.2.1/cmath **** #include <ext/type_traits.h>
  46:/opt/arm-gnu-toolchain-14.2/arm-none-eabi/include/c++/14.2.1/cmath **** #define _GLIBCXX_INCLUDE_NEXT_C_HEADERS
  47:/opt/arm-gnu-toolchain-14.2/arm-none-eabi/include/c++/14.2.1/cmath **** #include_next <math.h>
  48:/opt/arm-gnu-toolchain-14.2/arm-none-eabi/include/c++/14.2.1/cmath **** #undef _GLIBCXX_INCLUDE_NEXT_C_HEADERS
  49:/opt/arm-gnu-toolchain-14.2/arm-none-eabi/include/c++/14.2.1/cmath **** #include <bits/std_abs.h>
ARM GAS  /tmp/cc5lp4CL.s 			page 59


  50:/opt/arm-gnu-toolchain-14.2/arm-none-eabi/include/c++/14.2.1/cmath **** 
  51:/opt/arm-gnu-toolchain-14.2/arm-none-eabi/include/c++/14.2.1/cmath **** #ifndef _GLIBCXX_CMATH
  52:/opt/arm-gnu-toolchain-14.2/arm-none-eabi/include/c++/14.2.1/cmath **** #define _GLIBCXX_CMATH 1
  53:/opt/arm-gnu-toolchain-14.2/arm-none-eabi/include/c++/14.2.1/cmath **** 
  54:/opt/arm-gnu-toolchain-14.2/arm-none-eabi/include/c++/14.2.1/cmath **** #define __glibcxx_want_hypot
  55:/opt/arm-gnu-toolchain-14.2/arm-none-eabi/include/c++/14.2.1/cmath **** #define __glibcxx_want_interpolate
  56:/opt/arm-gnu-toolchain-14.2/arm-none-eabi/include/c++/14.2.1/cmath **** #include <bits/version.h>
  57:/opt/arm-gnu-toolchain-14.2/arm-none-eabi/include/c++/14.2.1/cmath **** 
  58:/opt/arm-gnu-toolchain-14.2/arm-none-eabi/include/c++/14.2.1/cmath **** // Get rid of those macros defined in <math.h> in lieu of real functions.
  59:/opt/arm-gnu-toolchain-14.2/arm-none-eabi/include/c++/14.2.1/cmath **** #undef div
  60:/opt/arm-gnu-toolchain-14.2/arm-none-eabi/include/c++/14.2.1/cmath **** #undef acos
  61:/opt/arm-gnu-toolchain-14.2/arm-none-eabi/include/c++/14.2.1/cmath **** #undef asin
  62:/opt/arm-gnu-toolchain-14.2/arm-none-eabi/include/c++/14.2.1/cmath **** #undef atan
  63:/opt/arm-gnu-toolchain-14.2/arm-none-eabi/include/c++/14.2.1/cmath **** #undef atan2
  64:/opt/arm-gnu-toolchain-14.2/arm-none-eabi/include/c++/14.2.1/cmath **** #undef ceil
  65:/opt/arm-gnu-toolchain-14.2/arm-none-eabi/include/c++/14.2.1/cmath **** #undef cos
  66:/opt/arm-gnu-toolchain-14.2/arm-none-eabi/include/c++/14.2.1/cmath **** #undef cosh
  67:/opt/arm-gnu-toolchain-14.2/arm-none-eabi/include/c++/14.2.1/cmath **** #undef exp
  68:/opt/arm-gnu-toolchain-14.2/arm-none-eabi/include/c++/14.2.1/cmath **** #undef fabs
  69:/opt/arm-gnu-toolchain-14.2/arm-none-eabi/include/c++/14.2.1/cmath **** #undef floor
  70:/opt/arm-gnu-toolchain-14.2/arm-none-eabi/include/c++/14.2.1/cmath **** #undef fmod
  71:/opt/arm-gnu-toolchain-14.2/arm-none-eabi/include/c++/14.2.1/cmath **** #undef frexp
  72:/opt/arm-gnu-toolchain-14.2/arm-none-eabi/include/c++/14.2.1/cmath **** #undef ldexp
  73:/opt/arm-gnu-toolchain-14.2/arm-none-eabi/include/c++/14.2.1/cmath **** #undef log
  74:/opt/arm-gnu-toolchain-14.2/arm-none-eabi/include/c++/14.2.1/cmath **** #undef log10
  75:/opt/arm-gnu-toolchain-14.2/arm-none-eabi/include/c++/14.2.1/cmath **** #undef modf
  76:/opt/arm-gnu-toolchain-14.2/arm-none-eabi/include/c++/14.2.1/cmath **** #undef pow
  77:/opt/arm-gnu-toolchain-14.2/arm-none-eabi/include/c++/14.2.1/cmath **** #undef sin
  78:/opt/arm-gnu-toolchain-14.2/arm-none-eabi/include/c++/14.2.1/cmath **** #undef sinh
  79:/opt/arm-gnu-toolchain-14.2/arm-none-eabi/include/c++/14.2.1/cmath **** #undef sqrt
  80:/opt/arm-gnu-toolchain-14.2/arm-none-eabi/include/c++/14.2.1/cmath **** #undef tan
  81:/opt/arm-gnu-toolchain-14.2/arm-none-eabi/include/c++/14.2.1/cmath **** #undef tanh
  82:/opt/arm-gnu-toolchain-14.2/arm-none-eabi/include/c++/14.2.1/cmath **** 
  83:/opt/arm-gnu-toolchain-14.2/arm-none-eabi/include/c++/14.2.1/cmath **** extern "C++"
  84:/opt/arm-gnu-toolchain-14.2/arm-none-eabi/include/c++/14.2.1/cmath **** {
  85:/opt/arm-gnu-toolchain-14.2/arm-none-eabi/include/c++/14.2.1/cmath **** namespace std _GLIBCXX_VISIBILITY(default)
  86:/opt/arm-gnu-toolchain-14.2/arm-none-eabi/include/c++/14.2.1/cmath **** {
  87:/opt/arm-gnu-toolchain-14.2/arm-none-eabi/include/c++/14.2.1/cmath **** _GLIBCXX_BEGIN_NAMESPACE_VERSION
  88:/opt/arm-gnu-toolchain-14.2/arm-none-eabi/include/c++/14.2.1/cmath **** 
  89:/opt/arm-gnu-toolchain-14.2/arm-none-eabi/include/c++/14.2.1/cmath ****   using ::acos;
  90:/opt/arm-gnu-toolchain-14.2/arm-none-eabi/include/c++/14.2.1/cmath **** 
  91:/opt/arm-gnu-toolchain-14.2/arm-none-eabi/include/c++/14.2.1/cmath **** #ifndef __CORRECT_ISO_CPP_MATH_H_PROTO
  92:/opt/arm-gnu-toolchain-14.2/arm-none-eabi/include/c++/14.2.1/cmath ****   inline _GLIBCXX_CONSTEXPR float
  93:/opt/arm-gnu-toolchain-14.2/arm-none-eabi/include/c++/14.2.1/cmath ****   acos(float __x)
  94:/opt/arm-gnu-toolchain-14.2/arm-none-eabi/include/c++/14.2.1/cmath ****   { return __builtin_acosf(__x); }
  95:/opt/arm-gnu-toolchain-14.2/arm-none-eabi/include/c++/14.2.1/cmath **** 
  96:/opt/arm-gnu-toolchain-14.2/arm-none-eabi/include/c++/14.2.1/cmath ****   inline _GLIBCXX_CONSTEXPR long double
  97:/opt/arm-gnu-toolchain-14.2/arm-none-eabi/include/c++/14.2.1/cmath ****   acos(long double __x)
  98:/opt/arm-gnu-toolchain-14.2/arm-none-eabi/include/c++/14.2.1/cmath ****   { return __builtin_acosl(__x); }
  99:/opt/arm-gnu-toolchain-14.2/arm-none-eabi/include/c++/14.2.1/cmath **** #endif
 100:/opt/arm-gnu-toolchain-14.2/arm-none-eabi/include/c++/14.2.1/cmath **** 
 101:/opt/arm-gnu-toolchain-14.2/arm-none-eabi/include/c++/14.2.1/cmath ****   template<typename _Tp>
 102:/opt/arm-gnu-toolchain-14.2/arm-none-eabi/include/c++/14.2.1/cmath ****     inline _GLIBCXX_CONSTEXPR
 103:/opt/arm-gnu-toolchain-14.2/arm-none-eabi/include/c++/14.2.1/cmath ****     typename __gnu_cxx::__enable_if<__is_integer<_Tp>::__value, 
 104:/opt/arm-gnu-toolchain-14.2/arm-none-eabi/include/c++/14.2.1/cmath ****                                     double>::__type
 105:/opt/arm-gnu-toolchain-14.2/arm-none-eabi/include/c++/14.2.1/cmath ****     acos(_Tp __x)
 106:/opt/arm-gnu-toolchain-14.2/arm-none-eabi/include/c++/14.2.1/cmath ****     { return __builtin_acos(__x); }
ARM GAS  /tmp/cc5lp4CL.s 			page 60


 107:/opt/arm-gnu-toolchain-14.2/arm-none-eabi/include/c++/14.2.1/cmath **** 
 108:/opt/arm-gnu-toolchain-14.2/arm-none-eabi/include/c++/14.2.1/cmath ****   using ::asin;
 109:/opt/arm-gnu-toolchain-14.2/arm-none-eabi/include/c++/14.2.1/cmath **** 
 110:/opt/arm-gnu-toolchain-14.2/arm-none-eabi/include/c++/14.2.1/cmath **** #ifndef __CORRECT_ISO_CPP_MATH_H_PROTO
 111:/opt/arm-gnu-toolchain-14.2/arm-none-eabi/include/c++/14.2.1/cmath ****   inline _GLIBCXX_CONSTEXPR float
 112:/opt/arm-gnu-toolchain-14.2/arm-none-eabi/include/c++/14.2.1/cmath ****   asin(float __x)
 113:/opt/arm-gnu-toolchain-14.2/arm-none-eabi/include/c++/14.2.1/cmath ****   { return __builtin_asinf(__x); }
 114:/opt/arm-gnu-toolchain-14.2/arm-none-eabi/include/c++/14.2.1/cmath **** 
 115:/opt/arm-gnu-toolchain-14.2/arm-none-eabi/include/c++/14.2.1/cmath ****   inline _GLIBCXX_CONSTEXPR long double
 116:/opt/arm-gnu-toolchain-14.2/arm-none-eabi/include/c++/14.2.1/cmath ****   asin(long double __x)
 117:/opt/arm-gnu-toolchain-14.2/arm-none-eabi/include/c++/14.2.1/cmath ****   { return __builtin_asinl(__x); }
 118:/opt/arm-gnu-toolchain-14.2/arm-none-eabi/include/c++/14.2.1/cmath **** #endif
 119:/opt/arm-gnu-toolchain-14.2/arm-none-eabi/include/c++/14.2.1/cmath **** 
 120:/opt/arm-gnu-toolchain-14.2/arm-none-eabi/include/c++/14.2.1/cmath ****   template<typename _Tp>
 121:/opt/arm-gnu-toolchain-14.2/arm-none-eabi/include/c++/14.2.1/cmath ****     inline _GLIBCXX_CONSTEXPR
 122:/opt/arm-gnu-toolchain-14.2/arm-none-eabi/include/c++/14.2.1/cmath ****     typename __gnu_cxx::__enable_if<__is_integer<_Tp>::__value,
 123:/opt/arm-gnu-toolchain-14.2/arm-none-eabi/include/c++/14.2.1/cmath ****                                     double>::__type
 124:/opt/arm-gnu-toolchain-14.2/arm-none-eabi/include/c++/14.2.1/cmath ****     asin(_Tp __x)
 125:/opt/arm-gnu-toolchain-14.2/arm-none-eabi/include/c++/14.2.1/cmath ****     { return __builtin_asin(__x); }
 126:/opt/arm-gnu-toolchain-14.2/arm-none-eabi/include/c++/14.2.1/cmath **** 
 127:/opt/arm-gnu-toolchain-14.2/arm-none-eabi/include/c++/14.2.1/cmath ****   using ::atan;
 128:/opt/arm-gnu-toolchain-14.2/arm-none-eabi/include/c++/14.2.1/cmath **** 
 129:/opt/arm-gnu-toolchain-14.2/arm-none-eabi/include/c++/14.2.1/cmath **** #ifndef __CORRECT_ISO_CPP_MATH_H_PROTO
 130:/opt/arm-gnu-toolchain-14.2/arm-none-eabi/include/c++/14.2.1/cmath ****   inline _GLIBCXX_CONSTEXPR float
 131:/opt/arm-gnu-toolchain-14.2/arm-none-eabi/include/c++/14.2.1/cmath ****   atan(float __x)
 132:/opt/arm-gnu-toolchain-14.2/arm-none-eabi/include/c++/14.2.1/cmath ****   { return __builtin_atanf(__x); }
 133:/opt/arm-gnu-toolchain-14.2/arm-none-eabi/include/c++/14.2.1/cmath **** 
 134:/opt/arm-gnu-toolchain-14.2/arm-none-eabi/include/c++/14.2.1/cmath ****   inline _GLIBCXX_CONSTEXPR long double
 135:/opt/arm-gnu-toolchain-14.2/arm-none-eabi/include/c++/14.2.1/cmath ****   atan(long double __x)
 136:/opt/arm-gnu-toolchain-14.2/arm-none-eabi/include/c++/14.2.1/cmath ****   { return __builtin_atanl(__x); }
 137:/opt/arm-gnu-toolchain-14.2/arm-none-eabi/include/c++/14.2.1/cmath **** #endif
 138:/opt/arm-gnu-toolchain-14.2/arm-none-eabi/include/c++/14.2.1/cmath **** 
 139:/opt/arm-gnu-toolchain-14.2/arm-none-eabi/include/c++/14.2.1/cmath ****   template<typename _Tp>
 140:/opt/arm-gnu-toolchain-14.2/arm-none-eabi/include/c++/14.2.1/cmath ****     inline _GLIBCXX_CONSTEXPR
 141:/opt/arm-gnu-toolchain-14.2/arm-none-eabi/include/c++/14.2.1/cmath ****     typename __gnu_cxx::__enable_if<__is_integer<_Tp>::__value,
 142:/opt/arm-gnu-toolchain-14.2/arm-none-eabi/include/c++/14.2.1/cmath ****                                     double>::__type
 143:/opt/arm-gnu-toolchain-14.2/arm-none-eabi/include/c++/14.2.1/cmath ****     atan(_Tp __x)
 144:/opt/arm-gnu-toolchain-14.2/arm-none-eabi/include/c++/14.2.1/cmath ****     { return __builtin_atan(__x); }
 145:/opt/arm-gnu-toolchain-14.2/arm-none-eabi/include/c++/14.2.1/cmath **** 
 146:/opt/arm-gnu-toolchain-14.2/arm-none-eabi/include/c++/14.2.1/cmath ****   using ::atan2;
 147:/opt/arm-gnu-toolchain-14.2/arm-none-eabi/include/c++/14.2.1/cmath **** 
 148:/opt/arm-gnu-toolchain-14.2/arm-none-eabi/include/c++/14.2.1/cmath **** #ifndef __CORRECT_ISO_CPP_MATH_H_PROTO
 149:/opt/arm-gnu-toolchain-14.2/arm-none-eabi/include/c++/14.2.1/cmath ****   inline _GLIBCXX_CONSTEXPR float
 150:/opt/arm-gnu-toolchain-14.2/arm-none-eabi/include/c++/14.2.1/cmath ****   atan2(float __y, float __x)
 151:/opt/arm-gnu-toolchain-14.2/arm-none-eabi/include/c++/14.2.1/cmath ****   { return __builtin_atan2f(__y, __x); }
 152:/opt/arm-gnu-toolchain-14.2/arm-none-eabi/include/c++/14.2.1/cmath **** 
 153:/opt/arm-gnu-toolchain-14.2/arm-none-eabi/include/c++/14.2.1/cmath ****   inline _GLIBCXX_CONSTEXPR long double
 154:/opt/arm-gnu-toolchain-14.2/arm-none-eabi/include/c++/14.2.1/cmath ****   atan2(long double __y, long double __x)
 155:/opt/arm-gnu-toolchain-14.2/arm-none-eabi/include/c++/14.2.1/cmath ****   { return __builtin_atan2l(__y, __x); }
 156:/opt/arm-gnu-toolchain-14.2/arm-none-eabi/include/c++/14.2.1/cmath **** #endif
 157:/opt/arm-gnu-toolchain-14.2/arm-none-eabi/include/c++/14.2.1/cmath **** 
 158:/opt/arm-gnu-toolchain-14.2/arm-none-eabi/include/c++/14.2.1/cmath ****   using ::ceil;
 159:/opt/arm-gnu-toolchain-14.2/arm-none-eabi/include/c++/14.2.1/cmath **** 
 160:/opt/arm-gnu-toolchain-14.2/arm-none-eabi/include/c++/14.2.1/cmath **** #ifndef __CORRECT_ISO_CPP_MATH_H_PROTO
 161:/opt/arm-gnu-toolchain-14.2/arm-none-eabi/include/c++/14.2.1/cmath ****   inline _GLIBCXX_CONSTEXPR float
 162:/opt/arm-gnu-toolchain-14.2/arm-none-eabi/include/c++/14.2.1/cmath ****   ceil(float __x)
 163:/opt/arm-gnu-toolchain-14.2/arm-none-eabi/include/c++/14.2.1/cmath ****   { return __builtin_ceilf(__x); }
ARM GAS  /tmp/cc5lp4CL.s 			page 61


 164:/opt/arm-gnu-toolchain-14.2/arm-none-eabi/include/c++/14.2.1/cmath **** 
 165:/opt/arm-gnu-toolchain-14.2/arm-none-eabi/include/c++/14.2.1/cmath ****   inline _GLIBCXX_CONSTEXPR long double
 166:/opt/arm-gnu-toolchain-14.2/arm-none-eabi/include/c++/14.2.1/cmath ****   ceil(long double __x)
 167:/opt/arm-gnu-toolchain-14.2/arm-none-eabi/include/c++/14.2.1/cmath ****   { return __builtin_ceill(__x); }
 168:/opt/arm-gnu-toolchain-14.2/arm-none-eabi/include/c++/14.2.1/cmath **** #endif
 169:/opt/arm-gnu-toolchain-14.2/arm-none-eabi/include/c++/14.2.1/cmath **** 
 170:/opt/arm-gnu-toolchain-14.2/arm-none-eabi/include/c++/14.2.1/cmath ****   template<typename _Tp>
 171:/opt/arm-gnu-toolchain-14.2/arm-none-eabi/include/c++/14.2.1/cmath ****     inline _GLIBCXX_CONSTEXPR
 172:/opt/arm-gnu-toolchain-14.2/arm-none-eabi/include/c++/14.2.1/cmath ****     typename __gnu_cxx::__enable_if<__is_integer<_Tp>::__value, 
 173:/opt/arm-gnu-toolchain-14.2/arm-none-eabi/include/c++/14.2.1/cmath ****                                     double>::__type
 174:/opt/arm-gnu-toolchain-14.2/arm-none-eabi/include/c++/14.2.1/cmath ****     ceil(_Tp __x)
 175:/opt/arm-gnu-toolchain-14.2/arm-none-eabi/include/c++/14.2.1/cmath ****     { return __builtin_ceil(__x); }
 176:/opt/arm-gnu-toolchain-14.2/arm-none-eabi/include/c++/14.2.1/cmath **** 
 177:/opt/arm-gnu-toolchain-14.2/arm-none-eabi/include/c++/14.2.1/cmath ****   using ::cos;
 178:/opt/arm-gnu-toolchain-14.2/arm-none-eabi/include/c++/14.2.1/cmath **** 
 179:/opt/arm-gnu-toolchain-14.2/arm-none-eabi/include/c++/14.2.1/cmath **** #ifndef __CORRECT_ISO_CPP_MATH_H_PROTO
 180:/opt/arm-gnu-toolchain-14.2/arm-none-eabi/include/c++/14.2.1/cmath ****   inline _GLIBCXX_CONSTEXPR float
 181:/opt/arm-gnu-toolchain-14.2/arm-none-eabi/include/c++/14.2.1/cmath ****   cos(float __x)
 182:/opt/arm-gnu-toolchain-14.2/arm-none-eabi/include/c++/14.2.1/cmath ****   { return __builtin_cosf(__x); }
 183:/opt/arm-gnu-toolchain-14.2/arm-none-eabi/include/c++/14.2.1/cmath **** 
 184:/opt/arm-gnu-toolchain-14.2/arm-none-eabi/include/c++/14.2.1/cmath ****   inline _GLIBCXX_CONSTEXPR long double
 185:/opt/arm-gnu-toolchain-14.2/arm-none-eabi/include/c++/14.2.1/cmath ****   cos(long double __x)
 186:/opt/arm-gnu-toolchain-14.2/arm-none-eabi/include/c++/14.2.1/cmath ****   { return __builtin_cosl(__x); }
 187:/opt/arm-gnu-toolchain-14.2/arm-none-eabi/include/c++/14.2.1/cmath **** #endif
 188:/opt/arm-gnu-toolchain-14.2/arm-none-eabi/include/c++/14.2.1/cmath **** 
 189:/opt/arm-gnu-toolchain-14.2/arm-none-eabi/include/c++/14.2.1/cmath ****   template<typename _Tp>
 190:/opt/arm-gnu-toolchain-14.2/arm-none-eabi/include/c++/14.2.1/cmath ****     inline _GLIBCXX_CONSTEXPR
 191:/opt/arm-gnu-toolchain-14.2/arm-none-eabi/include/c++/14.2.1/cmath ****     typename __gnu_cxx::__enable_if<__is_integer<_Tp>::__value,
 192:/opt/arm-gnu-toolchain-14.2/arm-none-eabi/include/c++/14.2.1/cmath ****                                     double>::__type
 193:/opt/arm-gnu-toolchain-14.2/arm-none-eabi/include/c++/14.2.1/cmath ****     cos(_Tp __x)
 194:/opt/arm-gnu-toolchain-14.2/arm-none-eabi/include/c++/14.2.1/cmath ****     { return __builtin_cos(__x); }
 195:/opt/arm-gnu-toolchain-14.2/arm-none-eabi/include/c++/14.2.1/cmath **** 
 196:/opt/arm-gnu-toolchain-14.2/arm-none-eabi/include/c++/14.2.1/cmath ****   using ::cosh;
 197:/opt/arm-gnu-toolchain-14.2/arm-none-eabi/include/c++/14.2.1/cmath **** 
 198:/opt/arm-gnu-toolchain-14.2/arm-none-eabi/include/c++/14.2.1/cmath **** #ifndef __CORRECT_ISO_CPP_MATH_H_PROTO
 199:/opt/arm-gnu-toolchain-14.2/arm-none-eabi/include/c++/14.2.1/cmath ****   inline _GLIBCXX_CONSTEXPR float
 200:/opt/arm-gnu-toolchain-14.2/arm-none-eabi/include/c++/14.2.1/cmath ****   cosh(float __x)
 201:/opt/arm-gnu-toolchain-14.2/arm-none-eabi/include/c++/14.2.1/cmath ****   { return __builtin_coshf(__x); }
 202:/opt/arm-gnu-toolchain-14.2/arm-none-eabi/include/c++/14.2.1/cmath **** 
 203:/opt/arm-gnu-toolchain-14.2/arm-none-eabi/include/c++/14.2.1/cmath ****   inline _GLIBCXX_CONSTEXPR long double
 204:/opt/arm-gnu-toolchain-14.2/arm-none-eabi/include/c++/14.2.1/cmath ****   cosh(long double __x)
 205:/opt/arm-gnu-toolchain-14.2/arm-none-eabi/include/c++/14.2.1/cmath ****   { return __builtin_coshl(__x); }
 206:/opt/arm-gnu-toolchain-14.2/arm-none-eabi/include/c++/14.2.1/cmath **** #endif
 207:/opt/arm-gnu-toolchain-14.2/arm-none-eabi/include/c++/14.2.1/cmath **** 
 208:/opt/arm-gnu-toolchain-14.2/arm-none-eabi/include/c++/14.2.1/cmath ****   template<typename _Tp>
 209:/opt/arm-gnu-toolchain-14.2/arm-none-eabi/include/c++/14.2.1/cmath ****     inline _GLIBCXX_CONSTEXPR
 210:/opt/arm-gnu-toolchain-14.2/arm-none-eabi/include/c++/14.2.1/cmath ****     typename __gnu_cxx::__enable_if<__is_integer<_Tp>::__value,
 211:/opt/arm-gnu-toolchain-14.2/arm-none-eabi/include/c++/14.2.1/cmath ****                                     double>::__type
 212:/opt/arm-gnu-toolchain-14.2/arm-none-eabi/include/c++/14.2.1/cmath ****     cosh(_Tp __x)
 213:/opt/arm-gnu-toolchain-14.2/arm-none-eabi/include/c++/14.2.1/cmath ****     { return __builtin_cosh(__x); }
 214:/opt/arm-gnu-toolchain-14.2/arm-none-eabi/include/c++/14.2.1/cmath **** 
 215:/opt/arm-gnu-toolchain-14.2/arm-none-eabi/include/c++/14.2.1/cmath ****   using ::exp;
 216:/opt/arm-gnu-toolchain-14.2/arm-none-eabi/include/c++/14.2.1/cmath **** 
 217:/opt/arm-gnu-toolchain-14.2/arm-none-eabi/include/c++/14.2.1/cmath **** #ifndef __CORRECT_ISO_CPP_MATH_H_PROTO
 218:/opt/arm-gnu-toolchain-14.2/arm-none-eabi/include/c++/14.2.1/cmath ****   inline _GLIBCXX_CONSTEXPR float
 219:/opt/arm-gnu-toolchain-14.2/arm-none-eabi/include/c++/14.2.1/cmath ****   exp(float __x)
 220:/opt/arm-gnu-toolchain-14.2/arm-none-eabi/include/c++/14.2.1/cmath ****   { return __builtin_expf(__x); }
ARM GAS  /tmp/cc5lp4CL.s 			page 62


 221:/opt/arm-gnu-toolchain-14.2/arm-none-eabi/include/c++/14.2.1/cmath **** 
 222:/opt/arm-gnu-toolchain-14.2/arm-none-eabi/include/c++/14.2.1/cmath ****   inline _GLIBCXX_CONSTEXPR long double
 223:/opt/arm-gnu-toolchain-14.2/arm-none-eabi/include/c++/14.2.1/cmath ****   exp(long double __x)
 224:/opt/arm-gnu-toolchain-14.2/arm-none-eabi/include/c++/14.2.1/cmath ****   { return __builtin_expl(__x); }
 225:/opt/arm-gnu-toolchain-14.2/arm-none-eabi/include/c++/14.2.1/cmath **** #endif
 226:/opt/arm-gnu-toolchain-14.2/arm-none-eabi/include/c++/14.2.1/cmath **** 
 227:/opt/arm-gnu-toolchain-14.2/arm-none-eabi/include/c++/14.2.1/cmath ****   template<typename _Tp>
 228:/opt/arm-gnu-toolchain-14.2/arm-none-eabi/include/c++/14.2.1/cmath ****     inline _GLIBCXX_CONSTEXPR
 229:/opt/arm-gnu-toolchain-14.2/arm-none-eabi/include/c++/14.2.1/cmath ****     typename __gnu_cxx::__enable_if<__is_integer<_Tp>::__value,
 230:/opt/arm-gnu-toolchain-14.2/arm-none-eabi/include/c++/14.2.1/cmath ****                                     double>::__type
 231:/opt/arm-gnu-toolchain-14.2/arm-none-eabi/include/c++/14.2.1/cmath ****     exp(_Tp __x)
 232:/opt/arm-gnu-toolchain-14.2/arm-none-eabi/include/c++/14.2.1/cmath ****     { return __builtin_exp(__x); }
 233:/opt/arm-gnu-toolchain-14.2/arm-none-eabi/include/c++/14.2.1/cmath **** 
 234:/opt/arm-gnu-toolchain-14.2/arm-none-eabi/include/c++/14.2.1/cmath ****   using ::fabs;
 235:/opt/arm-gnu-toolchain-14.2/arm-none-eabi/include/c++/14.2.1/cmath **** 
 236:/opt/arm-gnu-toolchain-14.2/arm-none-eabi/include/c++/14.2.1/cmath **** #ifndef __CORRECT_ISO_CPP_MATH_H_PROTO
 237:/opt/arm-gnu-toolchain-14.2/arm-none-eabi/include/c++/14.2.1/cmath ****   inline _GLIBCXX_CONSTEXPR float
 238:/opt/arm-gnu-toolchain-14.2/arm-none-eabi/include/c++/14.2.1/cmath ****   fabs(float __x)
 2111              		.loc 8 238 3 view .LVU594
 2112              	.LBB133:
 239:/opt/arm-gnu-toolchain-14.2/arm-none-eabi/include/c++/14.2.1/cmath ****   { return __builtin_fabsf(__x); }
 2113              		.loc 8 239 5 view .LVU595
 2114              		.loc 8 239 31 is_stmt 0 view .LVU596
 2115 0992 F0EEC87A 		vabs.f32	s15, s16
 2116              	.LVL177:
 2117              		.loc 8 239 31 view .LVU597
 2118              	.LBE133:
 2119              	.LBE132:
 391:My_Top/Motor_Control/DcMotor_ClosedLoop.cpp **** 
 2120              		.loc 1 391 5 is_stmt 1 view .LVU598
 391:My_Top/Motor_Control/DcMotor_ClosedLoop.cpp **** 
 2121              		.loc 1 391 25 is_stmt 0 view .LVU599
 2122 0996 D4ED098A 		vldr.32	s17, [r4, #36]
 2123              	.LVL178:
 2124              	.LBB134:
 2125              	.LBI134:
 238:/opt/arm-gnu-toolchain-14.2/arm-none-eabi/include/c++/14.2.1/cmath ****   { return __builtin_fabsf(__x); }
 2126              		.loc 8 238 3 is_stmt 1 view .LVU600
 2127              	.LBB135:
 2128              		.loc 8 239 5 view .LVU601
 2129              		.loc 8 239 31 is_stmt 0 view .LVU602
 2130 099a B0EEE89A 		vabs.f32	s18, s17
 2131              	.LVL179:
 2132              		.loc 8 239 31 view .LVU603
 2133              	.LBE135:
 2134              	.LBE134:
 394:My_Top/Motor_Control/DcMotor_ClosedLoop.cpp ****     {
 2135              		.loc 1 394 5 is_stmt 1 view .LVU604
 394:My_Top/Motor_Control/DcMotor_ClosedLoop.cpp ****     {
 2136              		.loc 1 394 8 is_stmt 0 view .LVU605
 2137 099e 94F86130 		ldrb	r3, [r4, #97]	@ zero_extendqisi2
 394:My_Top/Motor_Control/DcMotor_ClosedLoop.cpp ****     {
 2138              		.loc 1 394 5 view .LVU606
 2139 09a2 93B1     		cbz	r3, .L109
 396:My_Top/Motor_Control/DcMotor_ClosedLoop.cpp ****         {
 2140              		.loc 1 396 9 is_stmt 1 view .LVU607
 396:My_Top/Motor_Control/DcMotor_ClosedLoop.cpp ****         {
ARM GAS  /tmp/cc5lp4CL.s 			page 63


 2141              		.loc 1 396 12 is_stmt 0 view .LVU608
 2142 09a4 17EE900A 		vmov	r0, s15
 2143              	.LVL180:
 396:My_Top/Motor_Control/DcMotor_ClosedLoop.cpp ****         {
 2144              		.loc 1 396 12 view .LVU609
 2145 09a8 FFF7FEFF 		bl	__aeabi_f2d
 2146              	.LVL181:
 396:My_Top/Motor_Control/DcMotor_ClosedLoop.cpp ****         {
 2147              		.loc 1 396 9 view .LVU610
 2148 09ac 52A3     		adr	r3, .L141+8
 2149 09ae D3E90023 		ldrd	r2, [r3]
 2150 09b2 FFF7FEFF 		bl	__aeabi_dcmpgt
 2151              	.LVL182:
 2152 09b6 58B3     		cbz	r0, .L110
 398:My_Top/Motor_Control/DcMotor_ClosedLoop.cpp ****         }
 2153              		.loc 1 398 13 is_stmt 1 view .LVU611
 398:My_Top/Motor_Control/DcMotor_ClosedLoop.cpp ****         }
 2154              		.loc 1 398 27 is_stmt 0 view .LVU612
 2155 09b8 0023     		movs	r3, #0
 2156 09ba 84F86130 		strb	r3, [r4, #97]
 2157 09be 27E0     		b	.L110
 2158              	.LVL183:
 2159              	.L139:
 2160              	.LBB136:
 387:My_Top/Motor_Control/DcMotor_ClosedLoop.cpp **** 
 2161              		.loc 1 387 23 is_stmt 1 discriminator 1 view .LVU613
 2162 09c0 DFED537A 		vldr.32	s15, .L141+32
 2163 09c4 30EE270A 		vadd.f32	s0, s0, s15
 2164              	.LVL184:
 387:My_Top/Motor_Control/DcMotor_ClosedLoop.cpp **** 
 2165              		.loc 1 387 23 is_stmt 0 discriminator 1 view .LVU614
 2166 09c8 D6E7     		b	.L107
 2167              	.LVL185:
 2168              	.L109:
 387:My_Top/Motor_Control/DcMotor_ClosedLoop.cpp **** 
 2169              		.loc 1 387 23 discriminator 1 view .LVU615
 2170              	.LBE136:
 402:My_Top/Motor_Control/DcMotor_ClosedLoop.cpp ****         {
 2171              		.loc 1 402 9 is_stmt 1 view .LVU616
 402:My_Top/Motor_Control/DcMotor_ClosedLoop.cpp ****         {
 2172              		.loc 1 402 12 is_stmt 0 view .LVU617
 2173 09ca 17EE900A 		vmov	r0, s15
 2174              	.LVL186:
 402:My_Top/Motor_Control/DcMotor_ClosedLoop.cpp ****         {
 2175              		.loc 1 402 12 view .LVU618
 2176 09ce FFF7FEFF 		bl	__aeabi_f2d
 2177              	.LVL187:
 402:My_Top/Motor_Control/DcMotor_ClosedLoop.cpp ****         {
 2178              		.loc 1 402 9 view .LVU619
 2179 09d2 4BA3     		adr	r3, .L141+16
 2180 09d4 D3E90023 		ldrd	r2, [r3]
 2181 09d8 FFF7FEFF 		bl	__aeabi_dcmplt
 2182              	.LVL188:
 2183 09dc A8B1     		cbz	r0, .L112
 402:My_Top/Motor_Control/DcMotor_ClosedLoop.cpp ****         {
 2184              		.loc 1 402 38 discriminator 1 view .LVU620
 2185 09de 19EE100A 		vmov	r0, s18
ARM GAS  /tmp/cc5lp4CL.s 			page 64


 2186 09e2 FFF7FEFF 		bl	__aeabi_f2d
 2187              	.LVL189:
 402:My_Top/Motor_Control/DcMotor_ClosedLoop.cpp ****         {
 2188              		.loc 1 402 36 discriminator 1 view .LVU621
 2189 09e6 48A3     		adr	r3, .L141+24
 2190 09e8 D3E90023 		ldrd	r2, [r3]
 2191 09ec FFF7FEFF 		bl	__aeabi_dcmplt
 2192              	.LVL190:
 2193 09f0 58B1     		cbz	r0, .L112
 404:My_Top/Motor_Control/DcMotor_ClosedLoop.cpp ****             if(position_ok_cnt >= 10)
 2194              		.loc 1 404 13 is_stmt 1 view .LVU622
 2195 09f2 B4F86230 		ldrh	r3, [r4, #98]
 404:My_Top/Motor_Control/DcMotor_ClosedLoop.cpp ****             if(position_ok_cnt >= 10)
 2196              		.loc 1 404 28 is_stmt 0 view .LVU623
 2197 09f6 0133     		adds	r3, r3, #1
 2198 09f8 9BB2     		uxth	r3, r3
 2199 09fa A4F86230 		strh	r3, [r4, #98]	@ movhi
 405:My_Top/Motor_Control/DcMotor_ClosedLoop.cpp ****             {
 2200              		.loc 1 405 13 is_stmt 1 view .LVU624
 2201 09fe 092B     		cmp	r3, #9
 2202 0a00 06D9     		bls	.L110
 407:My_Top/Motor_Control/DcMotor_ClosedLoop.cpp ****             }
 2203              		.loc 1 407 17 view .LVU625
 407:My_Top/Motor_Control/DcMotor_ClosedLoop.cpp ****             }
 2204              		.loc 1 407 31 is_stmt 0 view .LVU626
 2205 0a02 0123     		movs	r3, #1
 2206 0a04 84F86130 		strb	r3, [r4, #97]
 2207 0a08 02E0     		b	.L110
 2208              	.L112:
 411:My_Top/Motor_Control/DcMotor_ClosedLoop.cpp ****         }
 2209              		.loc 1 411 13 is_stmt 1 view .LVU627
 411:My_Top/Motor_Control/DcMotor_ClosedLoop.cpp ****         }
 2210              		.loc 1 411 29 is_stmt 0 view .LVU628
 2211 0a0a 0023     		movs	r3, #0
 2212 0a0c A4F86230 		strh	r3, [r4, #98]	@ movhi
 2213              	.L110:
 416:My_Top/Motor_Control/DcMotor_ClosedLoop.cpp ****     {
 2214              		.loc 1 416 5 is_stmt 1 view .LVU629
 416:My_Top/Motor_Control/DcMotor_ClosedLoop.cpp ****     {
 2215              		.loc 1 416 8 is_stmt 0 view .LVU630
 2216 0a10 94F86130 		ldrb	r3, [r4, #97]	@ zero_extendqisi2
 416:My_Top/Motor_Control/DcMotor_ClosedLoop.cpp ****     {
 2217              		.loc 1 416 5 view .LVU631
 2218 0a14 002B     		cmp	r3, #0
 2219 0a16 46D1     		bne	.L140
 423:My_Top/Motor_Control/DcMotor_ClosedLoop.cpp ****     _target_speed = _lqr->update(pos_error, vel_error);  // LQRĶŠōÕć║ńø«µĀćķĆ¤Õ║”
 2220              		.loc 1 423 5 is_stmt 1 view .LVU632
 423:My_Top/Motor_Control/DcMotor_ClosedLoop.cpp ****     _target_speed = _lqr->update(pos_error, vel_error);  // LQRĶŠōÕć║ńø«µĀćķĆ¤Õ║”
 2221              		.loc 1 423 11 is_stmt 0 view .LVU633
 2222 0a18 B1EE687A 		vneg.f32	s14, s17
 2223              	.LVL191:
 424:My_Top/Motor_Control/DcMotor_ClosedLoop.cpp ****     //ķĆ¤Õ║”ÕÅśÕī¢µ¢£ÕØĪ
 2224              		.loc 1 424 5 is_stmt 1 view .LVU634
 424:My_Top/Motor_Control/DcMotor_ClosedLoop.cpp ****     //ķĆ¤Õ║”ÕÅśÕī¢µ¢£ÕØĪ
 2225              		.loc 1 424 21 is_stmt 0 view .LVU635
 2226 0a1c E36C     		ldr	r3, [r4, #76]
 2227              	.LVL192:
ARM GAS  /tmp/cc5lp4CL.s 			page 65


 2228              	.LBB137:
 2229              	.LBI137:
  14:Lib/compute/pid/LQR.hpp **** 
  15:Lib/compute/pid/LQR.hpp ****     float update(float pos_error, float vel_error)
 2230              		.loc 7 15 11 is_stmt 1 view .LVU636
 2231              	.LBB138:
  16:Lib/compute/pid/LQR.hpp ****     {
  17:Lib/compute/pid/LQR.hpp ****         // u = -(K1 * pos_error + K2 * vel_error)
  18:Lib/compute/pid/LQR.hpp ****         _output = _k1 * pos_error + _k2 * vel_error;
 2232              		.loc 7 18 9 view .LVU637
 2233              		.loc 7 18 19 is_stmt 0 view .LVU638
 2234 0a1e D3ED007A 		vldr.32	s15, [r3]
 2235              		.loc 7 18 23 view .LVU639
 2236 0a22 68EE277A 		vmul.f32	s15, s16, s15
 2237              		.loc 7 18 37 view .LVU640
 2238 0a26 D3ED016A 		vldr.32	s13, [r3, #4]
 2239              		.loc 7 18 41 view .LVU641
 2240 0a2a 68EEE68A 		vnmul.f32	s17, s17, s13
 2241              		.loc 7 18 35 view .LVU642
 2242 0a2e 77EEA87A 		vadd.f32	s15, s15, s17
 2243              		.loc 7 18 17 view .LVU643
 2244 0a32 C3ED047A 		vstr.32	s15, [r3, #16]
  19:Lib/compute/pid/LQR.hpp **** 
  20:Lib/compute/pid/LQR.hpp ****         // ķÖÉÕ╣ģ
  21:Lib/compute/pid/LQR.hpp ****         if (_output > _max)
 2245              		.loc 7 21 9 is_stmt 1 view .LVU644
 2246              		.loc 7 21 23 is_stmt 0 view .LVU645
 2247 0a36 D3ED026A 		vldr.32	s13, [r3, #8]
 2248              		.loc 7 21 9 view .LVU646
 2249 0a3a F4EEE67A 		vcmpe.f32	s15, s13
 2250 0a3e F1EE10FA 		vmrs	APSR_nzcv, FPSCR
 2251 0a42 34DD     		ble	.L136
  22:Lib/compute/pid/LQR.hpp ****             _output = _max;
 2252              		.loc 7 22 13 is_stmt 1 view .LVU647
 2253              		.loc 7 22 21 is_stmt 0 view .LVU648
 2254 0a44 C3ED046A 		vstr.32	s13, [r3, #16]
 2255              	.L119:
  23:Lib/compute/pid/LQR.hpp ****         else if (_output < _min)
  24:Lib/compute/pid/LQR.hpp ****             _output = _min;
  25:Lib/compute/pid/LQR.hpp **** 
  26:Lib/compute/pid/LQR.hpp ****         return _output;
 2256              		.loc 7 26 9 is_stmt 1 view .LVU649
 2257              		.loc 7 26 16 is_stmt 0 view .LVU650
 2258 0a48 1B69     		ldr	r3, [r3, #16]	@ float
 2259              	.LVL193:
 2260              		.loc 7 26 16 view .LVU651
 2261              	.LBE138:
 2262              	.LBE137:
 424:My_Top/Motor_Control/DcMotor_ClosedLoop.cpp ****     //ķĆ¤Õ║”ÕÅśÕī¢µ¢£ÕØĪ
 2263              		.loc 1 424 19 discriminator 1 view .LVU652
 2264 0a4a E362     		str	r3, [r4, #44]	@ float
 426:My_Top/Motor_Control/DcMotor_ClosedLoop.cpp ****     float speed_delta = lqr_speed - target_speed_last;
 2265              		.loc 1 426 5 is_stmt 1 view .LVU653
 426:My_Top/Motor_Control/DcMotor_ClosedLoop.cpp ****     float speed_delta = lqr_speed - target_speed_last;
 2266              		.loc 1 426 23 is_stmt 0 view .LVU654
 2267 0a4c E36C     		ldr	r3, [r4, #76]
 2268              	.LVL194:
ARM GAS  /tmp/cc5lp4CL.s 			page 66


 2269              	.LBB140:
 2270              	.LBI140:
  15:Lib/compute/pid/LQR.hpp ****     {
 2271              		.loc 7 15 11 is_stmt 1 view .LVU655
 2272              	.LBB141:
  18:Lib/compute/pid/LQR.hpp **** 
 2273              		.loc 7 18 9 view .LVU656
  18:Lib/compute/pid/LQR.hpp **** 
 2274              		.loc 7 18 19 is_stmt 0 view .LVU657
 2275 0a4e D3ED007A 		vldr.32	s15, [r3]
  18:Lib/compute/pid/LQR.hpp **** 
 2276              		.loc 7 18 23 view .LVU658
 2277 0a52 28EE278A 		vmul.f32	s16, s16, s15
 2278              	.LVL195:
  18:Lib/compute/pid/LQR.hpp **** 
 2279              		.loc 7 18 37 view .LVU659
 2280 0a56 D3ED017A 		vldr.32	s15, [r3, #4]
  18:Lib/compute/pid/LQR.hpp **** 
 2281              		.loc 7 18 41 view .LVU660
 2282 0a5a 67EE277A 		vmul.f32	s15, s14, s15
  18:Lib/compute/pid/LQR.hpp **** 
 2283              		.loc 7 18 35 view .LVU661
 2284 0a5e 38EE278A 		vadd.f32	s16, s16, s15
  18:Lib/compute/pid/LQR.hpp **** 
 2285              		.loc 7 18 17 view .LVU662
 2286 0a62 83ED048A 		vstr.32	s16, [r3, #16]
  21:Lib/compute/pid/LQR.hpp ****             _output = _max;
 2287              		.loc 7 21 9 is_stmt 1 view .LVU663
  21:Lib/compute/pid/LQR.hpp ****             _output = _max;
 2288              		.loc 7 21 23 is_stmt 0 view .LVU664
 2289 0a66 D3ED027A 		vldr.32	s15, [r3, #8]
  21:Lib/compute/pid/LQR.hpp ****             _output = _max;
 2290              		.loc 7 21 9 view .LVU665
 2291 0a6a B4EEE78A 		vcmpe.f32	s16, s15
 2292 0a6e F1EE10FA 		vmrs	APSR_nzcv, FPSCR
 2293 0a72 26DD     		ble	.L137
  22:Lib/compute/pid/LQR.hpp ****         else if (_output < _min)
 2294              		.loc 7 22 13 is_stmt 1 view .LVU666
  22:Lib/compute/pid/LQR.hpp ****         else if (_output < _min)
 2295              		.loc 7 22 21 is_stmt 0 view .LVU667
 2296 0a74 C3ED047A 		vstr.32	s15, [r3, #16]
 2297              	.L123:
 2298              		.loc 7 26 9 is_stmt 1 view .LVU668
 2299              		.loc 7 26 16 is_stmt 0 view .LVU669
 2300 0a78 D3ED047A 		vldr.32	s15, [r3, #16]
 2301              	.LVL196:
 2302              		.loc 7 26 16 view .LVU670
 2303              	.LBE141:
 2304              	.LBE140:
 427:My_Top/Motor_Control/DcMotor_ClosedLoop.cpp ****     if(speed_delta > 0.002f)
 2305              		.loc 1 427 5 is_stmt 1 view .LVU671
 427:My_Top/Motor_Control/DcMotor_ClosedLoop.cpp ****     if(speed_delta > 0.002f)
 2306              		.loc 1 427 37 is_stmt 0 view .LVU672
 2307 0a7c 94ED197A 		vldr.32	s14, [r4, #100]
 2308              	.LVL197:
 427:My_Top/Motor_Control/DcMotor_ClosedLoop.cpp ****     if(speed_delta > 0.002f)
 2309              		.loc 1 427 11 view .LVU673
ARM GAS  /tmp/cc5lp4CL.s 			page 67


 2310 0a80 77EEC77A 		vsub.f32	s15, s15, s14
 2311              	.LVL198:
 428:My_Top/Motor_Control/DcMotor_ClosedLoop.cpp ****     {
 2312              		.loc 1 428 5 is_stmt 1 view .LVU674
 2313 0a84 DFED236A 		vldr.32	s13, .L141+36
 2314 0a88 F4EEE67A 		vcmpe.f32	s15, s13
 2315 0a8c F1EE10FA 		vmrs	APSR_nzcv, FPSCR
 2316 0a90 21DC     		bgt	.L126
 432:My_Top/Motor_Control/DcMotor_ClosedLoop.cpp ****     {
 2317              		.loc 1 432 10 view .LVU675
 2318 0a92 DFED216A 		vldr.32	s13, .L141+40
 2319 0a96 F4EEE67A 		vcmpe.f32	s15, s13
 2320 0a9a F1EE10FA 		vmrs	APSR_nzcv, FPSCR
 2321 0a9e 1CD5     		bpl	.L125
 434:My_Top/Motor_Control/DcMotor_ClosedLoop.cpp ****     }
 2322              		.loc 1 434 21 is_stmt 0 view .LVU676
 2323 0aa0 DFED1D7A 		vldr.32	s15, .L141+40
 2324              	.LVL199:
 434:My_Top/Motor_Control/DcMotor_ClosedLoop.cpp ****     }
 2325              		.loc 1 434 21 view .LVU677
 2326 0aa4 19E0     		b	.L125
 2327              	.LVL200:
 2328              	.L140:
 418:My_Top/Motor_Control/DcMotor_ClosedLoop.cpp ****         target_speed_last = 0.0f;
 2329              		.loc 1 418 9 is_stmt 1 view .LVU678
 418:My_Top/Motor_Control/DcMotor_ClosedLoop.cpp ****         target_speed_last = 0.0f;
 2330              		.loc 1 418 23 is_stmt 0 view .LVU679
 2331 0aa6 0023     		movs	r3, #0
 2332 0aa8 E362     		str	r3, [r4, #44]	@ float
 419:My_Top/Motor_Control/DcMotor_ClosedLoop.cpp ****         return;
 2333              		.loc 1 419 9 is_stmt 1 view .LVU680
 419:My_Top/Motor_Control/DcMotor_ClosedLoop.cpp ****         return;
 2334              		.loc 1 419 27 is_stmt 0 view .LVU681
 2335 0aaa 6366     		str	r3, [r4, #100]	@ float
 420:My_Top/Motor_Control/DcMotor_ClosedLoop.cpp ****     }
 2336              		.loc 1 420 9 is_stmt 1 view .LVU682
 2337 0aac 1BE0     		b	.L106
 2338              	.LVL201:
 2339              	.L136:
 2340              	.LBB143:
 2341              	.LBB139:
  23:Lib/compute/pid/LQR.hpp ****             _output = _min;
 2342              		.loc 7 23 14 view .LVU683
  23:Lib/compute/pid/LQR.hpp ****             _output = _min;
 2343              		.loc 7 23 28 is_stmt 0 view .LVU684
 2344 0aae D3ED036A 		vldr.32	s13, [r3, #12]
  23:Lib/compute/pid/LQR.hpp ****             _output = _min;
 2345              		.loc 7 23 14 view .LVU685
 2346 0ab2 F4EEE67A 		vcmpe.f32	s15, s13
 2347 0ab6 F1EE10FA 		vmrs	APSR_nzcv, FPSCR
 2348 0aba C5D5     		bpl	.L119
  24:Lib/compute/pid/LQR.hpp **** 
 2349              		.loc 7 24 13 is_stmt 1 view .LVU686
  24:Lib/compute/pid/LQR.hpp **** 
 2350              		.loc 7 24 21 is_stmt 0 view .LVU687
 2351 0abc C3ED046A 		vstr.32	s13, [r3, #16]
 2352 0ac0 C2E7     		b	.L119
ARM GAS  /tmp/cc5lp4CL.s 			page 68


 2353              	.LVL202:
 2354              	.L137:
  24:Lib/compute/pid/LQR.hpp **** 
 2355              		.loc 7 24 21 view .LVU688
 2356              	.LBE139:
 2357              	.LBE143:
 2358              	.LBB144:
 2359              	.LBB142:
  23:Lib/compute/pid/LQR.hpp ****             _output = _min;
 2360              		.loc 7 23 14 is_stmt 1 view .LVU689
  23:Lib/compute/pid/LQR.hpp ****             _output = _min;
 2361              		.loc 7 23 28 is_stmt 0 view .LVU690
 2362 0ac2 D3ED037A 		vldr.32	s15, [r3, #12]
  23:Lib/compute/pid/LQR.hpp ****             _output = _min;
 2363              		.loc 7 23 14 view .LVU691
 2364 0ac6 B4EEE78A 		vcmpe.f32	s16, s15
 2365 0aca F1EE10FA 		vmrs	APSR_nzcv, FPSCR
 2366 0ace D3D5     		bpl	.L123
  24:Lib/compute/pid/LQR.hpp **** 
 2367              		.loc 7 24 13 is_stmt 1 view .LVU692
  24:Lib/compute/pid/LQR.hpp **** 
 2368              		.loc 7 24 21 is_stmt 0 view .LVU693
 2369 0ad0 C3ED047A 		vstr.32	s15, [r3, #16]
 2370 0ad4 D0E7     		b	.L123
 2371              	.LVL203:
 2372              	.L126:
  24:Lib/compute/pid/LQR.hpp **** 
 2373              		.loc 7 24 21 view .LVU694
 2374              	.LBE142:
 2375              	.LBE144:
 430:My_Top/Motor_Control/DcMotor_ClosedLoop.cpp ****     }
 2376              		.loc 1 430 21 view .LVU695
 2377 0ad6 DFED0F7A 		vldr.32	s15, .L141+36
 2378              	.LVL204:
 2379              	.L125:
 437:My_Top/Motor_Control/DcMotor_ClosedLoop.cpp **** 
 2380              		.loc 1 437 5 is_stmt 1 view .LVU696
 437:My_Top/Motor_Control/DcMotor_ClosedLoop.cpp **** 
 2381              		.loc 1 437 23 is_stmt 0 view .LVU697
 2382 0ada 77EE277A 		vadd.f32	s15, s14, s15
 2383              	.LVL205:
 437:My_Top/Motor_Control/DcMotor_ClosedLoop.cpp **** 
 2384              		.loc 1 437 23 view .LVU698
 2385 0ade C4ED197A 		vstr.32	s15, [r4, #100]
 2386              	.LVL206:
 439:My_Top/Motor_Control/DcMotor_ClosedLoop.cpp **** 
 2387              		.loc 1 439 5 is_stmt 1 view .LVU699
 439:My_Top/Motor_Control/DcMotor_ClosedLoop.cpp **** 
 2388              		.loc 1 439 19 is_stmt 0 view .LVU700
 2389 0ae2 C4ED0B7A 		vstr.32	s15, [r4, #44]
 2390              	.LVL207:
 2391              	.L106:
 441:My_Top/Motor_Control/DcMotor_ClosedLoop.cpp **** 
 2392              		.loc 1 441 1 view .LVU701
 2393 0ae6 BDEC048B 		vldm	sp!, {d8-d9}
 2394              		.cfi_restore 82
 2395              		.cfi_restore 83
ARM GAS  /tmp/cc5lp4CL.s 			page 69


 2396              		.cfi_restore 80
 2397              		.cfi_restore 81
 2398              		.cfi_def_cfa_offset 16
 2399              	.LVL208:
 441:My_Top/Motor_Control/DcMotor_ClosedLoop.cpp **** 
 2400              		.loc 1 441 1 view .LVU702
 2401 0aea D0BD     		pop	{r4, r6, r7, pc}
 2402              	.LVL209:
 2403              	.L142:
 441:My_Top/Motor_Control/DcMotor_ClosedLoop.cpp **** 
 2404              		.loc 1 441 1 view .LVU703
 2405 0aec AFF30080 		.align	3
 2406              	.L141:
 2407 0af0 182D4454 		.word	1413754136
 2408 0af4 FB210940 		.word	1074340347
 2409 0af8 F9C115D1 		.word	-787103239
 2410 0afc 5472853F 		.word	1065710164
 2411 0b00 F9C115D1 		.word	-787103239
 2412 0b04 5472753F 		.word	1064661588
 2413 0b08 399D52A2 		.word	-1571644103
 2414 0b0c 46DFB13F 		.word	1068621638
 2415 0b10 DB0FC940 		.word	1086918619
 2416 0b14 6F12033B 		.word	990057071
 2417 0b18 6F1203BB 		.word	-1157426577
 2418 0b1c 399D52A2 		.word	-1571644103
 2419 0b20 46DF913F 		.word	1066524486
 2420              		.cfi_endproc
 2421              	.LFE1360:
 2423              		.align	1
 2424              		.global	_ZN8DC_Motor15Thermistor_TempEv
 2425              		.syntax unified
 2426              		.thumb
 2427              		.thumb_func
 2429              	_ZN8DC_Motor15Thermistor_TempEv:
 2430              	.LVL210:
 2431              	.LFB1361:
 448:My_Top/Motor_Control/DcMotor_ClosedLoop.cpp ****     float adc_av_val = 0.0f;
 2432              		.loc 1 448 1 is_stmt 1 view -0
 2433              		.cfi_startproc
 2434              		@ args = 0, pretend = 0, frame = 0
 2435              		@ frame_needed = 0, uses_anonymous_args = 0
 448:My_Top/Motor_Control/DcMotor_ClosedLoop.cpp ****     float adc_av_val = 0.0f;
 2436              		.loc 1 448 1 is_stmt 0 view .LVU705
 2437 0b24 D0B5     		push	{r4, r6, r7, lr}
 2438              		.cfi_def_cfa_offset 16
 2439              		.cfi_offset 4, -16
 2440              		.cfi_offset 6, -12
 2441              		.cfi_offset 7, -8
 2442              		.cfi_offset 14, -4
 2443 0b26 2DED028B 		vpush.64	{d8}
 2444              		.cfi_def_cfa_offset 24
 2445              		.cfi_offset 80, -24
 2446              		.cfi_offset 81, -20
 2447 0b2a 0446     		mov	r4, r0
 449:My_Top/Motor_Control/DcMotor_ClosedLoop.cpp ****     
 2448              		.loc 1 449 5 is_stmt 1 view .LVU706
 2449              	.LVL211:
ARM GAS  /tmp/cc5lp4CL.s 			page 70


 451:My_Top/Motor_Control/DcMotor_ClosedLoop.cpp ****     // ADC ÕĆ╝Õ╝éÕĖĖ’╝łµé¼ń®║/µ£¬µÄźńāŁµĢÅńöĄķś╗ ĶĘ│Ķ┐ćĶ«Īń«Ś
 2450              		.loc 1 451 5 view .LVU707
 451:My_Top/Motor_Control/DcMotor_ClosedLoop.cpp ****     // ADC ÕĆ╝Õ╝éÕĖĖ’╝łµé¼ń®║/µ£¬µÄźńāŁµĢÅńöĄķś╗ ĶĘ│Ķ┐ćĶ«Īń«Ś
 2451              		.loc 1 451 54 is_stmt 0 view .LVU708
 2452 0b2c D0F8B430 		ldr	r3, [r0, #180]
 451:My_Top/Motor_Control/DcMotor_ClosedLoop.cpp ****     // ADC ÕĆ╝Õ╝éÕĖĖ’╝łµé¼ń®║/µ£¬µÄźńāŁµĢÅńöĄķś╗ ĶĘ│Ķ┐ćĶ«Īń«Ś
 2453              		.loc 1 451 69 view .LVU709
 2454 0b30 93F82220 		ldrb	r2, [r3, #34]	@ zero_extendqisi2
 451:My_Top/Motor_Control/DcMotor_ClosedLoop.cpp ****     // ADC ÕĆ╝Õ╝éÕĖĖ’╝łµé¼ń®║/µ£¬µÄźńāŁµĢÅńöĄķś╗ ĶĘ│Ķ┐ćĶ«Īń«Ś
 2455              		.loc 1 451 80 view .LVU710
 2456 0b34 384B     		ldr	r3, .L147+24
 2457 0b36 03EB4203 		add	r3, r3, r2, lsl #1
 2458 0b3a B3F8B835 		ldrh	r3, [r3, #1464]
 2459 0b3e 00EE103A 		vmov	s0, r3	@ int
 451:My_Top/Motor_Control/DcMotor_ClosedLoop.cpp ****     // ADC ÕĆ╝Õ╝éÕĖĖ’╝łµé¼ń®║/µ£¬µÄźńāŁµĢÅńöĄķś╗ ĶĘ│Ķ┐ćĶ«Īń«Ś
 2460              		.loc 1 451 36 view .LVU711
 2461 0b42 B8EE400A 		vcvt.f32.u32	s0, s0
 2462 0b46 9830     		adds	r0, r0, #152
 2463              	.LVL212:
 451:My_Top/Motor_Control/DcMotor_ClosedLoop.cpp ****     // ADC ÕĆ╝Õ╝éÕĖĖ’╝łµé¼ń®║/µ£¬µÄźńāŁµĢÅńöĄķś╗ ĶĘ│Ķ┐ćĶ«Īń«Ś
 2464              		.loc 1 451 36 view .LVU712
 2465 0b48 FFF7FEFF 		bl	_ZN9AvgFilter6filterEf
 2466              	.LVL213:
 453:My_Top/Motor_Control/DcMotor_ClosedLoop.cpp **** 
 2467              		.loc 1 453 5 is_stmt 1 view .LVU713
 2468 0b4c F2EE047A 		vmov.f32	s15, #1.0e+1
 2469 0b50 B4EEE70A 		vcmpe.f32	s0, s15
 2470 0b54 F1EE10FA 		vmrs	APSR_nzcv, FPSCR
 2471 0b58 08D4     		bmi	.L143
 2472 0b5a B0EE408A 		vmov.f32	s16, s0
 453:My_Top/Motor_Control/DcMotor_ClosedLoop.cpp **** 
 2473              		.loc 1 453 28 is_stmt 0 discriminator 2 view .LVU714
 2474 0b5e DFED2F7A 		vldr.32	s15, .L147+28
 2475 0b62 B4EEE70A 		vcmpe.f32	s0, s15
 2476 0b66 F1EE10FA 		vmrs	APSR_nzcv, FPSCR
 2477 0b6a 02DD     		ble	.L146
 2478              	.LVL214:
 2479              	.L143:
 2480              		.loc 1 460 1 view .LVU715
 2481 0b6c BDEC028B 		vldm	sp!, {d8}
 2482              		.cfi_remember_state
 2483              		.cfi_restore 80
 2484              		.cfi_restore 81
 2485              		.cfi_def_cfa_offset 16
 2486 0b70 D0BD     		pop	{r4, r6, r7, pc}
 2487              	.LVL215:
 2488              	.L146:
 2489              		.cfi_restore_state
 455:My_Top/Motor_Control/DcMotor_ClosedLoop.cpp **** 
 2490              		.loc 1 455 5 is_stmt 1 view .LVU716
 455:My_Top/Motor_Control/DcMotor_ClosedLoop.cpp **** 
 2491              		.loc 1 455 29 is_stmt 0 view .LVU717
 2492 0b72 DFED2B7A 		vldr.32	s15, .L147+32
 2493 0b76 77EEC07A 		vsub.f32	s15, s15, s0
 2494 0b7a 17EE900A 		vmov	r0, s15
 2495 0b7e FFF7FEFF 		bl	__aeabi_f2d
 2496              	.LVL216:
ARM GAS  /tmp/cc5lp4CL.s 			page 71


 455:My_Top/Motor_Control/DcMotor_ClosedLoop.cpp **** 
 2497              		.loc 1 455 23 view .LVU718
 2498 0b82 0022     		movs	r2, #0
 2499 0b84 274B     		ldr	r3, .L147+36
 2500 0b86 FFF7FEFF 		bl	__aeabi_dmul
 2501              	.LVL217:
 2502 0b8a 0646     		mov	r6, r0
 2503 0b8c 0F46     		mov	r7, r1
 455:My_Top/Motor_Control/DcMotor_ClosedLoop.cpp **** 
 2504              		.loc 1 455 44 view .LVU719
 2505 0b8e 18EE100A 		vmov	r0, s16
 2506 0b92 FFF7FEFF 		bl	__aeabi_f2d
 2507              	.LVL218:
 2508 0b96 0246     		mov	r2, r0
 2509 0b98 0B46     		mov	r3, r1
 455:My_Top/Motor_Control/DcMotor_ClosedLoop.cpp **** 
 2510              		.loc 1 455 42 view .LVU720
 2511 0b9a 3046     		mov	r0, r6
 2512 0b9c 3946     		mov	r1, r7
 2513 0b9e FFF7FEFF 		bl	__aeabi_ddiv
 2514              	.LVL219:
 2515 0ba2 FFF7FEFF 		bl	__aeabi_d2f
 2516              	.LVL220:
 455:My_Top/Motor_Control/DcMotor_ClosedLoop.cpp **** 
 2517              		.loc 1 455 17 view .LVU721
 2518 0ba6 A063     		str	r0, [r4, #56]	@ float
 457:My_Top/Motor_Control/DcMotor_ClosedLoop.cpp ****     
 2519              		.loc 1 457 5 is_stmt 1 view .LVU722
 457:My_Top/Motor_Control/DcMotor_ClosedLoop.cpp ****     
 2520              		.loc 1 457 37 is_stmt 0 view .LVU723
 2521 0ba8 FFF7FEFF 		bl	__aeabi_f2d
 2522              	.LVL221:
 457:My_Top/Motor_Control/DcMotor_ClosedLoop.cpp ****     
 2523              		.loc 1 457 36 view .LVU724
 2524 0bac 0022     		movs	r2, #0
 2525 0bae 1D4B     		ldr	r3, .L147+36
 2526 0bb0 FFF7FEFF 		bl	__aeabi_ddiv
 2527              	.LVL222:
 2528 0bb4 41EC100B 		vmov	d0, r0, r1
 2529 0bb8 FFF7FEFF 		bl	log
 2530              	.LVL223:
 2531 0bbc 51EC100B 		vmov	r0, r1, d0
 457:My_Top/Motor_Control/DcMotor_ClosedLoop.cpp ****     
 2532              		.loc 1 457 59 discriminator 1 view .LVU725
 2533 0bc0 0FA3     		adr	r3, .L147
 2534 0bc2 D3E90023 		ldrd	r2, [r3]
 2535 0bc6 FFF7FEFF 		bl	__aeabi_ddiv
 2536              	.LVL224:
 457:My_Top/Motor_Control/DcMotor_ClosedLoop.cpp ****     
 2537              		.loc 1 457 31 discriminator 1 view .LVU726
 2538 0bca 0FA3     		adr	r3, .L147+8
 2539 0bcc D3E90023 		ldrd	r2, [r3]
 2540 0bd0 FFF7FEFF 		bl	__aeabi_dadd
 2541              	.LVL225:
 457:My_Top/Motor_Control/DcMotor_ClosedLoop.cpp ****     
 2542              		.loc 1 457 61 discriminator 1 view .LVU727
 2543 0bd4 FFF7FEFF 		bl	__aeabi_d2f
ARM GAS  /tmp/cc5lp4CL.s 			page 72


 2544              	.LVL226:
 2545 0bd8 07EE900A 		vmov	s15, r0
 2546              	.LVL227:
 459:My_Top/Motor_Control/DcMotor_ClosedLoop.cpp **** }
 2547              		.loc 1 459 5 is_stmt 1 view .LVU728
 459:My_Top/Motor_Control/DcMotor_ClosedLoop.cpp **** }
 2548              		.loc 1 459 26 is_stmt 0 view .LVU729
 2549 0bdc B7EE007A 		vmov.f32	s14, #1.0e+0
 2550 0be0 C7EE277A 		vdiv.f32	s15, s14, s15
 2551 0be4 17EE900A 		vmov	r0, s15
 2552              	.LVL228:
 459:My_Top/Motor_Control/DcMotor_ClosedLoop.cpp **** }
 2553              		.loc 1 459 26 view .LVU730
 2554 0be8 FFF7FEFF 		bl	__aeabi_f2d
 2555              	.LVL229:
 459:My_Top/Motor_Control/DcMotor_ClosedLoop.cpp **** }
 2556              		.loc 1 459 35 view .LVU731
 2557 0bec 08A3     		adr	r3, .L147+16
 2558 0bee D3E90023 		ldrd	r2, [r3]
 2559 0bf2 FFF7FEFF 		bl	__aeabi_dsub
 2560              	.LVL230:
 2561 0bf6 FFF7FEFF 		bl	__aeabi_d2f
 2562              	.LVL231:
 459:My_Top/Motor_Control/DcMotor_ClosedLoop.cpp **** }
 2563              		.loc 1 459 18 view .LVU732
 2564 0bfa E063     		str	r0, [r4, #60]	@ float
 2565 0bfc B6E7     		b	.L143
 2566              	.L148:
 2567 0bfe 00BF     		.align	3
 2568              	.L147:
 2569 0c00 00000000 		.word	0
 2570 0c04 00DCAE40 		.word	1085201408
 2571 0c08 AA9D755E 		.word	1584766378
 2572 0c0c 034B6B3F 		.word	1063996163
 2573 0c10 66666666 		.word	1717986918
 2574 0c14 66327140 		.word	1081160294
 2575 0c18 00000000 		.word	.LANCHOR0
 2576 0c1c 00607F45 		.word	1165975552
 2577 0c20 00008045 		.word	1166016512
 2578 0c24 00002440 		.word	1076101120
 2579              		.cfi_endproc
 2580              	.LFE1361:
 2582              		.align	1
 2583              		.syntax unified
 2584              		.thumb
 2585              		.thumb_func
 2587              	_GLOBAL__sub_I__ZN8DC_Motor14selected_motorE:
 2588              	.LFB1513:
 2589              		.loc 1 460 1 is_stmt 1 view -0
 2590              		.cfi_startproc
 2591              		@ args = 0, pretend = 0, frame = 0
 2592              		@ frame_needed = 0, uses_anonymous_args = 0
 2593 0c28 08B5     		push	{r3, lr}
 2594              		.cfi_def_cfa_offset 8
 2595              		.cfi_offset 3, -8
 2596              		.cfi_offset 14, -4
 2597              		.loc 1 460 1 is_stmt 0 view .LVU734
ARM GAS  /tmp/cc5lp4CL.s 			page 73


 2598 0c2a FFF7E9F9 		bl	_Z41__static_initialization_and_destruction_0v
 2599              	.LVL232:
 2600 0c2e 08BD     		pop	{r3, pc}
 2601              		.cfi_endproc
 2602              	.LFE1513:
 2604              		.section	.init_array,"aw",%init_array
 2605              		.align	2
 2606 0000 00000000 		.word	_GLOBAL__sub_I__ZN8DC_Motor14selected_motorE(target1)
 2607              		.global	M4
 2608              		.global	M3
 2609              		.global	M2
 2610              		.global	M1
 2611              		.global	lqr_M4
 2612              		.global	pid_loc_M4
 2613              		.global	pid_spd_M4
 2614              		.global	lqr_M3
 2615              		.global	pid_loc_M3
 2616              		.global	pid_spd_M3
 2617              		.global	lqr_M2
 2618              		.global	pid_loc_M2
 2619              		.global	pid_spd_M2
 2620              		.global	lqr_M1
 2621              		.global	pid_loc_M1
 2622              		.global	pid_spd_M1
 2623              		.global	kth7111_M4
 2624              		.global	kth7111_M3
 2625              		.global	kth7111_M2
 2626              		.global	kth7111_M1
 2627              		.global	_ZN8DC_Motor9ADC_ValueE
 2628              		.global	_ZN8DC_Motor14selected_motorE
 2629              		.bss
 2630              		.align	3
 2631              		.set	.LANCHOR0,. + 0
 2634              	kth7111_M1:
 2635 0000 00000000 		.space	20
 2635      00000000 
 2635      00000000 
 2635      00000000 
 2635      00000000 
 2638              	kth7111_M2:
 2639 0014 00000000 		.space	20
 2639      00000000 
 2639      00000000 
 2639      00000000 
 2639      00000000 
 2642              	kth7111_M3:
 2643 0028 00000000 		.space	20
 2643      00000000 
 2643      00000000 
 2643      00000000 
 2643      00000000 
 2646              	kth7111_M4:
 2647 003c 00000000 		.space	20
 2647      00000000 
 2647      00000000 
 2647      00000000 
 2647      00000000 
ARM GAS  /tmp/cc5lp4CL.s 			page 74


 2650              	pid_spd_M1:
 2651 0050 00000000 		.space	36
 2651      00000000 
 2651      00000000 
 2651      00000000 
 2651      00000000 
 2654              	pid_loc_M1:
 2655 0074 00000000 		.space	56
 2655      00000000 
 2655      00000000 
 2655      00000000 
 2655      00000000 
 2658              	lqr_M1:
 2659 00ac 00000000 		.space	20
 2659      00000000 
 2659      00000000 
 2659      00000000 
 2659      00000000 
 2662              	pid_spd_M2:
 2663 00c0 00000000 		.space	36
 2663      00000000 
 2663      00000000 
 2663      00000000 
 2663      00000000 
 2666              	pid_loc_M2:
 2667 00e4 00000000 		.space	56
 2667      00000000 
 2667      00000000 
 2667      00000000 
 2667      00000000 
 2670              	lqr_M2:
 2671 011c 00000000 		.space	20
 2671      00000000 
 2671      00000000 
 2671      00000000 
 2671      00000000 
 2674              	pid_spd_M3:
 2675 0130 00000000 		.space	36
 2675      00000000 
 2675      00000000 
 2675      00000000 
 2675      00000000 
 2678              	pid_loc_M3:
 2679 0154 00000000 		.space	56
 2679      00000000 
 2679      00000000 
 2679      00000000 
 2679      00000000 
 2682              	lqr_M3:
 2683 018c 00000000 		.space	20
 2683      00000000 
 2683      00000000 
 2683      00000000 
 2683      00000000 
 2686              	pid_spd_M4:
 2687 01a0 00000000 		.space	36
 2687      00000000 
ARM GAS  /tmp/cc5lp4CL.s 			page 75


 2687      00000000 
 2687      00000000 
 2687      00000000 
 2690              	pid_loc_M4:
 2691 01c4 00000000 		.space	56
 2691      00000000 
 2691      00000000 
 2691      00000000 
 2691      00000000 
 2694              	lqr_M4:
 2695 01fc 00000000 		.space	20
 2695      00000000 
 2695      00000000 
 2695      00000000 
 2695      00000000 
 2698              	M1:
 2699 0210 00000000 		.space	232
 2699      00000000 
 2699      00000000 
 2699      00000000 
 2699      00000000 
 2702              	M2:
 2703 02f8 00000000 		.space	232
 2703      00000000 
 2703      00000000 
 2703      00000000 
 2703      00000000 
 2706              	M3:
 2707 03e0 00000000 		.space	232
 2707      00000000 
 2707      00000000 
 2707      00000000 
 2707      00000000 
 2710              	M4:
 2711 04c8 00000000 		.space	232
 2711      00000000 
 2711      00000000 
 2711      00000000 
 2711      00000000 
 2714              	_ZZN8DC_Motor28Update_Speed_Angle_LPFAndPLLEvE9fudu_test:
 2715 05b0 00000000 		.space	4
 2718              	_ZZN8DC_Motor28Update_Speed_Angle_LPFAndPLLEvE18theta_m_offic_temp:
 2719 05b4 00000000 		.space	4
 2722              	_ZN8DC_Motor9ADC_ValueE:
 2723 05b8 00000000 		.space	16
 2723      00000000 
 2723      00000000 
 2723      00000000 
 2726              	_ZN8DC_Motor14selected_motorE:
 2727 05c8 00       		.space	1
 2728              		.text
 2729              	.Letext0:
 2730              		.file 9 "/opt/arm-gnu-toolchain-14.2/arm-none-eabi/include/machine/_default_types.h"
 2731              		.file 10 "/opt/arm-gnu-toolchain-14.2/arm-none-eabi/include/sys/_stdint.h"
 2732              		.file 11 "/opt/arm-gnu-toolchain-14.2/arm-none-eabi/include/c++/14.2.1/type_traits"
 2733              		.file 12 "/opt/arm-gnu-toolchain-14.2/arm-none-eabi/include/c++/14.2.1/debug/debug.h"
 2734              		.file 13 "/opt/arm-gnu-toolchain-14.2/arm-none-eabi/include/c++/14.2.1/bits/std_abs.h"
ARM GAS  /tmp/cc5lp4CL.s 			page 76


 2735              		.file 14 "/opt/arm-gnu-toolchain-14.2/arm-none-eabi/include/c++/14.2.1/bits/predefined_ops.h"
 2736              		.file 15 "/opt/arm-gnu-toolchain-14.2/arm-none-eabi/include/math.h"
 2737              		.file 16 "/opt/arm-gnu-toolchain-14.2/arm-none-eabi/include/c++/14.2.1/arm-none-eabi/thumb/v7e-m+f
 2738              		.file 17 "/opt/arm-gnu-toolchain-14.2/arm-none-eabi/include/c++/14.2.1/math.h"
 2739              		.file 18 "Lib/compute/ex_math.hpp"
 2740              		.file 19 "Drivers/CMSIS/Device/ST/STM32G4xx/Include/stm32g474xx.h"
 2741              		.file 20 "Drivers/STM32G4xx_HAL_Driver/Inc/stm32g4xx_hal_def.h"
 2742              		.file 21 "Drivers/STM32G4xx_HAL_Driver/Inc/stm32g4xx_hal_dma.h"
 2743              		.file 22 "Drivers/STM32G4xx_HAL_Driver/Inc/stm32g4xx_hal_spi.h"
 2744              		.file 23 "Drivers/STM32G4xx_HAL_Driver/Inc/stm32g4xx_hal_tim.h"
 2745              		.file 24 "My_Top/System/bsp.hpp"
 2746              		.file 25 "Core/Inc/tim.h"
 2747              		.file 26 "Middlewares/Third_Party/FreeRTOS/Source/portable/GCC/ARM_CM4F/portmacro.h"
 2748              		.file 27 "My_Top/System/Motor_Param.hpp"
 2749              		.file 28 "Drivers/STM32G4xx_HAL_Driver/Inc/stm32g4xx_hal_tim_ex.h"
 2750              		.file 29 "Middlewares/Third_Party/FreeRTOS/Source/include/task.h"
 2751              		.file 30 "Drivers/STM32G4xx_HAL_Driver/Inc/stm32g4xx_hal_rcc.h"
ARM GAS  /tmp/cc5lp4CL.s 			page 77


DEFINED SYMBOLS
                            *ABS*:00000000 DcMotor_ClosedLoop.cpp
     /tmp/cc5lp4CL.s:21     .text._ZN13PID_Increment6updateEf:00000000 $t
     /tmp/cc5lp4CL.s:27     .text._ZN13PID_Increment6updateEf:00000000 _ZN13PID_Increment6updateEf
     /tmp/cc5lp4CL.s:121    .text._ZN8DC_MotorC2EPK15MotorPWM_ConfigP7KTH7111P13PID_IncrementP3PIDP3LQR:00000000 $t
     /tmp/cc5lp4CL.s:127    .text._ZN8DC_MotorC2EPK15MotorPWM_ConfigP7KTH7111P13PID_IncrementP3PIDP3LQR:00000000 _ZN8DC_MotorC2EPK15MotorPWM_ConfigP7KTH7111P13PID_IncrementP3PIDP3LQR
     /tmp/cc5lp4CL.s:215    .text._ZN8DC_MotorC2EPK15MotorPWM_ConfigP7KTH7111P13PID_IncrementP3PIDP3LQR:00000080 $d
     /tmp/cc5lp4CL.s:127    .text._ZN8DC_MotorC2EPK15MotorPWM_ConfigP7KTH7111P13PID_IncrementP3PIDP3LQR:00000000 _ZN8DC_MotorC1EPK15MotorPWM_ConfigP7KTH7111P13PID_IncrementP3PIDP3LQR
     /tmp/cc5lp4CL.s:226    .text:00000000 $t
     /tmp/cc5lp4CL.s:231    .text:00000000 _Z41__static_initialization_and_destruction_0v
     /tmp/cc5lp4CL.s:771    .text:0000029c $d
     /tmp/cc5lp4CL.s:792    .text:000002e4 $t
     /tmp/cc5lp4CL.s:798    .text:000002e4 _ZN8DC_Motor9test_lajiEv
     /tmp/cc5lp4CL.s:854    .text:00000318 $d
     /tmp/cc5lp4CL.s:858    .text:0000031c $t
     /tmp/cc5lp4CL.s:864    .text:0000031c _ZN8DC_Motor8Motor_ENEb
     /tmp/cc5lp4CL.s:982    .text:00000394 _ZN8DC_Motor17My_DC_Motor_ResetEv
     /tmp/cc5lp4CL.s:1079   .text:000003d8 $d
     /tmp/cc5lp4CL.s:1084   .text:000003e0 $t
     /tmp/cc5lp4CL.s:1090   .text:000003e0 _ZN8DC_Motor19Set_Motor_FrequencyEv
     /tmp/cc5lp4CL.s:1264   .text:000004d2 $d
     /tmp/cc5lp4CL.s:1349   .text:0000058c $d
     /tmp/cc5lp4CL.s:1458   .text:00000640 $d
     /tmp/cc5lp4CL.s:1463   .text:00000648 $t
     /tmp/cc5lp4CL.s:1469   .text:00000648 _ZN8DC_Motor18Set_Motor_Glo_DutyEv
     /tmp/cc5lp4CL.s:1588   .text:000006e8 $d
     /tmp/cc5lp4CL.s:1594   .text:000006f4 $t
     /tmp/cc5lp4CL.s:1600   .text:000006f4 _ZN8DC_Motor16My_DC_Motor_InitEv
     /tmp/cc5lp4CL.s:1705   .text:00000770 $d
     /tmp/cc5lp4CL.s:1709   .text:00000774 $t
     /tmp/cc5lp4CL.s:1715   .text:00000774 _ZN8DC_Motor28Update_Speed_Angle_LPFAndPLLEv
     /tmp/cc5lp4CL.s:1962   .text:000008d8 $d
     /tmp/cc5lp4CL.s:1974   .text:000008fc $t
     /tmp/cc5lp4CL.s:1980   .text:000008fc _ZN8DC_Motor10Speed_LoopEv
     /tmp/cc5lp4CL.s:2033   .text:00000926 _ZN8DC_Motor13Location_LoopEv
     /tmp/cc5lp4CL.s:2407   .text:00000af0 $d
     /tmp/cc5lp4CL.s:2423   .text:00000b24 $t
     /tmp/cc5lp4CL.s:2429   .text:00000b24 _ZN8DC_Motor15Thermistor_TempEv
     /tmp/cc5lp4CL.s:2569   .text:00000c00 $d
     /tmp/cc5lp4CL.s:2582   .text:00000c28 $t
     /tmp/cc5lp4CL.s:2587   .text:00000c28 _GLOBAL__sub_I__ZN8DC_Motor14selected_motorE
     /tmp/cc5lp4CL.s:2605   .init_array:00000000 $d
     /tmp/cc5lp4CL.s:2710   .bss:000004c8 M4
     /tmp/cc5lp4CL.s:2706   .bss:000003e0 M3
     /tmp/cc5lp4CL.s:2702   .bss:000002f8 M2
     /tmp/cc5lp4CL.s:2698   .bss:00000210 M1
     /tmp/cc5lp4CL.s:2694   .bss:000001fc lqr_M4
     /tmp/cc5lp4CL.s:2690   .bss:000001c4 pid_loc_M4
     /tmp/cc5lp4CL.s:2686   .bss:000001a0 pid_spd_M4
     /tmp/cc5lp4CL.s:2682   .bss:0000018c lqr_M3
     /tmp/cc5lp4CL.s:2678   .bss:00000154 pid_loc_M3
     /tmp/cc5lp4CL.s:2674   .bss:00000130 pid_spd_M3
     /tmp/cc5lp4CL.s:2670   .bss:0000011c lqr_M2
     /tmp/cc5lp4CL.s:2666   .bss:000000e4 pid_loc_M2
     /tmp/cc5lp4CL.s:2662   .bss:000000c0 pid_spd_M2
     /tmp/cc5lp4CL.s:2658   .bss:000000ac lqr_M1
     /tmp/cc5lp4CL.s:2654   .bss:00000074 pid_loc_M1
ARM GAS  /tmp/cc5lp4CL.s 			page 78


     /tmp/cc5lp4CL.s:2650   .bss:00000050 pid_spd_M1
     /tmp/cc5lp4CL.s:2646   .bss:0000003c kth7111_M4
     /tmp/cc5lp4CL.s:2642   .bss:00000028 kth7111_M3
     /tmp/cc5lp4CL.s:2638   .bss:00000014 kth7111_M2
     /tmp/cc5lp4CL.s:2634   .bss:00000000 kth7111_M1
     /tmp/cc5lp4CL.s:2722   .bss:000005b8 _ZN8DC_Motor9ADC_ValueE
     /tmp/cc5lp4CL.s:2726   .bss:000005c8 _ZN8DC_Motor14selected_motorE
     /tmp/cc5lp4CL.s:2630   .bss:00000000 $d
     /tmp/cc5lp4CL.s:2714   .bss:000005b0 _ZZN8DC_Motor28Update_Speed_Angle_LPFAndPLLEvE9fudu_test
     /tmp/cc5lp4CL.s:2718   .bss:000005b4 _ZZN8DC_Motor28Update_Speed_Angle_LPFAndPLLEvE18theta_m_offic_temp
     /tmp/cc5lp4CL.s:1281   .text:000004e3 $d
     /tmp/cc5lp4CL.s:1281   .text:000004e4 $t
     /tmp/cc5lp4CL.s:1366   .text:0000059d $d
     /tmp/cc5lp4CL.s:1366   .text:0000059e $t
                           .group:00000000 _ZN8DC_MotorC5EPK15MotorPWM_ConfigP7KTH7111P13PID_IncrementP3PIDP3LQR

UNDEFINED SYMBOLS
M1_PWM
M2_PWM
M3_PWM
M4_PWM
HAL_TIM_PWM_Start
HAL_TIMEx_PWMN_Start
htim1
HAL_TIM_PWM_Stop
HAL_TIMEx_PWMN_Stop
__aeabi_f2d
__aeabi_dmul
__aeabi_d2f
HAL_RCC_GetSysClockFreq
_ZN13LowpassFilter4initEf
_ZN9AvgFilter4initEh
vTaskDelay
_ZN7KTH711112KTH7111_InitEb
_ZN7KTH711121KTH7111_Send_JIAO_CMDEv
_ZN7KTH711118Get_KTH7111_RadianEv
__aeabi_dadd
fmodf
__aeabi_dsub
_ZN13LowpassFilter6filterEf
_ZN9AvgFilter6filterEf
_Z11foc_pll_runffPfS_P13PLL_Parameter
__aeabi_dcmpgt
__aeabi_dcmplt
__aeabi_ddiv
log
