ARM GAS  /tmp/ccb99Ich.s 			page 1


   1              		.cpu cortex-m4
   2              		.arch armv7e-m
   3              		.fpu fpv4-sp-d16
   4              		.eabi_attribute 27, 1
   5              		.eabi_attribute 28, 1
   6              		.eabi_attribute 20, 1
   7              		.eabi_attribute 21, 1
   8              		.eabi_attribute 23, 3
   9              		.eabi_attribute 24, 1
  10              		.eabi_attribute 25, 1
  11              		.eabi_attribute 26, 1
  12              		.eabi_attribute 30, 1
  13              		.eabi_attribute 34, 1
  14              		.eabi_attribute 18, 4
  15              		.file	"embedded_cli.c"
  16              		.text
  17              	.Ltext0:
  18              		.cfi_sections	.debug_frame
  19              		.file 1 "Lib/embedded-cli/embedded_cli.c"
  20              		.section	.text.writeToOutput,"ax",%progbits
  21              		.align	1
  22              		.syntax unified
  23              		.thumb
  24              		.thumb_func
  26              	writeToOutput:
  27              	.LVL0:
  28              	.LFB34:
   1:Lib/embedded-cli/embedded_cli.c **** #include <stdlib.h>
   2:Lib/embedded-cli/embedded_cli.c **** #include <string.h>
   3:Lib/embedded-cli/embedded_cli.c **** #include <stdio.h>
   4:Lib/embedded-cli/embedded_cli.c **** 
   5:Lib/embedded-cli/embedded_cli.c **** #include "embedded_cli.h"
   6:Lib/embedded-cli/embedded_cli.c **** 
   7:Lib/embedded-cli/embedded_cli.c **** /**********/
   8:Lib/embedded-cli/embedded_cli.c **** 
   9:Lib/embedded-cli/embedded_cli.c **** #include "FreeRTOS.h"
  10:Lib/embedded-cli/embedded_cli.c **** 
  11:Lib/embedded-cli/embedded_cli.c **** #define malloc(size) pvPortMalloc(size)
  12:Lib/embedded-cli/embedded_cli.c **** #define free(ptr) vPortFree(ptr)
  13:Lib/embedded-cli/embedded_cli.c **** 
  14:Lib/embedded-cli/embedded_cli.c **** /**********/
  15:Lib/embedded-cli/embedded_cli.c **** 
  16:Lib/embedded-cli/embedded_cli.c **** #define CLI_TOKEN_NPOS 0xffff
  17:Lib/embedded-cli/embedded_cli.c **** 
  18:Lib/embedded-cli/embedded_cli.c **** #ifndef UNUSED
  19:Lib/embedded-cli/embedded_cli.c **** #define UNUSED(x) (void)x
  20:Lib/embedded-cli/embedded_cli.c **** #endif
  21:Lib/embedded-cli/embedded_cli.c **** 
  22:Lib/embedded-cli/embedded_cli.c **** #define PREPARE_IMPL(t) \
  23:Lib/embedded-cli/embedded_cli.c ****   EmbeddedCliImpl* impl = (EmbeddedCliImpl*)t->_impl
  24:Lib/embedded-cli/embedded_cli.c **** 
  25:Lib/embedded-cli/embedded_cli.c **** #define IS_FLAG_SET(flags, flag) (((flags) & (flag)) != 0)
  26:Lib/embedded-cli/embedded_cli.c **** 
  27:Lib/embedded-cli/embedded_cli.c **** #define SET_FLAG(flags, flag) ((flags) |= (flag))
  28:Lib/embedded-cli/embedded_cli.c **** 
  29:Lib/embedded-cli/embedded_cli.c **** #define UNSET_U8FLAG(flags, flag) ((flags) &= (uint8_t) ~(flag))
  30:Lib/embedded-cli/embedded_cli.c **** 
ARM GAS  /tmp/ccb99Ich.s 			page 2


  31:Lib/embedded-cli/embedded_cli.c **** /**
  32:Lib/embedded-cli/embedded_cli.c ****  * Marks binding as candidate for autocompletion
  33:Lib/embedded-cli/embedded_cli.c ****  * This flag is updated each time getAutocompletedCommand is called
  34:Lib/embedded-cli/embedded_cli.c ****  */
  35:Lib/embedded-cli/embedded_cli.c **** #define BINDING_FLAG_AUTOCOMPLETE 1u
  36:Lib/embedded-cli/embedded_cli.c **** 
  37:Lib/embedded-cli/embedded_cli.c **** /**
  38:Lib/embedded-cli/embedded_cli.c ****  * Indicates that rx buffer overflow happened. In such case last command
  39:Lib/embedded-cli/embedded_cli.c ****  * that wasn't finished (no \r or \n were received) will be discarded
  40:Lib/embedded-cli/embedded_cli.c ****  */
  41:Lib/embedded-cli/embedded_cli.c **** #define CLI_FLAG_OVERFLOW 0x01u
  42:Lib/embedded-cli/embedded_cli.c **** 
  43:Lib/embedded-cli/embedded_cli.c **** /**
  44:Lib/embedded-cli/embedded_cli.c ****  * Indicates that initialization is completed. Initialization is completed in
  45:Lib/embedded-cli/embedded_cli.c ****  * first call to process and needed, for example, to print invitation message.
  46:Lib/embedded-cli/embedded_cli.c ****  */
  47:Lib/embedded-cli/embedded_cli.c **** #define CLI_FLAG_INIT_COMPLETE 0x02u
  48:Lib/embedded-cli/embedded_cli.c **** 
  49:Lib/embedded-cli/embedded_cli.c **** /**
  50:Lib/embedded-cli/embedded_cli.c ****  * Indicates that CLI structure and internal structures were allocated with
  51:Lib/embedded-cli/embedded_cli.c ****  * malloc and should be freed
  52:Lib/embedded-cli/embedded_cli.c ****  */
  53:Lib/embedded-cli/embedded_cli.c **** #define CLI_FLAG_ALLOCATED 0x04u
  54:Lib/embedded-cli/embedded_cli.c **** 
  55:Lib/embedded-cli/embedded_cli.c **** /**
  56:Lib/embedded-cli/embedded_cli.c ****  * Indicates that escape mode is enabled.
  57:Lib/embedded-cli/embedded_cli.c ****  */
  58:Lib/embedded-cli/embedded_cli.c **** #define CLI_FLAG_ESCAPE_MODE 0x08u
  59:Lib/embedded-cli/embedded_cli.c **** 
  60:Lib/embedded-cli/embedded_cli.c **** /**
  61:Lib/embedded-cli/embedded_cli.c ****  * Indicates that CLI in mode when it will print directly to output without
  62:Lib/embedded-cli/embedded_cli.c ****  * clear of current command and printing it back
  63:Lib/embedded-cli/embedded_cli.c ****  */
  64:Lib/embedded-cli/embedded_cli.c **** #define CLI_FLAG_DIRECT_PRINT 0x10u
  65:Lib/embedded-cli/embedded_cli.c **** 
  66:Lib/embedded-cli/embedded_cli.c **** /**
  67:Lib/embedded-cli/embedded_cli.c ****  * Indicates that live autocompletion is enabled
  68:Lib/embedded-cli/embedded_cli.c ****  */
  69:Lib/embedded-cli/embedded_cli.c **** #define CLI_FLAG_AUTOCOMPLETE_ENABLED 0x20u
  70:Lib/embedded-cli/embedded_cli.c **** 
  71:Lib/embedded-cli/embedded_cli.c **** /**
  72:Lib/embedded-cli/embedded_cli.c **** * Indicates that cursor direction should be forward
  73:Lib/embedded-cli/embedded_cli.c **** */
  74:Lib/embedded-cli/embedded_cli.c **** #define CURSOR_DIRECTION_FORWARD true
  75:Lib/embedded-cli/embedded_cli.c **** 
  76:Lib/embedded-cli/embedded_cli.c **** /**
  77:Lib/embedded-cli/embedded_cli.c **** * Indicates that cursor direction should be backward
  78:Lib/embedded-cli/embedded_cli.c **** */
  79:Lib/embedded-cli/embedded_cli.c **** #define CURSOR_DIRECTION_BACKWARD false
  80:Lib/embedded-cli/embedded_cli.c **** 
  81:Lib/embedded-cli/embedded_cli.c **** typedef struct EmbeddedCliImpl EmbeddedCliImpl;
  82:Lib/embedded-cli/embedded_cli.c **** typedef struct AutocompletedCommand AutocompletedCommand;
  83:Lib/embedded-cli/embedded_cli.c **** typedef struct FifoBuf FifoBuf;
  84:Lib/embedded-cli/embedded_cli.c **** typedef struct CliHistory CliHistory;
  85:Lib/embedded-cli/embedded_cli.c **** 
  86:Lib/embedded-cli/embedded_cli.c **** struct FifoBuf {
  87:Lib/embedded-cli/embedded_cli.c ****     char *buf;
ARM GAS  /tmp/ccb99Ich.s 			page 3


  88:Lib/embedded-cli/embedded_cli.c ****     /**
  89:Lib/embedded-cli/embedded_cli.c ****      * Position of first element in buffer. From this position elements are taken
  90:Lib/embedded-cli/embedded_cli.c ****      */
  91:Lib/embedded-cli/embedded_cli.c ****     uint16_t front;
  92:Lib/embedded-cli/embedded_cli.c ****     /**
  93:Lib/embedded-cli/embedded_cli.c ****      * Position after last element. At this position new elements are inserted
  94:Lib/embedded-cli/embedded_cli.c ****      */
  95:Lib/embedded-cli/embedded_cli.c ****     uint16_t back;
  96:Lib/embedded-cli/embedded_cli.c ****     /**
  97:Lib/embedded-cli/embedded_cli.c ****      * Size of buffer
  98:Lib/embedded-cli/embedded_cli.c ****      */
  99:Lib/embedded-cli/embedded_cli.c ****     uint16_t size;
 100:Lib/embedded-cli/embedded_cli.c **** };
 101:Lib/embedded-cli/embedded_cli.c **** 
 102:Lib/embedded-cli/embedded_cli.c **** struct CliHistory {
 103:Lib/embedded-cli/embedded_cli.c ****     /**
 104:Lib/embedded-cli/embedded_cli.c ****      * Items in buffer are separated by null-chars
 105:Lib/embedded-cli/embedded_cli.c ****      */
 106:Lib/embedded-cli/embedded_cli.c ****     char *buf;
 107:Lib/embedded-cli/embedded_cli.c **** 
 108:Lib/embedded-cli/embedded_cli.c ****     /**
 109:Lib/embedded-cli/embedded_cli.c ****      * Total size of buffer
 110:Lib/embedded-cli/embedded_cli.c ****      */
 111:Lib/embedded-cli/embedded_cli.c ****     uint16_t bufferSize;
 112:Lib/embedded-cli/embedded_cli.c **** 
 113:Lib/embedded-cli/embedded_cli.c ****     /**
 114:Lib/embedded-cli/embedded_cli.c ****      * Index of currently selected element. This allows to navigate history
 115:Lib/embedded-cli/embedded_cli.c ****      * After command is sent, current element is reset to 0 (no element)
 116:Lib/embedded-cli/embedded_cli.c ****      */
 117:Lib/embedded-cli/embedded_cli.c ****     uint16_t current;
 118:Lib/embedded-cli/embedded_cli.c **** 
 119:Lib/embedded-cli/embedded_cli.c ****     /**
 120:Lib/embedded-cli/embedded_cli.c ****      * Number of items in buffer
 121:Lib/embedded-cli/embedded_cli.c ****      * Items are counted from top to bottom (and are 1 based).
 122:Lib/embedded-cli/embedded_cli.c ****      * So the most recent item is 1 and the oldest is itemCount.
 123:Lib/embedded-cli/embedded_cli.c ****      */
 124:Lib/embedded-cli/embedded_cli.c ****     uint16_t itemsCount;
 125:Lib/embedded-cli/embedded_cli.c **** };
 126:Lib/embedded-cli/embedded_cli.c **** 
 127:Lib/embedded-cli/embedded_cli.c **** struct EmbeddedCliImpl {
 128:Lib/embedded-cli/embedded_cli.c ****     /**
 129:Lib/embedded-cli/embedded_cli.c ****      * Invitation string. Is printed at the beginning of each line with user
 130:Lib/embedded-cli/embedded_cli.c ****      * input
 131:Lib/embedded-cli/embedded_cli.c ****      */
 132:Lib/embedded-cli/embedded_cli.c ****     const char *invitation;
 133:Lib/embedded-cli/embedded_cli.c **** 
 134:Lib/embedded-cli/embedded_cli.c ****     CliHistory history;
 135:Lib/embedded-cli/embedded_cli.c **** 
 136:Lib/embedded-cli/embedded_cli.c ****     /**
 137:Lib/embedded-cli/embedded_cli.c ****      * Buffer for storing received chars.
 138:Lib/embedded-cli/embedded_cli.c ****      * Chars are stored in FIFO mode.
 139:Lib/embedded-cli/embedded_cli.c ****      */
 140:Lib/embedded-cli/embedded_cli.c ****     FifoBuf rxBuffer;
 141:Lib/embedded-cli/embedded_cli.c **** 
 142:Lib/embedded-cli/embedded_cli.c ****     /**
 143:Lib/embedded-cli/embedded_cli.c ****      * Buffer for current command
 144:Lib/embedded-cli/embedded_cli.c ****      */
ARM GAS  /tmp/ccb99Ich.s 			page 4


 145:Lib/embedded-cli/embedded_cli.c ****     char *cmdBuffer;
 146:Lib/embedded-cli/embedded_cli.c **** 
 147:Lib/embedded-cli/embedded_cli.c ****     /**
 148:Lib/embedded-cli/embedded_cli.c ****      * Size of current command
 149:Lib/embedded-cli/embedded_cli.c ****      */
 150:Lib/embedded-cli/embedded_cli.c ****     uint16_t cmdSize;
 151:Lib/embedded-cli/embedded_cli.c **** 
 152:Lib/embedded-cli/embedded_cli.c ****     /**
 153:Lib/embedded-cli/embedded_cli.c ****      * Total size of command buffer
 154:Lib/embedded-cli/embedded_cli.c ****      */
 155:Lib/embedded-cli/embedded_cli.c ****     uint16_t cmdMaxSize;
 156:Lib/embedded-cli/embedded_cli.c **** 
 157:Lib/embedded-cli/embedded_cli.c ****     CliCommandBinding *bindings;
 158:Lib/embedded-cli/embedded_cli.c **** 
 159:Lib/embedded-cli/embedded_cli.c ****     /**
 160:Lib/embedded-cli/embedded_cli.c ****      * Flags for each binding. Sizes are the same as for bindings array
 161:Lib/embedded-cli/embedded_cli.c ****      */
 162:Lib/embedded-cli/embedded_cli.c ****     uint8_t *bindingsFlags;
 163:Lib/embedded-cli/embedded_cli.c **** 
 164:Lib/embedded-cli/embedded_cli.c ****     uint16_t bindingsCount;
 165:Lib/embedded-cli/embedded_cli.c **** 
 166:Lib/embedded-cli/embedded_cli.c ****     uint16_t maxBindingsCount;
 167:Lib/embedded-cli/embedded_cli.c **** 
 168:Lib/embedded-cli/embedded_cli.c ****     /**
 169:Lib/embedded-cli/embedded_cli.c ****      * Total length of input line. This doesn't include invitation but
 170:Lib/embedded-cli/embedded_cli.c ****      * includes current command and its live autocompletion
 171:Lib/embedded-cli/embedded_cli.c ****      */
 172:Lib/embedded-cli/embedded_cli.c ****     uint16_t inputLineLength;
 173:Lib/embedded-cli/embedded_cli.c **** 
 174:Lib/embedded-cli/embedded_cli.c ****     /**
 175:Lib/embedded-cli/embedded_cli.c ****      * Stores last character that was processed.
 176:Lib/embedded-cli/embedded_cli.c ****      */
 177:Lib/embedded-cli/embedded_cli.c ****     char lastChar;
 178:Lib/embedded-cli/embedded_cli.c **** 
 179:Lib/embedded-cli/embedded_cli.c ****     /**
 180:Lib/embedded-cli/embedded_cli.c ****      * Flags are defined as CLI_FLAG_*
 181:Lib/embedded-cli/embedded_cli.c ****      */
 182:Lib/embedded-cli/embedded_cli.c ****     uint8_t flags;
 183:Lib/embedded-cli/embedded_cli.c **** 
 184:Lib/embedded-cli/embedded_cli.c ****     /**
 185:Lib/embedded-cli/embedded_cli.c ****      * Cursor position for current command from right to left 
 186:Lib/embedded-cli/embedded_cli.c ****      * 0 = end of command
 187:Lib/embedded-cli/embedded_cli.c ****      */
 188:Lib/embedded-cli/embedded_cli.c ****     uint16_t cursorPos;
 189:Lib/embedded-cli/embedded_cli.c **** };
 190:Lib/embedded-cli/embedded_cli.c **** 
 191:Lib/embedded-cli/embedded_cli.c **** struct AutocompletedCommand {
 192:Lib/embedded-cli/embedded_cli.c ****     /**
 193:Lib/embedded-cli/embedded_cli.c ****      * Name of autocompleted command (or first candidate for autocompletion if
 194:Lib/embedded-cli/embedded_cli.c ****      * there are multiple candidates).
 195:Lib/embedded-cli/embedded_cli.c ****      * NULL if autocomplete not possible.
 196:Lib/embedded-cli/embedded_cli.c ****      */
 197:Lib/embedded-cli/embedded_cli.c ****     const char *firstCandidate;
 198:Lib/embedded-cli/embedded_cli.c **** 
 199:Lib/embedded-cli/embedded_cli.c ****     /**
 200:Lib/embedded-cli/embedded_cli.c ****      * Number of characters that can be completed safely. For example, if there
 201:Lib/embedded-cli/embedded_cli.c ****      * are two possible commands "get-led" and "get-adc", then for prefix "g"
ARM GAS  /tmp/ccb99Ich.s 			page 5


 202:Lib/embedded-cli/embedded_cli.c ****      * autocompletedLen will be 4. If there are only one candidate, this number
 203:Lib/embedded-cli/embedded_cli.c ****      * is always equal to length of the command.
 204:Lib/embedded-cli/embedded_cli.c ****      */
 205:Lib/embedded-cli/embedded_cli.c ****     uint16_t autocompletedLen;
 206:Lib/embedded-cli/embedded_cli.c **** 
 207:Lib/embedded-cli/embedded_cli.c ****     /**
 208:Lib/embedded-cli/embedded_cli.c ****      * Total number of candidates for autocompletion
 209:Lib/embedded-cli/embedded_cli.c ****      */
 210:Lib/embedded-cli/embedded_cli.c ****     uint16_t candidateCount;
 211:Lib/embedded-cli/embedded_cli.c **** };
 212:Lib/embedded-cli/embedded_cli.c **** 
 213:Lib/embedded-cli/embedded_cli.c **** static EmbeddedCliConfig defaultConfig;
 214:Lib/embedded-cli/embedded_cli.c **** 
 215:Lib/embedded-cli/embedded_cli.c **** /**
 216:Lib/embedded-cli/embedded_cli.c ****  * Number of commands that cli adds. Commands:
 217:Lib/embedded-cli/embedded_cli.c ****  * - help
 218:Lib/embedded-cli/embedded_cli.c ****  */
 219:Lib/embedded-cli/embedded_cli.c **** static const uint16_t cliInternalBindingCount = 1;
 220:Lib/embedded-cli/embedded_cli.c **** 
 221:Lib/embedded-cli/embedded_cli.c **** static const char *lineBreak = "\r\n";
 222:Lib/embedded-cli/embedded_cli.c **** 
 223:Lib/embedded-cli/embedded_cli.c **** /* References for VT100 escape sequences: 
 224:Lib/embedded-cli/embedded_cli.c ****  * https://learn.microsoft.com/en-us/windows/console/console-virtual-terminal-sequences 
 225:Lib/embedded-cli/embedded_cli.c ****  * https://ecma-international.org/publications-and-standards/standards/ecma-48/
 226:Lib/embedded-cli/embedded_cli.c ****  */
 227:Lib/embedded-cli/embedded_cli.c **** 
 228:Lib/embedded-cli/embedded_cli.c **** /** Escape sequence - Cursor forward (right) */
 229:Lib/embedded-cli/embedded_cli.c **** static const char *escSeqCursorRight = "\x1B[C";
 230:Lib/embedded-cli/embedded_cli.c **** 
 231:Lib/embedded-cli/embedded_cli.c **** /** Escape sequence - Cursor backward (left) */
 232:Lib/embedded-cli/embedded_cli.c **** static const char *escSeqCursorLeft = "\x1B[D";
 233:Lib/embedded-cli/embedded_cli.c **** 
 234:Lib/embedded-cli/embedded_cli.c **** /** Escape sequence - Cursor save position */
 235:Lib/embedded-cli/embedded_cli.c **** static const char *escSeqCursorSave = "\x1B[s";
 236:Lib/embedded-cli/embedded_cli.c **** 
 237:Lib/embedded-cli/embedded_cli.c **** /** Escape sequence - Cursor restore position */
 238:Lib/embedded-cli/embedded_cli.c **** static const char *escSeqCursorRestore = "\x1B[u";
 239:Lib/embedded-cli/embedded_cli.c **** 
 240:Lib/embedded-cli/embedded_cli.c **** /** Escape sequence - Cursor insert character (ICH) */
 241:Lib/embedded-cli/embedded_cli.c **** static const char *escSeqInsertChar = "\x1B[@";
 242:Lib/embedded-cli/embedded_cli.c **** 
 243:Lib/embedded-cli/embedded_cli.c **** /** Escape sequence - Cursor delete character (DCH) */
 244:Lib/embedded-cli/embedded_cli.c **** static const char *escSeqDeleteChar = "\x1B[P";
 245:Lib/embedded-cli/embedded_cli.c **** 
 246:Lib/embedded-cli/embedded_cli.c **** /**
 247:Lib/embedded-cli/embedded_cli.c ****  * Navigate through command history back and forth. If navigateUp is true,
 248:Lib/embedded-cli/embedded_cli.c ****  * navigate to older commands, otherwise navigate to newer.
 249:Lib/embedded-cli/embedded_cli.c ****  * When history end is reached, nothing happens.
 250:Lib/embedded-cli/embedded_cli.c ****  * @param cli
 251:Lib/embedded-cli/embedded_cli.c ****  * @param navigateUp
 252:Lib/embedded-cli/embedded_cli.c ****  */
 253:Lib/embedded-cli/embedded_cli.c **** static void navigateHistory(EmbeddedCli *cli, bool navigateUp);
 254:Lib/embedded-cli/embedded_cli.c **** 
 255:Lib/embedded-cli/embedded_cli.c **** /**
 256:Lib/embedded-cli/embedded_cli.c ****  * Process escaped character. After receiving ESC+[ sequence, all chars up to
 257:Lib/embedded-cli/embedded_cli.c ****  * ending character are sent to this function
 258:Lib/embedded-cli/embedded_cli.c ****  * @param cli
ARM GAS  /tmp/ccb99Ich.s 			page 6


 259:Lib/embedded-cli/embedded_cli.c ****  * @param c
 260:Lib/embedded-cli/embedded_cli.c ****  */
 261:Lib/embedded-cli/embedded_cli.c **** static void onEscapedInput(EmbeddedCli *cli, char c);
 262:Lib/embedded-cli/embedded_cli.c **** 
 263:Lib/embedded-cli/embedded_cli.c **** /**
 264:Lib/embedded-cli/embedded_cli.c ****  * Process input character. Character is valid displayable char and should be
 265:Lib/embedded-cli/embedded_cli.c ****  * added to current command string and displayed to client.
 266:Lib/embedded-cli/embedded_cli.c ****  * @param cli
 267:Lib/embedded-cli/embedded_cli.c ****  * @param c
 268:Lib/embedded-cli/embedded_cli.c ****  */
 269:Lib/embedded-cli/embedded_cli.c **** static void onCharInput(EmbeddedCli *cli, char c);
 270:Lib/embedded-cli/embedded_cli.c **** 
 271:Lib/embedded-cli/embedded_cli.c **** /**
 272:Lib/embedded-cli/embedded_cli.c ****  * Process control character (like \r or \n) possibly altering state of current
 273:Lib/embedded-cli/embedded_cli.c ****  * command or executing onCommand callback.
 274:Lib/embedded-cli/embedded_cli.c ****  * @param cli
 275:Lib/embedded-cli/embedded_cli.c ****  * @param c
 276:Lib/embedded-cli/embedded_cli.c ****  */
 277:Lib/embedded-cli/embedded_cli.c **** static void onControlInput(EmbeddedCli *cli, char c);
 278:Lib/embedded-cli/embedded_cli.c **** 
 279:Lib/embedded-cli/embedded_cli.c **** /**
 280:Lib/embedded-cli/embedded_cli.c ****  * Parse command in buffer and execute callback
 281:Lib/embedded-cli/embedded_cli.c ****  * @param cli
 282:Lib/embedded-cli/embedded_cli.c ****  */
 283:Lib/embedded-cli/embedded_cli.c **** static void parseCommand(EmbeddedCli *cli);
 284:Lib/embedded-cli/embedded_cli.c **** 
 285:Lib/embedded-cli/embedded_cli.c **** /**
 286:Lib/embedded-cli/embedded_cli.c ****  * Print help for given binding (if it is set)
 287:Lib/embedded-cli/embedded_cli.c ****  * @param binding
 288:Lib/embedded-cli/embedded_cli.c ****  */
 289:Lib/embedded-cli/embedded_cli.c **** static void printBindingHelp(EmbeddedCli *cli, CliCommandBinding *binding);
 290:Lib/embedded-cli/embedded_cli.c **** 
 291:Lib/embedded-cli/embedded_cli.c **** /**
 292:Lib/embedded-cli/embedded_cli.c ****  * Setup bindings for internal commands, like help
 293:Lib/embedded-cli/embedded_cli.c ****  * @param cli
 294:Lib/embedded-cli/embedded_cli.c ****  */
 295:Lib/embedded-cli/embedded_cli.c **** static void initInternalBindings(EmbeddedCli *cli);
 296:Lib/embedded-cli/embedded_cli.c **** 
 297:Lib/embedded-cli/embedded_cli.c **** /**
 298:Lib/embedded-cli/embedded_cli.c ****  * Show help for given tokens (or default help if no tokens)
 299:Lib/embedded-cli/embedded_cli.c ****  * @param cli
 300:Lib/embedded-cli/embedded_cli.c ****  * @param tokens
 301:Lib/embedded-cli/embedded_cli.c ****  * @param context - not used
 302:Lib/embedded-cli/embedded_cli.c ****  */
 303:Lib/embedded-cli/embedded_cli.c **** static void onHelp(EmbeddedCli *cli, char *tokens, void *context);
 304:Lib/embedded-cli/embedded_cli.c **** 
 305:Lib/embedded-cli/embedded_cli.c **** /**
 306:Lib/embedded-cli/embedded_cli.c ****  * Show error about unknown command
 307:Lib/embedded-cli/embedded_cli.c ****  * @param cli
 308:Lib/embedded-cli/embedded_cli.c ****  * @param name
 309:Lib/embedded-cli/embedded_cli.c ****  */
 310:Lib/embedded-cli/embedded_cli.c **** static void onUnknownCommand(EmbeddedCli *cli, const char *name);
 311:Lib/embedded-cli/embedded_cli.c **** 
 312:Lib/embedded-cli/embedded_cli.c **** /**
 313:Lib/embedded-cli/embedded_cli.c ****  * Return autocompleted command for given prefix.
 314:Lib/embedded-cli/embedded_cli.c ****  * Prefix is compared to all known command bindings and autocompleted result
 315:Lib/embedded-cli/embedded_cli.c ****  * is returned
ARM GAS  /tmp/ccb99Ich.s 			page 7


 316:Lib/embedded-cli/embedded_cli.c ****  * @param cli
 317:Lib/embedded-cli/embedded_cli.c ****  * @param prefix
 318:Lib/embedded-cli/embedded_cli.c ****  * @return
 319:Lib/embedded-cli/embedded_cli.c ****  */
 320:Lib/embedded-cli/embedded_cli.c **** static AutocompletedCommand getAutocompletedCommand(EmbeddedCli *cli, const char *prefix);
 321:Lib/embedded-cli/embedded_cli.c **** 
 322:Lib/embedded-cli/embedded_cli.c **** /**
 323:Lib/embedded-cli/embedded_cli.c ****  * Prints autocompletion result while keeping current command unchanged
 324:Lib/embedded-cli/embedded_cli.c ****  * Prints only if autocompletion is present and only one candidate exists.
 325:Lib/embedded-cli/embedded_cli.c ****  * @param cli
 326:Lib/embedded-cli/embedded_cli.c ****  */
 327:Lib/embedded-cli/embedded_cli.c **** static void printLiveAutocompletion(EmbeddedCli *cli);
 328:Lib/embedded-cli/embedded_cli.c **** 
 329:Lib/embedded-cli/embedded_cli.c **** /**
 330:Lib/embedded-cli/embedded_cli.c ****  * Handles autocomplete request. If autocomplete possible - fills current
 331:Lib/embedded-cli/embedded_cli.c ****  * command with autocompleted command. When multiple commands satisfy entered
 332:Lib/embedded-cli/embedded_cli.c ****  * prefix, they are printed to output.
 333:Lib/embedded-cli/embedded_cli.c ****  * @param cli
 334:Lib/embedded-cli/embedded_cli.c ****  */
 335:Lib/embedded-cli/embedded_cli.c **** static void onAutocompleteRequest(EmbeddedCli *cli);
 336:Lib/embedded-cli/embedded_cli.c **** 
 337:Lib/embedded-cli/embedded_cli.c **** /**
 338:Lib/embedded-cli/embedded_cli.c ****  * Removes all input from current line (replaces it with whitespaces)
 339:Lib/embedded-cli/embedded_cli.c ****  * And places cursor at the beginning of the line
 340:Lib/embedded-cli/embedded_cli.c ****  * @param cli
 341:Lib/embedded-cli/embedded_cli.c ****  */
 342:Lib/embedded-cli/embedded_cli.c **** static void clearCurrentLine(EmbeddedCli *cli);
 343:Lib/embedded-cli/embedded_cli.c **** 
 344:Lib/embedded-cli/embedded_cli.c **** /**
 345:Lib/embedded-cli/embedded_cli.c ****  * Write given string to cli output
 346:Lib/embedded-cli/embedded_cli.c ****  * @param cli
 347:Lib/embedded-cli/embedded_cli.c ****  * @param str
 348:Lib/embedded-cli/embedded_cli.c ****  */
 349:Lib/embedded-cli/embedded_cli.c **** static void writeToOutput(EmbeddedCli *cli, const char *str);
 350:Lib/embedded-cli/embedded_cli.c **** 
 351:Lib/embedded-cli/embedded_cli.c **** /**
 352:Lib/embedded-cli/embedded_cli.c ****  * Move cursor forward (right) by given number of positions
 353:Lib/embedded-cli/embedded_cli.c ****  * @param cli
 354:Lib/embedded-cli/embedded_cli.c ****  * @param count
 355:Lib/embedded-cli/embedded_cli.c ****  * @param direction: true = forward (right), false = backward (left)
 356:Lib/embedded-cli/embedded_cli.c ****  */
 357:Lib/embedded-cli/embedded_cli.c **** static void moveCursor(EmbeddedCli* cli, uint16_t count, bool direction);
 358:Lib/embedded-cli/embedded_cli.c **** 
 359:Lib/embedded-cli/embedded_cli.c **** /**
 360:Lib/embedded-cli/embedded_cli.c ****  * Returns true if provided char is a supported control char:
 361:Lib/embedded-cli/embedded_cli.c ****  * \r, \n, \b or 0x7F (treated as \b)
 362:Lib/embedded-cli/embedded_cli.c ****  * @param c
 363:Lib/embedded-cli/embedded_cli.c ****  * @return
 364:Lib/embedded-cli/embedded_cli.c ****  */
 365:Lib/embedded-cli/embedded_cli.c **** static bool isControlChar(char c);
 366:Lib/embedded-cli/embedded_cli.c **** 
 367:Lib/embedded-cli/embedded_cli.c **** /**
 368:Lib/embedded-cli/embedded_cli.c ****  * Returns true if provided char is a valid displayable character:
 369:Lib/embedded-cli/embedded_cli.c ****  * a-z, A-Z, 0-9, whitespace, punctuation, etc.
 370:Lib/embedded-cli/embedded_cli.c ****  * Currently only ASCII is supported
 371:Lib/embedded-cli/embedded_cli.c ****  * @param c
 372:Lib/embedded-cli/embedded_cli.c ****  * @return
ARM GAS  /tmp/ccb99Ich.s 			page 8


 373:Lib/embedded-cli/embedded_cli.c ****  */
 374:Lib/embedded-cli/embedded_cli.c **** static bool isDisplayableChar(char c);
 375:Lib/embedded-cli/embedded_cli.c **** 
 376:Lib/embedded-cli/embedded_cli.c **** /**
 377:Lib/embedded-cli/embedded_cli.c ****  * How many elements are currently available in buffer
 378:Lib/embedded-cli/embedded_cli.c ****  * @param buffer
 379:Lib/embedded-cli/embedded_cli.c ****  * @return number of elements
 380:Lib/embedded-cli/embedded_cli.c ****  */
 381:Lib/embedded-cli/embedded_cli.c **** static uint16_t fifoBufAvailable(FifoBuf *buffer);
 382:Lib/embedded-cli/embedded_cli.c **** 
 383:Lib/embedded-cli/embedded_cli.c **** /**
 384:Lib/embedded-cli/embedded_cli.c ****  * Return first character from buffer and remove it from buffer
 385:Lib/embedded-cli/embedded_cli.c ****  * Buffer must be non-empty, otherwise 0 is returned
 386:Lib/embedded-cli/embedded_cli.c ****  * @param buffer
 387:Lib/embedded-cli/embedded_cli.c ****  * @return
 388:Lib/embedded-cli/embedded_cli.c ****  */
 389:Lib/embedded-cli/embedded_cli.c **** static char fifoBufPop(FifoBuf *buffer);
 390:Lib/embedded-cli/embedded_cli.c **** 
 391:Lib/embedded-cli/embedded_cli.c **** /**
 392:Lib/embedded-cli/embedded_cli.c ****  * Push character into fifo buffer. If there is no space left, character is
 393:Lib/embedded-cli/embedded_cli.c ****  * discarded and false is returned
 394:Lib/embedded-cli/embedded_cli.c ****  * @param buffer
 395:Lib/embedded-cli/embedded_cli.c ****  * @param a - character to add
 396:Lib/embedded-cli/embedded_cli.c ****  * @return true if char was added to buffer, false otherwise
 397:Lib/embedded-cli/embedded_cli.c ****  */
 398:Lib/embedded-cli/embedded_cli.c **** static bool fifoBufPush(FifoBuf *buffer, char a);
 399:Lib/embedded-cli/embedded_cli.c **** 
 400:Lib/embedded-cli/embedded_cli.c **** /**
 401:Lib/embedded-cli/embedded_cli.c ****  * Copy provided string to the history buffer.
 402:Lib/embedded-cli/embedded_cli.c ****  * If it is already inside history, it will be removed from it and added again.
 403:Lib/embedded-cli/embedded_cli.c ****  * So after addition, it will always be on top
 404:Lib/embedded-cli/embedded_cli.c ****  * If available size is not enough (and total size is enough) old elements will
 405:Lib/embedded-cli/embedded_cli.c ****  * be removed from history so this item can be put to it
 406:Lib/embedded-cli/embedded_cli.c ****  * @param history
 407:Lib/embedded-cli/embedded_cli.c ****  * @param str
 408:Lib/embedded-cli/embedded_cli.c ****  * @return true if string was put in history
 409:Lib/embedded-cli/embedded_cli.c ****  */
 410:Lib/embedded-cli/embedded_cli.c **** static bool historyPut(CliHistory *history, const char *str);
 411:Lib/embedded-cli/embedded_cli.c **** 
 412:Lib/embedded-cli/embedded_cli.c **** /**
 413:Lib/embedded-cli/embedded_cli.c ****  * Get item from history. Items are counted from 1 so if item is 0 or greater
 414:Lib/embedded-cli/embedded_cli.c ****  * than itemCount, NULL is returned
 415:Lib/embedded-cli/embedded_cli.c ****  * @param history
 416:Lib/embedded-cli/embedded_cli.c ****  * @param item
 417:Lib/embedded-cli/embedded_cli.c ****  * @return true if string was put in history
 418:Lib/embedded-cli/embedded_cli.c ****  */
 419:Lib/embedded-cli/embedded_cli.c **** static const char *historyGet(CliHistory *history, uint16_t item);
 420:Lib/embedded-cli/embedded_cli.c **** 
 421:Lib/embedded-cli/embedded_cli.c **** /**
 422:Lib/embedded-cli/embedded_cli.c ****  * Remove specific item from history
 423:Lib/embedded-cli/embedded_cli.c ****  * @param history
 424:Lib/embedded-cli/embedded_cli.c ****  * @param str - string to remove
 425:Lib/embedded-cli/embedded_cli.c ****  * @return
 426:Lib/embedded-cli/embedded_cli.c ****  */
 427:Lib/embedded-cli/embedded_cli.c **** static void historyRemove(CliHistory *history, const char *str);
 428:Lib/embedded-cli/embedded_cli.c **** 
 429:Lib/embedded-cli/embedded_cli.c **** /**
ARM GAS  /tmp/ccb99Ich.s 			page 9


 430:Lib/embedded-cli/embedded_cli.c ****  * Return position (index of first char) of specified token
 431:Lib/embedded-cli/embedded_cli.c ****  * @param tokenizedStr - tokenized string (separated by \0 with
 432:Lib/embedded-cli/embedded_cli.c ****  * \0\0 at the end)
 433:Lib/embedded-cli/embedded_cli.c ****  * @param pos - token position (counted from 1)
 434:Lib/embedded-cli/embedded_cli.c ****  * @return index of first char of specified token
 435:Lib/embedded-cli/embedded_cli.c ****  */
 436:Lib/embedded-cli/embedded_cli.c **** static uint16_t getTokenPosition(const char *tokenizedStr, uint16_t pos);
 437:Lib/embedded-cli/embedded_cli.c **** 
 438:Lib/embedded-cli/embedded_cli.c **** EmbeddedCliConfig *embeddedCliDefaultConfig(void) {
 439:Lib/embedded-cli/embedded_cli.c ****     defaultConfig.rxBufferSize = 64;
 440:Lib/embedded-cli/embedded_cli.c ****     defaultConfig.cmdBufferSize = 64;
 441:Lib/embedded-cli/embedded_cli.c ****     defaultConfig.historyBufferSize = 128;
 442:Lib/embedded-cli/embedded_cli.c ****     defaultConfig.cliBuffer = NULL;
 443:Lib/embedded-cli/embedded_cli.c ****     defaultConfig.cliBufferSize = 0;
 444:Lib/embedded-cli/embedded_cli.c ****     defaultConfig.maxBindingCount = 8;
 445:Lib/embedded-cli/embedded_cli.c ****     defaultConfig.enableAutoComplete = true;
 446:Lib/embedded-cli/embedded_cli.c ****     defaultConfig.invitation = "> ";
 447:Lib/embedded-cli/embedded_cli.c ****     return &defaultConfig;
 448:Lib/embedded-cli/embedded_cli.c **** }
 449:Lib/embedded-cli/embedded_cli.c **** 
 450:Lib/embedded-cli/embedded_cli.c **** uint16_t embeddedCliRequiredSize(EmbeddedCliConfig *config) {
 451:Lib/embedded-cli/embedded_cli.c ****     uint16_t bindingCount = (uint16_t) (config->maxBindingCount + cliInternalBindingCount);
 452:Lib/embedded-cli/embedded_cli.c ****     return (uint16_t) (CLI_UINT_SIZE * (
 453:Lib/embedded-cli/embedded_cli.c ****             BYTES_TO_CLI_UINTS(sizeof(EmbeddedCli)) +
 454:Lib/embedded-cli/embedded_cli.c ****             BYTES_TO_CLI_UINTS(sizeof(EmbeddedCliImpl)) +
 455:Lib/embedded-cli/embedded_cli.c ****             BYTES_TO_CLI_UINTS(config->rxBufferSize * sizeof(char)) +
 456:Lib/embedded-cli/embedded_cli.c ****             BYTES_TO_CLI_UINTS(config->cmdBufferSize * sizeof(char)) +
 457:Lib/embedded-cli/embedded_cli.c ****             BYTES_TO_CLI_UINTS(config->historyBufferSize * sizeof(char)) +
 458:Lib/embedded-cli/embedded_cli.c ****             BYTES_TO_CLI_UINTS(bindingCount * sizeof(CliCommandBinding)) +
 459:Lib/embedded-cli/embedded_cli.c ****             BYTES_TO_CLI_UINTS(bindingCount * sizeof(uint8_t))));
 460:Lib/embedded-cli/embedded_cli.c **** }
 461:Lib/embedded-cli/embedded_cli.c **** 
 462:Lib/embedded-cli/embedded_cli.c **** EmbeddedCli *embeddedCliNew(EmbeddedCliConfig *config) {
 463:Lib/embedded-cli/embedded_cli.c ****     EmbeddedCli *cli = NULL;
 464:Lib/embedded-cli/embedded_cli.c **** 
 465:Lib/embedded-cli/embedded_cli.c ****     uint16_t bindingCount = (uint16_t) (config->maxBindingCount + cliInternalBindingCount);
 466:Lib/embedded-cli/embedded_cli.c **** 
 467:Lib/embedded-cli/embedded_cli.c ****     size_t totalSize = embeddedCliRequiredSize(config);
 468:Lib/embedded-cli/embedded_cli.c **** 
 469:Lib/embedded-cli/embedded_cli.c ****     bool allocated = false;
 470:Lib/embedded-cli/embedded_cli.c ****     if (config->cliBuffer == NULL) {
 471:Lib/embedded-cli/embedded_cli.c ****         config->cliBuffer = (CLI_UINT *) malloc(totalSize); // malloc guarantees alignment.
 472:Lib/embedded-cli/embedded_cli.c ****         if (config->cliBuffer == NULL)
 473:Lib/embedded-cli/embedded_cli.c ****             return NULL;
 474:Lib/embedded-cli/embedded_cli.c ****         allocated = true;
 475:Lib/embedded-cli/embedded_cli.c ****     } else if (config->cliBufferSize < totalSize) {
 476:Lib/embedded-cli/embedded_cli.c ****         return NULL;
 477:Lib/embedded-cli/embedded_cli.c ****     }
 478:Lib/embedded-cli/embedded_cli.c **** 
 479:Lib/embedded-cli/embedded_cli.c ****     CLI_UINT *buf = config->cliBuffer;
 480:Lib/embedded-cli/embedded_cli.c **** 
 481:Lib/embedded-cli/embedded_cli.c ****     memset(buf, 0, totalSize);
 482:Lib/embedded-cli/embedded_cli.c **** 
 483:Lib/embedded-cli/embedded_cli.c ****     cli = (EmbeddedCli *) buf;
 484:Lib/embedded-cli/embedded_cli.c ****     buf += BYTES_TO_CLI_UINTS(sizeof(EmbeddedCli));
 485:Lib/embedded-cli/embedded_cli.c **** 
 486:Lib/embedded-cli/embedded_cli.c ****     cli->_impl = (EmbeddedCliImpl *) buf;
ARM GAS  /tmp/ccb99Ich.s 			page 10


 487:Lib/embedded-cli/embedded_cli.c ****     buf += BYTES_TO_CLI_UINTS(sizeof(EmbeddedCliImpl));
 488:Lib/embedded-cli/embedded_cli.c **** 
 489:Lib/embedded-cli/embedded_cli.c ****     PREPARE_IMPL(cli);
 490:Lib/embedded-cli/embedded_cli.c ****     impl->rxBuffer.buf = (char *) buf;
 491:Lib/embedded-cli/embedded_cli.c ****     buf += BYTES_TO_CLI_UINTS(config->rxBufferSize * sizeof(char));
 492:Lib/embedded-cli/embedded_cli.c **** 
 493:Lib/embedded-cli/embedded_cli.c ****     impl->cmdBuffer = (char *) buf;
 494:Lib/embedded-cli/embedded_cli.c ****     buf += BYTES_TO_CLI_UINTS(config->cmdBufferSize * sizeof(char));
 495:Lib/embedded-cli/embedded_cli.c **** 
 496:Lib/embedded-cli/embedded_cli.c ****     impl->bindings = (CliCommandBinding *) buf;
 497:Lib/embedded-cli/embedded_cli.c ****     buf += BYTES_TO_CLI_UINTS(bindingCount * sizeof(CliCommandBinding));
 498:Lib/embedded-cli/embedded_cli.c **** 
 499:Lib/embedded-cli/embedded_cli.c ****     impl->bindingsFlags = (uint8_t *) buf;
 500:Lib/embedded-cli/embedded_cli.c ****     buf += BYTES_TO_CLI_UINTS(bindingCount);
 501:Lib/embedded-cli/embedded_cli.c **** 
 502:Lib/embedded-cli/embedded_cli.c ****     impl->history.buf = (char *) buf;
 503:Lib/embedded-cli/embedded_cli.c ****     impl->history.bufferSize = config->historyBufferSize;
 504:Lib/embedded-cli/embedded_cli.c **** 
 505:Lib/embedded-cli/embedded_cli.c ****     if (allocated)
 506:Lib/embedded-cli/embedded_cli.c ****         SET_FLAG(impl->flags, CLI_FLAG_ALLOCATED);
 507:Lib/embedded-cli/embedded_cli.c **** 
 508:Lib/embedded-cli/embedded_cli.c ****     if (config->enableAutoComplete)
 509:Lib/embedded-cli/embedded_cli.c ****         SET_FLAG(impl->flags, CLI_FLAG_AUTOCOMPLETE_ENABLED);
 510:Lib/embedded-cli/embedded_cli.c **** 
 511:Lib/embedded-cli/embedded_cli.c ****     impl->rxBuffer.size = config->rxBufferSize;
 512:Lib/embedded-cli/embedded_cli.c ****     impl->rxBuffer.front = 0;
 513:Lib/embedded-cli/embedded_cli.c ****     impl->rxBuffer.back = 0;
 514:Lib/embedded-cli/embedded_cli.c ****     impl->cmdMaxSize = config->cmdBufferSize;
 515:Lib/embedded-cli/embedded_cli.c ****     impl->bindingsCount = 0;
 516:Lib/embedded-cli/embedded_cli.c ****     impl->maxBindingsCount = (uint16_t) (config->maxBindingCount + cliInternalBindingCount);
 517:Lib/embedded-cli/embedded_cli.c ****     impl->lastChar = '\0';
 518:Lib/embedded-cli/embedded_cli.c ****     impl->invitation = config->invitation;
 519:Lib/embedded-cli/embedded_cli.c ****     impl->cursorPos = 0;
 520:Lib/embedded-cli/embedded_cli.c **** 
 521:Lib/embedded-cli/embedded_cli.c ****     initInternalBindings(cli);
 522:Lib/embedded-cli/embedded_cli.c **** 
 523:Lib/embedded-cli/embedded_cli.c ****     return cli;
 524:Lib/embedded-cli/embedded_cli.c **** }
 525:Lib/embedded-cli/embedded_cli.c **** 
 526:Lib/embedded-cli/embedded_cli.c **** EmbeddedCli *embeddedCliNewDefault(void) {
 527:Lib/embedded-cli/embedded_cli.c ****     return embeddedCliNew(embeddedCliDefaultConfig());
 528:Lib/embedded-cli/embedded_cli.c **** }
 529:Lib/embedded-cli/embedded_cli.c **** 
 530:Lib/embedded-cli/embedded_cli.c **** void embeddedCliReceiveChar(EmbeddedCli *cli, char c) {
 531:Lib/embedded-cli/embedded_cli.c ****     PREPARE_IMPL(cli);
 532:Lib/embedded-cli/embedded_cli.c **** 
 533:Lib/embedded-cli/embedded_cli.c ****     if (!fifoBufPush(&impl->rxBuffer, c)) {
 534:Lib/embedded-cli/embedded_cli.c ****         SET_FLAG(impl->flags, CLI_FLAG_OVERFLOW);
 535:Lib/embedded-cli/embedded_cli.c ****     }
 536:Lib/embedded-cli/embedded_cli.c **** }
 537:Lib/embedded-cli/embedded_cli.c **** 
 538:Lib/embedded-cli/embedded_cli.c **** void embeddedCliProcess(EmbeddedCli *cli) {
 539:Lib/embedded-cli/embedded_cli.c ****     if (cli->writeChar == NULL)
 540:Lib/embedded-cli/embedded_cli.c ****         return;
 541:Lib/embedded-cli/embedded_cli.c **** 
 542:Lib/embedded-cli/embedded_cli.c ****     PREPARE_IMPL(cli);
 543:Lib/embedded-cli/embedded_cli.c **** 
ARM GAS  /tmp/ccb99Ich.s 			page 11


 544:Lib/embedded-cli/embedded_cli.c **** 
 545:Lib/embedded-cli/embedded_cli.c ****     if (!IS_FLAG_SET(impl->flags, CLI_FLAG_INIT_COMPLETE)) {
 546:Lib/embedded-cli/embedded_cli.c ****         SET_FLAG(impl->flags, CLI_FLAG_INIT_COMPLETE);
 547:Lib/embedded-cli/embedded_cli.c ****         writeToOutput(cli, impl->invitation);
 548:Lib/embedded-cli/embedded_cli.c ****     }
 549:Lib/embedded-cli/embedded_cli.c **** 
 550:Lib/embedded-cli/embedded_cli.c ****     while (fifoBufAvailable(&impl->rxBuffer)) {
 551:Lib/embedded-cli/embedded_cli.c ****         char c = fifoBufPop(&impl->rxBuffer);
 552:Lib/embedded-cli/embedded_cli.c **** 
 553:Lib/embedded-cli/embedded_cli.c ****         if (IS_FLAG_SET(impl->flags, CLI_FLAG_ESCAPE_MODE)) {
 554:Lib/embedded-cli/embedded_cli.c ****             onEscapedInput(cli, c);
 555:Lib/embedded-cli/embedded_cli.c ****         } else if (impl->lastChar == 0x1B && c == '[') {
 556:Lib/embedded-cli/embedded_cli.c ****             //enter escape mode
 557:Lib/embedded-cli/embedded_cli.c ****             SET_FLAG(impl->flags, CLI_FLAG_ESCAPE_MODE);
 558:Lib/embedded-cli/embedded_cli.c ****         } else if (isControlChar(c)) {
 559:Lib/embedded-cli/embedded_cli.c ****             onControlInput(cli, c);
 560:Lib/embedded-cli/embedded_cli.c ****         } else if (isDisplayableChar(c)) {
 561:Lib/embedded-cli/embedded_cli.c ****             onCharInput(cli, c);
 562:Lib/embedded-cli/embedded_cli.c ****         }
 563:Lib/embedded-cli/embedded_cli.c **** 
 564:Lib/embedded-cli/embedded_cli.c ****         printLiveAutocompletion(cli);
 565:Lib/embedded-cli/embedded_cli.c **** 
 566:Lib/embedded-cli/embedded_cli.c ****         impl->lastChar = c;
 567:Lib/embedded-cli/embedded_cli.c ****     }
 568:Lib/embedded-cli/embedded_cli.c **** 
 569:Lib/embedded-cli/embedded_cli.c ****     // discard unfinished command if overflow happened
 570:Lib/embedded-cli/embedded_cli.c ****     if (IS_FLAG_SET(impl->flags, CLI_FLAG_OVERFLOW)) {
 571:Lib/embedded-cli/embedded_cli.c ****         impl->cmdSize = 0;
 572:Lib/embedded-cli/embedded_cli.c ****         impl->cmdBuffer[impl->cmdSize] = '\0';
 573:Lib/embedded-cli/embedded_cli.c ****         UNSET_U8FLAG(impl->flags, CLI_FLAG_OVERFLOW);
 574:Lib/embedded-cli/embedded_cli.c ****     }
 575:Lib/embedded-cli/embedded_cli.c **** }
 576:Lib/embedded-cli/embedded_cli.c **** 
 577:Lib/embedded-cli/embedded_cli.c **** bool embeddedCliAddBinding(EmbeddedCli *cli, CliCommandBinding binding) {
 578:Lib/embedded-cli/embedded_cli.c ****     PREPARE_IMPL(cli);
 579:Lib/embedded-cli/embedded_cli.c ****     if (impl->bindingsCount == impl->maxBindingsCount)
 580:Lib/embedded-cli/embedded_cli.c ****         return false;
 581:Lib/embedded-cli/embedded_cli.c **** 
 582:Lib/embedded-cli/embedded_cli.c ****     impl->bindings[impl->bindingsCount] = binding;
 583:Lib/embedded-cli/embedded_cli.c **** 
 584:Lib/embedded-cli/embedded_cli.c ****     ++impl->bindingsCount;
 585:Lib/embedded-cli/embedded_cli.c ****     return true;
 586:Lib/embedded-cli/embedded_cli.c **** }
 587:Lib/embedded-cli/embedded_cli.c **** 
 588:Lib/embedded-cli/embedded_cli.c **** void embeddedCliPrint(EmbeddedCli *cli, const char *string) {
 589:Lib/embedded-cli/embedded_cli.c ****     if (cli->writeChar == NULL)
 590:Lib/embedded-cli/embedded_cli.c ****         return;
 591:Lib/embedded-cli/embedded_cli.c **** 
 592:Lib/embedded-cli/embedded_cli.c ****     PREPARE_IMPL(cli);
 593:Lib/embedded-cli/embedded_cli.c **** 
 594:Lib/embedded-cli/embedded_cli.c ****     // Save cursor position
 595:Lib/embedded-cli/embedded_cli.c ****     uint16_t cursorPosSave = impl->cursorPos;
 596:Lib/embedded-cli/embedded_cli.c **** 
 597:Lib/embedded-cli/embedded_cli.c ****     // remove chars for autocompletion and live command
 598:Lib/embedded-cli/embedded_cli.c ****     if (!IS_FLAG_SET(impl->flags, CLI_FLAG_DIRECT_PRINT))
 599:Lib/embedded-cli/embedded_cli.c ****         clearCurrentLine(cli);
 600:Lib/embedded-cli/embedded_cli.c **** 
ARM GAS  /tmp/ccb99Ich.s 			page 12


 601:Lib/embedded-cli/embedded_cli.c ****     // Restore cursor position
 602:Lib/embedded-cli/embedded_cli.c ****     impl->cursorPos = cursorPosSave;
 603:Lib/embedded-cli/embedded_cli.c **** 
 604:Lib/embedded-cli/embedded_cli.c ****     // print provided string
 605:Lib/embedded-cli/embedded_cli.c ****     writeToOutput(cli, string);
 606:Lib/embedded-cli/embedded_cli.c ****     writeToOutput(cli, lineBreak);
 607:Lib/embedded-cli/embedded_cli.c **** 
 608:Lib/embedded-cli/embedded_cli.c ****     // print current command back to screen
 609:Lib/embedded-cli/embedded_cli.c ****     if (!IS_FLAG_SET(impl->flags, CLI_FLAG_DIRECT_PRINT)) {
 610:Lib/embedded-cli/embedded_cli.c ****         writeToOutput(cli, impl->invitation);
 611:Lib/embedded-cli/embedded_cli.c ****         writeToOutput(cli, impl->cmdBuffer);
 612:Lib/embedded-cli/embedded_cli.c ****         impl->inputLineLength = impl->cmdSize;
 613:Lib/embedded-cli/embedded_cli.c ****         moveCursor(cli, impl->cursorPos, CURSOR_DIRECTION_BACKWARD);
 614:Lib/embedded-cli/embedded_cli.c **** 
 615:Lib/embedded-cli/embedded_cli.c ****         printLiveAutocompletion(cli);
 616:Lib/embedded-cli/embedded_cli.c ****     }
 617:Lib/embedded-cli/embedded_cli.c **** }
 618:Lib/embedded-cli/embedded_cli.c **** 
 619:Lib/embedded-cli/embedded_cli.c **** void embeddedCliFree(EmbeddedCli *cli) {
 620:Lib/embedded-cli/embedded_cli.c ****     PREPARE_IMPL(cli);
 621:Lib/embedded-cli/embedded_cli.c ****     if (IS_FLAG_SET(impl->flags, CLI_FLAG_ALLOCATED)) {
 622:Lib/embedded-cli/embedded_cli.c ****         // allocation is done in single call to malloc, so need only single free
 623:Lib/embedded-cli/embedded_cli.c ****         free(cli);
 624:Lib/embedded-cli/embedded_cli.c ****     }
 625:Lib/embedded-cli/embedded_cli.c **** }
 626:Lib/embedded-cli/embedded_cli.c **** 
 627:Lib/embedded-cli/embedded_cli.c **** void embeddedCliTokenizeArgs(char *args) {
 628:Lib/embedded-cli/embedded_cli.c ****     if (args == NULL)
 629:Lib/embedded-cli/embedded_cli.c ****         return;
 630:Lib/embedded-cli/embedded_cli.c **** 
 631:Lib/embedded-cli/embedded_cli.c ****     // for now only space, but can add more later
 632:Lib/embedded-cli/embedded_cli.c ****     const char *separators = " ";
 633:Lib/embedded-cli/embedded_cli.c **** 
 634:Lib/embedded-cli/embedded_cli.c ****     // indicates that arg is quoted so separators are copied as is
 635:Lib/embedded-cli/embedded_cli.c ****     bool quotesEnabled = false;
 636:Lib/embedded-cli/embedded_cli.c ****     // indicates that previous char was a slash, so next char is copied as is
 637:Lib/embedded-cli/embedded_cli.c ****     bool escapeActivated = false;
 638:Lib/embedded-cli/embedded_cli.c ****     int insertPos = 0;
 639:Lib/embedded-cli/embedded_cli.c **** 
 640:Lib/embedded-cli/embedded_cli.c ****     int i = 0;
 641:Lib/embedded-cli/embedded_cli.c ****     char currentChar;
 642:Lib/embedded-cli/embedded_cli.c ****     while ((currentChar = args[i]) != '\0') {
 643:Lib/embedded-cli/embedded_cli.c ****         ++i;
 644:Lib/embedded-cli/embedded_cli.c **** 
 645:Lib/embedded-cli/embedded_cli.c ****         if (escapeActivated) {
 646:Lib/embedded-cli/embedded_cli.c ****             escapeActivated = false;
 647:Lib/embedded-cli/embedded_cli.c ****         } else if (currentChar == '\\') {
 648:Lib/embedded-cli/embedded_cli.c ****             escapeActivated = true;
 649:Lib/embedded-cli/embedded_cli.c ****             continue;
 650:Lib/embedded-cli/embedded_cli.c ****         } else if (currentChar == '"') {
 651:Lib/embedded-cli/embedded_cli.c ****             quotesEnabled = !quotesEnabled;
 652:Lib/embedded-cli/embedded_cli.c ****             currentChar = '\0';
 653:Lib/embedded-cli/embedded_cli.c ****         } else if (!quotesEnabled && strchr(separators, currentChar) != NULL) {
 654:Lib/embedded-cli/embedded_cli.c ****             currentChar = '\0';
 655:Lib/embedded-cli/embedded_cli.c ****         }
 656:Lib/embedded-cli/embedded_cli.c **** 
 657:Lib/embedded-cli/embedded_cli.c ****         // null chars are only copied once and not copied to the beginning
ARM GAS  /tmp/ccb99Ich.s 			page 13


 658:Lib/embedded-cli/embedded_cli.c ****         if (currentChar != '\0' || (insertPos > 0 && args[insertPos - 1] != '\0')) {
 659:Lib/embedded-cli/embedded_cli.c ****             args[insertPos] = currentChar;
 660:Lib/embedded-cli/embedded_cli.c ****             ++insertPos;
 661:Lib/embedded-cli/embedded_cli.c ****         }
 662:Lib/embedded-cli/embedded_cli.c ****     }
 663:Lib/embedded-cli/embedded_cli.c **** 
 664:Lib/embedded-cli/embedded_cli.c ****     // make args double null-terminated source buffer must be big enough to contain extra spaces
 665:Lib/embedded-cli/embedded_cli.c ****     args[insertPos] = '\0';
 666:Lib/embedded-cli/embedded_cli.c ****     args[insertPos + 1] = '\0';
 667:Lib/embedded-cli/embedded_cli.c **** }
 668:Lib/embedded-cli/embedded_cli.c **** 
 669:Lib/embedded-cli/embedded_cli.c **** const char *embeddedCliGetToken(const char *tokenizedStr, uint16_t pos) {
 670:Lib/embedded-cli/embedded_cli.c ****     uint16_t i = getTokenPosition(tokenizedStr, pos);
 671:Lib/embedded-cli/embedded_cli.c **** 
 672:Lib/embedded-cli/embedded_cli.c ****     if (i != CLI_TOKEN_NPOS)
 673:Lib/embedded-cli/embedded_cli.c ****         return &tokenizedStr[i];
 674:Lib/embedded-cli/embedded_cli.c ****     else
 675:Lib/embedded-cli/embedded_cli.c ****         return NULL;
 676:Lib/embedded-cli/embedded_cli.c **** }
 677:Lib/embedded-cli/embedded_cli.c **** 
 678:Lib/embedded-cli/embedded_cli.c **** char *embeddedCliGetTokenVariable(char *tokenizedStr, uint16_t pos) {
 679:Lib/embedded-cli/embedded_cli.c ****     uint16_t i = getTokenPosition(tokenizedStr, pos);
 680:Lib/embedded-cli/embedded_cli.c **** 
 681:Lib/embedded-cli/embedded_cli.c ****     if (i != CLI_TOKEN_NPOS)
 682:Lib/embedded-cli/embedded_cli.c ****         return &tokenizedStr[i];
 683:Lib/embedded-cli/embedded_cli.c ****     else
 684:Lib/embedded-cli/embedded_cli.c ****         return NULL;
 685:Lib/embedded-cli/embedded_cli.c **** }
 686:Lib/embedded-cli/embedded_cli.c **** 
 687:Lib/embedded-cli/embedded_cli.c **** uint16_t embeddedCliFindToken(const char *tokenizedStr, const char *token) {
 688:Lib/embedded-cli/embedded_cli.c ****     if (tokenizedStr == NULL || token == NULL)
 689:Lib/embedded-cli/embedded_cli.c ****         return 0;
 690:Lib/embedded-cli/embedded_cli.c **** 
 691:Lib/embedded-cli/embedded_cli.c ****     uint16_t size = embeddedCliGetTokenCount(tokenizedStr);
 692:Lib/embedded-cli/embedded_cli.c ****     for (uint16_t i = 1; i <= size; ++i) {
 693:Lib/embedded-cli/embedded_cli.c ****         if (strcmp(embeddedCliGetToken(tokenizedStr, i), token) == 0)
 694:Lib/embedded-cli/embedded_cli.c ****             return i;
 695:Lib/embedded-cli/embedded_cli.c ****     }
 696:Lib/embedded-cli/embedded_cli.c **** 
 697:Lib/embedded-cli/embedded_cli.c ****     return 0;
 698:Lib/embedded-cli/embedded_cli.c **** }
 699:Lib/embedded-cli/embedded_cli.c **** 
 700:Lib/embedded-cli/embedded_cli.c **** uint16_t embeddedCliGetTokenCount(const char *tokenizedStr) {
 701:Lib/embedded-cli/embedded_cli.c ****     if (tokenizedStr == NULL || tokenizedStr[0] == '\0')
 702:Lib/embedded-cli/embedded_cli.c ****         return 0;
 703:Lib/embedded-cli/embedded_cli.c **** 
 704:Lib/embedded-cli/embedded_cli.c ****     int i = 0;
 705:Lib/embedded-cli/embedded_cli.c ****     uint16_t tokenCount = 1;
 706:Lib/embedded-cli/embedded_cli.c ****     while (true) {
 707:Lib/embedded-cli/embedded_cli.c ****         if (tokenizedStr[i] == '\0') {
 708:Lib/embedded-cli/embedded_cli.c ****             if (tokenizedStr[i + 1] == '\0')
 709:Lib/embedded-cli/embedded_cli.c ****                 break;
 710:Lib/embedded-cli/embedded_cli.c ****             ++tokenCount;
 711:Lib/embedded-cli/embedded_cli.c ****         }
 712:Lib/embedded-cli/embedded_cli.c ****         ++i;
 713:Lib/embedded-cli/embedded_cli.c ****     }
 714:Lib/embedded-cli/embedded_cli.c **** 
ARM GAS  /tmp/ccb99Ich.s 			page 14


 715:Lib/embedded-cli/embedded_cli.c ****     return tokenCount;
 716:Lib/embedded-cli/embedded_cli.c **** }
 717:Lib/embedded-cli/embedded_cli.c **** 
 718:Lib/embedded-cli/embedded_cli.c **** static void navigateHistory(EmbeddedCli *cli, bool navigateUp) {
 719:Lib/embedded-cli/embedded_cli.c ****     PREPARE_IMPL(cli);
 720:Lib/embedded-cli/embedded_cli.c ****     if (impl->history.itemsCount == 0 ||
 721:Lib/embedded-cli/embedded_cli.c ****         (navigateUp && impl->history.current == impl->history.itemsCount) ||
 722:Lib/embedded-cli/embedded_cli.c ****         (!navigateUp && impl->history.current == 0))
 723:Lib/embedded-cli/embedded_cli.c ****         return;
 724:Lib/embedded-cli/embedded_cli.c **** 
 725:Lib/embedded-cli/embedded_cli.c ****     clearCurrentLine(cli);
 726:Lib/embedded-cli/embedded_cli.c **** 
 727:Lib/embedded-cli/embedded_cli.c ****     writeToOutput(cli, impl->invitation);
 728:Lib/embedded-cli/embedded_cli.c **** 
 729:Lib/embedded-cli/embedded_cli.c ****     if (navigateUp)
 730:Lib/embedded-cli/embedded_cli.c ****         ++impl->history.current;
 731:Lib/embedded-cli/embedded_cli.c ****     else
 732:Lib/embedded-cli/embedded_cli.c ****         --impl->history.current;
 733:Lib/embedded-cli/embedded_cli.c **** 
 734:Lib/embedded-cli/embedded_cli.c ****     const char *item = historyGet(&impl->history, impl->history.current);
 735:Lib/embedded-cli/embedded_cli.c ****     // simple way to handle empty command the same way as others
 736:Lib/embedded-cli/embedded_cli.c ****     if (item == NULL)
 737:Lib/embedded-cli/embedded_cli.c ****         item = "";
 738:Lib/embedded-cli/embedded_cli.c ****     uint16_t len = (uint16_t) strlen(item);
 739:Lib/embedded-cli/embedded_cli.c ****     memcpy(impl->cmdBuffer, item, len);
 740:Lib/embedded-cli/embedded_cli.c ****     impl->cmdBuffer[len] = '\0';
 741:Lib/embedded-cli/embedded_cli.c ****     impl->cmdSize = len;
 742:Lib/embedded-cli/embedded_cli.c **** 
 743:Lib/embedded-cli/embedded_cli.c ****     writeToOutput(cli, impl->cmdBuffer);
 744:Lib/embedded-cli/embedded_cli.c ****     impl->inputLineLength = impl->cmdSize;
 745:Lib/embedded-cli/embedded_cli.c ****     impl->cursorPos = 0;
 746:Lib/embedded-cli/embedded_cli.c **** 
 747:Lib/embedded-cli/embedded_cli.c ****     printLiveAutocompletion(cli);
 748:Lib/embedded-cli/embedded_cli.c **** }
 749:Lib/embedded-cli/embedded_cli.c **** 
 750:Lib/embedded-cli/embedded_cli.c **** static void onEscapedInput(EmbeddedCli *cli, char c) {
 751:Lib/embedded-cli/embedded_cli.c ****     PREPARE_IMPL(cli);
 752:Lib/embedded-cli/embedded_cli.c **** 
 753:Lib/embedded-cli/embedded_cli.c ****     if (c >= 64 && c <= 126) {
 754:Lib/embedded-cli/embedded_cli.c ****         // handle escape sequence
 755:Lib/embedded-cli/embedded_cli.c ****         UNSET_U8FLAG(impl->flags, CLI_FLAG_ESCAPE_MODE);
 756:Lib/embedded-cli/embedded_cli.c **** 
 757:Lib/embedded-cli/embedded_cli.c ****         if (c == 'A' || c == 'B') {
 758:Lib/embedded-cli/embedded_cli.c ****             // treat \e[..A as cursor up and \e[..B as cursor down
 759:Lib/embedded-cli/embedded_cli.c ****             // there might be extra chars between [ and A/B, just ignore them
 760:Lib/embedded-cli/embedded_cli.c ****             navigateHistory(cli, c == 'A');
 761:Lib/embedded-cli/embedded_cli.c ****         }
 762:Lib/embedded-cli/embedded_cli.c **** 
 763:Lib/embedded-cli/embedded_cli.c ****         if (c == 'C' && impl->cursorPos > 0) {
 764:Lib/embedded-cli/embedded_cli.c ****             impl->cursorPos--;
 765:Lib/embedded-cli/embedded_cli.c ****             writeToOutput(cli, escSeqCursorRight);
 766:Lib/embedded-cli/embedded_cli.c ****         }
 767:Lib/embedded-cli/embedded_cli.c **** 
 768:Lib/embedded-cli/embedded_cli.c ****         if (c == 'D' && impl->cursorPos < strlen(impl->cmdBuffer)) {
 769:Lib/embedded-cli/embedded_cli.c ****             impl->cursorPos++;
 770:Lib/embedded-cli/embedded_cli.c ****             writeToOutput(cli, escSeqCursorLeft);
 771:Lib/embedded-cli/embedded_cli.c ****         }
ARM GAS  /tmp/ccb99Ich.s 			page 15


 772:Lib/embedded-cli/embedded_cli.c ****     }
 773:Lib/embedded-cli/embedded_cli.c **** }
 774:Lib/embedded-cli/embedded_cli.c **** 
 775:Lib/embedded-cli/embedded_cli.c **** static void onCharInput(EmbeddedCli *cli, char c) {
 776:Lib/embedded-cli/embedded_cli.c ****     PREPARE_IMPL(cli);
 777:Lib/embedded-cli/embedded_cli.c **** 
 778:Lib/embedded-cli/embedded_cli.c ****     // have to reserve two extra chars for command ending (used in tokenization)
 779:Lib/embedded-cli/embedded_cli.c ****     if (impl->cmdSize + 2 >= impl->cmdMaxSize)
 780:Lib/embedded-cli/embedded_cli.c ****         return;
 781:Lib/embedded-cli/embedded_cli.c **** 
 782:Lib/embedded-cli/embedded_cli.c ****     size_t insertPos = strlen(impl->cmdBuffer) - impl->cursorPos;
 783:Lib/embedded-cli/embedded_cli.c **** 
 784:Lib/embedded-cli/embedded_cli.c ****     memmove(&impl->cmdBuffer[insertPos + 1], &impl->cmdBuffer[insertPos], impl->cursorPos + 1);
 785:Lib/embedded-cli/embedded_cli.c **** 
 786:Lib/embedded-cli/embedded_cli.c ****     ++impl->cmdSize;
 787:Lib/embedded-cli/embedded_cli.c ****     ++impl->inputLineLength;
 788:Lib/embedded-cli/embedded_cli.c ****     impl->cmdBuffer[insertPos] = c;
 789:Lib/embedded-cli/embedded_cli.c **** 
 790:Lib/embedded-cli/embedded_cli.c ****     if (impl->cursorPos > 0)
 791:Lib/embedded-cli/embedded_cli.c ****         writeToOutput(cli, escSeqInsertChar); // Insert Character
 792:Lib/embedded-cli/embedded_cli.c **** 
 793:Lib/embedded-cli/embedded_cli.c ****     cli->writeChar(cli, c);
 794:Lib/embedded-cli/embedded_cli.c **** }
 795:Lib/embedded-cli/embedded_cli.c **** 
 796:Lib/embedded-cli/embedded_cli.c **** static void onControlInput(EmbeddedCli *cli, char c) {
 797:Lib/embedded-cli/embedded_cli.c ****     PREPARE_IMPL(cli);
 798:Lib/embedded-cli/embedded_cli.c **** 
 799:Lib/embedded-cli/embedded_cli.c ****     // process \r\n and \n\r as single \r\n command
 800:Lib/embedded-cli/embedded_cli.c ****     if ((impl->lastChar == '\r' && c == '\n') ||
 801:Lib/embedded-cli/embedded_cli.c ****         (impl->lastChar == '\n' && c == '\r'))
 802:Lib/embedded-cli/embedded_cli.c ****         return;
 803:Lib/embedded-cli/embedded_cli.c **** 
 804:Lib/embedded-cli/embedded_cli.c ****     if (c == '\r' || c == '\n') {
 805:Lib/embedded-cli/embedded_cli.c ****         // try to autocomplete command and then process it
 806:Lib/embedded-cli/embedded_cli.c ****         onAutocompleteRequest(cli);
 807:Lib/embedded-cli/embedded_cli.c **** 
 808:Lib/embedded-cli/embedded_cli.c ****         writeToOutput(cli, lineBreak);
 809:Lib/embedded-cli/embedded_cli.c **** 
 810:Lib/embedded-cli/embedded_cli.c ****         if (impl->cmdSize > 0)
 811:Lib/embedded-cli/embedded_cli.c ****             parseCommand(cli);
 812:Lib/embedded-cli/embedded_cli.c ****         impl->cmdSize = 0;
 813:Lib/embedded-cli/embedded_cli.c ****         impl->cmdBuffer[impl->cmdSize] = '\0';
 814:Lib/embedded-cli/embedded_cli.c ****         impl->inputLineLength = 0;
 815:Lib/embedded-cli/embedded_cli.c ****         impl->history.current = 0;
 816:Lib/embedded-cli/embedded_cli.c ****         impl->cursorPos = 0;
 817:Lib/embedded-cli/embedded_cli.c **** 
 818:Lib/embedded-cli/embedded_cli.c ****         writeToOutput(cli, impl->invitation);
 819:Lib/embedded-cli/embedded_cli.c ****     } else if ((c == '\b' || c == 0x7F) && ((impl->cmdSize - impl->cursorPos) > 0)) {
 820:Lib/embedded-cli/embedded_cli.c ****         // remove char from screen
 821:Lib/embedded-cli/embedded_cli.c ****         writeToOutput(cli, escSeqCursorLeft); // Move cursor to left
 822:Lib/embedded-cli/embedded_cli.c ****         writeToOutput(cli, escSeqDeleteChar); // And remove character
 823:Lib/embedded-cli/embedded_cli.c ****         // and from buffer
 824:Lib/embedded-cli/embedded_cli.c ****         size_t insertPos = strlen(impl->cmdBuffer) - impl->cursorPos;
 825:Lib/embedded-cli/embedded_cli.c ****         memmove(&impl->cmdBuffer[insertPos - 1], &impl->cmdBuffer[insertPos], impl->cursorPos + 1);
 826:Lib/embedded-cli/embedded_cli.c ****         --impl->cmdSize;
 827:Lib/embedded-cli/embedded_cli.c ****     } else if (c == '\t') {
 828:Lib/embedded-cli/embedded_cli.c ****         onAutocompleteRequest(cli);
ARM GAS  /tmp/ccb99Ich.s 			page 16


 829:Lib/embedded-cli/embedded_cli.c ****     }
 830:Lib/embedded-cli/embedded_cli.c **** 
 831:Lib/embedded-cli/embedded_cli.c **** }
 832:Lib/embedded-cli/embedded_cli.c **** 
 833:Lib/embedded-cli/embedded_cli.c **** static void parseCommand(EmbeddedCli *cli) {
 834:Lib/embedded-cli/embedded_cli.c ****     PREPARE_IMPL(cli);
 835:Lib/embedded-cli/embedded_cli.c **** 
 836:Lib/embedded-cli/embedded_cli.c ****     bool isEmpty = true;
 837:Lib/embedded-cli/embedded_cli.c **** 
 838:Lib/embedded-cli/embedded_cli.c ****     for (int i = 0; i < impl->cmdSize; ++i) {
 839:Lib/embedded-cli/embedded_cli.c ****         if (impl->cmdBuffer[i] != ' ') {
 840:Lib/embedded-cli/embedded_cli.c ****             isEmpty = false;
 841:Lib/embedded-cli/embedded_cli.c ****             break;
 842:Lib/embedded-cli/embedded_cli.c ****         }
 843:Lib/embedded-cli/embedded_cli.c ****     }
 844:Lib/embedded-cli/embedded_cli.c ****     // do not process empty commands
 845:Lib/embedded-cli/embedded_cli.c ****     if (isEmpty)
 846:Lib/embedded-cli/embedded_cli.c ****         return;
 847:Lib/embedded-cli/embedded_cli.c ****     // push command to history before buffer is modified
 848:Lib/embedded-cli/embedded_cli.c ****     historyPut(&impl->history, impl->cmdBuffer);
 849:Lib/embedded-cli/embedded_cli.c **** 
 850:Lib/embedded-cli/embedded_cli.c ****     char *cmdName = NULL;
 851:Lib/embedded-cli/embedded_cli.c ****     char *cmdArgs = NULL;
 852:Lib/embedded-cli/embedded_cli.c ****     bool nameFinished = false;
 853:Lib/embedded-cli/embedded_cli.c **** 
 854:Lib/embedded-cli/embedded_cli.c ****     // find command name and command args inside command buffer
 855:Lib/embedded-cli/embedded_cli.c ****     for (int i = 0; i < impl->cmdSize; ++i) {
 856:Lib/embedded-cli/embedded_cli.c ****         char c = impl->cmdBuffer[i];
 857:Lib/embedded-cli/embedded_cli.c **** 
 858:Lib/embedded-cli/embedded_cli.c ****         if (c == ' ') {
 859:Lib/embedded-cli/embedded_cli.c ****             // all spaces between name and args are filled with zeros
 860:Lib/embedded-cli/embedded_cli.c ****             // so name is a correct null-terminated string
 861:Lib/embedded-cli/embedded_cli.c ****             if (cmdArgs == NULL)
 862:Lib/embedded-cli/embedded_cli.c ****                 impl->cmdBuffer[i] = '\0';
 863:Lib/embedded-cli/embedded_cli.c ****             if (cmdName != NULL)
 864:Lib/embedded-cli/embedded_cli.c ****                 nameFinished = true;
 865:Lib/embedded-cli/embedded_cli.c **** 
 866:Lib/embedded-cli/embedded_cli.c ****         } else if (cmdName == NULL) {
 867:Lib/embedded-cli/embedded_cli.c ****             cmdName = &impl->cmdBuffer[i];
 868:Lib/embedded-cli/embedded_cli.c ****         } else if (cmdArgs == NULL && nameFinished) {
 869:Lib/embedded-cli/embedded_cli.c ****             cmdArgs = &impl->cmdBuffer[i];
 870:Lib/embedded-cli/embedded_cli.c ****         }
 871:Lib/embedded-cli/embedded_cli.c ****     }
 872:Lib/embedded-cli/embedded_cli.c **** 
 873:Lib/embedded-cli/embedded_cli.c ****     // we keep two last bytes in cmd buffer reserved so cmdSize is always by 2
 874:Lib/embedded-cli/embedded_cli.c ****     // less than cmdMaxSize
 875:Lib/embedded-cli/embedded_cli.c ****     impl->cmdBuffer[impl->cmdSize + 1] = '\0';
 876:Lib/embedded-cli/embedded_cli.c **** 
 877:Lib/embedded-cli/embedded_cli.c ****     if (cmdName == NULL)
 878:Lib/embedded-cli/embedded_cli.c ****         return;
 879:Lib/embedded-cli/embedded_cli.c **** 
 880:Lib/embedded-cli/embedded_cli.c ****     // try to find command in bindings
 881:Lib/embedded-cli/embedded_cli.c ****     for (int i = 0; i < impl->bindingsCount; ++i) {
 882:Lib/embedded-cli/embedded_cli.c ****         if (strcmp(cmdName, impl->bindings[i].name) == 0) {
 883:Lib/embedded-cli/embedded_cli.c ****             if (impl->bindings[i].binding == NULL)
 884:Lib/embedded-cli/embedded_cli.c ****                 break;
 885:Lib/embedded-cli/embedded_cli.c **** 
ARM GAS  /tmp/ccb99Ich.s 			page 17


 886:Lib/embedded-cli/embedded_cli.c ****             if (impl->bindings[i].tokenizeArgs)
 887:Lib/embedded-cli/embedded_cli.c ****                 embeddedCliTokenizeArgs(cmdArgs);
 888:Lib/embedded-cli/embedded_cli.c ****             // currently, output is blank line, so we can just print directly
 889:Lib/embedded-cli/embedded_cli.c ****             SET_FLAG(impl->flags, CLI_FLAG_DIRECT_PRINT);
 890:Lib/embedded-cli/embedded_cli.c ****             // check if help was requested (help is printed when no other options are set)
 891:Lib/embedded-cli/embedded_cli.c ****             if (cmdArgs != NULL && (strcmp(cmdArgs, "-h") == 0 || strcmp(cmdArgs, "--help") == 0)) 
 892:Lib/embedded-cli/embedded_cli.c ****                 printBindingHelp(cli, &impl->bindings[i]);
 893:Lib/embedded-cli/embedded_cli.c ****             } else {
 894:Lib/embedded-cli/embedded_cli.c ****                 impl->bindings[i].binding(cli, cmdArgs, impl->bindings[i].context);
 895:Lib/embedded-cli/embedded_cli.c ****             }
 896:Lib/embedded-cli/embedded_cli.c ****             UNSET_U8FLAG(impl->flags, CLI_FLAG_DIRECT_PRINT);
 897:Lib/embedded-cli/embedded_cli.c ****             return;
 898:Lib/embedded-cli/embedded_cli.c ****         }
 899:Lib/embedded-cli/embedded_cli.c ****     }
 900:Lib/embedded-cli/embedded_cli.c **** 
 901:Lib/embedded-cli/embedded_cli.c ****     // command not found in bindings or binding was null
 902:Lib/embedded-cli/embedded_cli.c ****     // try to call default callback
 903:Lib/embedded-cli/embedded_cli.c ****     if (cli->onCommand != NULL) {
 904:Lib/embedded-cli/embedded_cli.c ****         CliCommand command;
 905:Lib/embedded-cli/embedded_cli.c ****         command.name = cmdName;
 906:Lib/embedded-cli/embedded_cli.c ****         command.args = cmdArgs;
 907:Lib/embedded-cli/embedded_cli.c **** 
 908:Lib/embedded-cli/embedded_cli.c ****         // currently, output is blank line, so we can just print directly
 909:Lib/embedded-cli/embedded_cli.c ****         SET_FLAG(impl->flags, CLI_FLAG_DIRECT_PRINT);
 910:Lib/embedded-cli/embedded_cli.c ****         cli->onCommand(cli, &command);
 911:Lib/embedded-cli/embedded_cli.c ****         UNSET_U8FLAG(impl->flags, CLI_FLAG_DIRECT_PRINT);
 912:Lib/embedded-cli/embedded_cli.c ****     } else {
 913:Lib/embedded-cli/embedded_cli.c ****         onUnknownCommand(cli, cmdName);
 914:Lib/embedded-cli/embedded_cli.c ****     }
 915:Lib/embedded-cli/embedded_cli.c **** }
 916:Lib/embedded-cli/embedded_cli.c **** 
 917:Lib/embedded-cli/embedded_cli.c **** static void printBindingHelp(EmbeddedCli *cli, CliCommandBinding *binding) {
 918:Lib/embedded-cli/embedded_cli.c ****     if (binding->help != NULL) {
 919:Lib/embedded-cli/embedded_cli.c ****         cli->writeChar(cli, '\t');
 920:Lib/embedded-cli/embedded_cli.c ****         writeToOutput(cli, binding->help);
 921:Lib/embedded-cli/embedded_cli.c ****         writeToOutput(cli, lineBreak);
 922:Lib/embedded-cli/embedded_cli.c ****     }
 923:Lib/embedded-cli/embedded_cli.c **** }
 924:Lib/embedded-cli/embedded_cli.c **** 
 925:Lib/embedded-cli/embedded_cli.c **** static void initInternalBindings(EmbeddedCli *cli) {
 926:Lib/embedded-cli/embedded_cli.c ****     CliCommandBinding b = {
 927:Lib/embedded-cli/embedded_cli.c ****             "help",
 928:Lib/embedded-cli/embedded_cli.c ****             "Print list of commands",
 929:Lib/embedded-cli/embedded_cli.c ****             true,
 930:Lib/embedded-cli/embedded_cli.c ****             NULL,
 931:Lib/embedded-cli/embedded_cli.c ****             onHelp
 932:Lib/embedded-cli/embedded_cli.c ****     };
 933:Lib/embedded-cli/embedded_cli.c ****     embeddedCliAddBinding(cli, b);
 934:Lib/embedded-cli/embedded_cli.c **** }
 935:Lib/embedded-cli/embedded_cli.c **** 
 936:Lib/embedded-cli/embedded_cli.c **** static void onHelp(EmbeddedCli *cli, char *tokens, void *context) {
 937:Lib/embedded-cli/embedded_cli.c ****     UNUSED(context);
 938:Lib/embedded-cli/embedded_cli.c ****     PREPARE_IMPL(cli);
 939:Lib/embedded-cli/embedded_cli.c **** 
 940:Lib/embedded-cli/embedded_cli.c ****     if (impl->bindingsCount == 0) {
 941:Lib/embedded-cli/embedded_cli.c ****         writeToOutput(cli, "Help is not available");
 942:Lib/embedded-cli/embedded_cli.c ****         writeToOutput(cli, lineBreak);
ARM GAS  /tmp/ccb99Ich.s 			page 18


 943:Lib/embedded-cli/embedded_cli.c ****         return;
 944:Lib/embedded-cli/embedded_cli.c ****     }
 945:Lib/embedded-cli/embedded_cli.c **** 
 946:Lib/embedded-cli/embedded_cli.c ****     uint16_t tokenCount = embeddedCliGetTokenCount(tokens);
 947:Lib/embedded-cli/embedded_cli.c ****     if (tokenCount == 0) {
 948:Lib/embedded-cli/embedded_cli.c ****         for (int i = 0; i < impl->bindingsCount; ++i) {
 949:Lib/embedded-cli/embedded_cli.c ****             writeToOutput(cli, " * ");
 950:Lib/embedded-cli/embedded_cli.c ****             writeToOutput(cli, impl->bindings[i].name);
 951:Lib/embedded-cli/embedded_cli.c ****             writeToOutput(cli, lineBreak);
 952:Lib/embedded-cli/embedded_cli.c ****             printBindingHelp(cli, &impl->bindings[i]);
 953:Lib/embedded-cli/embedded_cli.c ****         }
 954:Lib/embedded-cli/embedded_cli.c ****     } else if (tokenCount == 1) {
 955:Lib/embedded-cli/embedded_cli.c ****         // try find command
 956:Lib/embedded-cli/embedded_cli.c ****         const char *helpStr = NULL;
 957:Lib/embedded-cli/embedded_cli.c ****         const char *cmdName = embeddedCliGetToken(tokens, 1);
 958:Lib/embedded-cli/embedded_cli.c ****         bool found = false;
 959:Lib/embedded-cli/embedded_cli.c ****         for (int i = 0; i < impl->bindingsCount; ++i) {
 960:Lib/embedded-cli/embedded_cli.c ****             if (strcmp(impl->bindings[i].name, cmdName) == 0) {
 961:Lib/embedded-cli/embedded_cli.c ****                 helpStr = impl->bindings[i].help;
 962:Lib/embedded-cli/embedded_cli.c ****                 found = true;
 963:Lib/embedded-cli/embedded_cli.c ****                 break;
 964:Lib/embedded-cli/embedded_cli.c ****             }
 965:Lib/embedded-cli/embedded_cli.c ****         }
 966:Lib/embedded-cli/embedded_cli.c ****         if (found && helpStr != NULL) {
 967:Lib/embedded-cli/embedded_cli.c ****             writeToOutput(cli, " * ");
 968:Lib/embedded-cli/embedded_cli.c ****             writeToOutput(cli, cmdName);
 969:Lib/embedded-cli/embedded_cli.c ****             writeToOutput(cli, lineBreak);
 970:Lib/embedded-cli/embedded_cli.c ****             cli->writeChar(cli, '\t');
 971:Lib/embedded-cli/embedded_cli.c ****             writeToOutput(cli, helpStr);
 972:Lib/embedded-cli/embedded_cli.c ****             writeToOutput(cli, lineBreak);
 973:Lib/embedded-cli/embedded_cli.c ****         } else if (found) {
 974:Lib/embedded-cli/embedded_cli.c ****             writeToOutput(cli, "Help is not available");
 975:Lib/embedded-cli/embedded_cli.c ****             writeToOutput(cli, lineBreak);
 976:Lib/embedded-cli/embedded_cli.c ****         } else {
 977:Lib/embedded-cli/embedded_cli.c ****             onUnknownCommand(cli, cmdName);
 978:Lib/embedded-cli/embedded_cli.c ****         }
 979:Lib/embedded-cli/embedded_cli.c ****     } else {
 980:Lib/embedded-cli/embedded_cli.c ****         writeToOutput(cli, "Command \"help\" receives one or zero arguments");
 981:Lib/embedded-cli/embedded_cli.c ****         writeToOutput(cli, lineBreak);
 982:Lib/embedded-cli/embedded_cli.c ****     }
 983:Lib/embedded-cli/embedded_cli.c **** }
 984:Lib/embedded-cli/embedded_cli.c **** 
 985:Lib/embedded-cli/embedded_cli.c **** static void onUnknownCommand(EmbeddedCli *cli, const char *name) {
 986:Lib/embedded-cli/embedded_cli.c ****     writeToOutput(cli, "Unknown command: \"");
 987:Lib/embedded-cli/embedded_cli.c ****     writeToOutput(cli, name);
 988:Lib/embedded-cli/embedded_cli.c ****     writeToOutput(cli, "\". Write \"help\" for a list of available commands");
 989:Lib/embedded-cli/embedded_cli.c ****     writeToOutput(cli, lineBreak);
 990:Lib/embedded-cli/embedded_cli.c **** }
 991:Lib/embedded-cli/embedded_cli.c **** 
 992:Lib/embedded-cli/embedded_cli.c **** static AutocompletedCommand getAutocompletedCommand(EmbeddedCli *cli, const char *prefix) {
 993:Lib/embedded-cli/embedded_cli.c ****     AutocompletedCommand cmd = {NULL, 0, 0};
 994:Lib/embedded-cli/embedded_cli.c **** 
 995:Lib/embedded-cli/embedded_cli.c ****     size_t prefixLen = strlen(prefix);
 996:Lib/embedded-cli/embedded_cli.c **** 
 997:Lib/embedded-cli/embedded_cli.c ****     PREPARE_IMPL(cli);
 998:Lib/embedded-cli/embedded_cli.c ****     if (impl->bindingsCount == 0 || prefixLen == 0)
 999:Lib/embedded-cli/embedded_cli.c ****         return cmd;
ARM GAS  /tmp/ccb99Ich.s 			page 19


1000:Lib/embedded-cli/embedded_cli.c **** 
1001:Lib/embedded-cli/embedded_cli.c **** 
1002:Lib/embedded-cli/embedded_cli.c ****     for (int i = 0; i < impl->bindingsCount; ++i) {
1003:Lib/embedded-cli/embedded_cli.c ****         const char *name = impl->bindings[i].name;
1004:Lib/embedded-cli/embedded_cli.c ****         size_t len = strlen(name);
1005:Lib/embedded-cli/embedded_cli.c **** 
1006:Lib/embedded-cli/embedded_cli.c ****         // unset autocomplete flag
1007:Lib/embedded-cli/embedded_cli.c ****         UNSET_U8FLAG(impl->bindingsFlags[i], BINDING_FLAG_AUTOCOMPLETE);
1008:Lib/embedded-cli/embedded_cli.c **** 
1009:Lib/embedded-cli/embedded_cli.c ****         if (len < prefixLen)
1010:Lib/embedded-cli/embedded_cli.c ****             continue;
1011:Lib/embedded-cli/embedded_cli.c **** 
1012:Lib/embedded-cli/embedded_cli.c ****         // check if this command is candidate for autocomplete
1013:Lib/embedded-cli/embedded_cli.c ****         bool isCandidate = true;
1014:Lib/embedded-cli/embedded_cli.c ****         for (size_t j = 0; j < prefixLen; ++j) {
1015:Lib/embedded-cli/embedded_cli.c ****             if (prefix[j] != name[j]) {
1016:Lib/embedded-cli/embedded_cli.c ****                 isCandidate = false;
1017:Lib/embedded-cli/embedded_cli.c ****                 break;
1018:Lib/embedded-cli/embedded_cli.c ****             }
1019:Lib/embedded-cli/embedded_cli.c ****         }
1020:Lib/embedded-cli/embedded_cli.c ****         if (!isCandidate)
1021:Lib/embedded-cli/embedded_cli.c ****             continue;
1022:Lib/embedded-cli/embedded_cli.c **** 
1023:Lib/embedded-cli/embedded_cli.c ****         impl->bindingsFlags[i] |= BINDING_FLAG_AUTOCOMPLETE;
1024:Lib/embedded-cli/embedded_cli.c **** 
1025:Lib/embedded-cli/embedded_cli.c ****         if (cmd.candidateCount == 0 || len < cmd.autocompletedLen)
1026:Lib/embedded-cli/embedded_cli.c ****             cmd.autocompletedLen = (uint16_t) len;
1027:Lib/embedded-cli/embedded_cli.c **** 
1028:Lib/embedded-cli/embedded_cli.c ****         ++cmd.candidateCount;
1029:Lib/embedded-cli/embedded_cli.c **** 
1030:Lib/embedded-cli/embedded_cli.c ****         if (cmd.candidateCount == 1) {
1031:Lib/embedded-cli/embedded_cli.c ****             cmd.firstCandidate = name;
1032:Lib/embedded-cli/embedded_cli.c ****             continue;
1033:Lib/embedded-cli/embedded_cli.c ****         }
1034:Lib/embedded-cli/embedded_cli.c **** 
1035:Lib/embedded-cli/embedded_cli.c ****         for (size_t j = impl->cmdSize; j < cmd.autocompletedLen; ++j) {
1036:Lib/embedded-cli/embedded_cli.c ****             if (cmd.firstCandidate[j] != name[j]) {
1037:Lib/embedded-cli/embedded_cli.c ****                 cmd.autocompletedLen = (uint16_t) j;
1038:Lib/embedded-cli/embedded_cli.c ****                 break;
1039:Lib/embedded-cli/embedded_cli.c ****             }
1040:Lib/embedded-cli/embedded_cli.c ****         }
1041:Lib/embedded-cli/embedded_cli.c ****     }
1042:Lib/embedded-cli/embedded_cli.c **** 
1043:Lib/embedded-cli/embedded_cli.c ****     return cmd;
1044:Lib/embedded-cli/embedded_cli.c **** }
1045:Lib/embedded-cli/embedded_cli.c **** 
1046:Lib/embedded-cli/embedded_cli.c **** static void printLiveAutocompletion(EmbeddedCli *cli) {
1047:Lib/embedded-cli/embedded_cli.c ****     PREPARE_IMPL(cli);
1048:Lib/embedded-cli/embedded_cli.c **** 
1049:Lib/embedded-cli/embedded_cli.c ****     if (!IS_FLAG_SET(impl->flags, CLI_FLAG_AUTOCOMPLETE_ENABLED))
1050:Lib/embedded-cli/embedded_cli.c ****         return;
1051:Lib/embedded-cli/embedded_cli.c **** 
1052:Lib/embedded-cli/embedded_cli.c ****     AutocompletedCommand cmd = getAutocompletedCommand(cli, impl->cmdBuffer);
1053:Lib/embedded-cli/embedded_cli.c **** 
1054:Lib/embedded-cli/embedded_cli.c ****     if (cmd.candidateCount == 0) {
1055:Lib/embedded-cli/embedded_cli.c ****         cmd.autocompletedLen = impl->cmdSize;
1056:Lib/embedded-cli/embedded_cli.c ****     }
ARM GAS  /tmp/ccb99Ich.s 			page 20


1057:Lib/embedded-cli/embedded_cli.c **** 
1058:Lib/embedded-cli/embedded_cli.c ****     // save cursor location
1059:Lib/embedded-cli/embedded_cli.c ****     writeToOutput(cli, escSeqCursorSave);
1060:Lib/embedded-cli/embedded_cli.c **** 
1061:Lib/embedded-cli/embedded_cli.c ****     moveCursor(cli, impl->cursorPos, CURSOR_DIRECTION_FORWARD);
1062:Lib/embedded-cli/embedded_cli.c **** 
1063:Lib/embedded-cli/embedded_cli.c ****     // print live autocompletion (or nothing, if it doesn't exist)
1064:Lib/embedded-cli/embedded_cli.c ****     for (size_t i = impl->cmdSize; i < cmd.autocompletedLen; ++i) {
1065:Lib/embedded-cli/embedded_cli.c ****         cli->writeChar(cli, cmd.firstCandidate[i]);
1066:Lib/embedded-cli/embedded_cli.c ****     }
1067:Lib/embedded-cli/embedded_cli.c ****     // replace with spaces previous autocompletion
1068:Lib/embedded-cli/embedded_cli.c ****     for (size_t i = cmd.autocompletedLen; i < impl->inputLineLength; ++i) {
1069:Lib/embedded-cli/embedded_cli.c ****         cli->writeChar(cli, ' ');
1070:Lib/embedded-cli/embedded_cli.c ****     }
1071:Lib/embedded-cli/embedded_cli.c ****     impl->inputLineLength = cmd.autocompletedLen;
1072:Lib/embedded-cli/embedded_cli.c **** 
1073:Lib/embedded-cli/embedded_cli.c ****     // restore cursor
1074:Lib/embedded-cli/embedded_cli.c ****     writeToOutput(cli, escSeqCursorRestore);
1075:Lib/embedded-cli/embedded_cli.c **** }
1076:Lib/embedded-cli/embedded_cli.c **** 
1077:Lib/embedded-cli/embedded_cli.c **** static void onAutocompleteRequest(EmbeddedCli *cli) {
1078:Lib/embedded-cli/embedded_cli.c ****     PREPARE_IMPL(cli);
1079:Lib/embedded-cli/embedded_cli.c **** 
1080:Lib/embedded-cli/embedded_cli.c ****     AutocompletedCommand cmd = getAutocompletedCommand(cli, impl->cmdBuffer);
1081:Lib/embedded-cli/embedded_cli.c **** 
1082:Lib/embedded-cli/embedded_cli.c ****     if (cmd.candidateCount == 0)
1083:Lib/embedded-cli/embedded_cli.c ****         return;
1084:Lib/embedded-cli/embedded_cli.c **** 
1085:Lib/embedded-cli/embedded_cli.c ****     if (cmd.candidateCount == 1 || cmd.autocompletedLen > impl->cmdSize) {
1086:Lib/embedded-cli/embedded_cli.c ****         // can copy from index cmdSize, but prefix is the same, so copy everything
1087:Lib/embedded-cli/embedded_cli.c ****         memcpy(impl->cmdBuffer, cmd.firstCandidate, cmd.autocompletedLen);
1088:Lib/embedded-cli/embedded_cli.c ****         if (cmd.candidateCount == 1) {
1089:Lib/embedded-cli/embedded_cli.c ****             impl->cmdBuffer[cmd.autocompletedLen] = ' ';
1090:Lib/embedded-cli/embedded_cli.c ****             ++cmd.autocompletedLen;
1091:Lib/embedded-cli/embedded_cli.c ****         }
1092:Lib/embedded-cli/embedded_cli.c ****         impl->cmdBuffer[cmd.autocompletedLen] = '\0';
1093:Lib/embedded-cli/embedded_cli.c **** 
1094:Lib/embedded-cli/embedded_cli.c ****         writeToOutput(cli, &impl->cmdBuffer[impl->cmdSize - impl->cursorPos]);
1095:Lib/embedded-cli/embedded_cli.c ****         impl->cmdSize = cmd.autocompletedLen;
1096:Lib/embedded-cli/embedded_cli.c ****         impl->inputLineLength = impl->cmdSize;
1097:Lib/embedded-cli/embedded_cli.c ****         impl->cursorPos = 0; // Cursor has been moved to the end
1098:Lib/embedded-cli/embedded_cli.c ****         return;
1099:Lib/embedded-cli/embedded_cli.c ****     }
1100:Lib/embedded-cli/embedded_cli.c **** 
1101:Lib/embedded-cli/embedded_cli.c ****     // with multiple candidates when we already completed to common prefix
1102:Lib/embedded-cli/embedded_cli.c ****     // we show all candidates and print input again
1103:Lib/embedded-cli/embedded_cli.c ****     // we need to completely clear current line since it begins with invitation
1104:Lib/embedded-cli/embedded_cli.c ****     clearCurrentLine(cli);
1105:Lib/embedded-cli/embedded_cli.c **** 
1106:Lib/embedded-cli/embedded_cli.c ****     for (int i = 0; i < impl->bindingsCount; ++i) {
1107:Lib/embedded-cli/embedded_cli.c ****         // autocomplete flag is set for all candidates by last call to
1108:Lib/embedded-cli/embedded_cli.c ****         // getAutocompletedCommand
1109:Lib/embedded-cli/embedded_cli.c ****         if (!(impl->bindingsFlags[i] & BINDING_FLAG_AUTOCOMPLETE))
1110:Lib/embedded-cli/embedded_cli.c ****             continue;
1111:Lib/embedded-cli/embedded_cli.c **** 
1112:Lib/embedded-cli/embedded_cli.c ****         const char *name = impl->bindings[i].name;
1113:Lib/embedded-cli/embedded_cli.c **** 
ARM GAS  /tmp/ccb99Ich.s 			page 21


1114:Lib/embedded-cli/embedded_cli.c ****         writeToOutput(cli, name);
1115:Lib/embedded-cli/embedded_cli.c ****         writeToOutput(cli, lineBreak);
1116:Lib/embedded-cli/embedded_cli.c ****     }
1117:Lib/embedded-cli/embedded_cli.c **** 
1118:Lib/embedded-cli/embedded_cli.c ****     writeToOutput(cli, impl->invitation);
1119:Lib/embedded-cli/embedded_cli.c ****     writeToOutput(cli, impl->cmdBuffer);
1120:Lib/embedded-cli/embedded_cli.c **** 
1121:Lib/embedded-cli/embedded_cli.c ****     impl->inputLineLength = impl->cmdSize;
1122:Lib/embedded-cli/embedded_cli.c **** }
1123:Lib/embedded-cli/embedded_cli.c **** 
1124:Lib/embedded-cli/embedded_cli.c **** static void clearCurrentLine(EmbeddedCli *cli) {
1125:Lib/embedded-cli/embedded_cli.c ****     PREPARE_IMPL(cli);
1126:Lib/embedded-cli/embedded_cli.c ****     size_t len = impl->inputLineLength + strlen(impl->invitation);
1127:Lib/embedded-cli/embedded_cli.c **** 
1128:Lib/embedded-cli/embedded_cli.c ****     cli->writeChar(cli, '\r');
1129:Lib/embedded-cli/embedded_cli.c ****     for (size_t i = 0; i < len; ++i) {
1130:Lib/embedded-cli/embedded_cli.c ****         cli->writeChar(cli, ' ');
1131:Lib/embedded-cli/embedded_cli.c ****     }
1132:Lib/embedded-cli/embedded_cli.c ****     cli->writeChar(cli, '\r');
1133:Lib/embedded-cli/embedded_cli.c ****     impl->inputLineLength = 0;
1134:Lib/embedded-cli/embedded_cli.c **** 
1135:Lib/embedded-cli/embedded_cli.c ****     impl->cursorPos = 0;
1136:Lib/embedded-cli/embedded_cli.c **** }
1137:Lib/embedded-cli/embedded_cli.c **** 
1138:Lib/embedded-cli/embedded_cli.c **** static void writeToOutput(EmbeddedCli *cli, const char *str) {
  29              		.loc 1 1138 62 view -0
  30              		.cfi_startproc
  31              		@ args = 0, pretend = 0, frame = 0
  32              		@ frame_needed = 0, uses_anonymous_args = 0
  33              		.loc 1 1138 62 is_stmt 0 view .LVU1
  34 0000 08B5     		push	{r3, lr}
  35              		.cfi_def_cfa_offset 8
  36              		.cfi_offset 3, -8
  37              		.cfi_offset 14, -4
1139:Lib/embedded-cli/embedded_cli.c ****     // size_t len = strlen(str);
1140:Lib/embedded-cli/embedded_cli.c **** 
1141:Lib/embedded-cli/embedded_cli.c ****     // for (size_t i = 0; i < len; ++i) {
1142:Lib/embedded-cli/embedded_cli.c ****     //     cli->writeChar(cli, str[i]);
1143:Lib/embedded-cli/embedded_cli.c ****     // }
1144:Lib/embedded-cli/embedded_cli.c ****     cli->writeString(cli, str);
  38              		.loc 1 1144 5 is_stmt 1 view .LVU2
  39              		.loc 1 1144 8 is_stmt 0 view .LVU3
  40 0002 4368     		ldr	r3, [r0, #4]
  41              		.loc 1 1144 5 view .LVU4
  42 0004 9847     		blx	r3
  43              	.LVL1:
1145:Lib/embedded-cli/embedded_cli.c **** }
  44              		.loc 1 1145 1 view .LVU5
  45 0006 08BD     		pop	{r3, pc}
  46              		.cfi_endproc
  47              	.LFE34:
  49              		.section	.rodata.printBindingHelp.str1.4,"aMS",%progbits,1
  50              		.align	2
  51              	.LC3:
  52 0000 0D0A00   		.ascii	"\015\012\000"
  53              		.section	.text.printBindingHelp,"ax",%progbits
  54              		.align	1
ARM GAS  /tmp/ccb99Ich.s 			page 22


  55              		.syntax unified
  56              		.thumb
  57              		.thumb_func
  59              	printBindingHelp:
  60              	.LVL2:
  61              	.LFB26:
 917:Lib/embedded-cli/embedded_cli.c ****     if (binding->help != NULL) {
  62              		.loc 1 917 76 is_stmt 1 view -0
  63              		.cfi_startproc
  64              		@ args = 0, pretend = 0, frame = 0
  65              		@ frame_needed = 0, uses_anonymous_args = 0
 917:Lib/embedded-cli/embedded_cli.c ****     if (binding->help != NULL) {
  66              		.loc 1 917 76 is_stmt 0 view .LVU7
  67 0000 38B5     		push	{r3, r4, r5, lr}
  68              		.cfi_def_cfa_offset 16
  69              		.cfi_offset 3, -16
  70              		.cfi_offset 4, -12
  71              		.cfi_offset 5, -8
  72              		.cfi_offset 14, -4
 918:Lib/embedded-cli/embedded_cli.c ****         cli->writeChar(cli, '\t');
  73              		.loc 1 918 5 is_stmt 1 view .LVU8
 918:Lib/embedded-cli/embedded_cli.c ****         cli->writeChar(cli, '\t');
  74              		.loc 1 918 16 is_stmt 0 view .LVU9
  75 0002 4B68     		ldr	r3, [r1, #4]
 918:Lib/embedded-cli/embedded_cli.c ****         cli->writeChar(cli, '\t');
  76              		.loc 1 918 8 view .LVU10
  77 0004 63B1     		cbz	r3, .L3
  78 0006 0446     		mov	r4, r0
  79 0008 0D46     		mov	r5, r1
 919:Lib/embedded-cli/embedded_cli.c ****         writeToOutput(cli, binding->help);
  80              		.loc 1 919 9 is_stmt 1 view .LVU11
 919:Lib/embedded-cli/embedded_cli.c ****         writeToOutput(cli, binding->help);
  81              		.loc 1 919 12 is_stmt 0 view .LVU12
  82 000a 0368     		ldr	r3, [r0]
 919:Lib/embedded-cli/embedded_cli.c ****         writeToOutput(cli, binding->help);
  83              		.loc 1 919 9 view .LVU13
  84 000c 0921     		movs	r1, #9
  85              	.LVL3:
 919:Lib/embedded-cli/embedded_cli.c ****         writeToOutput(cli, binding->help);
  86              		.loc 1 919 9 view .LVU14
  87 000e 9847     		blx	r3
  88              	.LVL4:
 920:Lib/embedded-cli/embedded_cli.c ****         writeToOutput(cli, lineBreak);
  89              		.loc 1 920 9 is_stmt 1 view .LVU15
  90 0010 6968     		ldr	r1, [r5, #4]
  91 0012 2046     		mov	r0, r4
  92 0014 FFF7FEFF 		bl	writeToOutput
  93              	.LVL5:
 921:Lib/embedded-cli/embedded_cli.c ****     }
  94              		.loc 1 921 9 view .LVU16
  95 0018 0249     		ldr	r1, .L6
  96 001a 2046     		mov	r0, r4
  97 001c FFF7FEFF 		bl	writeToOutput
  98              	.LVL6:
  99              	.L3:
 923:Lib/embedded-cli/embedded_cli.c **** 
 100              		.loc 1 923 1 is_stmt 0 view .LVU17
ARM GAS  /tmp/ccb99Ich.s 			page 23


 101 0020 38BD     		pop	{r3, r4, r5, pc}
 102              	.L7:
 103 0022 00BF     		.align	2
 104              	.L6:
 105 0024 00000000 		.word	.LC3
 106              		.cfi_endproc
 107              	.LFE26:
 109              		.section	.rodata.onUnknownCommand.str1.4,"aMS",%progbits,1
 110              		.align	2
 111              	.LC4:
 112 0000 556E6B6E 		.ascii	"Unknown command: \"\000"
 112      6F776E20 
 112      636F6D6D 
 112      616E643A 
 112      202200
 113 0013 00       		.align	2
 114              	.LC5:
 115 0014 222E2057 		.ascii	"\". Write \"help\" for a list of available commands"
 115      72697465 
 115      20226865 
 115      6C702220 
 115      666F7220 
 116 0044 00       		.ascii	"\000"
 117              		.section	.text.onUnknownCommand,"ax",%progbits
 118              		.align	1
 119              		.syntax unified
 120              		.thumb
 121              		.thumb_func
 123              	onUnknownCommand:
 124              	.LVL7:
 125              	.LFB29:
 985:Lib/embedded-cli/embedded_cli.c ****     writeToOutput(cli, "Unknown command: \"");
 126              		.loc 1 985 66 is_stmt 1 view -0
 127              		.cfi_startproc
 128              		@ args = 0, pretend = 0, frame = 0
 129              		@ frame_needed = 0, uses_anonymous_args = 0
 985:Lib/embedded-cli/embedded_cli.c ****     writeToOutput(cli, "Unknown command: \"");
 130              		.loc 1 985 66 is_stmt 0 view .LVU19
 131 0000 38B5     		push	{r3, r4, r5, lr}
 132              		.cfi_def_cfa_offset 16
 133              		.cfi_offset 3, -16
 134              		.cfi_offset 4, -12
 135              		.cfi_offset 5, -8
 136              		.cfi_offset 14, -4
 137 0002 0446     		mov	r4, r0
 138 0004 0D46     		mov	r5, r1
 986:Lib/embedded-cli/embedded_cli.c ****     writeToOutput(cli, name);
 139              		.loc 1 986 5 is_stmt 1 view .LVU20
 140 0006 0849     		ldr	r1, .L10
 141              	.LVL8:
 986:Lib/embedded-cli/embedded_cli.c ****     writeToOutput(cli, name);
 142              		.loc 1 986 5 is_stmt 0 view .LVU21
 143 0008 FFF7FEFF 		bl	writeToOutput
 144              	.LVL9:
 987:Lib/embedded-cli/embedded_cli.c ****     writeToOutput(cli, "\". Write \"help\" for a list of available commands");
 145              		.loc 1 987 5 is_stmt 1 view .LVU22
 146 000c 2946     		mov	r1, r5
ARM GAS  /tmp/ccb99Ich.s 			page 24


 147 000e 2046     		mov	r0, r4
 148 0010 FFF7FEFF 		bl	writeToOutput
 149              	.LVL10:
 988:Lib/embedded-cli/embedded_cli.c ****     writeToOutput(cli, lineBreak);
 150              		.loc 1 988 5 view .LVU23
 151 0014 0549     		ldr	r1, .L10+4
 152 0016 2046     		mov	r0, r4
 153 0018 FFF7FEFF 		bl	writeToOutput
 154              	.LVL11:
 989:Lib/embedded-cli/embedded_cli.c **** }
 155              		.loc 1 989 5 view .LVU24
 156 001c 0449     		ldr	r1, .L10+8
 157 001e 2046     		mov	r0, r4
 158 0020 FFF7FEFF 		bl	writeToOutput
 159              	.LVL12:
 990:Lib/embedded-cli/embedded_cli.c **** 
 160              		.loc 1 990 1 is_stmt 0 view .LVU25
 161 0024 38BD     		pop	{r3, r4, r5, pc}
 162              	.LVL13:
 163              	.L11:
 990:Lib/embedded-cli/embedded_cli.c **** 
 164              		.loc 1 990 1 view .LVU26
 165 0026 00BF     		.align	2
 166              	.L10:
 167 0028 00000000 		.word	.LC4
 168 002c 14000000 		.word	.LC5
 169 0030 00000000 		.word	.LC3
 170              		.cfi_endproc
 171              	.LFE29:
 173              		.section	.text.isControlChar,"ax",%progbits
 174              		.align	1
 175              		.syntax unified
 176              		.thumb
 177              		.thumb_func
 179              	isControlChar:
 180              	.LVL14:
 181              	.LFB36:
1146:Lib/embedded-cli/embedded_cli.c **** 
1147:Lib/embedded-cli/embedded_cli.c **** static void moveCursor(EmbeddedCli* cli, uint16_t count, bool direction) {
1148:Lib/embedded-cli/embedded_cli.c ****     // Check if we need to send any command
1149:Lib/embedded-cli/embedded_cli.c ****     if (count == 0)
1150:Lib/embedded-cli/embedded_cli.c ****         return;
1151:Lib/embedded-cli/embedded_cli.c **** 
1152:Lib/embedded-cli/embedded_cli.c ****     // 5 = uint16_t max, 3 = escape sequence, 1 = string termination
1153:Lib/embedded-cli/embedded_cli.c ****     char escBuffer[5 + 3 + 1] = { 0 };
1154:Lib/embedded-cli/embedded_cli.c ****     char dirChar = direction ? escSeqCursorRight[2] : escSeqCursorLeft[2];
1155:Lib/embedded-cli/embedded_cli.c ****     sprintf(escBuffer, "\x1B[%u%c", count, dirChar);
1156:Lib/embedded-cli/embedded_cli.c ****     writeToOutput(cli, escBuffer);
1157:Lib/embedded-cli/embedded_cli.c **** }
1158:Lib/embedded-cli/embedded_cli.c **** 
1159:Lib/embedded-cli/embedded_cli.c **** static bool isControlChar(char c) {
 182              		.loc 1 1159 35 is_stmt 1 view -0
 183              		.cfi_startproc
 184              		@ args = 0, pretend = 0, frame = 0
 185              		@ frame_needed = 0, uses_anonymous_args = 0
 186              		@ link register save eliminated.
1160:Lib/embedded-cli/embedded_cli.c ****     return c == '\r' || c == '\n' || c == '\b' || c == '\t' || c == 0x7F;
ARM GAS  /tmp/ccb99Ich.s 			page 25


 187              		.loc 1 1160 5 view .LVU28
 188 0000 0D28     		cmp	r0, #13
 189 0002 0BD8     		bhi	.L13
 190 0004 0828     		cmp	r0, #8
 191 0006 0DD3     		bcc	.L17
 192 0008 0838     		subs	r0, r0, #8
 193              	.LVL15:
 194              		.loc 1 1160 5 is_stmt 0 view .LVU29
 195 000a 0528     		cmp	r0, #5
 196 000c 04D8     		bhi	.L15
 197 000e DFE800F0 		tbb	[pc, r0]
 198              	.L16:
 199 0012 0B       		.byte	(.L18-.L16)/2
 200 0013 0B       		.byte	(.L18-.L16)/2
 201 0014 0B       		.byte	(.L18-.L16)/2
 202 0015 03       		.byte	(.L15-.L16)/2
 203 0016 03       		.byte	(.L15-.L16)/2
 204 0017 0B       		.byte	(.L18-.L16)/2
 205              		.p2align 1
 206              	.L15:
1159:Lib/embedded-cli/embedded_cli.c ****     return c == '\r' || c == '\n' || c == '\b' || c == '\t' || c == 0x7F;
 207              		.loc 1 1159 35 view .LVU30
 208 0018 0020     		movs	r0, #0
 209              	.LVL16:
1159:Lib/embedded-cli/embedded_cli.c ****     return c == '\r' || c == '\n' || c == '\b' || c == '\t' || c == 0x7F;
 210              		.loc 1 1159 35 view .LVU31
 211 001a 7047     		bx	lr
 212              	.LVL17:
 213              	.L13:
1159:Lib/embedded-cli/embedded_cli.c ****     return c == '\r' || c == '\n' || c == '\b' || c == '\t' || c == 0x7F;
 214              		.loc 1 1159 35 view .LVU32
 215 001c 7F28     		cmp	r0, #127
 216 001e 05D1     		bne	.L19
 217 0020 0120     		movs	r0, #1
 218              	.LVL18:
1159:Lib/embedded-cli/embedded_cli.c ****     return c == '\r' || c == '\n' || c == '\b' || c == '\t' || c == 0x7F;
 219              		.loc 1 1159 35 view .LVU33
 220 0022 7047     		bx	lr
 221              	.LVL19:
 222              	.L17:
1159:Lib/embedded-cli/embedded_cli.c ****     return c == '\r' || c == '\n' || c == '\b' || c == '\t' || c == 0x7F;
 223              		.loc 1 1159 35 view .LVU34
 224 0024 0020     		movs	r0, #0
 225              	.LVL20:
1159:Lib/embedded-cli/embedded_cli.c ****     return c == '\r' || c == '\n' || c == '\b' || c == '\t' || c == 0x7F;
 226              		.loc 1 1159 35 view .LVU35
 227 0026 7047     		bx	lr
 228              	.L18:
 229 0028 0120     		movs	r0, #1
 230 002a 7047     		bx	lr
 231              	.LVL21:
 232              	.L19:
1159:Lib/embedded-cli/embedded_cli.c ****     return c == '\r' || c == '\n' || c == '\b' || c == '\t' || c == 0x7F;
 233              		.loc 1 1159 35 view .LVU36
 234 002c 0020     		movs	r0, #0
 235              	.LVL22:
1161:Lib/embedded-cli/embedded_cli.c **** }
ARM GAS  /tmp/ccb99Ich.s 			page 26


 236              		.loc 1 1161 1 view .LVU37
 237 002e 7047     		bx	lr
 238              		.cfi_endproc
 239              	.LFE36:
 241              		.section	.text.isDisplayableChar,"ax",%progbits
 242              		.align	1
 243              		.syntax unified
 244              		.thumb
 245              		.thumb_func
 247              	isDisplayableChar:
 248              	.LVL23:
 249              	.LFB37:
1162:Lib/embedded-cli/embedded_cli.c **** 
1163:Lib/embedded-cli/embedded_cli.c **** static bool isDisplayableChar(char c) {
 250              		.loc 1 1163 39 is_stmt 1 view -0
 251              		.cfi_startproc
 252              		@ args = 0, pretend = 0, frame = 0
 253              		@ frame_needed = 0, uses_anonymous_args = 0
 254              		@ link register save eliminated.
1164:Lib/embedded-cli/embedded_cli.c ****     return (c >= 32 && c <= 126);
 255              		.loc 1 1164 5 view .LVU39
 256              		.loc 1 1164 21 is_stmt 0 view .LVU40
 257 0000 2038     		subs	r0, r0, #32
 258              	.LVL24:
 259              		.loc 1 1164 21 view .LVU41
 260 0002 C0B2     		uxtb	r0, r0
 261              	.LVL25:
1165:Lib/embedded-cli/embedded_cli.c **** }
 262              		.loc 1 1165 1 view .LVU42
 263 0004 5E28     		cmp	r0, #94
 264 0006 8CBF     		ite	hi
 265 0008 0020     		movhi	r0, #0
 266 000a 0120     		movls	r0, #1
 267 000c 7047     		bx	lr
 268              		.cfi_endproc
 269              	.LFE37:
 271              		.section	.text.fifoBufAvailable,"ax",%progbits
 272              		.align	1
 273              		.syntax unified
 274              		.thumb
 275              		.thumb_func
 277              	fifoBufAvailable:
 278              	.LVL26:
 279              	.LFB38:
1166:Lib/embedded-cli/embedded_cli.c **** 
1167:Lib/embedded-cli/embedded_cli.c **** static uint16_t fifoBufAvailable(FifoBuf *buffer) {
 280              		.loc 1 1167 51 is_stmt 1 view -0
 281              		.cfi_startproc
 282              		@ args = 0, pretend = 0, frame = 0
 283              		@ frame_needed = 0, uses_anonymous_args = 0
 284              		@ link register save eliminated.
1168:Lib/embedded-cli/embedded_cli.c ****     if (buffer->back >= buffer->front)
 285              		.loc 1 1168 5 view .LVU44
 286              		.loc 1 1168 15 is_stmt 0 view .LVU45
 287 0000 C388     		ldrh	r3, [r0, #6]
 288              		.loc 1 1168 31 view .LVU46
 289 0002 8288     		ldrh	r2, [r0, #4]
ARM GAS  /tmp/ccb99Ich.s 			page 27


 290              		.loc 1 1168 8 view .LVU47
 291 0004 9342     		cmp	r3, r2
 292 0006 02D3     		bcc	.L22
1169:Lib/embedded-cli/embedded_cli.c ****         return (uint16_t) (buffer->back - buffer->front);
 293              		.loc 1 1169 9 is_stmt 1 view .LVU48
 294              		.loc 1 1169 16 is_stmt 0 view .LVU49
 295 0008 9B1A     		subs	r3, r3, r2
 296 000a 98B2     		uxth	r0, r3
 297              	.LVL27:
 298              		.loc 1 1169 16 view .LVU50
 299 000c 7047     		bx	lr
 300              	.LVL28:
 301              	.L22:
1170:Lib/embedded-cli/embedded_cli.c ****     else
1171:Lib/embedded-cli/embedded_cli.c ****         return (uint16_t) (buffer->size - buffer->front + buffer->back);
 302              		.loc 1 1171 9 is_stmt 1 view .LVU51
 303              		.loc 1 1171 34 is_stmt 0 view .LVU52
 304 000e 0089     		ldrh	r0, [r0, #8]
 305              	.LVL29:
 306              		.loc 1 1171 41 view .LVU53
 307 0010 801A     		subs	r0, r0, r2
 308              		.loc 1 1171 16 view .LVU54
 309 0012 13FA80F0 		uxtah	r0, r3, r0
 310 0016 80B2     		uxth	r0, r0
1172:Lib/embedded-cli/embedded_cli.c **** }
 311              		.loc 1 1172 1 view .LVU55
 312 0018 7047     		bx	lr
 313              		.cfi_endproc
 314              	.LFE38:
 316              		.section	.text.fifoBufPop,"ax",%progbits
 317              		.align	1
 318              		.syntax unified
 319              		.thumb
 320              		.thumb_func
 322              	fifoBufPop:
 323              	.LVL30:
 324              	.LFB39:
1173:Lib/embedded-cli/embedded_cli.c **** 
1174:Lib/embedded-cli/embedded_cli.c **** static char fifoBufPop(FifoBuf *buffer) {
 325              		.loc 1 1174 41 is_stmt 1 view -0
 326              		.cfi_startproc
 327              		@ args = 0, pretend = 0, frame = 0
 328              		@ frame_needed = 0, uses_anonymous_args = 0
 329              		@ link register save eliminated.
 330              		.loc 1 1174 41 is_stmt 0 view .LVU57
 331 0000 0246     		mov	r2, r0
1175:Lib/embedded-cli/embedded_cli.c ****     char a = '\0';
 332              		.loc 1 1175 5 is_stmt 1 view .LVU58
 333              	.LVL31:
1176:Lib/embedded-cli/embedded_cli.c ****     if (buffer->front != buffer->back) {
 334              		.loc 1 1176 5 view .LVU59
 335              		.loc 1 1176 15 is_stmt 0 view .LVU60
 336 0002 8388     		ldrh	r3, [r0, #4]
 337              		.loc 1 1176 32 view .LVU61
 338 0004 C188     		ldrh	r1, [r0, #6]
 339              		.loc 1 1176 8 view .LVU62
 340 0006 8B42     		cmp	r3, r1
ARM GAS  /tmp/ccb99Ich.s 			page 28


 341 0008 0AD0     		beq	.L26
1177:Lib/embedded-cli/embedded_cli.c ****         a = buffer->buf[buffer->front];
 342              		.loc 1 1177 9 is_stmt 1 view .LVU63
 343              		.loc 1 1177 19 is_stmt 0 view .LVU64
 344 000a 0168     		ldr	r1, [r0]
 345              		.loc 1 1177 11 view .LVU65
 346 000c C85C     		ldrb	r0, [r1, r3]	@ zero_extendqisi2
 347              	.LVL32:
1178:Lib/embedded-cli/embedded_cli.c ****         buffer->front = (uint16_t) (buffer->front + 1) % buffer->size;
 348              		.loc 1 1178 9 is_stmt 1 view .LVU66
 349              		.loc 1 1178 25 is_stmt 0 view .LVU67
 350 000e 0133     		adds	r3, r3, #1
 351 0010 9BB2     		uxth	r3, r3
 352              		.loc 1 1178 64 view .LVU68
 353 0012 1189     		ldrh	r1, [r2, #8]
 354              		.loc 1 1178 23 view .LVU69
 355 0014 B3FBF1FC 		udiv	ip, r3, r1
 356 0018 01FB1C33 		mls	r3, r1, ip, r3
 357 001c 9380     		strh	r3, [r2, #4]	@ movhi
 358 001e 7047     		bx	lr
 359              	.LVL33:
 360              	.L26:
1175:Lib/embedded-cli/embedded_cli.c ****     if (buffer->front != buffer->back) {
 361              		.loc 1 1175 10 view .LVU70
 362 0020 0020     		movs	r0, #0
 363              	.LVL34:
1179:Lib/embedded-cli/embedded_cli.c ****     }
1180:Lib/embedded-cli/embedded_cli.c ****     return a;
 364              		.loc 1 1180 5 is_stmt 1 view .LVU71
1181:Lib/embedded-cli/embedded_cli.c **** }
 365              		.loc 1 1181 1 is_stmt 0 view .LVU72
 366 0022 7047     		bx	lr
 367              		.cfi_endproc
 368              	.LFE39:
 370              		.section	.text.fifoBufPush,"ax",%progbits
 371              		.align	1
 372              		.syntax unified
 373              		.thumb
 374              		.thumb_func
 376              	fifoBufPush:
 377              	.LVL35:
 378              	.LFB40:
1182:Lib/embedded-cli/embedded_cli.c **** 
1183:Lib/embedded-cli/embedded_cli.c **** static bool fifoBufPush(FifoBuf *buffer, char a) {
 379              		.loc 1 1183 50 is_stmt 1 view -0
 380              		.cfi_startproc
 381              		@ args = 0, pretend = 0, frame = 0
 382              		@ frame_needed = 0, uses_anonymous_args = 0
 383              		.loc 1 1183 50 is_stmt 0 view .LVU74
 384 0000 00B5     		push	{lr}
 385              		.cfi_def_cfa_offset 4
 386              		.cfi_offset 14, -4
1184:Lib/embedded-cli/embedded_cli.c ****     uint16_t newBack = (uint16_t) (buffer->back + 1) % buffer->size;
 387              		.loc 1 1184 5 is_stmt 1 view .LVU75
 388              		.loc 1 1184 42 is_stmt 0 view .LVU76
 389 0002 B0F806C0 		ldrh	ip, [r0, #6]
 390              		.loc 1 1184 24 view .LVU77
ARM GAS  /tmp/ccb99Ich.s 			page 29


 391 0006 0CF10103 		add	r3, ip, #1
 392 000a 9BB2     		uxth	r3, r3
 393              		.loc 1 1184 62 view .LVU78
 394 000c 0289     		ldrh	r2, [r0, #8]
 395              		.loc 1 1184 14 view .LVU79
 396 000e B3FBF2FE 		udiv	lr, r3, r2
 397 0012 02FB1E33 		mls	r3, r2, lr, r3
 398 0016 9BB2     		uxth	r3, r3
 399              	.LVL36:
1185:Lib/embedded-cli/embedded_cli.c ****     if (newBack != buffer->front) {
 400              		.loc 1 1185 5 is_stmt 1 view .LVU80
 401              		.loc 1 1185 26 is_stmt 0 view .LVU81
 402 0018 8288     		ldrh	r2, [r0, #4]
 403              		.loc 1 1185 8 view .LVU82
 404 001a 9A42     		cmp	r2, r3
 405 001c 06D0     		beq	.L29
1186:Lib/embedded-cli/embedded_cli.c ****         buffer->buf[buffer->back] = a;
 406              		.loc 1 1186 9 is_stmt 1 view .LVU83
 407              		.loc 1 1186 15 is_stmt 0 view .LVU84
 408 001e 0268     		ldr	r2, [r0]
 409              		.loc 1 1186 35 view .LVU85
 410 0020 02F80C10 		strb	r1, [r2, ip]
1187:Lib/embedded-cli/embedded_cli.c ****         buffer->back = newBack;
 411              		.loc 1 1187 9 is_stmt 1 view .LVU86
 412              		.loc 1 1187 22 is_stmt 0 view .LVU87
 413 0024 C380     		strh	r3, [r0, #6]	@ movhi
1188:Lib/embedded-cli/embedded_cli.c ****         return true;
 414              		.loc 1 1188 9 is_stmt 1 view .LVU88
 415              		.loc 1 1188 16 is_stmt 0 view .LVU89
 416 0026 0120     		movs	r0, #1
 417              	.LVL37:
 418              	.L28:
1189:Lib/embedded-cli/embedded_cli.c ****     }
1190:Lib/embedded-cli/embedded_cli.c ****     return false;
1191:Lib/embedded-cli/embedded_cli.c **** }
 419              		.loc 1 1191 1 view .LVU90
 420 0028 5DF804FB 		ldr	pc, [sp], #4
 421              	.LVL38:
 422              	.L29:
1190:Lib/embedded-cli/embedded_cli.c **** }
 423              		.loc 1 1190 12 view .LVU91
 424 002c 0020     		movs	r0, #0
 425              	.LVL39:
1190:Lib/embedded-cli/embedded_cli.c **** }
 426              		.loc 1 1190 12 view .LVU92
 427 002e FBE7     		b	.L28
 428              		.cfi_endproc
 429              	.LFE40:
 431              		.section	.text.getTokenPosition,"ax",%progbits
 432              		.align	1
 433              		.syntax unified
 434              		.thumb
 435              		.thumb_func
 437              	getTokenPosition:
 438              	.LVL40:
 439              	.LFB44:
1192:Lib/embedded-cli/embedded_cli.c **** 
ARM GAS  /tmp/ccb99Ich.s 			page 30


1193:Lib/embedded-cli/embedded_cli.c **** static bool historyPut(CliHistory *history, const char *str) {
1194:Lib/embedded-cli/embedded_cli.c ****     size_t len = strlen(str);
1195:Lib/embedded-cli/embedded_cli.c ****     // each item is ended with \0 so, need to have that much space at least
1196:Lib/embedded-cli/embedded_cli.c ****     if (history->bufferSize < len + 1)
1197:Lib/embedded-cli/embedded_cli.c ****         return false;
1198:Lib/embedded-cli/embedded_cli.c **** 
1199:Lib/embedded-cli/embedded_cli.c ****     // remove str from history (if it's present) so we don't get duplicates
1200:Lib/embedded-cli/embedded_cli.c ****     historyRemove(history, str);
1201:Lib/embedded-cli/embedded_cli.c **** 
1202:Lib/embedded-cli/embedded_cli.c ****     size_t usedSize;
1203:Lib/embedded-cli/embedded_cli.c ****     // remove old items if new one can't fit into buffer
1204:Lib/embedded-cli/embedded_cli.c ****     while (history->itemsCount > 0) {
1205:Lib/embedded-cli/embedded_cli.c ****         const char *item = historyGet(history, history->itemsCount);
1206:Lib/embedded-cli/embedded_cli.c ****         size_t itemLen = strlen(item);
1207:Lib/embedded-cli/embedded_cli.c ****         usedSize = ((size_t) (item - history->buf)) + itemLen + 1;
1208:Lib/embedded-cli/embedded_cli.c **** 
1209:Lib/embedded-cli/embedded_cli.c ****         size_t freeSpace = history->bufferSize - usedSize;
1210:Lib/embedded-cli/embedded_cli.c **** 
1211:Lib/embedded-cli/embedded_cli.c ****         if (freeSpace >= len + 1)
1212:Lib/embedded-cli/embedded_cli.c ****             break;
1213:Lib/embedded-cli/embedded_cli.c **** 
1214:Lib/embedded-cli/embedded_cli.c ****         // space not enough, remove last element
1215:Lib/embedded-cli/embedded_cli.c ****         --history->itemsCount;
1216:Lib/embedded-cli/embedded_cli.c ****     }
1217:Lib/embedded-cli/embedded_cli.c ****     if (history->itemsCount > 0) {
1218:Lib/embedded-cli/embedded_cli.c ****         // when history not empty, shift elements so new item is first
1219:Lib/embedded-cli/embedded_cli.c ****         memmove(&history->buf[len + 1], history->buf, usedSize);
1220:Lib/embedded-cli/embedded_cli.c ****     }
1221:Lib/embedded-cli/embedded_cli.c ****     memcpy(history->buf, str, len + 1);
1222:Lib/embedded-cli/embedded_cli.c ****     ++history->itemsCount;
1223:Lib/embedded-cli/embedded_cli.c **** 
1224:Lib/embedded-cli/embedded_cli.c ****     return true;
1225:Lib/embedded-cli/embedded_cli.c **** }
1226:Lib/embedded-cli/embedded_cli.c **** 
1227:Lib/embedded-cli/embedded_cli.c **** static const char *historyGet(CliHistory *history, uint16_t item) {
1228:Lib/embedded-cli/embedded_cli.c ****     if (item == 0 || item > history->itemsCount)
1229:Lib/embedded-cli/embedded_cli.c ****         return NULL;
1230:Lib/embedded-cli/embedded_cli.c **** 
1231:Lib/embedded-cli/embedded_cli.c ****     // items are stored in the same way (separated by \0 and counted from 1),
1232:Lib/embedded-cli/embedded_cli.c ****     // so can use this call
1233:Lib/embedded-cli/embedded_cli.c ****     return embeddedCliGetToken(history->buf, item);
1234:Lib/embedded-cli/embedded_cli.c **** }
1235:Lib/embedded-cli/embedded_cli.c **** 
1236:Lib/embedded-cli/embedded_cli.c **** static void historyRemove(CliHistory *history, const char *str) {
1237:Lib/embedded-cli/embedded_cli.c ****     if (str == NULL || history->itemsCount == 0)
1238:Lib/embedded-cli/embedded_cli.c ****         return;
1239:Lib/embedded-cli/embedded_cli.c ****     char *item = NULL;
1240:Lib/embedded-cli/embedded_cli.c ****     uint16_t itemPosition;
1241:Lib/embedded-cli/embedded_cli.c ****     for (itemPosition = 1; itemPosition <= history->itemsCount; ++itemPosition) {
1242:Lib/embedded-cli/embedded_cli.c ****         // items are stored in the same way (separated by \0 and counted from 1),
1243:Lib/embedded-cli/embedded_cli.c ****         // so can use this call
1244:Lib/embedded-cli/embedded_cli.c ****         item = embeddedCliGetTokenVariable(history->buf, itemPosition);
1245:Lib/embedded-cli/embedded_cli.c ****         if (strcmp(item, str) == 0) {
1246:Lib/embedded-cli/embedded_cli.c ****             break;
1247:Lib/embedded-cli/embedded_cli.c ****         }
1248:Lib/embedded-cli/embedded_cli.c ****         item = NULL;
1249:Lib/embedded-cli/embedded_cli.c ****     }
ARM GAS  /tmp/ccb99Ich.s 			page 31


1250:Lib/embedded-cli/embedded_cli.c ****     if (item == NULL)
1251:Lib/embedded-cli/embedded_cli.c ****         return;
1252:Lib/embedded-cli/embedded_cli.c **** 
1253:Lib/embedded-cli/embedded_cli.c ****     --history->itemsCount;
1254:Lib/embedded-cli/embedded_cli.c ****     if (itemPosition == (history->itemsCount + 1)) {
1255:Lib/embedded-cli/embedded_cli.c ****         // if this is a last element, nothing is remaining to move
1256:Lib/embedded-cli/embedded_cli.c ****         return;
1257:Lib/embedded-cli/embedded_cli.c ****     }
1258:Lib/embedded-cli/embedded_cli.c **** 
1259:Lib/embedded-cli/embedded_cli.c ****     size_t len = strlen(item);
1260:Lib/embedded-cli/embedded_cli.c ****     size_t remaining = (size_t) (history->bufferSize - (item + len + 1 - history->buf));
1261:Lib/embedded-cli/embedded_cli.c ****     // move everything to the right of found item
1262:Lib/embedded-cli/embedded_cli.c ****     memmove(item, &item[len + 1], remaining);
1263:Lib/embedded-cli/embedded_cli.c **** }
1264:Lib/embedded-cli/embedded_cli.c **** 
1265:Lib/embedded-cli/embedded_cli.c **** static uint16_t getTokenPosition(const char *tokenizedStr, uint16_t pos) {
 440              		.loc 1 1265 74 is_stmt 1 view -0
 441              		.cfi_startproc
 442              		@ args = 0, pretend = 0, frame = 0
 443              		@ frame_needed = 0, uses_anonymous_args = 0
 444              		@ link register save eliminated.
1266:Lib/embedded-cli/embedded_cli.c ****     if (tokenizedStr == NULL || pos == 0)
 445              		.loc 1 1266 5 view .LVU94
 446              		.loc 1 1266 8 is_stmt 0 view .LVU95
 447 0000 8446     		mov	ip, r0
 448 0002 B0B1     		cbz	r0, .L36
 449              		.loc 1 1266 30 discriminator 1 view .LVU96
 450 0004 C1B1     		cbz	r1, .L37
1267:Lib/embedded-cli/embedded_cli.c ****         return CLI_TOKEN_NPOS;
1268:Lib/embedded-cli/embedded_cli.c ****     uint16_t i = 0;
1269:Lib/embedded-cli/embedded_cli.c ****     uint16_t tokenCount = 1;
 451              		.loc 1 1269 14 view .LVU97
 452 0006 0123     		movs	r3, #1
1268:Lib/embedded-cli/embedded_cli.c ****     uint16_t tokenCount = 1;
 453              		.loc 1 1268 14 view .LVU98
 454 0008 0020     		movs	r0, #0
 455              	.LVL41:
1268:Lib/embedded-cli/embedded_cli.c ****     uint16_t tokenCount = 1;
 456              		.loc 1 1268 14 view .LVU99
 457 000a 01E0     		b	.L35
 458              	.LVL42:
 459              	.L34:
1270:Lib/embedded-cli/embedded_cli.c ****     while (true) {
1271:Lib/embedded-cli/embedded_cli.c ****         if (tokenCount == pos)
1272:Lib/embedded-cli/embedded_cli.c ****             break;
1273:Lib/embedded-cli/embedded_cli.c **** 
1274:Lib/embedded-cli/embedded_cli.c ****         if (tokenizedStr[i] == '\0') {
1275:Lib/embedded-cli/embedded_cli.c ****             ++tokenCount;
1276:Lib/embedded-cli/embedded_cli.c ****             if (tokenizedStr[i + 1] == '\0')
1277:Lib/embedded-cli/embedded_cli.c ****                 break;
1278:Lib/embedded-cli/embedded_cli.c ****         }
1279:Lib/embedded-cli/embedded_cli.c **** 
1280:Lib/embedded-cli/embedded_cli.c ****         ++i;
 460              		.loc 1 1280 9 is_stmt 1 view .LVU100
 461 000c 0130     		adds	r0, r0, #1
 462              	.LVL43:
 463              		.loc 1 1280 9 is_stmt 0 view .LVU101
ARM GAS  /tmp/ccb99Ich.s 			page 32


 464 000e 80B2     		uxth	r0, r0
 465              	.LVL44:
1270:Lib/embedded-cli/embedded_cli.c ****     while (true) {
 466              		.loc 1 1270 11 is_stmt 1 view .LVU102
 467              	.L35:
1270:Lib/embedded-cli/embedded_cli.c ****     while (true) {
 468              		.loc 1 1270 5 view .LVU103
1271:Lib/embedded-cli/embedded_cli.c ****             break;
 469              		.loc 1 1271 9 view .LVU104
1271:Lib/embedded-cli/embedded_cli.c ****             break;
 470              		.loc 1 1271 12 is_stmt 0 view .LVU105
 471 0010 8B42     		cmp	r3, r1
 472 0012 0AD0     		beq	.L33
1274:Lib/embedded-cli/embedded_cli.c ****             ++tokenCount;
 473              		.loc 1 1274 9 is_stmt 1 view .LVU106
1274:Lib/embedded-cli/embedded_cli.c ****             ++tokenCount;
 474              		.loc 1 1274 25 is_stmt 0 view .LVU107
 475 0014 1CF80020 		ldrb	r2, [ip, r0]	@ zero_extendqisi2
1274:Lib/embedded-cli/embedded_cli.c ****             ++tokenCount;
 476              		.loc 1 1274 12 view .LVU108
 477 0018 002A     		cmp	r2, #0
 478 001a F7D1     		bne	.L34
1275:Lib/embedded-cli/embedded_cli.c ****             if (tokenizedStr[i + 1] == '\0')
 479              		.loc 1 1275 13 is_stmt 1 view .LVU109
 480 001c 0133     		adds	r3, r3, #1
 481              	.LVL45:
1275:Lib/embedded-cli/embedded_cli.c ****             if (tokenizedStr[i + 1] == '\0')
 482              		.loc 1 1275 13 is_stmt 0 view .LVU110
 483 001e 9BB2     		uxth	r3, r3
 484              	.LVL46:
1276:Lib/embedded-cli/embedded_cli.c ****                 break;
 485              		.loc 1 1276 13 is_stmt 1 view .LVU111
1276:Lib/embedded-cli/embedded_cli.c ****                 break;
 486              		.loc 1 1276 29 is_stmt 0 view .LVU112
 487 0020 0CEB0002 		add	r2, ip, r0
 488 0024 5278     		ldrb	r2, [r2, #1]	@ zero_extendqisi2
1276:Lib/embedded-cli/embedded_cli.c ****                 break;
 489              		.loc 1 1276 16 view .LVU113
 490 0026 002A     		cmp	r2, #0
 491 0028 F0D1     		bne	.L34
 492              	.L33:
1281:Lib/embedded-cli/embedded_cli.c ****     }
1282:Lib/embedded-cli/embedded_cli.c **** 
1283:Lib/embedded-cli/embedded_cli.c ****     if (tokenizedStr[i] != '\0')
 493              		.loc 1 1283 5 is_stmt 1 view .LVU114
 494              		.loc 1 1283 21 is_stmt 0 view .LVU115
 495 002a 1CF80030 		ldrb	r3, [ip, r0]	@ zero_extendqisi2
 496              	.LVL47:
 497              		.loc 1 1283 8 view .LVU116
 498 002e 33B1     		cbz	r3, .L39
 499              	.LVL48:
 500              	.L32:
1284:Lib/embedded-cli/embedded_cli.c ****         return i;
1285:Lib/embedded-cli/embedded_cli.c ****     else
1286:Lib/embedded-cli/embedded_cli.c ****         return CLI_TOKEN_NPOS;
1287:Lib/embedded-cli/embedded_cli.c **** }
 501              		.loc 1 1287 1 view .LVU117
ARM GAS  /tmp/ccb99Ich.s 			page 33


 502 0030 7047     		bx	lr
 503              	.LVL49:
 504              	.L36:
1267:Lib/embedded-cli/embedded_cli.c ****     uint16_t i = 0;
 505              		.loc 1 1267 16 view .LVU118
 506 0032 4FF6FF70 		movw	r0, #65535
 507              	.LVL50:
1267:Lib/embedded-cli/embedded_cli.c ****     uint16_t i = 0;
 508              		.loc 1 1267 16 view .LVU119
 509 0036 7047     		bx	lr
 510              	.LVL51:
 511              	.L37:
1267:Lib/embedded-cli/embedded_cli.c ****     uint16_t i = 0;
 512              		.loc 1 1267 16 view .LVU120
 513 0038 4FF6FF70 		movw	r0, #65535
 514              	.LVL52:
1267:Lib/embedded-cli/embedded_cli.c ****     uint16_t i = 0;
 515              		.loc 1 1267 16 view .LVU121
 516 003c 7047     		bx	lr
 517              	.LVL53:
 518              	.L39:
1286:Lib/embedded-cli/embedded_cli.c **** }
 519              		.loc 1 1286 16 view .LVU122
 520 003e 4FF6FF70 		movw	r0, #65535
 521              	.LVL54:
1286:Lib/embedded-cli/embedded_cli.c **** }
 522              		.loc 1 1286 16 view .LVU123
 523 0042 F5E7     		b	.L32
 524              		.cfi_endproc
 525              	.LFE44:
 527              		.section	.text.clearCurrentLine,"ax",%progbits
 528              		.align	1
 529              		.syntax unified
 530              		.thumb
 531              		.thumb_func
 533              	clearCurrentLine:
 534              	.LVL55:
 535              	.LFB33:
1124:Lib/embedded-cli/embedded_cli.c ****     PREPARE_IMPL(cli);
 536              		.loc 1 1124 48 is_stmt 1 view -0
 537              		.cfi_startproc
 538              		@ args = 0, pretend = 0, frame = 0
 539              		@ frame_needed = 0, uses_anonymous_args = 0
1124:Lib/embedded-cli/embedded_cli.c ****     PREPARE_IMPL(cli);
 540              		.loc 1 1124 48 is_stmt 0 view .LVU125
 541 0000 F8B5     		push	{r3, r4, r5, r6, r7, lr}
 542              		.cfi_def_cfa_offset 24
 543              		.cfi_offset 3, -24
 544              		.cfi_offset 4, -20
 545              		.cfi_offset 5, -16
 546              		.cfi_offset 6, -12
 547              		.cfi_offset 7, -8
 548              		.cfi_offset 14, -4
 549 0002 0546     		mov	r5, r0
1125:Lib/embedded-cli/embedded_cli.c ****     size_t len = impl->inputLineLength + strlen(impl->invitation);
 550              		.loc 1 1125 5 is_stmt 1 view .LVU126
 551 0004 0769     		ldr	r7, [r0, #16]
ARM GAS  /tmp/ccb99Ich.s 			page 34


 552              	.LVL56:
1126:Lib/embedded-cli/embedded_cli.c **** 
 553              		.loc 1 1126 5 view .LVU127
1126:Lib/embedded-cli/embedded_cli.c **** 
 554              		.loc 1 1126 22 is_stmt 0 view .LVU128
 555 0006 3E8E     		ldrh	r6, [r7, #48]
1126:Lib/embedded-cli/embedded_cli.c **** 
 556              		.loc 1 1126 42 view .LVU129
 557 0008 3868     		ldr	r0, [r7]
 558              	.LVL57:
1126:Lib/embedded-cli/embedded_cli.c **** 
 559              		.loc 1 1126 42 view .LVU130
 560 000a FFF7FEFF 		bl	strlen
 561              	.LVL58:
1126:Lib/embedded-cli/embedded_cli.c **** 
 562              		.loc 1 1126 12 discriminator 1 view .LVU131
 563 000e 0644     		add	r6, r6, r0
 564              	.LVL59:
1128:Lib/embedded-cli/embedded_cli.c ****     for (size_t i = 0; i < len; ++i) {
 565              		.loc 1 1128 5 is_stmt 1 view .LVU132
1128:Lib/embedded-cli/embedded_cli.c ****     for (size_t i = 0; i < len; ++i) {
 566              		.loc 1 1128 8 is_stmt 0 view .LVU133
 567 0010 2B68     		ldr	r3, [r5]
1128:Lib/embedded-cli/embedded_cli.c ****     for (size_t i = 0; i < len; ++i) {
 568              		.loc 1 1128 5 view .LVU134
 569 0012 0D21     		movs	r1, #13
 570 0014 2846     		mov	r0, r5
 571 0016 9847     		blx	r3
 572              	.LVL60:
1129:Lib/embedded-cli/embedded_cli.c ****         cli->writeChar(cli, ' ');
 573              		.loc 1 1129 5 is_stmt 1 view .LVU135
 574              	.LBB2:
1129:Lib/embedded-cli/embedded_cli.c ****         cli->writeChar(cli, ' ');
 575              		.loc 1 1129 10 view .LVU136
1129:Lib/embedded-cli/embedded_cli.c ****         cli->writeChar(cli, ' ');
 576              		.loc 1 1129 17 is_stmt 0 view .LVU137
 577 0018 0024     		movs	r4, #0
1129:Lib/embedded-cli/embedded_cli.c ****         cli->writeChar(cli, ' ');
 578              		.loc 1 1129 5 view .LVU138
 579 001a 04E0     		b	.L41
 580              	.LVL61:
 581              	.L42:
1130:Lib/embedded-cli/embedded_cli.c ****     }
 582              		.loc 1 1130 9 is_stmt 1 view .LVU139
1130:Lib/embedded-cli/embedded_cli.c ****     }
 583              		.loc 1 1130 12 is_stmt 0 view .LVU140
 584 001c 2B68     		ldr	r3, [r5]
1130:Lib/embedded-cli/embedded_cli.c ****     }
 585              		.loc 1 1130 9 view .LVU141
 586 001e 2021     		movs	r1, #32
 587 0020 2846     		mov	r0, r5
 588 0022 9847     		blx	r3
 589              	.LVL62:
1129:Lib/embedded-cli/embedded_cli.c ****         cli->writeChar(cli, ' ');
 590              		.loc 1 1129 33 is_stmt 1 discriminator 3 view .LVU142
 591 0024 0134     		adds	r4, r4, #1
 592              	.LVL63:
ARM GAS  /tmp/ccb99Ich.s 			page 35


 593              	.L41:
1129:Lib/embedded-cli/embedded_cli.c ****         cli->writeChar(cli, ' ');
 594              		.loc 1 1129 26 discriminator 1 view .LVU143
 595 0026 B442     		cmp	r4, r6
 596 0028 F8D3     		bcc	.L42
 597              	.LBE2:
1132:Lib/embedded-cli/embedded_cli.c ****     impl->inputLineLength = 0;
 598              		.loc 1 1132 5 view .LVU144
1132:Lib/embedded-cli/embedded_cli.c ****     impl->inputLineLength = 0;
 599              		.loc 1 1132 8 is_stmt 0 view .LVU145
 600 002a 2B68     		ldr	r3, [r5]
1132:Lib/embedded-cli/embedded_cli.c ****     impl->inputLineLength = 0;
 601              		.loc 1 1132 5 view .LVU146
 602 002c 0D21     		movs	r1, #13
 603 002e 2846     		mov	r0, r5
 604 0030 9847     		blx	r3
 605              	.LVL64:
1133:Lib/embedded-cli/embedded_cli.c **** 
 606              		.loc 1 1133 5 is_stmt 1 view .LVU147
1133:Lib/embedded-cli/embedded_cli.c **** 
 607              		.loc 1 1133 27 is_stmt 0 view .LVU148
 608 0032 0023     		movs	r3, #0
 609 0034 3B86     		strh	r3, [r7, #48]	@ movhi
1135:Lib/embedded-cli/embedded_cli.c **** }
 610              		.loc 1 1135 5 is_stmt 1 view .LVU149
1135:Lib/embedded-cli/embedded_cli.c **** }
 611              		.loc 1 1135 21 is_stmt 0 view .LVU150
 612 0036 BB86     		strh	r3, [r7, #52]	@ movhi
1136:Lib/embedded-cli/embedded_cli.c **** 
 613              		.loc 1 1136 1 view .LVU151
 614 0038 F8BD     		pop	{r3, r4, r5, r6, r7, pc}
1136:Lib/embedded-cli/embedded_cli.c **** 
 615              		.loc 1 1136 1 view .LVU152
 616              		.cfi_endproc
 617              	.LFE33:
 619              		.section	.text.getAutocompletedCommand,"ax",%progbits
 620              		.align	1
 621              		.syntax unified
 622              		.thumb
 623              		.thumb_func
 625              	getAutocompletedCommand:
 626              	.LVL65:
 627              	.LFB30:
 992:Lib/embedded-cli/embedded_cli.c ****     AutocompletedCommand cmd = {NULL, 0, 0};
 628              		.loc 1 992 91 is_stmt 1 view -0
 629              		.cfi_startproc
 630              		@ args = 0, pretend = 0, frame = 0
 631              		@ frame_needed = 0, uses_anonymous_args = 0
 992:Lib/embedded-cli/embedded_cli.c ****     AutocompletedCommand cmd = {NULL, 0, 0};
 632              		.loc 1 992 91 is_stmt 0 view .LVU154
 633 0000 2DE9F047 		push	{r4, r5, r6, r7, r8, r9, r10, lr}
 634              		.cfi_def_cfa_offset 32
 635              		.cfi_offset 4, -32
 636              		.cfi_offset 5, -28
 637              		.cfi_offset 6, -24
 638              		.cfi_offset 7, -20
 639              		.cfi_offset 8, -16
ARM GAS  /tmp/ccb99Ich.s 			page 36


 640              		.cfi_offset 9, -12
 641              		.cfi_offset 10, -8
 642              		.cfi_offset 14, -4
 643 0004 0646     		mov	r6, r0
 644 0006 0C46     		mov	r4, r1
 645 0008 9046     		mov	r8, r2
 993:Lib/embedded-cli/embedded_cli.c **** 
 646              		.loc 1 993 5 is_stmt 1 view .LVU155
 993:Lib/embedded-cli/embedded_cli.c **** 
 647              		.loc 1 993 26 is_stmt 0 view .LVU156
 648 000a 0023     		movs	r3, #0
 649 000c 0360     		str	r3, [r0]
 650 000e 8380     		strh	r3, [r0, #4]	@ movhi
 651 0010 C380     		strh	r3, [r0, #6]	@ movhi
 995:Lib/embedded-cli/embedded_cli.c **** 
 652              		.loc 1 995 5 is_stmt 1 view .LVU157
 995:Lib/embedded-cli/embedded_cli.c **** 
 653              		.loc 1 995 24 is_stmt 0 view .LVU158
 654 0012 1046     		mov	r0, r2
 655              	.LVL66:
 995:Lib/embedded-cli/embedded_cli.c **** 
 656              		.loc 1 995 24 view .LVU159
 657 0014 FFF7FEFF 		bl	strlen
 658              	.LVL67:
 997:Lib/embedded-cli/embedded_cli.c ****     if (impl->bindingsCount == 0 || prefixLen == 0)
 659              		.loc 1 997 5 is_stmt 1 view .LVU160
 660 0018 D4F81090 		ldr	r9, [r4, #16]
 661              	.LVL68:
 998:Lib/embedded-cli/embedded_cli.c ****         return cmd;
 662              		.loc 1 998 5 view .LVU161
 998:Lib/embedded-cli/embedded_cli.c ****         return cmd;
 663              		.loc 1 998 13 is_stmt 0 view .LVU162
 664 001c B9F82C30 		ldrh	r3, [r9, #44]
 998:Lib/embedded-cli/embedded_cli.c ****         return cmd;
 665              		.loc 1 998 8 view .LVU163
 666 0020 002B     		cmp	r3, #0
 667 0022 4BD0     		beq	.L44
 668 0024 0746     		mov	r7, r0
 998:Lib/embedded-cli/embedded_cli.c ****         return cmd;
 669              		.loc 1 998 34 discriminator 1 view .LVU164
 670 0026 0028     		cmp	r0, #0
 671 0028 48D0     		beq	.L44
 672              	.LBB3:
1002:Lib/embedded-cli/embedded_cli.c ****         const char *name = impl->bindings[i].name;
 673              		.loc 1 1002 14 view .LVU165
 674 002a 0024     		movs	r4, #0
 675              	.LVL69:
1002:Lib/embedded-cli/embedded_cli.c ****         const char *name = impl->bindings[i].name;
 676              		.loc 1 1002 14 view .LVU166
 677 002c 1BE0     		b	.L46
 678              	.LVL70:
 679              	.L61:
 680              	.LBB4:
1013:Lib/embedded-cli/embedded_cli.c ****         for (size_t j = 0; j < prefixLen; ++j) {
 681              		.loc 1 1013 14 view .LVU167
 682 002e 0123     		movs	r3, #1
 683              	.LVL71:
ARM GAS  /tmp/ccb99Ich.s 			page 37


 684              	.L49:
1020:Lib/embedded-cli/embedded_cli.c ****             continue;
 685              		.loc 1 1020 9 is_stmt 1 view .LVU168
1020:Lib/embedded-cli/embedded_cli.c ****             continue;
 686              		.loc 1 1020 12 is_stmt 0 view .LVU169
 687 0030 C3B1     		cbz	r3, .L47
1023:Lib/embedded-cli/embedded_cli.c **** 
 688              		.loc 1 1023 9 is_stmt 1 view .LVU170
1023:Lib/embedded-cli/embedded_cli.c **** 
 689              		.loc 1 1023 13 is_stmt 0 view .LVU171
 690 0032 D9F82820 		ldr	r2, [r9, #40]
1023:Lib/embedded-cli/embedded_cli.c **** 
 691              		.loc 1 1023 28 view .LVU172
 692 0036 12F80A30 		ldrb	r3, [r2, r10]	@ zero_extendqisi2
 693              	.LVL72:
1023:Lib/embedded-cli/embedded_cli.c **** 
 694              		.loc 1 1023 32 view .LVU173
 695 003a 43F00103 		orr	r3, r3, #1
 696 003e 02F80A30 		strb	r3, [r2, r10]
1025:Lib/embedded-cli/embedded_cli.c ****             cmd.autocompletedLen = (uint16_t) len;
 697              		.loc 1 1025 9 is_stmt 1 view .LVU174
1025:Lib/embedded-cli/embedded_cli.c ****             cmd.autocompletedLen = (uint16_t) len;
 698              		.loc 1 1025 16 is_stmt 0 view .LVU175
 699 0042 F388     		ldrh	r3, [r6, #6]
1025:Lib/embedded-cli/embedded_cli.c ****             cmd.autocompletedLen = (uint16_t) len;
 700              		.loc 1 1025 12 view .LVU176
 701 0044 13B1     		cbz	r3, .L51
1025:Lib/embedded-cli/embedded_cli.c ****             cmd.autocompletedLen = (uint16_t) len;
 702              		.loc 1 1025 49 discriminator 1 view .LVU177
 703 0046 B288     		ldrh	r2, [r6, #4]
1025:Lib/embedded-cli/embedded_cli.c ****             cmd.autocompletedLen = (uint16_t) len;
 704              		.loc 1 1025 37 discriminator 1 view .LVU178
 705 0048 8242     		cmp	r2, r0
 706 004a 00D9     		bls	.L52
 707              	.L51:
1026:Lib/embedded-cli/embedded_cli.c **** 
 708              		.loc 1 1026 13 is_stmt 1 view .LVU179
1026:Lib/embedded-cli/embedded_cli.c **** 
 709              		.loc 1 1026 34 is_stmt 0 view .LVU180
 710 004c B080     		strh	r0, [r6, #4]	@ movhi
 711              	.L52:
1028:Lib/embedded-cli/embedded_cli.c **** 
 712              		.loc 1 1028 9 is_stmt 1 view .LVU181
 713 004e 0133     		adds	r3, r3, #1
 714 0050 9BB2     		uxth	r3, r3
 715 0052 F380     		strh	r3, [r6, #6]	@ movhi
1030:Lib/embedded-cli/embedded_cli.c ****             cmd.firstCandidate = name;
 716              		.loc 1 1030 9 view .LVU182
1030:Lib/embedded-cli/embedded_cli.c ****             cmd.firstCandidate = name;
 717              		.loc 1 1030 12 is_stmt 0 view .LVU183
 718 0054 012B     		cmp	r3, #1
 719 0056 04D0     		beq	.L60
1035:Lib/embedded-cli/embedded_cli.c ****             if (cmd.firstCandidate[j] != name[j]) {
 720              		.loc 1 1035 9 is_stmt 1 view .LVU184
 721              	.LBB5:
1035:Lib/embedded-cli/embedded_cli.c ****             if (cmd.firstCandidate[j] != name[j]) {
 722              		.loc 1 1035 14 view .LVU185
ARM GAS  /tmp/ccb99Ich.s 			page 38


1035:Lib/embedded-cli/embedded_cli.c ****             if (cmd.firstCandidate[j] != name[j]) {
 723              		.loc 1 1035 29 is_stmt 0 view .LVU186
 724 0058 B9F82030 		ldrh	r3, [r9, #32]
 725              	.LVL73:
1035:Lib/embedded-cli/embedded_cli.c ****             if (cmd.firstCandidate[j] != name[j]) {
 726              		.loc 1 1035 9 view .LVU187
 727 005c 24E0     		b	.L54
 728              	.LVL74:
 729              	.L58:
1035:Lib/embedded-cli/embedded_cli.c ****             if (cmd.firstCandidate[j] != name[j]) {
 730              		.loc 1 1035 9 view .LVU188
 731              	.LBE5:
 732              	.LBB6:
1016:Lib/embedded-cli/embedded_cli.c ****                 break;
 733              		.loc 1 1016 29 view .LVU189
 734 005e 0023     		movs	r3, #0
 735              	.LVL75:
1016:Lib/embedded-cli/embedded_cli.c ****                 break;
 736              		.loc 1 1016 29 view .LVU190
 737 0060 E6E7     		b	.L49
 738              	.LVL76:
 739              	.L60:
1016:Lib/embedded-cli/embedded_cli.c ****                 break;
 740              		.loc 1 1016 29 view .LVU191
 741              	.LBE6:
1031:Lib/embedded-cli/embedded_cli.c ****             continue;
 742              		.loc 1 1031 13 is_stmt 1 view .LVU192
1031:Lib/embedded-cli/embedded_cli.c ****             continue;
 743              		.loc 1 1031 32 is_stmt 0 view .LVU193
 744 0062 3560     		str	r5, [r6]
1032:Lib/embedded-cli/embedded_cli.c ****         }
 745              		.loc 1 1032 13 is_stmt 1 view .LVU194
 746              	.LVL77:
 747              	.L47:
1032:Lib/embedded-cli/embedded_cli.c ****         }
 748              		.loc 1 1032 13 is_stmt 0 view .LVU195
 749              	.LBE4:
1002:Lib/embedded-cli/embedded_cli.c ****         const char *name = impl->bindings[i].name;
 750              		.loc 1 1002 46 is_stmt 1 discriminator 2 view .LVU196
 751 0064 0134     		adds	r4, r4, #1
 752              	.LVL78:
 753              	.L46:
1002:Lib/embedded-cli/embedded_cli.c ****         const char *name = impl->bindings[i].name;
 754              		.loc 1 1002 23 discriminator 1 view .LVU197
1002:Lib/embedded-cli/embedded_cli.c ****         const char *name = impl->bindings[i].name;
 755              		.loc 1 1002 29 is_stmt 0 discriminator 1 view .LVU198
 756 0066 B9F82C30 		ldrh	r3, [r9, #44]
1002:Lib/embedded-cli/embedded_cli.c ****         const char *name = impl->bindings[i].name;
 757              		.loc 1 1002 23 discriminator 1 view .LVU199
 758 006a A342     		cmp	r3, r4
 759 006c 26DD     		ble	.L44
 760              	.LBB9:
1003:Lib/embedded-cli/embedded_cli.c ****         size_t len = strlen(name);
 761              		.loc 1 1003 9 is_stmt 1 view .LVU200
1003:Lib/embedded-cli/embedded_cli.c ****         size_t len = strlen(name);
 762              		.loc 1 1003 32 is_stmt 0 view .LVU201
 763 006e D9F82430 		ldr	r3, [r9, #36]
ARM GAS  /tmp/ccb99Ich.s 			page 39


1003:Lib/embedded-cli/embedded_cli.c ****         size_t len = strlen(name);
 764              		.loc 1 1003 42 view .LVU202
 765 0072 A246     		mov	r10, r4
 766 0074 04EB8402 		add	r2, r4, r4, lsl #2
1003:Lib/embedded-cli/embedded_cli.c ****         size_t len = strlen(name);
 767              		.loc 1 1003 21 view .LVU203
 768 0078 53F82250 		ldr	r5, [r3, r2, lsl #2]
 769              	.LVL79:
1004:Lib/embedded-cli/embedded_cli.c **** 
 770              		.loc 1 1004 9 is_stmt 1 view .LVU204
1004:Lib/embedded-cli/embedded_cli.c **** 
 771              		.loc 1 1004 22 is_stmt 0 view .LVU205
 772 007c 2846     		mov	r0, r5
 773 007e FFF7FEFF 		bl	strlen
 774              	.LVL80:
1007:Lib/embedded-cli/embedded_cli.c **** 
 775              		.loc 1 1007 9 is_stmt 1 view .LVU206
 776 0082 D9F82820 		ldr	r2, [r9, #40]
 777 0086 135D     		ldrb	r3, [r2, r4]	@ zero_extendqisi2
 778 0088 23F00103 		bic	r3, r3, #1
 779 008c 1355     		strb	r3, [r2, r4]
1009:Lib/embedded-cli/embedded_cli.c ****             continue;
 780              		.loc 1 1009 9 view .LVU207
1009:Lib/embedded-cli/embedded_cli.c ****             continue;
 781              		.loc 1 1009 12 is_stmt 0 view .LVU208
 782 008e 8742     		cmp	r7, r0
 783 0090 E8D8     		bhi	.L47
 784              	.LBB7:
1014:Lib/embedded-cli/embedded_cli.c ****             if (prefix[j] != name[j]) {
 785              		.loc 1 1014 21 view .LVU209
 786 0092 0023     		movs	r3, #0
 787              	.L48:
 788              	.LVL81:
1014:Lib/embedded-cli/embedded_cli.c ****             if (prefix[j] != name[j]) {
 789              		.loc 1 1014 30 is_stmt 1 discriminator 1 view .LVU210
 790 0094 BB42     		cmp	r3, r7
 791 0096 CAD2     		bcs	.L61
1015:Lib/embedded-cli/embedded_cli.c ****                 isCandidate = false;
 792              		.loc 1 1015 13 view .LVU211
1015:Lib/embedded-cli/embedded_cli.c ****                 isCandidate = false;
 793              		.loc 1 1015 23 is_stmt 0 view .LVU212
 794 0098 18F80310 		ldrb	r1, [r8, r3]	@ zero_extendqisi2
1015:Lib/embedded-cli/embedded_cli.c ****                 isCandidate = false;
 795              		.loc 1 1015 34 view .LVU213
 796 009c EA5C     		ldrb	r2, [r5, r3]	@ zero_extendqisi2
1015:Lib/embedded-cli/embedded_cli.c ****                 isCandidate = false;
 797              		.loc 1 1015 16 view .LVU214
 798 009e 9142     		cmp	r1, r2
 799 00a0 DDD1     		bne	.L58
1014:Lib/embedded-cli/embedded_cli.c ****             if (prefix[j] != name[j]) {
 800              		.loc 1 1014 43 is_stmt 1 discriminator 2 view .LVU215
 801 00a2 0133     		adds	r3, r3, #1
 802              	.LVL82:
1014:Lib/embedded-cli/embedded_cli.c ****             if (prefix[j] != name[j]) {
 803              		.loc 1 1014 43 is_stmt 0 discriminator 2 view .LVU216
 804 00a4 F6E7     		b	.L48
 805              	.LVL83:
ARM GAS  /tmp/ccb99Ich.s 			page 40


 806              	.L55:
1014:Lib/embedded-cli/embedded_cli.c ****             if (prefix[j] != name[j]) {
 807              		.loc 1 1014 43 discriminator 2 view .LVU217
 808              	.LBE7:
 809              	.LBB8:
1035:Lib/embedded-cli/embedded_cli.c ****             if (cmd.firstCandidate[j] != name[j]) {
 810              		.loc 1 1035 66 is_stmt 1 discriminator 2 view .LVU218
 811 00a6 0133     		adds	r3, r3, #1
 812              	.LVL84:
 813              	.L54:
1035:Lib/embedded-cli/embedded_cli.c ****             if (cmd.firstCandidate[j] != name[j]) {
 814              		.loc 1 1035 42 discriminator 1 view .LVU219
1035:Lib/embedded-cli/embedded_cli.c ****             if (cmd.firstCandidate[j] != name[j]) {
 815              		.loc 1 1035 47 is_stmt 0 discriminator 1 view .LVU220
 816 00a8 B288     		ldrh	r2, [r6, #4]
1035:Lib/embedded-cli/embedded_cli.c ****             if (cmd.firstCandidate[j] != name[j]) {
 817              		.loc 1 1035 42 discriminator 1 view .LVU221
 818 00aa 9A42     		cmp	r2, r3
 819 00ac DAD9     		bls	.L47
1036:Lib/embedded-cli/embedded_cli.c ****                 cmd.autocompletedLen = (uint16_t) j;
 820              		.loc 1 1036 13 is_stmt 1 view .LVU222
1036:Lib/embedded-cli/embedded_cli.c ****                 cmd.autocompletedLen = (uint16_t) j;
 821              		.loc 1 1036 20 is_stmt 0 view .LVU223
 822 00ae 3268     		ldr	r2, [r6]
1036:Lib/embedded-cli/embedded_cli.c ****                 cmd.autocompletedLen = (uint16_t) j;
 823              		.loc 1 1036 35 view .LVU224
 824 00b0 D15C     		ldrb	r1, [r2, r3]	@ zero_extendqisi2
1036:Lib/embedded-cli/embedded_cli.c ****                 cmd.autocompletedLen = (uint16_t) j;
 825              		.loc 1 1036 46 view .LVU225
 826 00b2 EA5C     		ldrb	r2, [r5, r3]	@ zero_extendqisi2
1036:Lib/embedded-cli/embedded_cli.c ****                 cmd.autocompletedLen = (uint16_t) j;
 827              		.loc 1 1036 16 view .LVU226
 828 00b4 9142     		cmp	r1, r2
 829 00b6 F6D0     		beq	.L55
1037:Lib/embedded-cli/embedded_cli.c ****                 break;
 830              		.loc 1 1037 17 is_stmt 1 view .LVU227
1037:Lib/embedded-cli/embedded_cli.c ****                 break;
 831              		.loc 1 1037 38 is_stmt 0 view .LVU228
 832 00b8 B380     		strh	r3, [r6, #4]	@ movhi
1038:Lib/embedded-cli/embedded_cli.c ****             }
 833              		.loc 1 1038 17 is_stmt 1 view .LVU229
 834 00ba D3E7     		b	.L47
 835              	.LVL85:
 836              	.L44:
1038:Lib/embedded-cli/embedded_cli.c ****             }
 837              		.loc 1 1038 17 is_stmt 0 view .LVU230
 838              	.LBE8:
 839              	.LBE9:
 840              	.LBE3:
1044:Lib/embedded-cli/embedded_cli.c **** 
 841              		.loc 1 1044 1 view .LVU231
 842 00bc 3046     		mov	r0, r6
 843 00be BDE8F087 		pop	{r4, r5, r6, r7, r8, r9, r10, pc}
1044:Lib/embedded-cli/embedded_cli.c **** 
 844              		.loc 1 1044 1 view .LVU232
 845              		.cfi_endproc
 846              	.LFE30:
ARM GAS  /tmp/ccb99Ich.s 			page 41


 848              		.section	.text.onAutocompleteRequest,"ax",%progbits
 849              		.align	1
 850              		.syntax unified
 851              		.thumb
 852              		.thumb_func
 854              	onAutocompleteRequest:
 855              	.LVL86:
 856              	.LFB32:
1077:Lib/embedded-cli/embedded_cli.c ****     PREPARE_IMPL(cli);
 857              		.loc 1 1077 53 is_stmt 1 view -0
 858              		.cfi_startproc
 859              		@ args = 0, pretend = 0, frame = 8
 860              		@ frame_needed = 0, uses_anonymous_args = 0
1077:Lib/embedded-cli/embedded_cli.c ****     PREPARE_IMPL(cli);
 861              		.loc 1 1077 53 is_stmt 0 view .LVU234
 862 0000 F0B5     		push	{r4, r5, r6, r7, lr}
 863              		.cfi_def_cfa_offset 20
 864              		.cfi_offset 4, -20
 865              		.cfi_offset 5, -16
 866              		.cfi_offset 6, -12
 867              		.cfi_offset 7, -8
 868              		.cfi_offset 14, -4
 869 0002 83B0     		sub	sp, sp, #12
 870              		.cfi_def_cfa_offset 32
 871 0004 0646     		mov	r6, r0
1078:Lib/embedded-cli/embedded_cli.c **** 
 872              		.loc 1 1078 5 is_stmt 1 view .LVU235
 873 0006 0469     		ldr	r4, [r0, #16]
 874              	.LVL87:
1080:Lib/embedded-cli/embedded_cli.c **** 
 875              		.loc 1 1080 5 view .LVU236
1080:Lib/embedded-cli/embedded_cli.c **** 
 876              		.loc 1 1080 32 is_stmt 0 view .LVU237
 877 0008 E269     		ldr	r2, [r4, #28]
 878 000a 0146     		mov	r1, r0
 879 000c 6846     		mov	r0, sp
 880              	.LVL88:
1080:Lib/embedded-cli/embedded_cli.c **** 
 881              		.loc 1 1080 32 view .LVU238
 882 000e FFF7FEFF 		bl	getAutocompletedCommand
 883              	.LVL89:
1082:Lib/embedded-cli/embedded_cli.c ****         return;
 884              		.loc 1 1082 5 is_stmt 1 view .LVU239
1082:Lib/embedded-cli/embedded_cli.c ****         return;
 885              		.loc 1 1082 12 is_stmt 0 view .LVU240
 886 0012 BDF80650 		ldrh	r5, [sp, #6]
1082:Lib/embedded-cli/embedded_cli.c ****         return;
 887              		.loc 1 1082 8 view .LVU241
 888 0016 FDB1     		cbz	r5, .L62
1085:Lib/embedded-cli/embedded_cli.c ****         // can copy from index cmdSize, but prefix is the same, so copy everything
 889              		.loc 1 1085 5 is_stmt 1 view .LVU242
1085:Lib/embedded-cli/embedded_cli.c ****         // can copy from index cmdSize, but prefix is the same, so copy everything
 890              		.loc 1 1085 8 is_stmt 0 view .LVU243
 891 0018 012D     		cmp	r5, #1
 892 001a 04D0     		beq	.L64
1085:Lib/embedded-cli/embedded_cli.c ****         // can copy from index cmdSize, but prefix is the same, so copy everything
 893              		.loc 1 1085 39 discriminator 1 view .LVU244
ARM GAS  /tmp/ccb99Ich.s 			page 42


 894 001c BDF80420 		ldrh	r2, [sp, #4]
1085:Lib/embedded-cli/embedded_cli.c ****         // can copy from index cmdSize, but prefix is the same, so copy everything
 895              		.loc 1 1085 63 discriminator 1 view .LVU245
 896 0020 238C     		ldrh	r3, [r4, #32]
1085:Lib/embedded-cli/embedded_cli.c ****         // can copy from index cmdSize, but prefix is the same, so copy everything
 897              		.loc 1 1085 33 discriminator 1 view .LVU246
 898 0022 9A42     		cmp	r2, r3
 899 0024 21D9     		bls	.L65
 900              	.L64:
1087:Lib/embedded-cli/embedded_cli.c ****         if (cmd.candidateCount == 1) {
 901              		.loc 1 1087 9 is_stmt 1 view .LVU247
1087:Lib/embedded-cli/embedded_cli.c ****         if (cmd.candidateCount == 1) {
 902              		.loc 1 1087 56 is_stmt 0 view .LVU248
 903 0026 BDF80470 		ldrh	r7, [sp, #4]
1087:Lib/embedded-cli/embedded_cli.c ****         if (cmd.candidateCount == 1) {
 904              		.loc 1 1087 9 view .LVU249
 905 002a 3A46     		mov	r2, r7
 906 002c 0099     		ldr	r1, [sp]
 907 002e E069     		ldr	r0, [r4, #28]
 908 0030 FFF7FEFF 		bl	memcpy
 909              	.LVL90:
1088:Lib/embedded-cli/embedded_cli.c ****             impl->cmdBuffer[cmd.autocompletedLen] = ' ';
 910              		.loc 1 1088 9 is_stmt 1 view .LVU250
1088:Lib/embedded-cli/embedded_cli.c ****             impl->cmdBuffer[cmd.autocompletedLen] = ' ';
 911              		.loc 1 1088 12 is_stmt 0 view .LVU251
 912 0034 012D     		cmp	r5, #1
 913 0036 11D0     		beq	.L72
 914              	.L66:
1092:Lib/embedded-cli/embedded_cli.c **** 
 915              		.loc 1 1092 9 is_stmt 1 view .LVU252
1092:Lib/embedded-cli/embedded_cli.c **** 
 916              		.loc 1 1092 13 is_stmt 0 view .LVU253
 917 0038 E369     		ldr	r3, [r4, #28]
1092:Lib/embedded-cli/embedded_cli.c **** 
 918              		.loc 1 1092 28 view .LVU254
 919 003a BDF80450 		ldrh	r5, [sp, #4]
1092:Lib/embedded-cli/embedded_cli.c **** 
 920              		.loc 1 1092 47 view .LVU255
 921 003e 0027     		movs	r7, #0
 922 0040 5F55     		strb	r7, [r3, r5]
1094:Lib/embedded-cli/embedded_cli.c ****         impl->cmdSize = cmd.autocompletedLen;
 923              		.loc 1 1094 9 is_stmt 1 view .LVU256
1094:Lib/embedded-cli/embedded_cli.c ****         impl->cmdSize = cmd.autocompletedLen;
 924              		.loc 1 1094 33 is_stmt 0 view .LVU257
 925 0042 E169     		ldr	r1, [r4, #28]
1094:Lib/embedded-cli/embedded_cli.c ****         impl->cmdSize = cmd.autocompletedLen;
 926              		.loc 1 1094 49 view .LVU258
 927 0044 238C     		ldrh	r3, [r4, #32]
1094:Lib/embedded-cli/embedded_cli.c ****         impl->cmdSize = cmd.autocompletedLen;
 928              		.loc 1 1094 65 view .LVU259
 929 0046 A28E     		ldrh	r2, [r4, #52]
1094:Lib/embedded-cli/embedded_cli.c ****         impl->cmdSize = cmd.autocompletedLen;
 930              		.loc 1 1094 59 view .LVU260
 931 0048 9B1A     		subs	r3, r3, r2
1094:Lib/embedded-cli/embedded_cli.c ****         impl->cmdSize = cmd.autocompletedLen;
 932              		.loc 1 1094 9 view .LVU261
 933 004a 1944     		add	r1, r1, r3
ARM GAS  /tmp/ccb99Ich.s 			page 43


 934 004c 3046     		mov	r0, r6
 935 004e FFF7FEFF 		bl	writeToOutput
 936              	.LVL91:
1095:Lib/embedded-cli/embedded_cli.c ****         impl->inputLineLength = impl->cmdSize;
 937              		.loc 1 1095 9 is_stmt 1 view .LVU262
1095:Lib/embedded-cli/embedded_cli.c ****         impl->inputLineLength = impl->cmdSize;
 938              		.loc 1 1095 23 is_stmt 0 view .LVU263
 939 0052 2584     		strh	r5, [r4, #32]	@ movhi
1096:Lib/embedded-cli/embedded_cli.c ****         impl->cursorPos = 0; // Cursor has been moved to the end
 940              		.loc 1 1096 9 is_stmt 1 view .LVU264
1096:Lib/embedded-cli/embedded_cli.c ****         impl->cursorPos = 0; // Cursor has been moved to the end
 941              		.loc 1 1096 31 is_stmt 0 view .LVU265
 942 0054 2586     		strh	r5, [r4, #48]	@ movhi
1097:Lib/embedded-cli/embedded_cli.c ****         return;
 943              		.loc 1 1097 9 is_stmt 1 view .LVU266
1097:Lib/embedded-cli/embedded_cli.c ****         return;
 944              		.loc 1 1097 25 is_stmt 0 view .LVU267
 945 0056 A786     		strh	r7, [r4, #52]	@ movhi
1098:Lib/embedded-cli/embedded_cli.c ****     }
 946              		.loc 1 1098 9 is_stmt 1 view .LVU268
 947              	.L62:
1122:Lib/embedded-cli/embedded_cli.c **** 
 948              		.loc 1 1122 1 is_stmt 0 view .LVU269
 949 0058 03B0     		add	sp, sp, #12
 950              		.cfi_remember_state
 951              		.cfi_def_cfa_offset 20
 952              		@ sp needed
 953 005a F0BD     		pop	{r4, r5, r6, r7, pc}
 954              	.LVL92:
 955              	.L72:
 956              		.cfi_restore_state
1089:Lib/embedded-cli/embedded_cli.c ****             ++cmd.autocompletedLen;
 957              		.loc 1 1089 13 is_stmt 1 view .LVU270
1089:Lib/embedded-cli/embedded_cli.c ****             ++cmd.autocompletedLen;
 958              		.loc 1 1089 17 is_stmt 0 view .LVU271
 959 005c E369     		ldr	r3, [r4, #28]
1089:Lib/embedded-cli/embedded_cli.c ****             ++cmd.autocompletedLen;
 960              		.loc 1 1089 51 view .LVU272
 961 005e 2022     		movs	r2, #32
 962 0060 DA55     		strb	r2, [r3, r7]
1090:Lib/embedded-cli/embedded_cli.c ****         }
 963              		.loc 1 1090 13 is_stmt 1 view .LVU273
 964 0062 0137     		adds	r7, r7, #1
 965 0064 ADF80470 		strh	r7, [sp, #4]	@ movhi
 966 0068 E6E7     		b	.L66
 967              	.L65:
1104:Lib/embedded-cli/embedded_cli.c **** 
 968              		.loc 1 1104 5 view .LVU274
 969 006a 3046     		mov	r0, r6
 970 006c FFF7FEFF 		bl	clearCurrentLine
 971              	.LVL93:
1106:Lib/embedded-cli/embedded_cli.c ****         // autocomplete flag is set for all candidates by last call to
 972              		.loc 1 1106 5 view .LVU275
 973              	.LBB10:
1106:Lib/embedded-cli/embedded_cli.c ****         // autocomplete flag is set for all candidates by last call to
 974              		.loc 1 1106 10 view .LVU276
1106:Lib/embedded-cli/embedded_cli.c ****         // autocomplete flag is set for all candidates by last call to
ARM GAS  /tmp/ccb99Ich.s 			page 44


 975              		.loc 1 1106 14 is_stmt 0 view .LVU277
 976 0070 0025     		movs	r5, #0
1106:Lib/embedded-cli/embedded_cli.c ****         // autocomplete flag is set for all candidates by last call to
 977              		.loc 1 1106 5 view .LVU278
 978 0072 00E0     		b	.L67
 979              	.LVL94:
 980              	.L68:
1106:Lib/embedded-cli/embedded_cli.c ****         // autocomplete flag is set for all candidates by last call to
 981              		.loc 1 1106 46 is_stmt 1 discriminator 2 view .LVU279
 982 0074 0135     		adds	r5, r5, #1
 983              	.LVL95:
 984              	.L67:
1106:Lib/embedded-cli/embedded_cli.c ****         // autocomplete flag is set for all candidates by last call to
 985              		.loc 1 1106 23 discriminator 1 view .LVU280
1106:Lib/embedded-cli/embedded_cli.c ****         // autocomplete flag is set for all candidates by last call to
 986              		.loc 1 1106 29 is_stmt 0 discriminator 1 view .LVU281
 987 0076 A38D     		ldrh	r3, [r4, #44]
1106:Lib/embedded-cli/embedded_cli.c ****         // autocomplete flag is set for all candidates by last call to
 988              		.loc 1 1106 23 discriminator 1 view .LVU282
 989 0078 AB42     		cmp	r3, r5
 990 007a 11DD     		ble	.L73
 991              	.LBB11:
1109:Lib/embedded-cli/embedded_cli.c ****             continue;
 992              		.loc 1 1109 9 is_stmt 1 view .LVU283
1109:Lib/embedded-cli/embedded_cli.c ****             continue;
 993              		.loc 1 1109 19 is_stmt 0 view .LVU284
 994 007c A36A     		ldr	r3, [r4, #40]
1109:Lib/embedded-cli/embedded_cli.c ****             continue;
 995              		.loc 1 1109 34 view .LVU285
 996 007e 5B5D     		ldrb	r3, [r3, r5]	@ zero_extendqisi2
1109:Lib/embedded-cli/embedded_cli.c ****             continue;
 997              		.loc 1 1109 12 view .LVU286
 998 0080 13F0010F 		tst	r3, #1
 999 0084 F6D0     		beq	.L68
1112:Lib/embedded-cli/embedded_cli.c **** 
 1000              		.loc 1 1112 9 is_stmt 1 view .LVU287
1112:Lib/embedded-cli/embedded_cli.c **** 
 1001              		.loc 1 1112 32 is_stmt 0 view .LVU288
 1002 0086 636A     		ldr	r3, [r4, #36]
1112:Lib/embedded-cli/embedded_cli.c **** 
 1003              		.loc 1 1112 42 view .LVU289
 1004 0088 05EB8502 		add	r2, r5, r5, lsl #2
 1005              	.LVL96:
1114:Lib/embedded-cli/embedded_cli.c ****         writeToOutput(cli, lineBreak);
 1006              		.loc 1 1114 9 is_stmt 1 view .LVU290
 1007 008c 53F82210 		ldr	r1, [r3, r2, lsl #2]
 1008 0090 3046     		mov	r0, r6
 1009 0092 FFF7FEFF 		bl	writeToOutput
 1010              	.LVL97:
1115:Lib/embedded-cli/embedded_cli.c ****     }
 1011              		.loc 1 1115 9 view .LVU291
 1012 0096 0849     		ldr	r1, .L74
 1013 0098 3046     		mov	r0, r6
 1014 009a FFF7FEFF 		bl	writeToOutput
 1015              	.LVL98:
 1016 009e E9E7     		b	.L68
 1017              	.LVL99:
ARM GAS  /tmp/ccb99Ich.s 			page 45


 1018              	.L73:
1115:Lib/embedded-cli/embedded_cli.c ****     }
 1019              		.loc 1 1115 9 is_stmt 0 view .LVU292
 1020              	.LBE11:
 1021              	.LBE10:
1118:Lib/embedded-cli/embedded_cli.c ****     writeToOutput(cli, impl->cmdBuffer);
 1022              		.loc 1 1118 5 is_stmt 1 view .LVU293
 1023 00a0 2168     		ldr	r1, [r4]
 1024 00a2 3046     		mov	r0, r6
 1025 00a4 FFF7FEFF 		bl	writeToOutput
 1026              	.LVL100:
1119:Lib/embedded-cli/embedded_cli.c **** 
 1027              		.loc 1 1119 5 view .LVU294
 1028 00a8 E169     		ldr	r1, [r4, #28]
 1029 00aa 3046     		mov	r0, r6
 1030 00ac FFF7FEFF 		bl	writeToOutput
 1031              	.LVL101:
1121:Lib/embedded-cli/embedded_cli.c **** }
 1032              		.loc 1 1121 5 view .LVU295
1121:Lib/embedded-cli/embedded_cli.c **** }
 1033              		.loc 1 1121 33 is_stmt 0 view .LVU296
 1034 00b0 238C     		ldrh	r3, [r4, #32]
1121:Lib/embedded-cli/embedded_cli.c **** }
 1035              		.loc 1 1121 27 view .LVU297
 1036 00b2 2386     		strh	r3, [r4, #48]	@ movhi
 1037 00b4 D0E7     		b	.L62
 1038              	.L75:
 1039 00b6 00BF     		.align	2
 1040              	.L74:
 1041 00b8 00000000 		.word	.LC3
 1042              		.cfi_endproc
 1043              	.LFE32:
 1045              		.section	.rodata.onCharInput.str1.4,"aMS",%progbits,1
 1046              		.align	2
 1047              	.LC6:
 1048 0000 1B5B4000 		.ascii	"\033[@\000"
 1049              		.section	.text.onCharInput,"ax",%progbits
 1050              		.align	1
 1051              		.syntax unified
 1052              		.thumb
 1053              		.thumb_func
 1055              	onCharInput:
 1056              	.LVL102:
 1057              	.LFB23:
 775:Lib/embedded-cli/embedded_cli.c ****     PREPARE_IMPL(cli);
 1058              		.loc 1 775 51 is_stmt 1 view -0
 1059              		.cfi_startproc
 1060              		@ args = 0, pretend = 0, frame = 0
 1061              		@ frame_needed = 0, uses_anonymous_args = 0
 775:Lib/embedded-cli/embedded_cli.c ****     PREPARE_IMPL(cli);
 1062              		.loc 1 775 51 is_stmt 0 view .LVU299
 1063 0000 2DE9F041 		push	{r4, r5, r6, r7, r8, lr}
 1064              		.cfi_def_cfa_offset 24
 1065              		.cfi_offset 4, -24
 1066              		.cfi_offset 5, -20
 1067              		.cfi_offset 6, -16
 1068              		.cfi_offset 7, -12
ARM GAS  /tmp/ccb99Ich.s 			page 46


 1069              		.cfi_offset 8, -8
 1070              		.cfi_offset 14, -4
 776:Lib/embedded-cli/embedded_cli.c **** 
 1071              		.loc 1 776 5 is_stmt 1 view .LVU300
 1072 0004 0469     		ldr	r4, [r0, #16]
 1073              	.LVL103:
 779:Lib/embedded-cli/embedded_cli.c ****         return;
 1074              		.loc 1 779 5 view .LVU301
 779:Lib/embedded-cli/embedded_cli.c ****         return;
 1075              		.loc 1 779 13 is_stmt 0 view .LVU302
 1076 0006 238C     		ldrh	r3, [r4, #32]
 779:Lib/embedded-cli/embedded_cli.c ****         return;
 1077              		.loc 1 779 23 view .LVU303
 1078 0008 0233     		adds	r3, r3, #2
 779:Lib/embedded-cli/embedded_cli.c ****         return;
 1079              		.loc 1 779 34 view .LVU304
 1080 000a 628C     		ldrh	r2, [r4, #34]
 779:Lib/embedded-cli/embedded_cli.c ****         return;
 1081              		.loc 1 779 8 view .LVU305
 1082 000c 9342     		cmp	r3, r2
 1083 000e 01DB     		blt	.L80
 1084              	.LVL104:
 1085              	.L76:
 794:Lib/embedded-cli/embedded_cli.c **** 
 1086              		.loc 1 794 1 view .LVU306
 1087 0010 BDE8F081 		pop	{r4, r5, r6, r7, r8, pc}
 1088              	.LVL105:
 1089              	.L80:
 794:Lib/embedded-cli/embedded_cli.c **** 
 1090              		.loc 1 794 1 view .LVU307
 1091 0014 0546     		mov	r5, r0
 1092 0016 0F46     		mov	r7, r1
 782:Lib/embedded-cli/embedded_cli.c **** 
 1093              		.loc 1 782 5 is_stmt 1 view .LVU308
 782:Lib/embedded-cli/embedded_cli.c **** 
 1094              		.loc 1 782 35 is_stmt 0 view .LVU309
 1095 0018 D4F81C80 		ldr	r8, [r4, #28]
 782:Lib/embedded-cli/embedded_cli.c **** 
 1096              		.loc 1 782 24 view .LVU310
 1097 001c 4046     		mov	r0, r8
 1098              	.LVL106:
 782:Lib/embedded-cli/embedded_cli.c **** 
 1099              		.loc 1 782 24 view .LVU311
 1100 001e FFF7FEFF 		bl	strlen
 1101              	.LVL107:
 782:Lib/embedded-cli/embedded_cli.c **** 
 1102              		.loc 1 782 54 discriminator 1 view .LVU312
 1103 0022 A28E     		ldrh	r2, [r4, #52]
 782:Lib/embedded-cli/embedded_cli.c **** 
 1104              		.loc 1 782 12 discriminator 1 view .LVU313
 1105 0024 861A     		subs	r6, r0, r2
 1106              	.LVL108:
 784:Lib/embedded-cli/embedded_cli.c **** 
 1107              		.loc 1 784 5 is_stmt 1 view .LVU314
 784:Lib/embedded-cli/embedded_cli.c **** 
 1108              		.loc 1 784 29 is_stmt 0 view .LVU315
 1109 0026 701C     		adds	r0, r6, #1
ARM GAS  /tmp/ccb99Ich.s 			page 47


 784:Lib/embedded-cli/embedded_cli.c **** 
 1110              		.loc 1 784 5 view .LVU316
 1111 0028 0132     		adds	r2, r2, #1
 1112 002a 08EB0601 		add	r1, r8, r6
 1113 002e 4044     		add	r0, r0, r8
 1114 0030 FFF7FEFF 		bl	memmove
 1115              	.LVL109:
 786:Lib/embedded-cli/embedded_cli.c ****     ++impl->inputLineLength;
 1116              		.loc 1 786 5 is_stmt 1 view .LVU317
 786:Lib/embedded-cli/embedded_cli.c ****     ++impl->inputLineLength;
 1117              		.loc 1 786 11 is_stmt 0 view .LVU318
 1118 0034 238C     		ldrh	r3, [r4, #32]
 786:Lib/embedded-cli/embedded_cli.c ****     ++impl->inputLineLength;
 1119              		.loc 1 786 5 view .LVU319
 1120 0036 0133     		adds	r3, r3, #1
 1121 0038 2384     		strh	r3, [r4, #32]	@ movhi
 787:Lib/embedded-cli/embedded_cli.c ****     impl->cmdBuffer[insertPos] = c;
 1122              		.loc 1 787 5 is_stmt 1 view .LVU320
 787:Lib/embedded-cli/embedded_cli.c ****     impl->cmdBuffer[insertPos] = c;
 1123              		.loc 1 787 11 is_stmt 0 view .LVU321
 1124 003a 238E     		ldrh	r3, [r4, #48]
 787:Lib/embedded-cli/embedded_cli.c ****     impl->cmdBuffer[insertPos] = c;
 1125              		.loc 1 787 5 view .LVU322
 1126 003c 0133     		adds	r3, r3, #1
 1127 003e 2386     		strh	r3, [r4, #48]	@ movhi
 788:Lib/embedded-cli/embedded_cli.c **** 
 1128              		.loc 1 788 5 is_stmt 1 view .LVU323
 788:Lib/embedded-cli/embedded_cli.c **** 
 1129              		.loc 1 788 9 is_stmt 0 view .LVU324
 1130 0040 E369     		ldr	r3, [r4, #28]
 788:Lib/embedded-cli/embedded_cli.c **** 
 1131              		.loc 1 788 32 view .LVU325
 1132 0042 9F55     		strb	r7, [r3, r6]
 790:Lib/embedded-cli/embedded_cli.c ****         writeToOutput(cli, escSeqInsertChar); // Insert Character
 1133              		.loc 1 790 5 is_stmt 1 view .LVU326
 790:Lib/embedded-cli/embedded_cli.c ****         writeToOutput(cli, escSeqInsertChar); // Insert Character
 1134              		.loc 1 790 13 is_stmt 0 view .LVU327
 1135 0044 A38E     		ldrh	r3, [r4, #52]
 790:Lib/embedded-cli/embedded_cli.c ****         writeToOutput(cli, escSeqInsertChar); // Insert Character
 1136              		.loc 1 790 8 view .LVU328
 1137 0046 23B9     		cbnz	r3, .L81
 1138              	.L78:
 793:Lib/embedded-cli/embedded_cli.c **** }
 1139              		.loc 1 793 5 is_stmt 1 view .LVU329
 793:Lib/embedded-cli/embedded_cli.c **** }
 1140              		.loc 1 793 8 is_stmt 0 view .LVU330
 1141 0048 2B68     		ldr	r3, [r5]
 793:Lib/embedded-cli/embedded_cli.c **** }
 1142              		.loc 1 793 5 view .LVU331
 1143 004a 3946     		mov	r1, r7
 1144 004c 2846     		mov	r0, r5
 1145 004e 9847     		blx	r3
 1146              	.LVL110:
 1147 0050 DEE7     		b	.L76
 1148              	.L81:
 791:Lib/embedded-cli/embedded_cli.c **** 
 1149              		.loc 1 791 9 is_stmt 1 view .LVU332
ARM GAS  /tmp/ccb99Ich.s 			page 48


 1150 0052 0249     		ldr	r1, .L82
 1151 0054 2846     		mov	r0, r5
 1152 0056 FFF7FEFF 		bl	writeToOutput
 1153              	.LVL111:
 1154 005a F5E7     		b	.L78
 1155              	.L83:
 1156              		.align	2
 1157              	.L82:
 1158 005c 00000000 		.word	.LC6
 1159              		.cfi_endproc
 1160              	.LFE23:
 1162              		.section	.rodata.moveCursor.str1.4,"aMS",%progbits,1
 1163              		.align	2
 1164              	.LC7:
 1165 0000 1B5B2575 		.ascii	"\033[%u%c\000"
 1165      256300
 1166              		.section	.text.moveCursor,"ax",%progbits
 1167              		.align	1
 1168              		.syntax unified
 1169              		.thumb
 1170              		.thumb_func
 1172              	moveCursor:
 1173              	.LVL112:
 1174              	.LFB35:
1147:Lib/embedded-cli/embedded_cli.c ****     // Check if we need to send any command
 1175              		.loc 1 1147 74 view -0
 1176              		.cfi_startproc
 1177              		@ args = 0, pretend = 0, frame = 16
 1178              		@ frame_needed = 0, uses_anonymous_args = 0
1149:Lib/embedded-cli/embedded_cli.c ****         return;
 1179              		.loc 1 1149 5 view .LVU334
1149:Lib/embedded-cli/embedded_cli.c ****         return;
 1180              		.loc 1 1149 8 is_stmt 0 view .LVU335
 1181 0000 C1B1     		cbz	r1, .L90
1147:Lib/embedded-cli/embedded_cli.c ****     // Check if we need to send any command
 1182              		.loc 1 1147 74 view .LVU336
 1183 0002 30B5     		push	{r4, r5, lr}
 1184              		.cfi_def_cfa_offset 12
 1185              		.cfi_offset 4, -12
 1186              		.cfi_offset 5, -8
 1187              		.cfi_offset 14, -4
 1188 0004 85B0     		sub	sp, sp, #20
 1189              		.cfi_def_cfa_offset 32
 1190 0006 0446     		mov	r4, r0
 1191 0008 1346     		mov	r3, r2
 1192 000a 0A46     		mov	r2, r1
 1193              	.LVL113:
1153:Lib/embedded-cli/embedded_cli.c ****     char dirChar = direction ? escSeqCursorRight[2] : escSeqCursorLeft[2];
 1194              		.loc 1 1153 5 is_stmt 1 view .LVU337
1153:Lib/embedded-cli/embedded_cli.c ****     char dirChar = direction ? escSeqCursorRight[2] : escSeqCursorLeft[2];
 1195              		.loc 1 1153 10 is_stmt 0 view .LVU338
 1196 000c 0021     		movs	r1, #0
 1197              	.LVL114:
1153:Lib/embedded-cli/embedded_cli.c ****     char dirChar = direction ? escSeqCursorRight[2] : escSeqCursorLeft[2];
 1198              		.loc 1 1153 10 view .LVU339
 1199 000e 0191     		str	r1, [sp, #4]
 1200 0010 0291     		str	r1, [sp, #8]
ARM GAS  /tmp/ccb99Ich.s 			page 49


 1201 0012 8DF80C10 		strb	r1, [sp, #12]
1154:Lib/embedded-cli/embedded_cli.c ****     sprintf(escBuffer, "\x1B[%u%c", count, dirChar);
 1202              		.loc 1 1154 5 is_stmt 1 view .LVU340
1154:Lib/embedded-cli/embedded_cli.c ****     sprintf(escBuffer, "\x1B[%u%c", count, dirChar);
 1203              		.loc 1 1154 10 is_stmt 0 view .LVU341
 1204 0016 5BB1     		cbz	r3, .L88
1154:Lib/embedded-cli/embedded_cli.c ****     sprintf(escBuffer, "\x1B[%u%c", count, dirChar);
 1205              		.loc 1 1154 10 discriminator 1 view .LVU342
 1206 0018 4323     		movs	r3, #67
 1207              	.LVL115:
 1208              	.L87:
1155:Lib/embedded-cli/embedded_cli.c ****     writeToOutput(cli, escBuffer);
 1209              		.loc 1 1155 5 is_stmt 1 view .LVU343
 1210 001a 01AD     		add	r5, sp, #4
 1211 001c 0649     		ldr	r1, .L93
 1212 001e 2846     		mov	r0, r5
 1213              	.LVL116:
1155:Lib/embedded-cli/embedded_cli.c ****     writeToOutput(cli, escBuffer);
 1214              		.loc 1 1155 5 is_stmt 0 view .LVU344
 1215 0020 FFF7FEFF 		bl	sprintf
 1216              	.LVL117:
1156:Lib/embedded-cli/embedded_cli.c **** }
 1217              		.loc 1 1156 5 is_stmt 1 view .LVU345
 1218 0024 2946     		mov	r1, r5
 1219 0026 2046     		mov	r0, r4
 1220 0028 FFF7FEFF 		bl	writeToOutput
 1221              	.LVL118:
1157:Lib/embedded-cli/embedded_cli.c **** 
 1222              		.loc 1 1157 1 is_stmt 0 view .LVU346
 1223 002c 05B0     		add	sp, sp, #20
 1224              		.cfi_remember_state
 1225              		.cfi_def_cfa_offset 12
 1226              		@ sp needed
 1227 002e 30BD     		pop	{r4, r5, pc}
 1228              	.LVL119:
 1229              	.L88:
 1230              		.cfi_restore_state
1154:Lib/embedded-cli/embedded_cli.c ****     sprintf(escBuffer, "\x1B[%u%c", count, dirChar);
 1231              		.loc 1 1154 10 discriminator 2 view .LVU347
 1232 0030 4423     		movs	r3, #68
 1233 0032 F2E7     		b	.L87
 1234              	.LVL120:
 1235              	.L90:
 1236              		.cfi_def_cfa_offset 0
 1237              		.cfi_restore 4
 1238              		.cfi_restore 5
 1239              		.cfi_restore 14
1154:Lib/embedded-cli/embedded_cli.c ****     sprintf(escBuffer, "\x1B[%u%c", count, dirChar);
 1240              		.loc 1 1154 10 discriminator 2 view .LVU348
 1241 0034 7047     		bx	lr
 1242              	.L94:
 1243 0036 00BF     		.align	2
 1244              	.L93:
 1245 0038 00000000 		.word	.LC7
 1246              		.cfi_endproc
 1247              	.LFE35:
 1249              		.section	.rodata.printLiveAutocompletion.str1.4,"aMS",%progbits,1
ARM GAS  /tmp/ccb99Ich.s 			page 50


 1250              		.align	2
 1251              	.LC8:
 1252 0000 1B5B7300 		.ascii	"\033[s\000"
 1253              		.align	2
 1254              	.LC9:
 1255 0004 1B5B7500 		.ascii	"\033[u\000"
 1256              		.section	.text.printLiveAutocompletion,"ax",%progbits
 1257              		.align	1
 1258              		.syntax unified
 1259              		.thumb
 1260              		.thumb_func
 1262              	printLiveAutocompletion:
 1263              	.LVL121:
 1264              	.LFB31:
1046:Lib/embedded-cli/embedded_cli.c ****     PREPARE_IMPL(cli);
 1265              		.loc 1 1046 55 is_stmt 1 view -0
 1266              		.cfi_startproc
 1267              		@ args = 0, pretend = 0, frame = 8
 1268              		@ frame_needed = 0, uses_anonymous_args = 0
1046:Lib/embedded-cli/embedded_cli.c ****     PREPARE_IMPL(cli);
 1269              		.loc 1 1046 55 is_stmt 0 view .LVU350
 1270 0000 2DE9F041 		push	{r4, r5, r6, r7, r8, lr}
 1271              		.cfi_def_cfa_offset 24
 1272              		.cfi_offset 4, -24
 1273              		.cfi_offset 5, -20
 1274              		.cfi_offset 6, -16
 1275              		.cfi_offset 7, -12
 1276              		.cfi_offset 8, -8
 1277              		.cfi_offset 14, -4
 1278 0004 82B0     		sub	sp, sp, #8
 1279              		.cfi_def_cfa_offset 32
1047:Lib/embedded-cli/embedded_cli.c **** 
 1280              		.loc 1 1047 5 is_stmt 1 view .LVU351
 1281 0006 D0F81080 		ldr	r8, [r0, #16]
 1282              	.LVL122:
1049:Lib/embedded-cli/embedded_cli.c ****         return;
 1283              		.loc 1 1049 5 view .LVU352
1049:Lib/embedded-cli/embedded_cli.c ****         return;
 1284              		.loc 1 1049 10 is_stmt 0 view .LVU353
 1285 000a 98F83330 		ldrb	r3, [r8, #51]	@ zero_extendqisi2
1049:Lib/embedded-cli/embedded_cli.c ****         return;
 1286              		.loc 1 1049 8 view .LVU354
 1287 000e 13F0200F 		tst	r3, #32
 1288 0012 02D1     		bne	.L104
 1289              	.LVL123:
 1290              	.L95:
1075:Lib/embedded-cli/embedded_cli.c **** 
 1291              		.loc 1 1075 1 view .LVU355
 1292 0014 02B0     		add	sp, sp, #8
 1293              		.cfi_remember_state
 1294              		.cfi_def_cfa_offset 24
 1295              		@ sp needed
 1296 0016 BDE8F081 		pop	{r4, r5, r6, r7, r8, pc}
 1297              	.LVL124:
 1298              	.L104:
 1299              		.cfi_restore_state
1075:Lib/embedded-cli/embedded_cli.c **** 
ARM GAS  /tmp/ccb99Ich.s 			page 51


 1300              		.loc 1 1075 1 view .LVU356
 1301 001a 0446     		mov	r4, r0
1052:Lib/embedded-cli/embedded_cli.c **** 
 1302              		.loc 1 1052 5 is_stmt 1 view .LVU357
1052:Lib/embedded-cli/embedded_cli.c **** 
 1303              		.loc 1 1052 32 is_stmt 0 view .LVU358
 1304 001c D8F81C20 		ldr	r2, [r8, #28]
 1305 0020 0146     		mov	r1, r0
 1306 0022 6846     		mov	r0, sp
 1307              	.LVL125:
1052:Lib/embedded-cli/embedded_cli.c **** 
 1308              		.loc 1 1052 32 view .LVU359
 1309 0024 FFF7FEFF 		bl	getAutocompletedCommand
 1310              	.LVL126:
1054:Lib/embedded-cli/embedded_cli.c ****         cmd.autocompletedLen = impl->cmdSize;
 1311              		.loc 1 1054 5 is_stmt 1 view .LVU360
1054:Lib/embedded-cli/embedded_cli.c ****         cmd.autocompletedLen = impl->cmdSize;
 1312              		.loc 1 1054 12 is_stmt 0 view .LVU361
 1313 0028 BDF80630 		ldrh	r3, [sp, #6]
1054:Lib/embedded-cli/embedded_cli.c ****         cmd.autocompletedLen = impl->cmdSize;
 1314              		.loc 1 1054 8 view .LVU362
 1315 002c 1BB9     		cbnz	r3, .L98
1055:Lib/embedded-cli/embedded_cli.c ****     }
 1316              		.loc 1 1055 9 is_stmt 1 view .LVU363
1055:Lib/embedded-cli/embedded_cli.c ****     }
 1317              		.loc 1 1055 36 is_stmt 0 view .LVU364
 1318 002e B8F82030 		ldrh	r3, [r8, #32]
1055:Lib/embedded-cli/embedded_cli.c ****     }
 1319              		.loc 1 1055 30 view .LVU365
 1320 0032 ADF80430 		strh	r3, [sp, #4]	@ movhi
 1321              	.L98:
1059:Lib/embedded-cli/embedded_cli.c **** 
 1322              		.loc 1 1059 5 is_stmt 1 view .LVU366
 1323 0036 1449     		ldr	r1, .L105
 1324 0038 2046     		mov	r0, r4
 1325 003a FFF7FEFF 		bl	writeToOutput
 1326              	.LVL127:
1061:Lib/embedded-cli/embedded_cli.c **** 
 1327              		.loc 1 1061 5 view .LVU367
 1328 003e 0122     		movs	r2, #1
 1329 0040 B8F83410 		ldrh	r1, [r8, #52]
 1330 0044 2046     		mov	r0, r4
 1331 0046 FFF7FEFF 		bl	moveCursor
 1332              	.LVL128:
1064:Lib/embedded-cli/embedded_cli.c ****         cli->writeChar(cli, cmd.firstCandidate[i]);
 1333              		.loc 1 1064 5 view .LVU368
 1334              	.LBB12:
1064:Lib/embedded-cli/embedded_cli.c ****         cli->writeChar(cli, cmd.firstCandidate[i]);
 1335              		.loc 1 1064 10 view .LVU369
1064:Lib/embedded-cli/embedded_cli.c ****         cli->writeChar(cli, cmd.firstCandidate[i]);
 1336              		.loc 1 1064 25 is_stmt 0 view .LVU370
 1337 004a B8F82060 		ldrh	r6, [r8, #32]
 1338              	.LVL129:
1064:Lib/embedded-cli/embedded_cli.c ****         cli->writeChar(cli, cmd.firstCandidate[i]);
 1339              		.loc 1 1064 5 view .LVU371
 1340 004e 05E0     		b	.L99
 1341              	.L100:
ARM GAS  /tmp/ccb99Ich.s 			page 52


1065:Lib/embedded-cli/embedded_cli.c ****     }
 1342              		.loc 1 1065 9 is_stmt 1 view .LVU372
1065:Lib/embedded-cli/embedded_cli.c ****     }
 1343              		.loc 1 1065 12 is_stmt 0 view .LVU373
 1344 0050 2368     		ldr	r3, [r4]
1065:Lib/embedded-cli/embedded_cli.c ****     }
 1345              		.loc 1 1065 9 view .LVU374
 1346 0052 009A     		ldr	r2, [sp]
 1347 0054 915D     		ldrb	r1, [r2, r6]	@ zero_extendqisi2
 1348 0056 2046     		mov	r0, r4
 1349 0058 9847     		blx	r3
 1350              	.LVL130:
1064:Lib/embedded-cli/embedded_cli.c ****         cli->writeChar(cli, cmd.firstCandidate[i]);
 1351              		.loc 1 1064 62 is_stmt 1 discriminator 3 view .LVU375
 1352 005a 0136     		adds	r6, r6, #1
 1353              	.LVL131:
 1354              	.L99:
1064:Lib/embedded-cli/embedded_cli.c ****         cli->writeChar(cli, cmd.firstCandidate[i]);
 1355              		.loc 1 1064 38 discriminator 1 view .LVU376
1064:Lib/embedded-cli/embedded_cli.c ****         cli->writeChar(cli, cmd.firstCandidate[i]);
 1356              		.loc 1 1064 43 is_stmt 0 discriminator 1 view .LVU377
 1357 005c BDF80470 		ldrh	r7, [sp, #4]
 1358 0060 3D46     		mov	r5, r7
1064:Lib/embedded-cli/embedded_cli.c ****         cli->writeChar(cli, cmd.firstCandidate[i]);
 1359              		.loc 1 1064 38 discriminator 1 view .LVU378
 1360 0062 B742     		cmp	r7, r6
 1361 0064 F4D8     		bhi	.L100
 1362 0066 04E0     		b	.L101
 1363              	.LVL132:
 1364              	.L102:
1064:Lib/embedded-cli/embedded_cli.c ****         cli->writeChar(cli, cmd.firstCandidate[i]);
 1365              		.loc 1 1064 38 discriminator 1 view .LVU379
 1366              	.LBE12:
 1367              	.LBB13:
1069:Lib/embedded-cli/embedded_cli.c ****     }
 1368              		.loc 1 1069 9 is_stmt 1 view .LVU380
1069:Lib/embedded-cli/embedded_cli.c ****     }
 1369              		.loc 1 1069 12 is_stmt 0 view .LVU381
 1370 0068 2368     		ldr	r3, [r4]
1069:Lib/embedded-cli/embedded_cli.c ****     }
 1371              		.loc 1 1069 9 view .LVU382
 1372 006a 2021     		movs	r1, #32
 1373 006c 2046     		mov	r0, r4
 1374 006e 9847     		blx	r3
 1375              	.LVL133:
1068:Lib/embedded-cli/embedded_cli.c ****         cli->writeChar(cli, ' ');
 1376              		.loc 1 1068 70 is_stmt 1 discriminator 3 view .LVU383
 1377 0070 0135     		adds	r5, r5, #1
 1378              	.LVL134:
 1379              	.L101:
1068:Lib/embedded-cli/embedded_cli.c ****         cli->writeChar(cli, ' ');
 1380              		.loc 1 1068 45 discriminator 1 view .LVU384
1068:Lib/embedded-cli/embedded_cli.c ****         cli->writeChar(cli, ' ');
 1381              		.loc 1 1068 51 is_stmt 0 discriminator 1 view .LVU385
 1382 0072 B8F83030 		ldrh	r3, [r8, #48]
1068:Lib/embedded-cli/embedded_cli.c ****         cli->writeChar(cli, ' ');
 1383              		.loc 1 1068 45 discriminator 1 view .LVU386
ARM GAS  /tmp/ccb99Ich.s 			page 53


 1384 0076 AB42     		cmp	r3, r5
 1385 0078 F6D8     		bhi	.L102
 1386              	.LBE13:
1071:Lib/embedded-cli/embedded_cli.c **** 
 1387              		.loc 1 1071 5 is_stmt 1 view .LVU387
1071:Lib/embedded-cli/embedded_cli.c **** 
 1388              		.loc 1 1071 27 is_stmt 0 view .LVU388
 1389 007a A8F83070 		strh	r7, [r8, #48]	@ movhi
1074:Lib/embedded-cli/embedded_cli.c **** }
 1390              		.loc 1 1074 5 is_stmt 1 view .LVU389
 1391 007e 0349     		ldr	r1, .L105+4
 1392 0080 2046     		mov	r0, r4
 1393 0082 FFF7FEFF 		bl	writeToOutput
 1394              	.LVL135:
 1395 0086 C5E7     		b	.L95
 1396              	.L106:
 1397              		.align	2
 1398              	.L105:
 1399 0088 00000000 		.word	.LC8
 1400 008c 04000000 		.word	.LC9
 1401              		.cfi_endproc
 1402              	.LFE31:
 1404              		.section	.rodata.embeddedCliDefaultConfig.str1.4,"aMS",%progbits,1
 1405              		.align	2
 1406              	.LC10:
 1407 0000 3E2000   		.ascii	"> \000"
 1408              		.section	.text.embeddedCliDefaultConfig,"ax",%progbits
 1409              		.align	1
 1410              		.global	embeddedCliDefaultConfig
 1411              		.syntax unified
 1412              		.thumb
 1413              		.thumb_func
 1415              	embeddedCliDefaultConfig:
 1416              	.LFB7:
 438:Lib/embedded-cli/embedded_cli.c ****     defaultConfig.rxBufferSize = 64;
 1417              		.loc 1 438 51 view -0
 1418              		.cfi_startproc
 1419              		@ args = 0, pretend = 0, frame = 0
 1420              		@ frame_needed = 0, uses_anonymous_args = 0
 1421              		@ link register save eliminated.
 439:Lib/embedded-cli/embedded_cli.c ****     defaultConfig.cmdBufferSize = 64;
 1422              		.loc 1 439 5 view .LVU391
 439:Lib/embedded-cli/embedded_cli.c ****     defaultConfig.cmdBufferSize = 64;
 1423              		.loc 1 439 32 is_stmt 0 view .LVU392
 1424 0000 0748     		ldr	r0, .L108
 1425 0002 4023     		movs	r3, #64
 1426 0004 8380     		strh	r3, [r0, #4]	@ movhi
 440:Lib/embedded-cli/embedded_cli.c ****     defaultConfig.historyBufferSize = 128;
 1427              		.loc 1 440 5 is_stmt 1 view .LVU393
 440:Lib/embedded-cli/embedded_cli.c ****     defaultConfig.historyBufferSize = 128;
 1428              		.loc 1 440 33 is_stmt 0 view .LVU394
 1429 0006 C380     		strh	r3, [r0, #6]	@ movhi
 441:Lib/embedded-cli/embedded_cli.c ****     defaultConfig.cliBuffer = NULL;
 1430              		.loc 1 441 5 is_stmt 1 view .LVU395
 441:Lib/embedded-cli/embedded_cli.c ****     defaultConfig.cliBuffer = NULL;
 1431              		.loc 1 441 37 is_stmt 0 view .LVU396
 1432 0008 8023     		movs	r3, #128
ARM GAS  /tmp/ccb99Ich.s 			page 54


 1433 000a 0381     		strh	r3, [r0, #8]	@ movhi
 442:Lib/embedded-cli/embedded_cli.c ****     defaultConfig.cliBufferSize = 0;
 1434              		.loc 1 442 5 is_stmt 1 view .LVU397
 442:Lib/embedded-cli/embedded_cli.c ****     defaultConfig.cliBufferSize = 0;
 1435              		.loc 1 442 29 is_stmt 0 view .LVU398
 1436 000c 0023     		movs	r3, #0
 1437 000e C360     		str	r3, [r0, #12]
 443:Lib/embedded-cli/embedded_cli.c ****     defaultConfig.maxBindingCount = 8;
 1438              		.loc 1 443 5 is_stmt 1 view .LVU399
 443:Lib/embedded-cli/embedded_cli.c ****     defaultConfig.maxBindingCount = 8;
 1439              		.loc 1 443 33 is_stmt 0 view .LVU400
 1440 0010 0382     		strh	r3, [r0, #16]	@ movhi
 444:Lib/embedded-cli/embedded_cli.c ****     defaultConfig.enableAutoComplete = true;
 1441              		.loc 1 444 5 is_stmt 1 view .LVU401
 444:Lib/embedded-cli/embedded_cli.c ****     defaultConfig.enableAutoComplete = true;
 1442              		.loc 1 444 35 is_stmt 0 view .LVU402
 1443 0012 0823     		movs	r3, #8
 1444 0014 4381     		strh	r3, [r0, #10]	@ movhi
 445:Lib/embedded-cli/embedded_cli.c ****     defaultConfig.invitation = "> ";
 1445              		.loc 1 445 5 is_stmt 1 view .LVU403
 445:Lib/embedded-cli/embedded_cli.c ****     defaultConfig.invitation = "> ";
 1446              		.loc 1 445 38 is_stmt 0 view .LVU404
 1447 0016 0123     		movs	r3, #1
 1448 0018 8374     		strb	r3, [r0, #18]
 446:Lib/embedded-cli/embedded_cli.c ****     return &defaultConfig;
 1449              		.loc 1 446 5 is_stmt 1 view .LVU405
 446:Lib/embedded-cli/embedded_cli.c ****     return &defaultConfig;
 1450              		.loc 1 446 30 is_stmt 0 view .LVU406
 1451 001a 024B     		ldr	r3, .L108+4
 1452 001c 0360     		str	r3, [r0]
 447:Lib/embedded-cli/embedded_cli.c **** }
 1453              		.loc 1 447 5 is_stmt 1 view .LVU407
 448:Lib/embedded-cli/embedded_cli.c **** 
 1454              		.loc 1 448 1 is_stmt 0 view .LVU408
 1455 001e 7047     		bx	lr
 1456              	.L109:
 1457              		.align	2
 1458              	.L108:
 1459 0020 00000000 		.word	defaultConfig
 1460 0024 00000000 		.word	.LC10
 1461              		.cfi_endproc
 1462              	.LFE7:
 1464              		.section	.text.embeddedCliRequiredSize,"ax",%progbits
 1465              		.align	1
 1466              		.global	embeddedCliRequiredSize
 1467              		.syntax unified
 1468              		.thumb
 1469              		.thumb_func
 1471              	embeddedCliRequiredSize:
 1472              	.LVL136:
 1473              	.LFB8:
 450:Lib/embedded-cli/embedded_cli.c ****     uint16_t bindingCount = (uint16_t) (config->maxBindingCount + cliInternalBindingCount);
 1474              		.loc 1 450 61 is_stmt 1 view -0
 1475              		.cfi_startproc
 1476              		@ args = 0, pretend = 0, frame = 0
 1477              		@ frame_needed = 0, uses_anonymous_args = 0
 1478              		@ link register save eliminated.
ARM GAS  /tmp/ccb99Ich.s 			page 55


 451:Lib/embedded-cli/embedded_cli.c ****     return (uint16_t) (CLI_UINT_SIZE * (
 1479              		.loc 1 451 5 view .LVU410
 451:Lib/embedded-cli/embedded_cli.c ****     return (uint16_t) (CLI_UINT_SIZE * (
 1480              		.loc 1 451 47 is_stmt 0 view .LVU411
 1481 0000 4289     		ldrh	r2, [r0, #10]
 451:Lib/embedded-cli/embedded_cli.c ****     return (uint16_t) (CLI_UINT_SIZE * (
 1482              		.loc 1 451 14 view .LVU412
 1483 0002 0132     		adds	r2, r2, #1
 1484 0004 92B2     		uxth	r2, r2
 1485              	.LVL137:
 452:Lib/embedded-cli/embedded_cli.c ****             BYTES_TO_CLI_UINTS(sizeof(EmbeddedCli)) +
 1486              		.loc 1 452 5 is_stmt 1 view .LVU413
 455:Lib/embedded-cli/embedded_cli.c ****             BYTES_TO_CLI_UINTS(config->cmdBufferSize * sizeof(char)) +
 1487              		.loc 1 455 13 is_stmt 0 view .LVU414
 1488 0006 8188     		ldrh	r1, [r0, #4]
 1489 0008 0331     		adds	r1, r1, #3
 456:Lib/embedded-cli/embedded_cli.c ****             BYTES_TO_CLI_UINTS(config->historyBufferSize * sizeof(char)) +
 1490              		.loc 1 456 13 view .LVU415
 1491 000a C388     		ldrh	r3, [r0, #6]
 1492 000c 0333     		adds	r3, r3, #3
 1493 000e 9B08     		lsrs	r3, r3, #2
 455:Lib/embedded-cli/embedded_cli.c ****             BYTES_TO_CLI_UINTS(config->cmdBufferSize * sizeof(char)) +
 1494              		.loc 1 455 69 view .LVU416
 1495 0010 03EB9103 		add	r3, r3, r1, lsr #2
 457:Lib/embedded-cli/embedded_cli.c ****             BYTES_TO_CLI_UINTS(bindingCount * sizeof(CliCommandBinding)) +
 1496              		.loc 1 457 13 view .LVU417
 1497 0014 0189     		ldrh	r1, [r0, #8]
 1498 0016 0331     		adds	r1, r1, #3
 456:Lib/embedded-cli/embedded_cli.c ****             BYTES_TO_CLI_UINTS(config->historyBufferSize * sizeof(char)) +
 1499              		.loc 1 456 70 view .LVU418
 1500 0018 03EB9100 		add	r0, r3, r1, lsr #2
 1501              	.LVL138:
 458:Lib/embedded-cli/embedded_cli.c ****             BYTES_TO_CLI_UINTS(bindingCount * sizeof(uint8_t))));
 1502              		.loc 1 458 13 view .LVU419
 1503 001c 02EB8203 		add	r3, r2, r2, lsl #2
 457:Lib/embedded-cli/embedded_cli.c ****             BYTES_TO_CLI_UINTS(bindingCount * sizeof(CliCommandBinding)) +
 1504              		.loc 1 457 74 view .LVU420
 1505 0020 1844     		add	r0, r0, r3
 459:Lib/embedded-cli/embedded_cli.c **** }
 1506              		.loc 1 459 13 view .LVU421
 1507 0022 0332     		adds	r2, r2, #3
 1508              	.LVL139:
 458:Lib/embedded-cli/embedded_cli.c ****             BYTES_TO_CLI_UINTS(bindingCount * sizeof(uint8_t))));
 1509              		.loc 1 458 74 view .LVU422
 1510 0024 00EB9200 		add	r0, r0, r2, lsr #2
 1511 0028 1330     		adds	r0, r0, #19
 452:Lib/embedded-cli/embedded_cli.c ****             BYTES_TO_CLI_UINTS(sizeof(EmbeddedCli)) +
 1512              		.loc 1 452 12 view .LVU423
 1513 002a 8000     		lsls	r0, r0, #2
 452:Lib/embedded-cli/embedded_cli.c ****             BYTES_TO_CLI_UINTS(sizeof(EmbeddedCli)) +
 1514              		.loc 1 452 12 discriminator 1 view .LVU424
 1515 002c 80B2     		uxth	r0, r0
 460:Lib/embedded-cli/embedded_cli.c **** 
 1516              		.loc 1 460 1 view .LVU425
 1517 002e 7047     		bx	lr
 1518              		.cfi_endproc
 1519              	.LFE8:
ARM GAS  /tmp/ccb99Ich.s 			page 56


 1521              		.section	.text.embeddedCliReceiveChar,"ax",%progbits
 1522              		.align	1
 1523              		.global	embeddedCliReceiveChar
 1524              		.syntax unified
 1525              		.thumb
 1526              		.thumb_func
 1528              	embeddedCliReceiveChar:
 1529              	.LVL140:
 1530              	.LFB11:
 530:Lib/embedded-cli/embedded_cli.c ****     PREPARE_IMPL(cli);
 1531              		.loc 1 530 55 is_stmt 1 view -0
 1532              		.cfi_startproc
 1533              		@ args = 0, pretend = 0, frame = 0
 1534              		@ frame_needed = 0, uses_anonymous_args = 0
 530:Lib/embedded-cli/embedded_cli.c ****     PREPARE_IMPL(cli);
 1535              		.loc 1 530 55 is_stmt 0 view .LVU427
 1536 0000 10B5     		push	{r4, lr}
 1537              		.cfi_def_cfa_offset 8
 1538              		.cfi_offset 4, -8
 1539              		.cfi_offset 14, -4
 531:Lib/embedded-cli/embedded_cli.c **** 
 1540              		.loc 1 531 5 is_stmt 1 view .LVU428
 1541 0002 0469     		ldr	r4, [r0, #16]
 1542              	.LVL141:
 533:Lib/embedded-cli/embedded_cli.c ****         SET_FLAG(impl->flags, CLI_FLAG_OVERFLOW);
 1543              		.loc 1 533 5 view .LVU429
 533:Lib/embedded-cli/embedded_cli.c ****         SET_FLAG(impl->flags, CLI_FLAG_OVERFLOW);
 1544              		.loc 1 533 10 is_stmt 0 view .LVU430
 1545 0004 04F11000 		add	r0, r4, #16
 1546              	.LVL142:
 533:Lib/embedded-cli/embedded_cli.c ****         SET_FLAG(impl->flags, CLI_FLAG_OVERFLOW);
 1547              		.loc 1 533 10 view .LVU431
 1548 0008 FFF7FEFF 		bl	fifoBufPush
 1549              	.LVL143:
 533:Lib/embedded-cli/embedded_cli.c ****         SET_FLAG(impl->flags, CLI_FLAG_OVERFLOW);
 1550              		.loc 1 533 8 discriminator 1 view .LVU432
 1551 000c 28B9     		cbnz	r0, .L111
 534:Lib/embedded-cli/embedded_cli.c ****     }
 1552              		.loc 1 534 9 is_stmt 1 view .LVU433
 1553 000e 94F83330 		ldrb	r3, [r4, #51]	@ zero_extendqisi2
 1554 0012 43F00103 		orr	r3, r3, #1
 1555 0016 84F83330 		strb	r3, [r4, #51]
 1556              	.L111:
 536:Lib/embedded-cli/embedded_cli.c **** 
 1557              		.loc 1 536 1 is_stmt 0 view .LVU434
 1558 001a 10BD     		pop	{r4, pc}
 536:Lib/embedded-cli/embedded_cli.c **** 
 1559              		.loc 1 536 1 view .LVU435
 1560              		.cfi_endproc
 1561              	.LFE11:
 1563              		.section	.text.embeddedCliAddBinding,"ax",%progbits
 1564              		.align	1
 1565              		.global	embeddedCliAddBinding
 1566              		.syntax unified
 1567              		.thumb
 1568              		.thumb_func
 1570              	embeddedCliAddBinding:
ARM GAS  /tmp/ccb99Ich.s 			page 57


 1571              	.LVL144:
 1572              	.LFB13:
 577:Lib/embedded-cli/embedded_cli.c ****     PREPARE_IMPL(cli);
 1573              		.loc 1 577 73 is_stmt 1 view -0
 1574              		.cfi_startproc
 1575              		@ args = 24, pretend = 16, frame = 0
 1576              		@ frame_needed = 0, uses_anonymous_args = 0
 577:Lib/embedded-cli/embedded_cli.c ****     PREPARE_IMPL(cli);
 1577              		.loc 1 577 73 is_stmt 0 view .LVU437
 1578 0000 84B0     		sub	sp, sp, #16
 1579              		.cfi_def_cfa_offset 16
 1580 0002 10B5     		push	{r4, lr}
 1581              		.cfi_def_cfa_offset 24
 1582              		.cfi_offset 4, -24
 1583              		.cfi_offset 14, -20
 1584 0004 03AC     		add	r4, sp, #12
 1585 0006 84E80E00 		stm	r4, {r1, r2, r3}
 578:Lib/embedded-cli/embedded_cli.c ****     if (impl->bindingsCount == impl->maxBindingsCount)
 1586              		.loc 1 578 5 is_stmt 1 view .LVU438
 1587 000a 0469     		ldr	r4, [r0, #16]
 1588              	.LVL145:
 579:Lib/embedded-cli/embedded_cli.c ****         return false;
 1589              		.loc 1 579 5 view .LVU439
 579:Lib/embedded-cli/embedded_cli.c ****         return false;
 1590              		.loc 1 579 13 is_stmt 0 view .LVU440
 1591 000c A28D     		ldrh	r2, [r4, #44]
 579:Lib/embedded-cli/embedded_cli.c ****         return false;
 1592              		.loc 1 579 36 view .LVU441
 1593 000e E38D     		ldrh	r3, [r4, #46]
 579:Lib/embedded-cli/embedded_cli.c ****         return false;
 1594              		.loc 1 579 8 view .LVU442
 1595 0010 9A42     		cmp	r2, r3
 1596 0012 16D0     		beq	.L116
 582:Lib/embedded-cli/embedded_cli.c **** 
 1597              		.loc 1 582 5 is_stmt 1 view .LVU443
 582:Lib/embedded-cli/embedded_cli.c **** 
 1598              		.loc 1 582 9 is_stmt 0 view .LVU444
 1599 0014 636A     		ldr	r3, [r4, #36]
 582:Lib/embedded-cli/embedded_cli.c **** 
 1600              		.loc 1 582 19 view .LVU445
 1601 0016 02EB8202 		add	r2, r2, r2, lsl #2
 582:Lib/embedded-cli/embedded_cli.c **** 
 1602              		.loc 1 582 41 view .LVU446
 1603 001a 03EB820C 		add	ip, r3, r2, lsl #2
 1604 001e 0DF10C0E 		add	lr, sp, #12
 1605 0022 BEE80F00 		ldmia	lr!, {r0, r1, r2, r3}
 1606              	.LVL146:
 582:Lib/embedded-cli/embedded_cli.c **** 
 1607              		.loc 1 582 41 view .LVU447
 1608 0026 ACE80F00 		stmia	ip!, {r0, r1, r2, r3}
 1609 002a DEF80030 		ldr	r3, [lr]
 1610 002e CCF80030 		str	r3, [ip]
 584:Lib/embedded-cli/embedded_cli.c ****     return true;
 1611              		.loc 1 584 5 is_stmt 1 view .LVU448
 584:Lib/embedded-cli/embedded_cli.c ****     return true;
 1612              		.loc 1 584 11 is_stmt 0 view .LVU449
 1613 0032 A38D     		ldrh	r3, [r4, #44]
ARM GAS  /tmp/ccb99Ich.s 			page 58


 584:Lib/embedded-cli/embedded_cli.c ****     return true;
 1614              		.loc 1 584 5 view .LVU450
 1615 0034 0133     		adds	r3, r3, #1
 1616 0036 A385     		strh	r3, [r4, #44]	@ movhi
 585:Lib/embedded-cli/embedded_cli.c **** }
 1617              		.loc 1 585 5 is_stmt 1 view .LVU451
 585:Lib/embedded-cli/embedded_cli.c **** }
 1618              		.loc 1 585 12 is_stmt 0 view .LVU452
 1619 0038 0120     		movs	r0, #1
 1620              	.L115:
 586:Lib/embedded-cli/embedded_cli.c **** 
 1621              		.loc 1 586 1 view .LVU453
 1622 003a BDE81040 		pop	{r4, lr}
 1623              		.cfi_remember_state
 1624              		.cfi_restore 14
 1625              		.cfi_restore 4
 1626              		.cfi_def_cfa_offset 16
 1627              	.LVL147:
 586:Lib/embedded-cli/embedded_cli.c **** 
 1628              		.loc 1 586 1 view .LVU454
 1629 003e 04B0     		add	sp, sp, #16
 1630              		.cfi_def_cfa_offset 0
 1631 0040 7047     		bx	lr
 1632              	.LVL148:
 1633              	.L116:
 1634              		.cfi_restore_state
 580:Lib/embedded-cli/embedded_cli.c **** 
 1635              		.loc 1 580 16 view .LVU455
 1636 0042 0020     		movs	r0, #0
 1637              	.LVL149:
 580:Lib/embedded-cli/embedded_cli.c **** 
 1638              		.loc 1 580 16 view .LVU456
 1639 0044 F9E7     		b	.L115
 1640              		.cfi_endproc
 1641              	.LFE13:
 1643              		.section	.text.initInternalBindings,"ax",%progbits
 1644              		.align	1
 1645              		.syntax unified
 1646              		.thumb
 1647              		.thumb_func
 1649              	initInternalBindings:
 1650              	.LVL150:
 1651              	.LFB27:
 925:Lib/embedded-cli/embedded_cli.c ****     CliCommandBinding b = {
 1652              		.loc 1 925 52 is_stmt 1 view -0
 1653              		.cfi_startproc
 1654              		@ args = 0, pretend = 0, frame = 24
 1655              		@ frame_needed = 0, uses_anonymous_args = 0
 925:Lib/embedded-cli/embedded_cli.c ****     CliCommandBinding b = {
 1656              		.loc 1 925 52 is_stmt 0 view .LVU458
 1657 0000 10B5     		push	{r4, lr}
 1658              		.cfi_def_cfa_offset 8
 1659              		.cfi_offset 4, -8
 1660              		.cfi_offset 14, -4
 1661 0002 88B0     		sub	sp, sp, #32
 1662              		.cfi_def_cfa_offset 40
 1663 0004 8646     		mov	lr, r0
ARM GAS  /tmp/ccb99Ich.s 			page 59


 926:Lib/embedded-cli/embedded_cli.c ****             "help",
 1664              		.loc 1 926 5 is_stmt 1 view .LVU459
 926:Lib/embedded-cli/embedded_cli.c ****             "help",
 1665              		.loc 1 926 23 is_stmt 0 view .LVU460
 1666 0006 0DF10C0C 		add	ip, sp, #12
 1667 000a 094C     		ldr	r4, .L120
 1668 000c 0FCC     		ldmia	r4!, {r0, r1, r2, r3}
 1669              	.LVL151:
 926:Lib/embedded-cli/embedded_cli.c ****             "help",
 1670              		.loc 1 926 23 view .LVU461
 1671 000e ACE80F00 		stmia	ip!, {r0, r1, r2, r3}
 1672 0012 2368     		ldr	r3, [r4]
 1673 0014 CCF80030 		str	r3, [ip]
 933:Lib/embedded-cli/embedded_cli.c **** }
 1674              		.loc 1 933 5 is_stmt 1 view .LVU462
 1675 0018 08AB     		add	r3, sp, #32
 1676 001a 13E90300 		ldmdb	r3, {r0, r1}
 1677 001e 8DE80300 		stm	sp, {r0, r1}
 1678 0022 03AB     		add	r3, sp, #12
 1679 0024 0ECB     		ldm	r3, {r1, r2, r3}
 1680 0026 7046     		mov	r0, lr
 1681 0028 FFF7FEFF 		bl	embeddedCliAddBinding
 1682              	.LVL152:
 934:Lib/embedded-cli/embedded_cli.c **** 
 1683              		.loc 1 934 1 is_stmt 0 view .LVU463
 1684 002c 08B0     		add	sp, sp, #32
 1685              		.cfi_def_cfa_offset 8
 1686              		@ sp needed
 1687 002e 10BD     		pop	{r4, pc}
 1688              	.L121:
 1689              		.align	2
 1690              	.L120:
 1691 0030 00000000 		.word	.LANCHOR0
 1692              		.cfi_endproc
 1693              	.LFE27:
 1695              		.section	.text.embeddedCliNew,"ax",%progbits
 1696              		.align	1
 1697              		.global	embeddedCliNew
 1698              		.syntax unified
 1699              		.thumb
 1700              		.thumb_func
 1702              	embeddedCliNew:
 1703              	.LVL153:
 1704              	.LFB9:
 462:Lib/embedded-cli/embedded_cli.c ****     EmbeddedCli *cli = NULL;
 1705              		.loc 1 462 56 is_stmt 1 view -0
 1706              		.cfi_startproc
 1707              		@ args = 0, pretend = 0, frame = 0
 1708              		@ frame_needed = 0, uses_anonymous_args = 0
 462:Lib/embedded-cli/embedded_cli.c ****     EmbeddedCli *cli = NULL;
 1709              		.loc 1 462 56 is_stmt 0 view .LVU465
 1710 0000 2DE9F041 		push	{r4, r5, r6, r7, r8, lr}
 1711              		.cfi_def_cfa_offset 24
 1712              		.cfi_offset 4, -24
 1713              		.cfi_offset 5, -20
 1714              		.cfi_offset 6, -16
 1715              		.cfi_offset 7, -12
ARM GAS  /tmp/ccb99Ich.s 			page 60


 1716              		.cfi_offset 8, -8
 1717              		.cfi_offset 14, -4
 1718 0004 0446     		mov	r4, r0
 463:Lib/embedded-cli/embedded_cli.c **** 
 1719              		.loc 1 463 5 is_stmt 1 view .LVU466
 1720              	.LVL154:
 465:Lib/embedded-cli/embedded_cli.c **** 
 1721              		.loc 1 465 5 view .LVU467
 465:Lib/embedded-cli/embedded_cli.c **** 
 1722              		.loc 1 465 47 is_stmt 0 view .LVU468
 1723 0006 4589     		ldrh	r5, [r0, #10]
 465:Lib/embedded-cli/embedded_cli.c **** 
 1724              		.loc 1 465 14 view .LVU469
 1725 0008 0135     		adds	r5, r5, #1
 1726 000a ADB2     		uxth	r5, r5
 1727              	.LVL155:
 467:Lib/embedded-cli/embedded_cli.c **** 
 1728              		.loc 1 467 5 is_stmt 1 view .LVU470
 467:Lib/embedded-cli/embedded_cli.c **** 
 1729              		.loc 1 467 24 is_stmt 0 view .LVU471
 1730 000c FFF7FEFF 		bl	embeddedCliRequiredSize
 1731              	.LVL156:
 467:Lib/embedded-cli/embedded_cli.c **** 
 1732              		.loc 1 467 24 view .LVU472
 1733 0010 8046     		mov	r8, r0
 1734              	.LVL157:
 469:Lib/embedded-cli/embedded_cli.c ****     if (config->cliBuffer == NULL) {
 1735              		.loc 1 469 5 is_stmt 1 view .LVU473
 470:Lib/embedded-cli/embedded_cli.c ****         config->cliBuffer = (CLI_UINT *) malloc(totalSize); // malloc guarantees alignment.
 1736              		.loc 1 470 5 view .LVU474
 470:Lib/embedded-cli/embedded_cli.c ****         config->cliBuffer = (CLI_UINT *) malloc(totalSize); // malloc guarantees alignment.
 1737              		.loc 1 470 15 is_stmt 0 view .LVU475
 1738 0012 E368     		ldr	r3, [r4, #12]
 470:Lib/embedded-cli/embedded_cli.c ****         config->cliBuffer = (CLI_UINT *) malloc(totalSize); // malloc guarantees alignment.
 1739              		.loc 1 470 8 view .LVU476
 1740 0014 002B     		cmp	r3, #0
 1741 0016 4CD0     		beq	.L130
 475:Lib/embedded-cli/embedded_cli.c ****         return NULL;
 1742              		.loc 1 475 12 is_stmt 1 view .LVU477
 475:Lib/embedded-cli/embedded_cli.c ****         return NULL;
 1743              		.loc 1 475 22 is_stmt 0 view .LVU478
 1744 0018 238A     		ldrh	r3, [r4, #16]
 475:Lib/embedded-cli/embedded_cli.c ****         return NULL;
 1745              		.loc 1 475 15 view .LVU479
 1746 001a 9842     		cmp	r0, r3
 1747 001c 51D8     		bhi	.L128
 469:Lib/embedded-cli/embedded_cli.c ****     if (config->cliBuffer == NULL) {
 1748              		.loc 1 469 10 view .LVU480
 1749 001e 0027     		movs	r7, #0
 1750              	.LVL158:
 1751              	.L125:
 479:Lib/embedded-cli/embedded_cli.c **** 
 1752              		.loc 1 479 5 is_stmt 1 view .LVU481
 479:Lib/embedded-cli/embedded_cli.c **** 
 1753              		.loc 1 479 15 is_stmt 0 view .LVU482
 1754 0020 E668     		ldr	r6, [r4, #12]
 1755              	.LVL159:
ARM GAS  /tmp/ccb99Ich.s 			page 61


 481:Lib/embedded-cli/embedded_cli.c **** 
 1756              		.loc 1 481 5 is_stmt 1 view .LVU483
 1757 0022 4246     		mov	r2, r8
 1758 0024 0021     		movs	r1, #0
 1759 0026 3046     		mov	r0, r6
 1760 0028 FFF7FEFF 		bl	memset
 1761              	.LVL160:
 483:Lib/embedded-cli/embedded_cli.c ****     buf += BYTES_TO_CLI_UINTS(sizeof(EmbeddedCli));
 1762              		.loc 1 483 5 view .LVU484
 484:Lib/embedded-cli/embedded_cli.c **** 
 1763              		.loc 1 484 5 view .LVU485
 484:Lib/embedded-cli/embedded_cli.c **** 
 1764              		.loc 1 484 9 is_stmt 0 view .LVU486
 1765 002c 06F11403 		add	r3, r6, #20
 1766              	.LVL161:
 486:Lib/embedded-cli/embedded_cli.c ****     buf += BYTES_TO_CLI_UINTS(sizeof(EmbeddedCliImpl));
 1767              		.loc 1 486 5 is_stmt 1 view .LVU487
 486:Lib/embedded-cli/embedded_cli.c ****     buf += BYTES_TO_CLI_UINTS(sizeof(EmbeddedCliImpl));
 1768              		.loc 1 486 16 is_stmt 0 view .LVU488
 1769 0030 3361     		str	r3, [r6, #16]
 487:Lib/embedded-cli/embedded_cli.c **** 
 1770              		.loc 1 487 5 is_stmt 1 view .LVU489
 487:Lib/embedded-cli/embedded_cli.c **** 
 1771              		.loc 1 487 9 is_stmt 0 view .LVU490
 1772 0032 06F14C02 		add	r2, r6, #76
 1773              	.LVL162:
 489:Lib/embedded-cli/embedded_cli.c ****     impl->rxBuffer.buf = (char *) buf;
 1774              		.loc 1 489 5 is_stmt 1 view .LVU491
 490:Lib/embedded-cli/embedded_cli.c ****     buf += BYTES_TO_CLI_UINTS(config->rxBufferSize * sizeof(char));
 1775              		.loc 1 490 5 view .LVU492
 490:Lib/embedded-cli/embedded_cli.c ****     buf += BYTES_TO_CLI_UINTS(config->rxBufferSize * sizeof(char));
 1776              		.loc 1 490 24 is_stmt 0 view .LVU493
 1777 0036 1A61     		str	r2, [r3, #16]
 491:Lib/embedded-cli/embedded_cli.c **** 
 1778              		.loc 1 491 5 is_stmt 1 view .LVU494
 491:Lib/embedded-cli/embedded_cli.c **** 
 1779              		.loc 1 491 12 is_stmt 0 view .LVU495
 1780 0038 A188     		ldrh	r1, [r4, #4]
 1781 003a 0331     		adds	r1, r1, #3
 491:Lib/embedded-cli/embedded_cli.c **** 
 1782              		.loc 1 491 9 view .LVU496
 1783 003c 21F00301 		bic	r1, r1, #3
 1784 0040 0A44     		add	r2, r2, r1
 1785              	.LVL163:
 493:Lib/embedded-cli/embedded_cli.c ****     buf += BYTES_TO_CLI_UINTS(config->cmdBufferSize * sizeof(char));
 1786              		.loc 1 493 5 is_stmt 1 view .LVU497
 493:Lib/embedded-cli/embedded_cli.c ****     buf += BYTES_TO_CLI_UINTS(config->cmdBufferSize * sizeof(char));
 1787              		.loc 1 493 21 is_stmt 0 view .LVU498
 1788 0042 DA61     		str	r2, [r3, #28]
 494:Lib/embedded-cli/embedded_cli.c **** 
 1789              		.loc 1 494 5 is_stmt 1 view .LVU499
 494:Lib/embedded-cli/embedded_cli.c **** 
 1790              		.loc 1 494 12 is_stmt 0 view .LVU500
 1791 0044 E188     		ldrh	r1, [r4, #6]
 1792 0046 0331     		adds	r1, r1, #3
 494:Lib/embedded-cli/embedded_cli.c **** 
 1793              		.loc 1 494 9 view .LVU501
ARM GAS  /tmp/ccb99Ich.s 			page 62


 1794 0048 21F00301 		bic	r1, r1, #3
 1795 004c 0A44     		add	r2, r2, r1
 1796              	.LVL164:
 496:Lib/embedded-cli/embedded_cli.c ****     buf += BYTES_TO_CLI_UINTS(bindingCount * sizeof(CliCommandBinding));
 1797              		.loc 1 496 5 is_stmt 1 view .LVU502
 496:Lib/embedded-cli/embedded_cli.c ****     buf += BYTES_TO_CLI_UINTS(bindingCount * sizeof(CliCommandBinding));
 1798              		.loc 1 496 20 is_stmt 0 view .LVU503
 1799 004e 5A62     		str	r2, [r3, #36]
 497:Lib/embedded-cli/embedded_cli.c **** 
 1800              		.loc 1 497 5 is_stmt 1 view .LVU504
 497:Lib/embedded-cli/embedded_cli.c **** 
 1801              		.loc 1 497 12 is_stmt 0 view .LVU505
 1802 0050 05EB8501 		add	r1, r5, r5, lsl #2
 497:Lib/embedded-cli/embedded_cli.c **** 
 1803              		.loc 1 497 9 view .LVU506
 1804 0054 02EB8102 		add	r2, r2, r1, lsl #2
 1805              	.LVL165:
 499:Lib/embedded-cli/embedded_cli.c ****     buf += BYTES_TO_CLI_UINTS(bindingCount);
 1806              		.loc 1 499 5 is_stmt 1 view .LVU507
 499:Lib/embedded-cli/embedded_cli.c ****     buf += BYTES_TO_CLI_UINTS(bindingCount);
 1807              		.loc 1 499 25 is_stmt 0 view .LVU508
 1808 0058 9A62     		str	r2, [r3, #40]
 500:Lib/embedded-cli/embedded_cli.c **** 
 1809              		.loc 1 500 5 is_stmt 1 view .LVU509
 500:Lib/embedded-cli/embedded_cli.c **** 
 1810              		.loc 1 500 12 is_stmt 0 view .LVU510
 1811 005a 0335     		adds	r5, r5, #3
 1812              	.LVL166:
 500:Lib/embedded-cli/embedded_cli.c **** 
 1813              		.loc 1 500 9 view .LVU511
 1814 005c 25F00305 		bic	r5, r5, #3
 1815              	.LVL167:
 500:Lib/embedded-cli/embedded_cli.c **** 
 1816              		.loc 1 500 9 view .LVU512
 1817 0060 2A44     		add	r2, r2, r5
 1818              	.LVL168:
 502:Lib/embedded-cli/embedded_cli.c ****     impl->history.bufferSize = config->historyBufferSize;
 1819              		.loc 1 502 5 is_stmt 1 view .LVU513
 502:Lib/embedded-cli/embedded_cli.c ****     impl->history.bufferSize = config->historyBufferSize;
 1820              		.loc 1 502 23 is_stmt 0 view .LVU514
 1821 0062 5A60     		str	r2, [r3, #4]
 503:Lib/embedded-cli/embedded_cli.c **** 
 1822              		.loc 1 503 5 is_stmt 1 view .LVU515
 503:Lib/embedded-cli/embedded_cli.c **** 
 1823              		.loc 1 503 38 is_stmt 0 view .LVU516
 1824 0064 2289     		ldrh	r2, [r4, #8]
 1825              	.LVL169:
 503:Lib/embedded-cli/embedded_cli.c **** 
 1826              		.loc 1 503 30 view .LVU517
 1827 0066 1A81     		strh	r2, [r3, #8]	@ movhi
 505:Lib/embedded-cli/embedded_cli.c ****         SET_FLAG(impl->flags, CLI_FLAG_ALLOCATED);
 1828              		.loc 1 505 5 is_stmt 1 view .LVU518
 505:Lib/embedded-cli/embedded_cli.c ****         SET_FLAG(impl->flags, CLI_FLAG_ALLOCATED);
 1829              		.loc 1 505 8 is_stmt 0 view .LVU519
 1830 0068 2FB1     		cbz	r7, .L126
 506:Lib/embedded-cli/embedded_cli.c **** 
 1831              		.loc 1 506 9 is_stmt 1 view .LVU520
ARM GAS  /tmp/ccb99Ich.s 			page 63


 1832 006a 93F83320 		ldrb	r2, [r3, #51]	@ zero_extendqisi2
 1833 006e 42F00402 		orr	r2, r2, #4
 1834 0072 83F83320 		strb	r2, [r3, #51]
 1835              	.L126:
 508:Lib/embedded-cli/embedded_cli.c ****         SET_FLAG(impl->flags, CLI_FLAG_AUTOCOMPLETE_ENABLED);
 1836              		.loc 1 508 5 view .LVU521
 508:Lib/embedded-cli/embedded_cli.c ****         SET_FLAG(impl->flags, CLI_FLAG_AUTOCOMPLETE_ENABLED);
 1837              		.loc 1 508 15 is_stmt 0 view .LVU522
 1838 0076 A27C     		ldrb	r2, [r4, #18]	@ zero_extendqisi2
 508:Lib/embedded-cli/embedded_cli.c ****         SET_FLAG(impl->flags, CLI_FLAG_AUTOCOMPLETE_ENABLED);
 1839              		.loc 1 508 8 view .LVU523
 1840 0078 2AB1     		cbz	r2, .L127
 509:Lib/embedded-cli/embedded_cli.c **** 
 1841              		.loc 1 509 9 is_stmt 1 view .LVU524
 1842 007a 93F83320 		ldrb	r2, [r3, #51]	@ zero_extendqisi2
 1843 007e 42F02002 		orr	r2, r2, #32
 1844 0082 83F83320 		strb	r2, [r3, #51]
 1845              	.L127:
 511:Lib/embedded-cli/embedded_cli.c ****     impl->rxBuffer.front = 0;
 1846              		.loc 1 511 5 view .LVU525
 511:Lib/embedded-cli/embedded_cli.c ****     impl->rxBuffer.front = 0;
 1847              		.loc 1 511 33 is_stmt 0 view .LVU526
 1848 0086 A288     		ldrh	r2, [r4, #4]
 511:Lib/embedded-cli/embedded_cli.c ****     impl->rxBuffer.front = 0;
 1849              		.loc 1 511 25 view .LVU527
 1850 0088 1A83     		strh	r2, [r3, #24]	@ movhi
 512:Lib/embedded-cli/embedded_cli.c ****     impl->rxBuffer.back = 0;
 1851              		.loc 1 512 5 is_stmt 1 view .LVU528
 512:Lib/embedded-cli/embedded_cli.c ****     impl->rxBuffer.back = 0;
 1852              		.loc 1 512 26 is_stmt 0 view .LVU529
 1853 008a 0022     		movs	r2, #0
 1854 008c 9A82     		strh	r2, [r3, #20]	@ movhi
 513:Lib/embedded-cli/embedded_cli.c ****     impl->cmdMaxSize = config->cmdBufferSize;
 1855              		.loc 1 513 5 is_stmt 1 view .LVU530
 513:Lib/embedded-cli/embedded_cli.c ****     impl->cmdMaxSize = config->cmdBufferSize;
 1856              		.loc 1 513 25 is_stmt 0 view .LVU531
 1857 008e DA82     		strh	r2, [r3, #22]	@ movhi
 514:Lib/embedded-cli/embedded_cli.c ****     impl->bindingsCount = 0;
 1858              		.loc 1 514 5 is_stmt 1 view .LVU532
 514:Lib/embedded-cli/embedded_cli.c ****     impl->bindingsCount = 0;
 1859              		.loc 1 514 30 is_stmt 0 view .LVU533
 1860 0090 E188     		ldrh	r1, [r4, #6]
 514:Lib/embedded-cli/embedded_cli.c ****     impl->bindingsCount = 0;
 1861              		.loc 1 514 22 view .LVU534
 1862 0092 5984     		strh	r1, [r3, #34]	@ movhi
 515:Lib/embedded-cli/embedded_cli.c ****     impl->maxBindingsCount = (uint16_t) (config->maxBindingCount + cliInternalBindingCount);
 1863              		.loc 1 515 5 is_stmt 1 view .LVU535
 515:Lib/embedded-cli/embedded_cli.c ****     impl->maxBindingsCount = (uint16_t) (config->maxBindingCount + cliInternalBindingCount);
 1864              		.loc 1 515 25 is_stmt 0 view .LVU536
 1865 0094 9A85     		strh	r2, [r3, #44]	@ movhi
 516:Lib/embedded-cli/embedded_cli.c ****     impl->lastChar = '\0';
 1866              		.loc 1 516 5 is_stmt 1 view .LVU537
 516:Lib/embedded-cli/embedded_cli.c ****     impl->lastChar = '\0';
 1867              		.loc 1 516 48 is_stmt 0 view .LVU538
 1868 0096 6189     		ldrh	r1, [r4, #10]
 516:Lib/embedded-cli/embedded_cli.c ****     impl->lastChar = '\0';
 1869              		.loc 1 516 30 view .LVU539
ARM GAS  /tmp/ccb99Ich.s 			page 64


 1870 0098 0131     		adds	r1, r1, #1
 516:Lib/embedded-cli/embedded_cli.c ****     impl->lastChar = '\0';
 1871              		.loc 1 516 28 view .LVU540
 1872 009a D985     		strh	r1, [r3, #46]	@ movhi
 517:Lib/embedded-cli/embedded_cli.c ****     impl->invitation = config->invitation;
 1873              		.loc 1 517 5 is_stmt 1 view .LVU541
 517:Lib/embedded-cli/embedded_cli.c ****     impl->invitation = config->invitation;
 1874              		.loc 1 517 20 is_stmt 0 view .LVU542
 1875 009c 83F83220 		strb	r2, [r3, #50]
 518:Lib/embedded-cli/embedded_cli.c ****     impl->cursorPos = 0;
 1876              		.loc 1 518 5 is_stmt 1 view .LVU543
 518:Lib/embedded-cli/embedded_cli.c ****     impl->cursorPos = 0;
 1877              		.loc 1 518 30 is_stmt 0 view .LVU544
 1878 00a0 2168     		ldr	r1, [r4]
 518:Lib/embedded-cli/embedded_cli.c ****     impl->cursorPos = 0;
 1879              		.loc 1 518 22 view .LVU545
 1880 00a2 1960     		str	r1, [r3]
 519:Lib/embedded-cli/embedded_cli.c **** 
 1881              		.loc 1 519 5 is_stmt 1 view .LVU546
 519:Lib/embedded-cli/embedded_cli.c **** 
 1882              		.loc 1 519 21 is_stmt 0 view .LVU547
 1883 00a4 9A86     		strh	r2, [r3, #52]	@ movhi
 521:Lib/embedded-cli/embedded_cli.c **** 
 1884              		.loc 1 521 5 is_stmt 1 view .LVU548
 1885 00a6 3046     		mov	r0, r6
 1886 00a8 FFF7FEFF 		bl	initInternalBindings
 1887              	.LVL170:
 523:Lib/embedded-cli/embedded_cli.c **** }
 1888              		.loc 1 523 5 view .LVU549
 1889              	.L122:
 524:Lib/embedded-cli/embedded_cli.c **** 
 1890              		.loc 1 524 1 is_stmt 0 view .LVU550
 1891 00ac 3046     		mov	r0, r6
 1892 00ae BDE8F081 		pop	{r4, r5, r6, r7, r8, pc}
 1893              	.LVL171:
 1894              	.L130:
 471:Lib/embedded-cli/embedded_cli.c ****         if (config->cliBuffer == NULL)
 1895              		.loc 1 471 9 is_stmt 1 view .LVU551
 471:Lib/embedded-cli/embedded_cli.c ****         if (config->cliBuffer == NULL)
 1896              		.loc 1 471 42 is_stmt 0 view .LVU552
 1897 00b2 FFF7FEFF 		bl	pvPortMalloc
 1898              	.LVL172:
 471:Lib/embedded-cli/embedded_cli.c ****         if (config->cliBuffer == NULL)
 1899              		.loc 1 471 42 view .LVU553
 1900 00b6 0646     		mov	r6, r0
 471:Lib/embedded-cli/embedded_cli.c ****         if (config->cliBuffer == NULL)
 1901              		.loc 1 471 27 discriminator 1 view .LVU554
 1902 00b8 E060     		str	r0, [r4, #12]
 472:Lib/embedded-cli/embedded_cli.c ****             return NULL;
 1903              		.loc 1 472 9 is_stmt 1 view .LVU555
 472:Lib/embedded-cli/embedded_cli.c ****             return NULL;
 1904              		.loc 1 472 12 is_stmt 0 view .LVU556
 1905 00ba 0028     		cmp	r0, #0
 1906 00bc F6D0     		beq	.L122
 474:Lib/embedded-cli/embedded_cli.c ****     } else if (config->cliBufferSize < totalSize) {
 1907              		.loc 1 474 19 view .LVU557
 1908 00be 0127     		movs	r7, #1
ARM GAS  /tmp/ccb99Ich.s 			page 65


 1909 00c0 AEE7     		b	.L125
 1910              	.LVL173:
 1911              	.L128:
 476:Lib/embedded-cli/embedded_cli.c ****     }
 1912              		.loc 1 476 16 view .LVU558
 1913 00c2 0026     		movs	r6, #0
 1914 00c4 F2E7     		b	.L122
 1915              		.cfi_endproc
 1916              	.LFE9:
 1918              		.section	.text.embeddedCliNewDefault,"ax",%progbits
 1919              		.align	1
 1920              		.global	embeddedCliNewDefault
 1921              		.syntax unified
 1922              		.thumb
 1923              		.thumb_func
 1925              	embeddedCliNewDefault:
 1926              	.LFB10:
 526:Lib/embedded-cli/embedded_cli.c ****     return embeddedCliNew(embeddedCliDefaultConfig());
 1927              		.loc 1 526 42 is_stmt 1 view -0
 1928              		.cfi_startproc
 1929              		@ args = 0, pretend = 0, frame = 0
 1930              		@ frame_needed = 0, uses_anonymous_args = 0
 1931 0000 08B5     		push	{r3, lr}
 1932              		.cfi_def_cfa_offset 8
 1933              		.cfi_offset 3, -8
 1934              		.cfi_offset 14, -4
 527:Lib/embedded-cli/embedded_cli.c **** }
 1935              		.loc 1 527 5 view .LVU560
 527:Lib/embedded-cli/embedded_cli.c **** }
 1936              		.loc 1 527 12 is_stmt 0 view .LVU561
 1937 0002 FFF7FEFF 		bl	embeddedCliDefaultConfig
 1938              	.LVL174:
 527:Lib/embedded-cli/embedded_cli.c **** }
 1939              		.loc 1 527 12 discriminator 1 view .LVU562
 1940 0006 FFF7FEFF 		bl	embeddedCliNew
 1941              	.LVL175:
 528:Lib/embedded-cli/embedded_cli.c **** 
 1942              		.loc 1 528 1 view .LVU563
 1943 000a 08BD     		pop	{r3, pc}
 1944              		.cfi_endproc
 1945              	.LFE10:
 1947              		.section	.text.embeddedCliPrint,"ax",%progbits
 1948              		.align	1
 1949              		.global	embeddedCliPrint
 1950              		.syntax unified
 1951              		.thumb
 1952              		.thumb_func
 1954              	embeddedCliPrint:
 1955              	.LVL176:
 1956              	.LFB14:
 588:Lib/embedded-cli/embedded_cli.c ****     if (cli->writeChar == NULL)
 1957              		.loc 1 588 61 is_stmt 1 view -0
 1958              		.cfi_startproc
 1959              		@ args = 0, pretend = 0, frame = 0
 1960              		@ frame_needed = 0, uses_anonymous_args = 0
 588:Lib/embedded-cli/embedded_cli.c ****     if (cli->writeChar == NULL)
 1961              		.loc 1 588 61 is_stmt 0 view .LVU565
ARM GAS  /tmp/ccb99Ich.s 			page 66


 1962 0000 F8B5     		push	{r3, r4, r5, r6, r7, lr}
 1963              		.cfi_def_cfa_offset 24
 1964              		.cfi_offset 3, -24
 1965              		.cfi_offset 4, -20
 1966              		.cfi_offset 5, -16
 1967              		.cfi_offset 6, -12
 1968              		.cfi_offset 7, -8
 1969              		.cfi_offset 14, -4
 589:Lib/embedded-cli/embedded_cli.c ****         return;
 1970              		.loc 1 589 5 is_stmt 1 view .LVU566
 589:Lib/embedded-cli/embedded_cli.c ****         return;
 1971              		.loc 1 589 12 is_stmt 0 view .LVU567
 1972 0002 0368     		ldr	r3, [r0]
 589:Lib/embedded-cli/embedded_cli.c ****         return;
 1973              		.loc 1 589 8 view .LVU568
 1974 0004 B3B1     		cbz	r3, .L133
 1975 0006 0446     		mov	r4, r0
 1976 0008 0E46     		mov	r6, r1
 592:Lib/embedded-cli/embedded_cli.c **** 
 1977              		.loc 1 592 5 is_stmt 1 view .LVU569
 1978 000a 0569     		ldr	r5, [r0, #16]
 1979              	.LVL177:
 595:Lib/embedded-cli/embedded_cli.c **** 
 1980              		.loc 1 595 5 view .LVU570
 595:Lib/embedded-cli/embedded_cli.c **** 
 1981              		.loc 1 595 14 is_stmt 0 view .LVU571
 1982 000c AF8E     		ldrh	r7, [r5, #52]
 1983              	.LVL178:
 598:Lib/embedded-cli/embedded_cli.c ****         clearCurrentLine(cli);
 1984              		.loc 1 598 5 is_stmt 1 view .LVU572
 598:Lib/embedded-cli/embedded_cli.c ****         clearCurrentLine(cli);
 1985              		.loc 1 598 10 is_stmt 0 view .LVU573
 1986 000e 95F83330 		ldrb	r3, [r5, #51]	@ zero_extendqisi2
 598:Lib/embedded-cli/embedded_cli.c ****         clearCurrentLine(cli);
 1987              		.loc 1 598 8 view .LVU574
 1988 0012 13F0100F 		tst	r3, #16
 1989 0016 0ED0     		beq	.L137
 1990              	.LVL179:
 1991              	.L135:
 602:Lib/embedded-cli/embedded_cli.c **** 
 1992              		.loc 1 602 5 is_stmt 1 view .LVU575
 602:Lib/embedded-cli/embedded_cli.c **** 
 1993              		.loc 1 602 21 is_stmt 0 view .LVU576
 1994 0018 AF86     		strh	r7, [r5, #52]	@ movhi
 605:Lib/embedded-cli/embedded_cli.c ****     writeToOutput(cli, lineBreak);
 1995              		.loc 1 605 5 is_stmt 1 view .LVU577
 1996 001a 3146     		mov	r1, r6
 1997 001c 2046     		mov	r0, r4
 1998 001e FFF7FEFF 		bl	writeToOutput
 1999              	.LVL180:
 606:Lib/embedded-cli/embedded_cli.c **** 
 2000              		.loc 1 606 5 view .LVU578
 2001 0022 1049     		ldr	r1, .L139
 2002 0024 2046     		mov	r0, r4
 2003 0026 FFF7FEFF 		bl	writeToOutput
 2004              	.LVL181:
 609:Lib/embedded-cli/embedded_cli.c ****         writeToOutput(cli, impl->invitation);
ARM GAS  /tmp/ccb99Ich.s 			page 67


 2005              		.loc 1 609 5 view .LVU579
 609:Lib/embedded-cli/embedded_cli.c ****         writeToOutput(cli, impl->invitation);
 2006              		.loc 1 609 10 is_stmt 0 view .LVU580
 2007 002a 95F83330 		ldrb	r3, [r5, #51]	@ zero_extendqisi2
 609:Lib/embedded-cli/embedded_cli.c ****         writeToOutput(cli, impl->invitation);
 2008              		.loc 1 609 8 view .LVU581
 2009 002e 13F0100F 		tst	r3, #16
 2010 0032 03D0     		beq	.L138
 2011              	.LVL182:
 2012              	.L133:
 617:Lib/embedded-cli/embedded_cli.c **** 
 2013              		.loc 1 617 1 view .LVU582
 2014 0034 F8BD     		pop	{r3, r4, r5, r6, r7, pc}
 2015              	.LVL183:
 2016              	.L137:
 599:Lib/embedded-cli/embedded_cli.c **** 
 2017              		.loc 1 599 9 is_stmt 1 view .LVU583
 2018 0036 FFF7FEFF 		bl	clearCurrentLine
 2019              	.LVL184:
 599:Lib/embedded-cli/embedded_cli.c **** 
 2020              		.loc 1 599 9 is_stmt 0 view .LVU584
 2021 003a EDE7     		b	.L135
 2022              	.L138:
 610:Lib/embedded-cli/embedded_cli.c ****         writeToOutput(cli, impl->cmdBuffer);
 2023              		.loc 1 610 9 is_stmt 1 view .LVU585
 2024 003c 2968     		ldr	r1, [r5]
 2025 003e 2046     		mov	r0, r4
 2026 0040 FFF7FEFF 		bl	writeToOutput
 2027              	.LVL185:
 611:Lib/embedded-cli/embedded_cli.c ****         impl->inputLineLength = impl->cmdSize;
 2028              		.loc 1 611 9 view .LVU586
 2029 0044 E969     		ldr	r1, [r5, #28]
 2030 0046 2046     		mov	r0, r4
 2031 0048 FFF7FEFF 		bl	writeToOutput
 2032              	.LVL186:
 612:Lib/embedded-cli/embedded_cli.c ****         moveCursor(cli, impl->cursorPos, CURSOR_DIRECTION_BACKWARD);
 2033              		.loc 1 612 9 view .LVU587
 612:Lib/embedded-cli/embedded_cli.c ****         moveCursor(cli, impl->cursorPos, CURSOR_DIRECTION_BACKWARD);
 2034              		.loc 1 612 37 is_stmt 0 view .LVU588
 2035 004c 2B8C     		ldrh	r3, [r5, #32]
 612:Lib/embedded-cli/embedded_cli.c ****         moveCursor(cli, impl->cursorPos, CURSOR_DIRECTION_BACKWARD);
 2036              		.loc 1 612 31 view .LVU589
 2037 004e 2B86     		strh	r3, [r5, #48]	@ movhi
 613:Lib/embedded-cli/embedded_cli.c **** 
 2038              		.loc 1 613 9 is_stmt 1 view .LVU590
 2039 0050 0022     		movs	r2, #0
 2040 0052 A98E     		ldrh	r1, [r5, #52]
 2041 0054 2046     		mov	r0, r4
 2042 0056 FFF7FEFF 		bl	moveCursor
 2043              	.LVL187:
 615:Lib/embedded-cli/embedded_cli.c ****     }
 2044              		.loc 1 615 9 view .LVU591
 2045 005a 2046     		mov	r0, r4
 2046 005c FFF7FEFF 		bl	printLiveAutocompletion
 2047              	.LVL188:
 2048 0060 E8E7     		b	.L133
 2049              	.L140:
ARM GAS  /tmp/ccb99Ich.s 			page 68


 2050 0062 00BF     		.align	2
 2051              	.L139:
 2052 0064 00000000 		.word	.LC3
 2053              		.cfi_endproc
 2054              	.LFE14:
 2056              		.section	.text.embeddedCliFree,"ax",%progbits
 2057              		.align	1
 2058              		.global	embeddedCliFree
 2059              		.syntax unified
 2060              		.thumb
 2061              		.thumb_func
 2063              	embeddedCliFree:
 2064              	.LVL189:
 2065              	.LFB15:
 619:Lib/embedded-cli/embedded_cli.c ****     PREPARE_IMPL(cli);
 2066              		.loc 1 619 40 view -0
 2067              		.cfi_startproc
 2068              		@ args = 0, pretend = 0, frame = 0
 2069              		@ frame_needed = 0, uses_anonymous_args = 0
 619:Lib/embedded-cli/embedded_cli.c ****     PREPARE_IMPL(cli);
 2070              		.loc 1 619 40 is_stmt 0 view .LVU593
 2071 0000 08B5     		push	{r3, lr}
 2072              		.cfi_def_cfa_offset 8
 2073              		.cfi_offset 3, -8
 2074              		.cfi_offset 14, -4
 620:Lib/embedded-cli/embedded_cli.c ****     if (IS_FLAG_SET(impl->flags, CLI_FLAG_ALLOCATED)) {
 2075              		.loc 1 620 5 is_stmt 1 view .LVU594
 2076 0002 0369     		ldr	r3, [r0, #16]
 2077              	.LVL190:
 621:Lib/embedded-cli/embedded_cli.c ****         // allocation is done in single call to malloc, so need only single free
 2078              		.loc 1 621 5 view .LVU595
 621:Lib/embedded-cli/embedded_cli.c ****         // allocation is done in single call to malloc, so need only single free
 2079              		.loc 1 621 9 is_stmt 0 view .LVU596
 2080 0004 93F83330 		ldrb	r3, [r3, #51]	@ zero_extendqisi2
 2081              	.LVL191:
 621:Lib/embedded-cli/embedded_cli.c ****         // allocation is done in single call to malloc, so need only single free
 2082              		.loc 1 621 8 view .LVU597
 2083 0008 13F0040F 		tst	r3, #4
 2084 000c 00D1     		bne	.L144
 2085              	.LVL192:
 2086              	.L141:
 625:Lib/embedded-cli/embedded_cli.c **** 
 2087              		.loc 1 625 1 view .LVU598
 2088 000e 08BD     		pop	{r3, pc}
 2089              	.LVL193:
 2090              	.L144:
 623:Lib/embedded-cli/embedded_cli.c ****     }
 2091              		.loc 1 623 9 is_stmt 1 view .LVU599
 2092 0010 FFF7FEFF 		bl	vPortFree
 2093              	.LVL194:
 625:Lib/embedded-cli/embedded_cli.c **** 
 2094              		.loc 1 625 1 is_stmt 0 view .LVU600
 2095 0014 FBE7     		b	.L141
 2096              		.cfi_endproc
 2097              	.LFE15:
 2099              		.section	.rodata.embeddedCliTokenizeArgs.str1.4,"aMS",%progbits,1
 2100              		.align	2
ARM GAS  /tmp/ccb99Ich.s 			page 69


 2101              	.LC12:
 2102 0000 2000     		.ascii	" \000"
 2103              		.section	.text.embeddedCliTokenizeArgs,"ax",%progbits
 2104              		.align	1
 2105              		.global	embeddedCliTokenizeArgs
 2106              		.syntax unified
 2107              		.thumb
 2108              		.thumb_func
 2110              	embeddedCliTokenizeArgs:
 2111              	.LVL195:
 2112              	.LFB16:
 627:Lib/embedded-cli/embedded_cli.c ****     if (args == NULL)
 2113              		.loc 1 627 42 is_stmt 1 view -0
 2114              		.cfi_startproc
 2115              		@ args = 0, pretend = 0, frame = 0
 2116              		@ frame_needed = 0, uses_anonymous_args = 0
 628:Lib/embedded-cli/embedded_cli.c ****         return;
 2117              		.loc 1 628 5 view .LVU602
 628:Lib/embedded-cli/embedded_cli.c ****         return;
 2118              		.loc 1 628 8 is_stmt 0 view .LVU603
 2119 0000 98B3     		cbz	r0, .L157
 627:Lib/embedded-cli/embedded_cli.c ****     if (args == NULL)
 2120              		.loc 1 627 42 view .LVU604
 2121 0002 2DE9F843 		push	{r3, r4, r5, r6, r7, r8, r9, lr}
 2122              		.cfi_def_cfa_offset 32
 2123              		.cfi_offset 3, -32
 2124              		.cfi_offset 4, -28
 2125              		.cfi_offset 5, -24
 2126              		.cfi_offset 6, -20
 2127              		.cfi_offset 7, -16
 2128              		.cfi_offset 8, -12
 2129              		.cfi_offset 9, -8
 2130              		.cfi_offset 14, -4
 2131 0006 0746     		mov	r7, r0
 640:Lib/embedded-cli/embedded_cli.c ****     char currentChar;
 2132              		.loc 1 640 9 view .LVU605
 2133 0008 0025     		movs	r5, #0
 638:Lib/embedded-cli/embedded_cli.c **** 
 2134              		.loc 1 638 9 view .LVU606
 2135 000a 2E46     		mov	r6, r5
 637:Lib/embedded-cli/embedded_cli.c ****     int insertPos = 0;
 2136              		.loc 1 637 10 view .LVU607
 2137 000c A846     		mov	r8, r5
 635:Lib/embedded-cli/embedded_cli.c ****     // indicates that previous char was a slash, so next char is copied as is
 2138              		.loc 1 635 10 view .LVU608
 2139 000e A946     		mov	r9, r5
 2140 0010 0DE0     		b	.L147
 2141              	.LVL196:
 2142              	.L161:
 651:Lib/embedded-cli/embedded_cli.c ****             currentChar = '\0';
 2143              		.loc 1 651 13 is_stmt 1 view .LVU609
 2144 0012 89F00109 		eor	r9, r9, #1
 2145              	.LVL197:
 652:Lib/embedded-cli/embedded_cli.c ****         } else if (!quotesEnabled && strchr(separators, currentChar) != NULL) {
 2146              		.loc 1 652 13 view .LVU610
 658:Lib/embedded-cli/embedded_cli.c ****             args[insertPos] = currentChar;
 2147              		.loc 1 658 9 view .LVU611
ARM GAS  /tmp/ccb99Ich.s 			page 70


 2148              	.L151:
 658:Lib/embedded-cli/embedded_cli.c ****             args[insertPos] = currentChar;
 2149              		.loc 1 658 33 is_stmt 0 discriminator 1 view .LVU612
 2150 0016 002E     		cmp	r6, #0
 2151 0018 09DD     		ble	.L147
 658:Lib/embedded-cli/embedded_cli.c ****             args[insertPos] = currentChar;
 2152              		.loc 1 658 58 discriminator 2 view .LVU613
 2153 001a BB19     		adds	r3, r7, r6
 2154 001c 13F8013C 		ldrb	r3, [r3, #-1]	@ zero_extendqisi2
 658:Lib/embedded-cli/embedded_cli.c ****             args[insertPos] = currentChar;
 2155              		.loc 1 658 51 discriminator 2 view .LVU614
 2156 0020 2BB1     		cbz	r3, .L147
 2157 0022 0024     		movs	r4, #0
 2158 0024 01E0     		b	.L148
 2159              	.LVL198:
 2160              	.L153:
 658:Lib/embedded-cli/embedded_cli.c ****             args[insertPos] = currentChar;
 2161              		.loc 1 658 51 discriminator 2 view .LVU615
 2162 0026 4FF00008 		mov	r8, #0
 2163              	.LVL199:
 2164              	.L148:
 659:Lib/embedded-cli/embedded_cli.c ****             ++insertPos;
 2165              		.loc 1 659 13 is_stmt 1 view .LVU616
 659:Lib/embedded-cli/embedded_cli.c ****             ++insertPos;
 2166              		.loc 1 659 29 is_stmt 0 view .LVU617
 2167 002a BC55     		strb	r4, [r7, r6]
 660:Lib/embedded-cli/embedded_cli.c ****         }
 2168              		.loc 1 660 13 is_stmt 1 view .LVU618
 2169 002c 0136     		adds	r6, r6, #1
 2170              	.LVL200:
 2171              	.L147:
 642:Lib/embedded-cli/embedded_cli.c ****         ++i;
 2172              		.loc 1 642 36 view .LVU619
 642:Lib/embedded-cli/embedded_cli.c ****         ++i;
 2173              		.loc 1 642 25 is_stmt 0 view .LVU620
 2174 002e 7C5D     		ldrb	r4, [r7, r5]	@ zero_extendqisi2
 2175              	.LVL201:
 642:Lib/embedded-cli/embedded_cli.c ****         ++i;
 2176              		.loc 1 642 36 view .LVU621
 2177 0030 ACB1     		cbz	r4, .L160
 643:Lib/embedded-cli/embedded_cli.c **** 
 2178              		.loc 1 643 9 is_stmt 1 view .LVU622
 2179 0032 0135     		adds	r5, r5, #1
 2180              	.LVL202:
 645:Lib/embedded-cli/embedded_cli.c ****             escapeActivated = false;
 2181              		.loc 1 645 9 view .LVU623
 645:Lib/embedded-cli/embedded_cli.c ****             escapeActivated = false;
 2182              		.loc 1 645 12 is_stmt 0 view .LVU624
 2183 0034 B8F1000F 		cmp	r8, #0
 2184 0038 F5D1     		bne	.L153
 647:Lib/embedded-cli/embedded_cli.c ****             escapeActivated = true;
 2185              		.loc 1 647 16 is_stmt 1 view .LVU625
 647:Lib/embedded-cli/embedded_cli.c ****             escapeActivated = true;
 2186              		.loc 1 647 19 is_stmt 0 view .LVU626
 2187 003a 5C2C     		cmp	r4, #92
 2188 003c 0CD0     		beq	.L154
 650:Lib/embedded-cli/embedded_cli.c ****             quotesEnabled = !quotesEnabled;
ARM GAS  /tmp/ccb99Ich.s 			page 71


 2189              		.loc 1 650 16 is_stmt 1 view .LVU627
 650:Lib/embedded-cli/embedded_cli.c ****             quotesEnabled = !quotesEnabled;
 2190              		.loc 1 650 19 is_stmt 0 view .LVU628
 2191 003e 222C     		cmp	r4, #34
 2192 0040 E7D0     		beq	.L161
 653:Lib/embedded-cli/embedded_cli.c ****             currentChar = '\0';
 2193              		.loc 1 653 16 is_stmt 1 view .LVU629
 653:Lib/embedded-cli/embedded_cli.c ****             currentChar = '\0';
 2194              		.loc 1 653 19 is_stmt 0 view .LVU630
 2195 0042 B9F1000F 		cmp	r9, #0
 2196 0046 F0D1     		bne	.L148
 653:Lib/embedded-cli/embedded_cli.c ****             currentChar = '\0';
 2197              		.loc 1 653 38 discriminator 1 view .LVU631
 2198 0048 2146     		mov	r1, r4
 2199 004a 0848     		ldr	r0, .L162
 2200 004c FFF7FEFF 		bl	strchr
 2201              	.LVL203:
 653:Lib/embedded-cli/embedded_cli.c ****             currentChar = '\0';
 2202              		.loc 1 653 35 discriminator 1 view .LVU632
 2203 0050 0028     		cmp	r0, #0
 2204 0052 E0D1     		bne	.L151
 2205 0054 C846     		mov	r8, r9
 2206              	.LVL204:
 653:Lib/embedded-cli/embedded_cli.c ****             currentChar = '\0';
 2207              		.loc 1 653 35 discriminator 1 view .LVU633
 2208 0056 E8E7     		b	.L148
 2209              	.LVL205:
 2210              	.L154:
 648:Lib/embedded-cli/embedded_cli.c ****             continue;
 2211              		.loc 1 648 29 view .LVU634
 2212 0058 4FF00108 		mov	r8, #1
 2213              	.LVL206:
 648:Lib/embedded-cli/embedded_cli.c ****             continue;
 2214              		.loc 1 648 29 view .LVU635
 2215 005c E7E7     		b	.L147
 2216              	.LVL207:
 2217              	.L160:
 665:Lib/embedded-cli/embedded_cli.c ****     args[insertPos + 1] = '\0';
 2218              		.loc 1 665 5 is_stmt 1 view .LVU636
 665:Lib/embedded-cli/embedded_cli.c ****     args[insertPos + 1] = '\0';
 2219              		.loc 1 665 21 is_stmt 0 view .LVU637
 2220 005e 0023     		movs	r3, #0
 2221 0060 BB55     		strb	r3, [r7, r6]
 666:Lib/embedded-cli/embedded_cli.c **** }
 2222              		.loc 1 666 5 is_stmt 1 view .LVU638
 666:Lib/embedded-cli/embedded_cli.c **** }
 2223              		.loc 1 666 9 is_stmt 0 view .LVU639
 2224 0062 0136     		adds	r6, r6, #1
 2225              	.LVL208:
 666:Lib/embedded-cli/embedded_cli.c **** }
 2226              		.loc 1 666 25 view .LVU640
 2227 0064 BB55     		strb	r3, [r7, r6]
 667:Lib/embedded-cli/embedded_cli.c **** 
 2228              		.loc 1 667 1 view .LVU641
 2229 0066 BDE8F883 		pop	{r3, r4, r5, r6, r7, r8, r9, pc}
 2230              	.LVL209:
 2231              	.L157:
ARM GAS  /tmp/ccb99Ich.s 			page 72


 2232              		.cfi_def_cfa_offset 0
 2233              		.cfi_restore 3
 2234              		.cfi_restore 4
 2235              		.cfi_restore 5
 2236              		.cfi_restore 6
 2237              		.cfi_restore 7
 2238              		.cfi_restore 8
 2239              		.cfi_restore 9
 2240              		.cfi_restore 14
 667:Lib/embedded-cli/embedded_cli.c **** 
 2241              		.loc 1 667 1 view .LVU642
 2242 006a 7047     		bx	lr
 2243              	.L163:
 2244              		.align	2
 2245              	.L162:
 2246 006c 00000000 		.word	.LC12
 2247              		.cfi_endproc
 2248              	.LFE16:
 2250              		.section	.text.embeddedCliGetToken,"ax",%progbits
 2251              		.align	1
 2252              		.global	embeddedCliGetToken
 2253              		.syntax unified
 2254              		.thumb
 2255              		.thumb_func
 2257              	embeddedCliGetToken:
 2258              	.LVL210:
 2259              	.LFB17:
 669:Lib/embedded-cli/embedded_cli.c ****     uint16_t i = getTokenPosition(tokenizedStr, pos);
 2260              		.loc 1 669 73 is_stmt 1 view -0
 2261              		.cfi_startproc
 2262              		@ args = 0, pretend = 0, frame = 0
 2263              		@ frame_needed = 0, uses_anonymous_args = 0
 669:Lib/embedded-cli/embedded_cli.c ****     uint16_t i = getTokenPosition(tokenizedStr, pos);
 2264              		.loc 1 669 73 is_stmt 0 view .LVU644
 2265 0000 10B5     		push	{r4, lr}
 2266              		.cfi_def_cfa_offset 8
 2267              		.cfi_offset 4, -8
 2268              		.cfi_offset 14, -4
 2269 0002 0446     		mov	r4, r0
 670:Lib/embedded-cli/embedded_cli.c **** 
 2270              		.loc 1 670 5 is_stmt 1 view .LVU645
 670:Lib/embedded-cli/embedded_cli.c **** 
 2271              		.loc 1 670 18 is_stmt 0 view .LVU646
 2272 0004 FFF7FEFF 		bl	getTokenPosition
 2273              	.LVL211:
 672:Lib/embedded-cli/embedded_cli.c ****         return &tokenizedStr[i];
 2274              		.loc 1 672 5 is_stmt 1 view .LVU647
 672:Lib/embedded-cli/embedded_cli.c ****         return &tokenizedStr[i];
 2275              		.loc 1 672 8 is_stmt 0 view .LVU648
 2276 0008 4FF6FF73 		movw	r3, #65535
 2277 000c 9842     		cmp	r0, r3
 2278 000e 01D0     		beq	.L166
 673:Lib/embedded-cli/embedded_cli.c ****     else
 2279              		.loc 1 673 9 is_stmt 1 view .LVU649
 673:Lib/embedded-cli/embedded_cli.c ****     else
 2280              		.loc 1 673 16 is_stmt 0 view .LVU650
 2281 0010 2044     		add	r0, r0, r4
ARM GAS  /tmp/ccb99Ich.s 			page 73


 2282              	.LVL212:
 2283              	.L164:
 676:Lib/embedded-cli/embedded_cli.c **** 
 2284              		.loc 1 676 1 view .LVU651
 2285 0012 10BD     		pop	{r4, pc}
 2286              	.LVL213:
 2287              	.L166:
 675:Lib/embedded-cli/embedded_cli.c **** }
 2288              		.loc 1 675 16 view .LVU652
 2289 0014 0020     		movs	r0, #0
 2290              	.LVL214:
 675:Lib/embedded-cli/embedded_cli.c **** }
 2291              		.loc 1 675 16 view .LVU653
 2292 0016 FCE7     		b	.L164
 2293              		.cfi_endproc
 2294              	.LFE17:
 2296              		.section	.text.historyGet,"ax",%progbits
 2297              		.align	1
 2298              		.syntax unified
 2299              		.thumb
 2300              		.thumb_func
 2302              	historyGet:
 2303              	.LVL215:
 2304              	.LFB42:
1227:Lib/embedded-cli/embedded_cli.c ****     if (item == 0 || item > history->itemsCount)
 2305              		.loc 1 1227 67 is_stmt 1 view -0
 2306              		.cfi_startproc
 2307              		@ args = 0, pretend = 0, frame = 0
 2308              		@ frame_needed = 0, uses_anonymous_args = 0
1228:Lib/embedded-cli/embedded_cli.c ****         return NULL;
 2309              		.loc 1 1228 5 view .LVU655
1228:Lib/embedded-cli/embedded_cli.c ****         return NULL;
 2310              		.loc 1 1228 8 is_stmt 0 view .LVU656
 2311 0000 39B1     		cbz	r1, .L170
1227:Lib/embedded-cli/embedded_cli.c ****     if (item == 0 || item > history->itemsCount)
 2312              		.loc 1 1227 67 view .LVU657
 2313 0002 08B5     		push	{r3, lr}
 2314              		.cfi_def_cfa_offset 8
 2315              		.cfi_offset 3, -8
 2316              		.cfi_offset 14, -4
1228:Lib/embedded-cli/embedded_cli.c ****         return NULL;
 2317              		.loc 1 1228 36 discriminator 1 view .LVU658
 2318 0004 0289     		ldrh	r2, [r0, #8]
1228:Lib/embedded-cli/embedded_cli.c ****         return NULL;
 2319              		.loc 1 1228 19 discriminator 1 view .LVU659
 2320 0006 8A42     		cmp	r2, r1
 2321 0008 05D3     		bcc	.L171
1233:Lib/embedded-cli/embedded_cli.c **** }
 2322              		.loc 1 1233 5 is_stmt 1 view .LVU660
1233:Lib/embedded-cli/embedded_cli.c **** }
 2323              		.loc 1 1233 12 is_stmt 0 view .LVU661
 2324 000a 0068     		ldr	r0, [r0]
 2325              	.LVL216:
1233:Lib/embedded-cli/embedded_cli.c **** }
 2326              		.loc 1 1233 12 view .LVU662
 2327 000c FFF7FEFF 		bl	embeddedCliGetToken
 2328              	.LVL217:
ARM GAS  /tmp/ccb99Ich.s 			page 74


 2329              	.L168:
1234:Lib/embedded-cli/embedded_cli.c **** 
 2330              		.loc 1 1234 1 view .LVU663
 2331 0010 08BD     		pop	{r3, pc}
 2332              	.LVL218:
 2333              	.L170:
 2334              		.cfi_def_cfa_offset 0
 2335              		.cfi_restore 3
 2336              		.cfi_restore 14
1229:Lib/embedded-cli/embedded_cli.c **** 
 2337              		.loc 1 1229 16 view .LVU664
 2338 0012 0020     		movs	r0, #0
 2339              	.LVL219:
1234:Lib/embedded-cli/embedded_cli.c **** 
 2340              		.loc 1 1234 1 view .LVU665
 2341 0014 7047     		bx	lr
 2342              	.LVL220:
 2343              	.L171:
 2344              		.cfi_def_cfa_offset 8
 2345              		.cfi_offset 3, -8
 2346              		.cfi_offset 14, -4
1229:Lib/embedded-cli/embedded_cli.c **** 
 2347              		.loc 1 1229 16 view .LVU666
 2348 0016 0020     		movs	r0, #0
 2349              	.LVL221:
1229:Lib/embedded-cli/embedded_cli.c **** 
 2350              		.loc 1 1229 16 view .LVU667
 2351 0018 FAE7     		b	.L168
 2352              		.cfi_endproc
 2353              	.LFE42:
 2355              		.section	.rodata.navigateHistory.str1.4,"aMS",%progbits,1
 2356              		.align	2
 2357              	.LC13:
 2358 0000 00       		.ascii	"\000"
 2359              		.section	.text.navigateHistory,"ax",%progbits
 2360              		.align	1
 2361              		.syntax unified
 2362              		.thumb
 2363              		.thumb_func
 2365              	navigateHistory:
 2366              	.LVL222:
 2367              	.LFB21:
 718:Lib/embedded-cli/embedded_cli.c ****     PREPARE_IMPL(cli);
 2368              		.loc 1 718 64 is_stmt 1 view -0
 2369              		.cfi_startproc
 2370              		@ args = 0, pretend = 0, frame = 0
 2371              		@ frame_needed = 0, uses_anonymous_args = 0
 718:Lib/embedded-cli/embedded_cli.c ****     PREPARE_IMPL(cli);
 2372              		.loc 1 718 64 is_stmt 0 view .LVU669
 2373 0000 F8B5     		push	{r3, r4, r5, r6, r7, lr}
 2374              		.cfi_def_cfa_offset 24
 2375              		.cfi_offset 3, -24
 2376              		.cfi_offset 4, -20
 2377              		.cfi_offset 5, -16
 2378              		.cfi_offset 6, -12
 2379              		.cfi_offset 7, -8
 2380              		.cfi_offset 14, -4
ARM GAS  /tmp/ccb99Ich.s 			page 75


 719:Lib/embedded-cli/embedded_cli.c ****     if (impl->history.itemsCount == 0 ||
 2381              		.loc 1 719 5 is_stmt 1 view .LVU670
 2382 0002 0469     		ldr	r4, [r0, #16]
 2383              	.LVL223:
 720:Lib/embedded-cli/embedded_cli.c ****         (navigateUp && impl->history.current == impl->history.itemsCount) ||
 2384              		.loc 1 720 5 view .LVU671
 720:Lib/embedded-cli/embedded_cli.c ****         (navigateUp && impl->history.current == impl->history.itemsCount) ||
 2385              		.loc 1 720 22 is_stmt 0 view .LVU672
 2386 0004 A389     		ldrh	r3, [r4, #12]
 720:Lib/embedded-cli/embedded_cli.c ****         (navigateUp && impl->history.current == impl->history.itemsCount) ||
 2387              		.loc 1 720 8 view .LVU673
 2388 0006 6BB3     		cbz	r3, .L176
 2389 0008 0546     		mov	r5, r0
 2390 000a 0E46     		mov	r6, r1
 720:Lib/embedded-cli/embedded_cli.c ****         (navigateUp && impl->history.current == impl->history.itemsCount) ||
 2391              		.loc 1 720 39 discriminator 1 view .LVU674
 2392 000c 59B3     		cbz	r1, .L178
 721:Lib/embedded-cli/embedded_cli.c ****         (!navigateUp && impl->history.current == 0))
 2393              		.loc 1 721 37 view .LVU675
 2394 000e 6289     		ldrh	r2, [r4, #10]
 721:Lib/embedded-cli/embedded_cli.c ****         (!navigateUp && impl->history.current == 0))
 2395              		.loc 1 721 21 view .LVU676
 2396 0010 9342     		cmp	r3, r2
 2397 0012 27D0     		beq	.L176
 2398              	.L179:
 725:Lib/embedded-cli/embedded_cli.c **** 
 2399              		.loc 1 725 5 is_stmt 1 view .LVU677
 2400 0014 2846     		mov	r0, r5
 2401              	.LVL224:
 725:Lib/embedded-cli/embedded_cli.c **** 
 2402              		.loc 1 725 5 is_stmt 0 view .LVU678
 2403 0016 FFF7FEFF 		bl	clearCurrentLine
 2404              	.LVL225:
 727:Lib/embedded-cli/embedded_cli.c **** 
 2405              		.loc 1 727 5 is_stmt 1 view .LVU679
 2406 001a 2168     		ldr	r1, [r4]
 2407 001c 2846     		mov	r0, r5
 2408 001e FFF7FEFF 		bl	writeToOutput
 2409              	.LVL226:
 729:Lib/embedded-cli/embedded_cli.c ****         ++impl->history.current;
 2410              		.loc 1 729 5 view .LVU680
 729:Lib/embedded-cli/embedded_cli.c ****         ++impl->history.current;
 2411              		.loc 1 729 8 is_stmt 0 view .LVU681
 2412 0022 26B3     		cbz	r6, .L180
 730:Lib/embedded-cli/embedded_cli.c ****     else
 2413              		.loc 1 730 9 is_stmt 1 view .LVU682
 730:Lib/embedded-cli/embedded_cli.c ****     else
 2414              		.loc 1 730 24 is_stmt 0 view .LVU683
 2415 0024 6389     		ldrh	r3, [r4, #10]
 730:Lib/embedded-cli/embedded_cli.c ****     else
 2416              		.loc 1 730 9 view .LVU684
 2417 0026 0133     		adds	r3, r3, #1
 2418 0028 6381     		strh	r3, [r4, #10]	@ movhi
 2419              	.L181:
 734:Lib/embedded-cli/embedded_cli.c ****     // simple way to handle empty command the same way as others
 2420              		.loc 1 734 5 is_stmt 1 view .LVU685
 734:Lib/embedded-cli/embedded_cli.c ****     // simple way to handle empty command the same way as others
ARM GAS  /tmp/ccb99Ich.s 			page 76


 2421              		.loc 1 734 24 is_stmt 0 view .LVU686
 2422 002a 6189     		ldrh	r1, [r4, #10]
 2423 002c 201D     		adds	r0, r4, #4
 2424 002e FFF7FEFF 		bl	historyGet
 2425              	.LVL227:
 736:Lib/embedded-cli/embedded_cli.c ****         item = "";
 2426              		.loc 1 736 5 is_stmt 1 view .LVU687
 736:Lib/embedded-cli/embedded_cli.c ****         item = "";
 2427              		.loc 1 736 8 is_stmt 0 view .LVU688
 2428 0032 0746     		mov	r7, r0
 2429 0034 F8B1     		cbz	r0, .L185
 2430              	.L182:
 2431              	.LVL228:
 738:Lib/embedded-cli/embedded_cli.c ****     memcpy(impl->cmdBuffer, item, len);
 2432              		.loc 1 738 5 is_stmt 1 view .LVU689
 738:Lib/embedded-cli/embedded_cli.c ****     memcpy(impl->cmdBuffer, item, len);
 2433              		.loc 1 738 31 is_stmt 0 view .LVU690
 2434 0036 3846     		mov	r0, r7
 2435 0038 FFF7FEFF 		bl	strlen
 2436              	.LVL229:
 738:Lib/embedded-cli/embedded_cli.c ****     memcpy(impl->cmdBuffer, item, len);
 2437              		.loc 1 738 14 discriminator 1 view .LVU691
 2438 003c 86B2     		uxth	r6, r0
 2439              	.LVL230:
 739:Lib/embedded-cli/embedded_cli.c ****     impl->cmdBuffer[len] = '\0';
 2440              		.loc 1 739 5 is_stmt 1 view .LVU692
 2441 003e 3246     		mov	r2, r6
 2442 0040 3946     		mov	r1, r7
 2443 0042 E069     		ldr	r0, [r4, #28]
 2444 0044 FFF7FEFF 		bl	memcpy
 2445              	.LVL231:
 740:Lib/embedded-cli/embedded_cli.c ****     impl->cmdSize = len;
 2446              		.loc 1 740 5 view .LVU693
 740:Lib/embedded-cli/embedded_cli.c ****     impl->cmdSize = len;
 2447              		.loc 1 740 9 is_stmt 0 view .LVU694
 2448 0048 E369     		ldr	r3, [r4, #28]
 740:Lib/embedded-cli/embedded_cli.c ****     impl->cmdSize = len;
 2449              		.loc 1 740 26 view .LVU695
 2450 004a 0027     		movs	r7, #0
 2451              	.LVL232:
 740:Lib/embedded-cli/embedded_cli.c ****     impl->cmdSize = len;
 2452              		.loc 1 740 26 view .LVU696
 2453 004c 9F55     		strb	r7, [r3, r6]
 741:Lib/embedded-cli/embedded_cli.c **** 
 2454              		.loc 1 741 5 is_stmt 1 view .LVU697
 741:Lib/embedded-cli/embedded_cli.c **** 
 2455              		.loc 1 741 19 is_stmt 0 view .LVU698
 2456 004e 2684     		strh	r6, [r4, #32]	@ movhi
 743:Lib/embedded-cli/embedded_cli.c ****     impl->inputLineLength = impl->cmdSize;
 2457              		.loc 1 743 5 is_stmt 1 view .LVU699
 2458 0050 E169     		ldr	r1, [r4, #28]
 2459 0052 2846     		mov	r0, r5
 2460 0054 FFF7FEFF 		bl	writeToOutput
 2461              	.LVL233:
 744:Lib/embedded-cli/embedded_cli.c ****     impl->cursorPos = 0;
 2462              		.loc 1 744 5 view .LVU700
 744:Lib/embedded-cli/embedded_cli.c ****     impl->cursorPos = 0;
ARM GAS  /tmp/ccb99Ich.s 			page 77


 2463              		.loc 1 744 33 is_stmt 0 view .LVU701
 2464 0058 238C     		ldrh	r3, [r4, #32]
 744:Lib/embedded-cli/embedded_cli.c ****     impl->cursorPos = 0;
 2465              		.loc 1 744 27 view .LVU702
 2466 005a 2386     		strh	r3, [r4, #48]	@ movhi
 745:Lib/embedded-cli/embedded_cli.c **** 
 2467              		.loc 1 745 5 is_stmt 1 view .LVU703
 745:Lib/embedded-cli/embedded_cli.c **** 
 2468              		.loc 1 745 21 is_stmt 0 view .LVU704
 2469 005c A786     		strh	r7, [r4, #52]	@ movhi
 747:Lib/embedded-cli/embedded_cli.c **** }
 2470              		.loc 1 747 5 is_stmt 1 view .LVU705
 2471 005e 2846     		mov	r0, r5
 2472 0060 FFF7FEFF 		bl	printLiveAutocompletion
 2473              	.LVL234:
 2474              	.L176:
 748:Lib/embedded-cli/embedded_cli.c **** 
 2475              		.loc 1 748 1 is_stmt 0 view .LVU706
 2476 0064 F8BD     		pop	{r3, r4, r5, r6, r7, pc}
 2477              	.LVL235:
 2478              	.L178:
 722:Lib/embedded-cli/embedded_cli.c ****         return;
 2479              		.loc 1 722 38 view .LVU707
 2480 0066 6389     		ldrh	r3, [r4, #10]
 722:Lib/embedded-cli/embedded_cli.c ****         return;
 2481              		.loc 1 722 22 view .LVU708
 2482 0068 002B     		cmp	r3, #0
 2483 006a D3D1     		bne	.L179
 2484 006c FAE7     		b	.L176
 2485              	.LVL236:
 2486              	.L180:
 732:Lib/embedded-cli/embedded_cli.c **** 
 2487              		.loc 1 732 9 is_stmt 1 view .LVU709
 732:Lib/embedded-cli/embedded_cli.c **** 
 2488              		.loc 1 732 24 is_stmt 0 view .LVU710
 2489 006e 6389     		ldrh	r3, [r4, #10]
 732:Lib/embedded-cli/embedded_cli.c **** 
 2490              		.loc 1 732 9 view .LVU711
 2491 0070 013B     		subs	r3, r3, #1
 2492 0072 6381     		strh	r3, [r4, #10]	@ movhi
 2493 0074 D9E7     		b	.L181
 2494              	.LVL237:
 2495              	.L185:
 737:Lib/embedded-cli/embedded_cli.c ****     uint16_t len = (uint16_t) strlen(item);
 2496              		.loc 1 737 14 view .LVU712
 2497 0076 014F     		ldr	r7, .L186
 2498 0078 DDE7     		b	.L182
 2499              	.L187:
 2500 007a 00BF     		.align	2
 2501              	.L186:
 2502 007c 00000000 		.word	.LC13
 2503              		.cfi_endproc
 2504              	.LFE21:
 2506              		.section	.rodata.onEscapedInput.str1.4,"aMS",%progbits,1
 2507              		.align	2
 2508              	.LC14:
 2509 0000 1B5B4300 		.ascii	"\033[C\000"
ARM GAS  /tmp/ccb99Ich.s 			page 78


 2510              		.align	2
 2511              	.LC15:
 2512 0004 1B5B4400 		.ascii	"\033[D\000"
 2513              		.section	.text.onEscapedInput,"ax",%progbits
 2514              		.align	1
 2515              		.syntax unified
 2516              		.thumb
 2517              		.thumb_func
 2519              	onEscapedInput:
 2520              	.LVL238:
 2521              	.LFB22:
 750:Lib/embedded-cli/embedded_cli.c ****     PREPARE_IMPL(cli);
 2522              		.loc 1 750 54 is_stmt 1 view -0
 2523              		.cfi_startproc
 2524              		@ args = 0, pretend = 0, frame = 0
 2525              		@ frame_needed = 0, uses_anonymous_args = 0
 750:Lib/embedded-cli/embedded_cli.c ****     PREPARE_IMPL(cli);
 2526              		.loc 1 750 54 is_stmt 0 view .LVU714
 2527 0000 70B5     		push	{r4, r5, r6, lr}
 2528              		.cfi_def_cfa_offset 16
 2529              		.cfi_offset 4, -16
 2530              		.cfi_offset 5, -12
 2531              		.cfi_offset 6, -8
 2532              		.cfi_offset 14, -4
 751:Lib/embedded-cli/embedded_cli.c **** 
 2533              		.loc 1 751 5 is_stmt 1 view .LVU715
 2534 0002 0669     		ldr	r6, [r0, #16]
 2535              	.LVL239:
 753:Lib/embedded-cli/embedded_cli.c ****         // handle escape sequence
 2536              		.loc 1 753 5 view .LVU716
 753:Lib/embedded-cli/embedded_cli.c ****         // handle escape sequence
 2537              		.loc 1 753 17 is_stmt 0 view .LVU717
 2538 0004 A1F14003 		sub	r3, r1, #64
 2539 0008 DBB2     		uxtb	r3, r3
 753:Lib/embedded-cli/embedded_cli.c ****         // handle escape sequence
 2540              		.loc 1 753 8 view .LVU718
 2541 000a 3E2B     		cmp	r3, #62
 2542 000c 10D8     		bhi	.L188
 2543 000e 0546     		mov	r5, r0
 2544 0010 0C46     		mov	r4, r1
 755:Lib/embedded-cli/embedded_cli.c **** 
 2545              		.loc 1 755 9 is_stmt 1 view .LVU719
 2546 0012 96F83330 		ldrb	r3, [r6, #51]	@ zero_extendqisi2
 2547 0016 23F00803 		bic	r3, r3, #8
 2548 001a 86F83330 		strb	r3, [r6, #51]
 757:Lib/embedded-cli/embedded_cli.c ****             // treat \e[..A as cursor up and \e[..B as cursor down
 2549              		.loc 1 757 9 view .LVU720
 757:Lib/embedded-cli/embedded_cli.c ****             // treat \e[..A as cursor up and \e[..B as cursor down
 2550              		.loc 1 757 22 is_stmt 0 view .LVU721
 2551 001e A1F14103 		sub	r3, r1, #65
 2552 0022 DBB2     		uxtb	r3, r3
 757:Lib/embedded-cli/embedded_cli.c ****             // treat \e[..A as cursor up and \e[..B as cursor down
 2553              		.loc 1 757 12 view .LVU722
 2554 0024 012B     		cmp	r3, #1
 2555 0026 04D9     		bls	.L193
 2556              	.LVL240:
 2557              	.L190:
ARM GAS  /tmp/ccb99Ich.s 			page 79


 763:Lib/embedded-cli/embedded_cli.c ****             impl->cursorPos--;
 2558              		.loc 1 763 9 is_stmt 1 view .LVU723
 763:Lib/embedded-cli/embedded_cli.c ****             impl->cursorPos--;
 2559              		.loc 1 763 12 is_stmt 0 view .LVU724
 2560 0028 432C     		cmp	r4, #67
 2561 002a 09D0     		beq	.L194
 2562              	.L191:
 768:Lib/embedded-cli/embedded_cli.c ****             impl->cursorPos++;
 2563              		.loc 1 768 9 is_stmt 1 view .LVU725
 768:Lib/embedded-cli/embedded_cli.c ****             impl->cursorPos++;
 2564              		.loc 1 768 12 is_stmt 0 view .LVU726
 2565 002c 442C     		cmp	r4, #68
 2566 002e 11D0     		beq	.L195
 2567              	.LVL241:
 2568              	.L188:
 773:Lib/embedded-cli/embedded_cli.c **** 
 2569              		.loc 1 773 1 view .LVU727
 2570 0030 70BD     		pop	{r4, r5, r6, pc}
 2571              	.LVL242:
 2572              	.L193:
 760:Lib/embedded-cli/embedded_cli.c ****         }
 2573              		.loc 1 760 13 is_stmt 1 view .LVU728
 2574 0032 4129     		cmp	r1, #65
 2575 0034 14BF     		ite	ne
 2576 0036 0021     		movne	r1, #0
 2577              	.LVL243:
 760:Lib/embedded-cli/embedded_cli.c ****         }
 2578              		.loc 1 760 13 is_stmt 0 view .LVU729
 2579 0038 0121     		moveq	r1, #1
 2580 003a FFF7FEFF 		bl	navigateHistory
 2581              	.LVL244:
 760:Lib/embedded-cli/embedded_cli.c ****         }
 2582              		.loc 1 760 13 view .LVU730
 2583 003e F3E7     		b	.L190
 2584              	.L194:
 763:Lib/embedded-cli/embedded_cli.c ****             impl->cursorPos--;
 2585              		.loc 1 763 29 discriminator 1 view .LVU731
 2586 0040 B38E     		ldrh	r3, [r6, #52]
 763:Lib/embedded-cli/embedded_cli.c ****             impl->cursorPos--;
 2587              		.loc 1 763 22 discriminator 1 view .LVU732
 2588 0042 002B     		cmp	r3, #0
 2589 0044 F2D0     		beq	.L191
 764:Lib/embedded-cli/embedded_cli.c ****             writeToOutput(cli, escSeqCursorRight);
 2590              		.loc 1 764 13 is_stmt 1 view .LVU733
 764:Lib/embedded-cli/embedded_cli.c ****             writeToOutput(cli, escSeqCursorRight);
 2591              		.loc 1 764 28 is_stmt 0 view .LVU734
 2592 0046 013B     		subs	r3, r3, #1
 2593 0048 B386     		strh	r3, [r6, #52]	@ movhi
 765:Lib/embedded-cli/embedded_cli.c ****         }
 2594              		.loc 1 765 13 is_stmt 1 view .LVU735
 2595 004a 0949     		ldr	r1, .L196
 2596 004c 2846     		mov	r0, r5
 2597 004e FFF7FEFF 		bl	writeToOutput
 2598              	.LVL245:
 2599 0052 EBE7     		b	.L191
 2600              	.L195:
 768:Lib/embedded-cli/embedded_cli.c ****             impl->cursorPos++;
ARM GAS  /tmp/ccb99Ich.s 			page 80


 2601              		.loc 1 768 29 is_stmt 0 discriminator 1 view .LVU736
 2602 0054 B48E     		ldrh	r4, [r6, #52]
 2603              	.LVL246:
 768:Lib/embedded-cli/embedded_cli.c ****             impl->cursorPos++;
 2604              		.loc 1 768 43 discriminator 1 view .LVU737
 2605 0056 F069     		ldr	r0, [r6, #28]
 2606 0058 FFF7FEFF 		bl	strlen
 2607              	.LVL247:
 768:Lib/embedded-cli/embedded_cli.c ****             impl->cursorPos++;
 2608              		.loc 1 768 22 discriminator 1 view .LVU738
 2609 005c 8442     		cmp	r4, r0
 2610 005e E7D2     		bcs	.L188
 769:Lib/embedded-cli/embedded_cli.c ****             writeToOutput(cli, escSeqCursorLeft);
 2611              		.loc 1 769 13 is_stmt 1 view .LVU739
 769:Lib/embedded-cli/embedded_cli.c ****             writeToOutput(cli, escSeqCursorLeft);
 2612              		.loc 1 769 28 is_stmt 0 view .LVU740
 2613 0060 0134     		adds	r4, r4, #1
 2614 0062 B486     		strh	r4, [r6, #52]	@ movhi
 770:Lib/embedded-cli/embedded_cli.c ****         }
 2615              		.loc 1 770 13 is_stmt 1 view .LVU741
 2616 0064 0349     		ldr	r1, .L196+4
 2617 0066 2846     		mov	r0, r5
 2618 0068 FFF7FEFF 		bl	writeToOutput
 2619              	.LVL248:
 773:Lib/embedded-cli/embedded_cli.c **** 
 2620              		.loc 1 773 1 is_stmt 0 view .LVU742
 2621 006c E0E7     		b	.L188
 2622              	.L197:
 2623 006e 00BF     		.align	2
 2624              	.L196:
 2625 0070 00000000 		.word	.LC14
 2626 0074 04000000 		.word	.LC15
 2627              		.cfi_endproc
 2628              	.LFE22:
 2630              		.section	.text.embeddedCliGetTokenVariable,"ax",%progbits
 2631              		.align	1
 2632              		.global	embeddedCliGetTokenVariable
 2633              		.syntax unified
 2634              		.thumb
 2635              		.thumb_func
 2637              	embeddedCliGetTokenVariable:
 2638              	.LVL249:
 2639              	.LFB18:
 678:Lib/embedded-cli/embedded_cli.c ****     uint16_t i = getTokenPosition(tokenizedStr, pos);
 2640              		.loc 1 678 69 is_stmt 1 view -0
 2641              		.cfi_startproc
 2642              		@ args = 0, pretend = 0, frame = 0
 2643              		@ frame_needed = 0, uses_anonymous_args = 0
 678:Lib/embedded-cli/embedded_cli.c ****     uint16_t i = getTokenPosition(tokenizedStr, pos);
 2644              		.loc 1 678 69 is_stmt 0 view .LVU744
 2645 0000 10B5     		push	{r4, lr}
 2646              		.cfi_def_cfa_offset 8
 2647              		.cfi_offset 4, -8
 2648              		.cfi_offset 14, -4
 2649 0002 0446     		mov	r4, r0
 679:Lib/embedded-cli/embedded_cli.c **** 
 2650              		.loc 1 679 5 is_stmt 1 view .LVU745
ARM GAS  /tmp/ccb99Ich.s 			page 81


 679:Lib/embedded-cli/embedded_cli.c **** 
 2651              		.loc 1 679 18 is_stmt 0 view .LVU746
 2652 0004 FFF7FEFF 		bl	getTokenPosition
 2653              	.LVL250:
 681:Lib/embedded-cli/embedded_cli.c ****         return &tokenizedStr[i];
 2654              		.loc 1 681 5 is_stmt 1 view .LVU747
 681:Lib/embedded-cli/embedded_cli.c ****         return &tokenizedStr[i];
 2655              		.loc 1 681 8 is_stmt 0 view .LVU748
 2656 0008 4FF6FF73 		movw	r3, #65535
 2657 000c 9842     		cmp	r0, r3
 2658 000e 01D0     		beq	.L200
 682:Lib/embedded-cli/embedded_cli.c ****     else
 2659              		.loc 1 682 9 is_stmt 1 view .LVU749
 682:Lib/embedded-cli/embedded_cli.c ****     else
 2660              		.loc 1 682 16 is_stmt 0 view .LVU750
 2661 0010 2044     		add	r0, r0, r4
 2662              	.LVL251:
 2663              	.L198:
 685:Lib/embedded-cli/embedded_cli.c **** 
 2664              		.loc 1 685 1 view .LVU751
 2665 0012 10BD     		pop	{r4, pc}
 2666              	.LVL252:
 2667              	.L200:
 684:Lib/embedded-cli/embedded_cli.c **** }
 2668              		.loc 1 684 16 view .LVU752
 2669 0014 0020     		movs	r0, #0
 2670              	.LVL253:
 684:Lib/embedded-cli/embedded_cli.c **** }
 2671              		.loc 1 684 16 view .LVU753
 2672 0016 FCE7     		b	.L198
 2673              		.cfi_endproc
 2674              	.LFE18:
 2676              		.section	.text.historyRemove,"ax",%progbits
 2677              		.align	1
 2678              		.syntax unified
 2679              		.thumb
 2680              		.thumb_func
 2682              	historyRemove:
