ARM GAS  /tmp/ccmTRaeu.s 			page 1


   1              		.cpu cortex-m4
   2              		.arch armv7e-m
   3              		.fpu fpv4-sp-d16
   4              		.eabi_attribute 27, 1
   5              		.eabi_attribute 28, 1
   6              		.eabi_attribute 20, 1
   7              		.eabi_attribute 21, 1
   8              		.eabi_attribute 23, 3
   9              		.eabi_attribute 24, 1
  10              		.eabi_attribute 25, 1
  11              		.eabi_attribute 26, 1
  12              		.eabi_attribute 30, 1
  13              		.eabi_attribute 34, 1
  14              		.eabi_attribute 18, 4
  15              		.file	"fdcan.c"
  16              		.text
  17              	.Ltext0:
  18              		.cfi_sections	.debug_frame
  19              		.file 1 "Core/Src/fdcan.c"
  20              		.section	.text.MX_FDCAN2_Init,"ax",%progbits
  21              		.align	1
  22              		.global	MX_FDCAN2_Init
  23              		.syntax unified
  24              		.thumb
  25              		.thumb_func
  27              	MX_FDCAN2_Init:
  28              	.LFB329:
   1:Core/Src/fdcan.c **** /* USER CODE BEGIN Header */
   2:Core/Src/fdcan.c **** /**
   3:Core/Src/fdcan.c ****   ******************************************************************************
   4:Core/Src/fdcan.c ****   * @file    fdcan.c
   5:Core/Src/fdcan.c ****   * @brief   This file provides code for the configuration
   6:Core/Src/fdcan.c ****   *          of the FDCAN instances.
   7:Core/Src/fdcan.c ****   ******************************************************************************
   8:Core/Src/fdcan.c ****   * @attention
   9:Core/Src/fdcan.c ****   *
  10:Core/Src/fdcan.c ****   * Copyright (c) 2026 STMicroelectronics.
  11:Core/Src/fdcan.c ****   * All rights reserved.
  12:Core/Src/fdcan.c ****   *
  13:Core/Src/fdcan.c ****   * This software is licensed under terms that can be found in the LICENSE file
  14:Core/Src/fdcan.c ****   * in the root directory of this software component.
  15:Core/Src/fdcan.c ****   * If no LICENSE file comes with this software, it is provided AS-IS.
  16:Core/Src/fdcan.c ****   *
  17:Core/Src/fdcan.c ****   ******************************************************************************
  18:Core/Src/fdcan.c ****   */
  19:Core/Src/fdcan.c **** /* USER CODE END Header */
  20:Core/Src/fdcan.c **** /* Includes ------------------------------------------------------------------*/
  21:Core/Src/fdcan.c **** #include "fdcan.h"
  22:Core/Src/fdcan.c **** 
  23:Core/Src/fdcan.c **** /* USER CODE BEGIN 0 */
  24:Core/Src/fdcan.c **** 
  25:Core/Src/fdcan.c **** /* USER CODE END 0 */
  26:Core/Src/fdcan.c **** 
  27:Core/Src/fdcan.c **** FDCAN_HandleTypeDef hfdcan2;
  28:Core/Src/fdcan.c **** 
  29:Core/Src/fdcan.c **** /* FDCAN2 init function */
  30:Core/Src/fdcan.c **** void MX_FDCAN2_Init(void)
ARM GAS  /tmp/ccmTRaeu.s 			page 2


  31:Core/Src/fdcan.c **** {
  29              		.loc 1 31 1 view -0
  30              		.cfi_startproc
  31              		@ args = 0, pretend = 0, frame = 0
  32              		@ frame_needed = 0, uses_anonymous_args = 0
  33 0000 08B5     		push	{r3, lr}
  34              		.cfi_def_cfa_offset 8
  35              		.cfi_offset 3, -8
  36              		.cfi_offset 14, -4
  32:Core/Src/fdcan.c **** 
  33:Core/Src/fdcan.c ****   /* USER CODE BEGIN FDCAN2_Init 0 */
  34:Core/Src/fdcan.c **** 
  35:Core/Src/fdcan.c ****   /* USER CODE END FDCAN2_Init 0 */
  36:Core/Src/fdcan.c **** 
  37:Core/Src/fdcan.c ****   /* USER CODE BEGIN FDCAN2_Init 1 */
  38:Core/Src/fdcan.c **** 
  39:Core/Src/fdcan.c ****   /* USER CODE END FDCAN2_Init 1 */
  40:Core/Src/fdcan.c ****   hfdcan2.Instance = FDCAN2;
  37              		.loc 1 40 3 view .LVU1
  38              		.loc 1 40 20 is_stmt 0 view .LVU2
  39 0002 1048     		ldr	r0, .L5
  40 0004 104B     		ldr	r3, .L5+4
  41 0006 0360     		str	r3, [r0]
  41:Core/Src/fdcan.c ****   hfdcan2.Init.ClockDivider = FDCAN_CLOCK_DIV1;
  42              		.loc 1 41 3 is_stmt 1 view .LVU3
  43              		.loc 1 41 29 is_stmt 0 view .LVU4
  44 0008 0023     		movs	r3, #0
  45 000a 4360     		str	r3, [r0, #4]
  42:Core/Src/fdcan.c ****   hfdcan2.Init.FrameFormat = FDCAN_FRAME_CLASSIC;
  46              		.loc 1 42 3 is_stmt 1 view .LVU5
  47              		.loc 1 42 28 is_stmt 0 view .LVU6
  48 000c 8360     		str	r3, [r0, #8]
  43:Core/Src/fdcan.c ****   hfdcan2.Init.Mode = FDCAN_MODE_NORMAL;
  49              		.loc 1 43 3 is_stmt 1 view .LVU7
  50              		.loc 1 43 21 is_stmt 0 view .LVU8
  51 000e C360     		str	r3, [r0, #12]
  44:Core/Src/fdcan.c ****   hfdcan2.Init.AutoRetransmission = DISABLE;
  52              		.loc 1 44 3 is_stmt 1 view .LVU9
  53              		.loc 1 44 35 is_stmt 0 view .LVU10
  54 0010 0374     		strb	r3, [r0, #16]
  45:Core/Src/fdcan.c ****   hfdcan2.Init.TransmitPause = DISABLE;
  55              		.loc 1 45 3 is_stmt 1 view .LVU11
  56              		.loc 1 45 30 is_stmt 0 view .LVU12
  57 0012 4374     		strb	r3, [r0, #17]
  46:Core/Src/fdcan.c ****   hfdcan2.Init.ProtocolException = DISABLE;
  58              		.loc 1 46 3 is_stmt 1 view .LVU13
  59              		.loc 1 46 34 is_stmt 0 view .LVU14
  60 0014 8374     		strb	r3, [r0, #18]
  47:Core/Src/fdcan.c ****   hfdcan2.Init.NominalPrescaler = 6;
  61              		.loc 1 47 3 is_stmt 1 view .LVU15
  62              		.loc 1 47 33 is_stmt 0 view .LVU16
  63 0016 0622     		movs	r2, #6
  64 0018 4261     		str	r2, [r0, #20]
  48:Core/Src/fdcan.c ****   hfdcan2.Init.NominalSyncJumpWidth = 1;
  65              		.loc 1 48 3 is_stmt 1 view .LVU17
  66              		.loc 1 48 37 is_stmt 0 view .LVU18
  67 001a 0122     		movs	r2, #1
ARM GAS  /tmp/ccmTRaeu.s 			page 3


  68 001c 8261     		str	r2, [r0, #24]
  49:Core/Src/fdcan.c ****   hfdcan2.Init.NominalTimeSeg1 = 13;
  69              		.loc 1 49 3 is_stmt 1 view .LVU19
  70              		.loc 1 49 32 is_stmt 0 view .LVU20
  71 001e 0D21     		movs	r1, #13
  72 0020 C161     		str	r1, [r0, #28]
  50:Core/Src/fdcan.c ****   hfdcan2.Init.NominalTimeSeg2 = 14;
  73              		.loc 1 50 3 is_stmt 1 view .LVU21
  74              		.loc 1 50 32 is_stmt 0 view .LVU22
  75 0022 0E21     		movs	r1, #14
  76 0024 0162     		str	r1, [r0, #32]
  51:Core/Src/fdcan.c ****   hfdcan2.Init.DataPrescaler = 1;
  77              		.loc 1 51 3 is_stmt 1 view .LVU23
  78              		.loc 1 51 30 is_stmt 0 view .LVU24
  79 0026 4262     		str	r2, [r0, #36]
  52:Core/Src/fdcan.c ****   hfdcan2.Init.DataSyncJumpWidth = 1;
  80              		.loc 1 52 3 is_stmt 1 view .LVU25
  81              		.loc 1 52 34 is_stmt 0 view .LVU26
  82 0028 8262     		str	r2, [r0, #40]
  53:Core/Src/fdcan.c ****   hfdcan2.Init.DataTimeSeg1 = 1;
  83              		.loc 1 53 3 is_stmt 1 view .LVU27
  84              		.loc 1 53 29 is_stmt 0 view .LVU28
  85 002a C262     		str	r2, [r0, #44]
  54:Core/Src/fdcan.c ****   hfdcan2.Init.DataTimeSeg2 = 1;
  86              		.loc 1 54 3 is_stmt 1 view .LVU29
  87              		.loc 1 54 29 is_stmt 0 view .LVU30
  88 002c 0263     		str	r2, [r0, #48]
  55:Core/Src/fdcan.c ****   hfdcan2.Init.StdFiltersNbr = 1;
  89              		.loc 1 55 3 is_stmt 1 view .LVU31
  90              		.loc 1 55 30 is_stmt 0 view .LVU32
  91 002e 4263     		str	r2, [r0, #52]
  56:Core/Src/fdcan.c ****   hfdcan2.Init.ExtFiltersNbr = 1;
  92              		.loc 1 56 3 is_stmt 1 view .LVU33
  93              		.loc 1 56 30 is_stmt 0 view .LVU34
  94 0030 8263     		str	r2, [r0, #56]
  57:Core/Src/fdcan.c ****   hfdcan2.Init.TxFifoQueueMode = FDCAN_TX_FIFO_OPERATION;
  95              		.loc 1 57 3 is_stmt 1 view .LVU35
  96              		.loc 1 57 32 is_stmt 0 view .LVU36
  97 0032 C363     		str	r3, [r0, #60]
  58:Core/Src/fdcan.c ****   if (HAL_FDCAN_Init(&hfdcan2) != HAL_OK)
  98              		.loc 1 58 3 is_stmt 1 view .LVU37
  99              		.loc 1 58 7 is_stmt 0 view .LVU38
 100 0034 FFF7FEFF 		bl	HAL_FDCAN_Init
 101              	.LVL0:
 102              		.loc 1 58 6 discriminator 1 view .LVU39
 103 0038 00B9     		cbnz	r0, .L4
 104              	.L1:
  59:Core/Src/fdcan.c ****   {
  60:Core/Src/fdcan.c ****     Error_Handler();
  61:Core/Src/fdcan.c ****   }
  62:Core/Src/fdcan.c ****   /* USER CODE BEGIN FDCAN2_Init 2 */
  63:Core/Src/fdcan.c **** 
  64:Core/Src/fdcan.c ****   /* USER CODE END FDCAN2_Init 2 */
  65:Core/Src/fdcan.c **** 
  66:Core/Src/fdcan.c **** }
 105              		.loc 1 66 1 view .LVU40
 106 003a 08BD     		pop	{r3, pc}
ARM GAS  /tmp/ccmTRaeu.s 			page 4


 107              	.L4:
  60:Core/Src/fdcan.c ****   }
 108              		.loc 1 60 5 is_stmt 1 view .LVU41
 109 003c FFF7FEFF 		bl	Error_Handler
 110              	.LVL1:
 111              		.loc 1 66 1 is_stmt 0 view .LVU42
 112 0040 FBE7     		b	.L1
 113              	.L6:
 114 0042 00BF     		.align	2
 115              	.L5:
 116 0044 00000000 		.word	hfdcan2
 117 0048 00680040 		.word	1073768448
 118              		.cfi_endproc
 119              	.LFE329:
 121              		.section	.text.HAL_FDCAN_MspInit,"ax",%progbits
 122              		.align	1
 123              		.global	HAL_FDCAN_MspInit
 124              		.syntax unified
 125              		.thumb
 126              		.thumb_func
 128              	HAL_FDCAN_MspInit:
 129              	.LVL2:
 130              	.LFB330:
  67:Core/Src/fdcan.c **** 
  68:Core/Src/fdcan.c **** void HAL_FDCAN_MspInit(FDCAN_HandleTypeDef* fdcanHandle)
  69:Core/Src/fdcan.c **** {
 131              		.loc 1 69 1 is_stmt 1 view -0
 132              		.cfi_startproc
 133              		@ args = 0, pretend = 0, frame = 112
 134              		@ frame_needed = 0, uses_anonymous_args = 0
 135              		.loc 1 69 1 is_stmt 0 view .LVU44
 136 0000 10B5     		push	{r4, lr}
 137              		.cfi_def_cfa_offset 8
 138              		.cfi_offset 4, -8
 139              		.cfi_offset 14, -4
 140 0002 9CB0     		sub	sp, sp, #112
 141              		.cfi_def_cfa_offset 120
 142 0004 0446     		mov	r4, r0
  70:Core/Src/fdcan.c **** 
  71:Core/Src/fdcan.c ****   GPIO_InitTypeDef GPIO_InitStruct = {0};
 143              		.loc 1 71 3 is_stmt 1 view .LVU45
 144              		.loc 1 71 20 is_stmt 0 view .LVU46
 145 0006 0021     		movs	r1, #0
 146 0008 1791     		str	r1, [sp, #92]
 147 000a 1891     		str	r1, [sp, #96]
 148 000c 1991     		str	r1, [sp, #100]
 149 000e 1A91     		str	r1, [sp, #104]
 150 0010 1B91     		str	r1, [sp, #108]
  72:Core/Src/fdcan.c ****   RCC_PeriphCLKInitTypeDef PeriphClkInit = {0};
 151              		.loc 1 72 3 is_stmt 1 view .LVU47
 152              		.loc 1 72 28 is_stmt 0 view .LVU48
 153 0012 5422     		movs	r2, #84
 154 0014 02A8     		add	r0, sp, #8
 155              	.LVL3:
 156              		.loc 1 72 28 view .LVU49
 157 0016 FFF7FEFF 		bl	memset
 158              	.LVL4:
ARM GAS  /tmp/ccmTRaeu.s 			page 5


  73:Core/Src/fdcan.c ****   if(fdcanHandle->Instance==FDCAN2)
 159              		.loc 1 73 3 is_stmt 1 view .LVU50
 160              		.loc 1 73 17 is_stmt 0 view .LVU51
 161 001a 2268     		ldr	r2, [r4]
 162              		.loc 1 73 5 view .LVU52
 163 001c 224B     		ldr	r3, .L13
 164 001e 9A42     		cmp	r2, r3
 165 0020 01D0     		beq	.L11
 166              	.LVL5:
 167              	.L7:
  74:Core/Src/fdcan.c ****   {
  75:Core/Src/fdcan.c ****   /* USER CODE BEGIN FDCAN2_MspInit 0 */
  76:Core/Src/fdcan.c **** 
  77:Core/Src/fdcan.c ****   /* USER CODE END FDCAN2_MspInit 0 */
  78:Core/Src/fdcan.c **** 
  79:Core/Src/fdcan.c ****   /** Initializes the peripherals clocks
  80:Core/Src/fdcan.c ****   */
  81:Core/Src/fdcan.c ****     PeriphClkInit.PeriphClockSelection = RCC_PERIPHCLK_FDCAN;
  82:Core/Src/fdcan.c ****     PeriphClkInit.FdcanClockSelection = RCC_FDCANCLKSOURCE_PCLK1;
  83:Core/Src/fdcan.c ****     if (HAL_RCCEx_PeriphCLKConfig(&PeriphClkInit) != HAL_OK)
  84:Core/Src/fdcan.c ****     {
  85:Core/Src/fdcan.c ****       Error_Handler();
  86:Core/Src/fdcan.c ****     }
  87:Core/Src/fdcan.c **** 
  88:Core/Src/fdcan.c ****     /* FDCAN2 clock enable */
  89:Core/Src/fdcan.c ****     __HAL_RCC_FDCAN_CLK_ENABLE();
  90:Core/Src/fdcan.c **** 
  91:Core/Src/fdcan.c ****     __HAL_RCC_GPIOB_CLK_ENABLE();
  92:Core/Src/fdcan.c ****     /**FDCAN2 GPIO Configuration
  93:Core/Src/fdcan.c ****     PB12     ------> FDCAN2_RX
  94:Core/Src/fdcan.c ****     PB13     ------> FDCAN2_TX
  95:Core/Src/fdcan.c ****     */
  96:Core/Src/fdcan.c ****     GPIO_InitStruct.Pin = GPIO_PIN_12|GPIO_PIN_13;
  97:Core/Src/fdcan.c ****     GPIO_InitStruct.Mode = GPIO_MODE_AF_PP;
  98:Core/Src/fdcan.c ****     GPIO_InitStruct.Pull = GPIO_NOPULL;
  99:Core/Src/fdcan.c ****     GPIO_InitStruct.Speed = GPIO_SPEED_FREQ_LOW;
 100:Core/Src/fdcan.c ****     GPIO_InitStruct.Alternate = GPIO_AF9_FDCAN2;
 101:Core/Src/fdcan.c ****     HAL_GPIO_Init(GPIOB, &GPIO_InitStruct);
 102:Core/Src/fdcan.c **** 
 103:Core/Src/fdcan.c ****     /* FDCAN2 interrupt Init */
 104:Core/Src/fdcan.c ****     HAL_NVIC_SetPriority(FDCAN2_IT0_IRQn, 5, 0);
 105:Core/Src/fdcan.c ****     HAL_NVIC_EnableIRQ(FDCAN2_IT0_IRQn);
 106:Core/Src/fdcan.c ****     HAL_NVIC_SetPriority(FDCAN2_IT1_IRQn, 5, 0);
 107:Core/Src/fdcan.c ****     HAL_NVIC_EnableIRQ(FDCAN2_IT1_IRQn);
 108:Core/Src/fdcan.c ****   /* USER CODE BEGIN FDCAN2_MspInit 1 */
 109:Core/Src/fdcan.c **** 
 110:Core/Src/fdcan.c ****   /* USER CODE END FDCAN2_MspInit 1 */
 111:Core/Src/fdcan.c ****   }
 112:Core/Src/fdcan.c **** }
 168              		.loc 1 112 1 view .LVU53
 169 0022 1CB0     		add	sp, sp, #112
 170              		.cfi_remember_state
 171              		.cfi_def_cfa_offset 8
 172              		@ sp needed
 173 0024 10BD     		pop	{r4, pc}
 174              	.LVL6:
 175              	.L11:
ARM GAS  /tmp/ccmTRaeu.s 			page 6


 176              		.cfi_restore_state
  81:Core/Src/fdcan.c ****     PeriphClkInit.FdcanClockSelection = RCC_FDCANCLKSOURCE_PCLK1;
 177              		.loc 1 81 5 is_stmt 1 view .LVU54
  81:Core/Src/fdcan.c ****     PeriphClkInit.FdcanClockSelection = RCC_FDCANCLKSOURCE_PCLK1;
 178              		.loc 1 81 40 is_stmt 0 view .LVU55
 179 0026 4FF48053 		mov	r3, #4096
 180 002a 0293     		str	r3, [sp, #8]
  82:Core/Src/fdcan.c ****     if (HAL_RCCEx_PeriphCLKConfig(&PeriphClkInit) != HAL_OK)
 181              		.loc 1 82 5 is_stmt 1 view .LVU56
  82:Core/Src/fdcan.c ****     if (HAL_RCCEx_PeriphCLKConfig(&PeriphClkInit) != HAL_OK)
 182              		.loc 1 82 39 is_stmt 0 view .LVU57
 183 002c 4FF00073 		mov	r3, #33554432
 184 0030 1093     		str	r3, [sp, #64]
  83:Core/Src/fdcan.c ****     {
 185              		.loc 1 83 5 is_stmt 1 view .LVU58
  83:Core/Src/fdcan.c ****     {
 186              		.loc 1 83 9 is_stmt 0 view .LVU59
 187 0032 02A8     		add	r0, sp, #8
 188 0034 FFF7FEFF 		bl	HAL_RCCEx_PeriphCLKConfig
 189              	.LVL7:
  83:Core/Src/fdcan.c ****     {
 190              		.loc 1 83 8 discriminator 1 view .LVU60
 191 0038 0028     		cmp	r0, #0
 192 003a 31D1     		bne	.L12
 193              	.L9:
  89:Core/Src/fdcan.c **** 
 194              		.loc 1 89 5 is_stmt 1 view .LVU61
 195              	.LBB2:
  89:Core/Src/fdcan.c **** 
 196              		.loc 1 89 5 view .LVU62
  89:Core/Src/fdcan.c **** 
 197              		.loc 1 89 5 view .LVU63
 198 003c 1B4B     		ldr	r3, .L13+4
 199 003e 9A6D     		ldr	r2, [r3, #88]
 200 0040 42F00072 		orr	r2, r2, #33554432
 201 0044 9A65     		str	r2, [r3, #88]
  89:Core/Src/fdcan.c **** 
 202              		.loc 1 89 5 view .LVU64
 203 0046 9A6D     		ldr	r2, [r3, #88]
 204 0048 02F00072 		and	r2, r2, #33554432
 205 004c 0092     		str	r2, [sp]
  89:Core/Src/fdcan.c **** 
 206              		.loc 1 89 5 view .LVU65
 207 004e 009A     		ldr	r2, [sp]
 208              	.LBE2:
  89:Core/Src/fdcan.c **** 
 209              		.loc 1 89 5 view .LVU66
  91:Core/Src/fdcan.c ****     /**FDCAN2 GPIO Configuration
 210              		.loc 1 91 5 view .LVU67
 211              	.LBB3:
  91:Core/Src/fdcan.c ****     /**FDCAN2 GPIO Configuration
 212              		.loc 1 91 5 view .LVU68
  91:Core/Src/fdcan.c ****     /**FDCAN2 GPIO Configuration
 213              		.loc 1 91 5 view .LVU69
 214 0050 DA6C     		ldr	r2, [r3, #76]
 215 0052 42F00202 		orr	r2, r2, #2
 216 0056 DA64     		str	r2, [r3, #76]
ARM GAS  /tmp/ccmTRaeu.s 			page 7


  91:Core/Src/fdcan.c ****     /**FDCAN2 GPIO Configuration
 217              		.loc 1 91 5 view .LVU70
 218 0058 DB6C     		ldr	r3, [r3, #76]
 219 005a 03F00203 		and	r3, r3, #2
 220 005e 0193     		str	r3, [sp, #4]
  91:Core/Src/fdcan.c ****     /**FDCAN2 GPIO Configuration
 221              		.loc 1 91 5 view .LVU71
 222 0060 019B     		ldr	r3, [sp, #4]
 223              	.LBE3:
  91:Core/Src/fdcan.c ****     /**FDCAN2 GPIO Configuration
 224              		.loc 1 91 5 view .LVU72
  96:Core/Src/fdcan.c ****     GPIO_InitStruct.Mode = GPIO_MODE_AF_PP;
 225              		.loc 1 96 5 view .LVU73
  96:Core/Src/fdcan.c ****     GPIO_InitStruct.Mode = GPIO_MODE_AF_PP;
 226              		.loc 1 96 25 is_stmt 0 view .LVU74
 227 0062 4FF44053 		mov	r3, #12288
 228 0066 1793     		str	r3, [sp, #92]
  97:Core/Src/fdcan.c ****     GPIO_InitStruct.Pull = GPIO_NOPULL;
 229              		.loc 1 97 5 is_stmt 1 view .LVU75
  97:Core/Src/fdcan.c ****     GPIO_InitStruct.Pull = GPIO_NOPULL;
 230              		.loc 1 97 26 is_stmt 0 view .LVU76
 231 0068 0223     		movs	r3, #2
 232 006a 1893     		str	r3, [sp, #96]
  98:Core/Src/fdcan.c ****     GPIO_InitStruct.Speed = GPIO_SPEED_FREQ_LOW;
 233              		.loc 1 98 5 is_stmt 1 view .LVU77
  98:Core/Src/fdcan.c ****     GPIO_InitStruct.Speed = GPIO_SPEED_FREQ_LOW;
 234              		.loc 1 98 26 is_stmt 0 view .LVU78
 235 006c 0024     		movs	r4, #0
 236              	.LVL8:
  98:Core/Src/fdcan.c ****     GPIO_InitStruct.Speed = GPIO_SPEED_FREQ_LOW;
 237              		.loc 1 98 26 view .LVU79
 238 006e 1994     		str	r4, [sp, #100]
  99:Core/Src/fdcan.c ****     GPIO_InitStruct.Alternate = GPIO_AF9_FDCAN2;
 239              		.loc 1 99 5 is_stmt 1 view .LVU80
  99:Core/Src/fdcan.c ****     GPIO_InitStruct.Alternate = GPIO_AF9_FDCAN2;
 240              		.loc 1 99 27 is_stmt 0 view .LVU81
 241 0070 1A94     		str	r4, [sp, #104]
 100:Core/Src/fdcan.c ****     HAL_GPIO_Init(GPIOB, &GPIO_InitStruct);
 242              		.loc 1 100 5 is_stmt 1 view .LVU82
 100:Core/Src/fdcan.c ****     HAL_GPIO_Init(GPIOB, &GPIO_InitStruct);
 243              		.loc 1 100 31 is_stmt 0 view .LVU83
 244 0072 0923     		movs	r3, #9
 245 0074 1B93     		str	r3, [sp, #108]
 101:Core/Src/fdcan.c **** 
 246              		.loc 1 101 5 is_stmt 1 view .LVU84
 247 0076 17A9     		add	r1, sp, #92
 248 0078 0D48     		ldr	r0, .L13+8
 249 007a FFF7FEFF 		bl	HAL_GPIO_Init
 250              	.LVL9:
 104:Core/Src/fdcan.c ****     HAL_NVIC_EnableIRQ(FDCAN2_IT0_IRQn);
 251              		.loc 1 104 5 view .LVU85
 252 007e 2246     		mov	r2, r4
 253 0080 0521     		movs	r1, #5
 254 0082 5620     		movs	r0, #86
 255 0084 FFF7FEFF 		bl	HAL_NVIC_SetPriority
 256              	.LVL10:
 105:Core/Src/fdcan.c ****     HAL_NVIC_SetPriority(FDCAN2_IT1_IRQn, 5, 0);
ARM GAS  /tmp/ccmTRaeu.s 			page 8


 257              		.loc 1 105 5 view .LVU86
 258 0088 5620     		movs	r0, #86
 259 008a FFF7FEFF 		bl	HAL_NVIC_EnableIRQ
 260              	.LVL11:
 106:Core/Src/fdcan.c ****     HAL_NVIC_EnableIRQ(FDCAN2_IT1_IRQn);
 261              		.loc 1 106 5 view .LVU87
 262 008e 2246     		mov	r2, r4
 263 0090 0521     		movs	r1, #5
 264 0092 5720     		movs	r0, #87
 265 0094 FFF7FEFF 		bl	HAL_NVIC_SetPriority
 266              	.LVL12:
 107:Core/Src/fdcan.c ****   /* USER CODE BEGIN FDCAN2_MspInit 1 */
 267              		.loc 1 107 5 view .LVU88
 268 0098 5720     		movs	r0, #87
 269 009a FFF7FEFF 		bl	HAL_NVIC_EnableIRQ
 270              	.LVL13:
 271              		.loc 1 112 1 is_stmt 0 view .LVU89
 272 009e C0E7     		b	.L7
 273              	.LVL14:
 274              	.L12:
  85:Core/Src/fdcan.c ****     }
 275              		.loc 1 85 7 is_stmt 1 view .LVU90
 276 00a0 FFF7FEFF 		bl	Error_Handler
 277              	.LVL15:
 278 00a4 CAE7     		b	.L9
 279              	.L14:
 280 00a6 00BF     		.align	2
 281              	.L13:
 282 00a8 00680040 		.word	1073768448
 283 00ac 00100240 		.word	1073876992
 284 00b0 00040048 		.word	1207960576
 285              		.cfi_endproc
 286              	.LFE330:
 288              		.section	.text.HAL_FDCAN_MspDeInit,"ax",%progbits
 289              		.align	1
 290              		.global	HAL_FDCAN_MspDeInit
 291              		.syntax unified
 292              		.thumb
 293              		.thumb_func
 295              	HAL_FDCAN_MspDeInit:
 296              	.LVL16:
 297              	.LFB331:
 113:Core/Src/fdcan.c **** 
 114:Core/Src/fdcan.c **** void HAL_FDCAN_MspDeInit(FDCAN_HandleTypeDef* fdcanHandle)
 115:Core/Src/fdcan.c **** {
 298              		.loc 1 115 1 view -0
 299              		.cfi_startproc
 300              		@ args = 0, pretend = 0, frame = 0
 301              		@ frame_needed = 0, uses_anonymous_args = 0
 302              		.loc 1 115 1 is_stmt 0 view .LVU92
 303 0000 08B5     		push	{r3, lr}
 304              		.cfi_def_cfa_offset 8
 305              		.cfi_offset 3, -8
 306              		.cfi_offset 14, -4
 116:Core/Src/fdcan.c **** 
 117:Core/Src/fdcan.c ****   if(fdcanHandle->Instance==FDCAN2)
 307              		.loc 1 117 3 is_stmt 1 view .LVU93
ARM GAS  /tmp/ccmTRaeu.s 			page 9


 308              		.loc 1 117 17 is_stmt 0 view .LVU94
 309 0002 0268     		ldr	r2, [r0]
 310              		.loc 1 117 5 view .LVU95
 311 0004 0A4B     		ldr	r3, .L19
 312 0006 9A42     		cmp	r2, r3
 313 0008 00D0     		beq	.L18
 314              	.LVL17:
 315              	.L15:
 118:Core/Src/fdcan.c ****   {
 119:Core/Src/fdcan.c ****   /* USER CODE BEGIN FDCAN2_MspDeInit 0 */
 120:Core/Src/fdcan.c **** 
 121:Core/Src/fdcan.c ****   /* USER CODE END FDCAN2_MspDeInit 0 */
 122:Core/Src/fdcan.c ****     /* Peripheral clock disable */
 123:Core/Src/fdcan.c ****     __HAL_RCC_FDCAN_CLK_DISABLE();
 124:Core/Src/fdcan.c **** 
 125:Core/Src/fdcan.c ****     /**FDCAN2 GPIO Configuration
 126:Core/Src/fdcan.c ****     PB12     ------> FDCAN2_RX
 127:Core/Src/fdcan.c ****     PB13     ------> FDCAN2_TX
 128:Core/Src/fdcan.c ****     */
 129:Core/Src/fdcan.c ****     HAL_GPIO_DeInit(GPIOB, GPIO_PIN_12|GPIO_PIN_13);
 130:Core/Src/fdcan.c **** 
 131:Core/Src/fdcan.c ****     /* FDCAN2 interrupt Deinit */
 132:Core/Src/fdcan.c ****     HAL_NVIC_DisableIRQ(FDCAN2_IT0_IRQn);
 133:Core/Src/fdcan.c ****     HAL_NVIC_DisableIRQ(FDCAN2_IT1_IRQn);
 134:Core/Src/fdcan.c ****   /* USER CODE BEGIN FDCAN2_MspDeInit 1 */
 135:Core/Src/fdcan.c **** 
 136:Core/Src/fdcan.c ****   /* USER CODE END FDCAN2_MspDeInit 1 */
 137:Core/Src/fdcan.c ****   }
 138:Core/Src/fdcan.c **** }
 316              		.loc 1 138 1 view .LVU96
 317 000a 08BD     		pop	{r3, pc}
 318              	.LVL18:
 319              	.L18:
 123:Core/Src/fdcan.c **** 
 320              		.loc 1 123 5 is_stmt 1 view .LVU97
 321 000c 094A     		ldr	r2, .L19+4
 322 000e 936D     		ldr	r3, [r2, #88]
 323 0010 23F00073 		bic	r3, r3, #33554432
 324 0014 9365     		str	r3, [r2, #88]
 129:Core/Src/fdcan.c **** 
 325              		.loc 1 129 5 view .LVU98
 326 0016 4FF44051 		mov	r1, #12288
 327 001a 0748     		ldr	r0, .L19+8
 328              	.LVL19:
 129:Core/Src/fdcan.c **** 
 329              		.loc 1 129 5 is_stmt 0 view .LVU99
 330 001c FFF7FEFF 		bl	HAL_GPIO_DeInit
 331              	.LVL20:
 132:Core/Src/fdcan.c ****     HAL_NVIC_DisableIRQ(FDCAN2_IT1_IRQn);
 332              		.loc 1 132 5 is_stmt 1 view .LVU100
 333 0020 5620     		movs	r0, #86
 334 0022 FFF7FEFF 		bl	HAL_NVIC_DisableIRQ
 335              	.LVL21:
 133:Core/Src/fdcan.c ****   /* USER CODE BEGIN FDCAN2_MspDeInit 1 */
 336              		.loc 1 133 5 view .LVU101
 337 0026 5720     		movs	r0, #87
 338 0028 FFF7FEFF 		bl	HAL_NVIC_DisableIRQ
ARM GAS  /tmp/ccmTRaeu.s 			page 10


 339              	.LVL22:
 340              		.loc 1 138 1 is_stmt 0 view .LVU102
 341 002c EDE7     		b	.L15
 342              	.L20:
 343 002e 00BF     		.align	2
 344              	.L19:
 345 0030 00680040 		.word	1073768448
 346 0034 00100240 		.word	1073876992
 347 0038 00040048 		.word	1207960576
 348              		.cfi_endproc
 349              	.LFE331:
 351              		.global	hfdcan2
 352              		.section	.bss.hfdcan2,"aw",%nobits
 353              		.align	2
 356              	hfdcan2:
 357 0000 00000000 		.space	100
 357      00000000 
 357      00000000 
 357      00000000 
 357      00000000 
 358              		.text
 359              	.Letext0:
 360              		.file 2 "Drivers/CMSIS/Device/ST/STM32G4xx/Include/stm32g474xx.h"
 361              		.file 3 "/opt/arm-gnu-toolchain-14.2/arm-none-eabi/include/machine/_default_types.h"
 362              		.file 4 "/opt/arm-gnu-toolchain-14.2/arm-none-eabi/include/sys/_stdint.h"
 363              		.file 5 "Drivers/CMSIS/Device/ST/STM32G4xx/Include/stm32g4xx.h"
 364              		.file 6 "Drivers/STM32G4xx_HAL_Driver/Inc/stm32g4xx_hal_def.h"
 365              		.file 7 "Drivers/STM32G4xx_HAL_Driver/Inc/stm32g4xx_hal_rcc_ex.h"
 366              		.file 8 "Drivers/STM32G4xx_HAL_Driver/Inc/stm32g4xx_hal_gpio.h"
 367              		.file 9 "Drivers/STM32G4xx_HAL_Driver/Inc/stm32g4xx_hal_fdcan.h"
 368              		.file 10 "Drivers/STM32G4xx_HAL_Driver/Inc/stm32g4xx_hal_cortex.h"
 369              		.file 11 "Core/Inc/fdcan.h"
 370              		.file 12 "Core/Inc/main.h"
 371              		.file 13 "<built-in>"
ARM GAS  /tmp/ccmTRaeu.s 			page 11

