ARM GAS  /tmp/cc0ETORT.s 			page 1


   1              		.cpu cortex-m4
   2              		.arch armv7e-m
   3              		.fpu fpv4-sp-d16
   4              		.eabi_attribute 27, 1
   5              		.eabi_attribute 28, 1
   6              		.eabi_attribute 20, 1
   7              		.eabi_attribute 21, 1
   8              		.eabi_attribute 23, 3
   9              		.eabi_attribute 24, 1
  10              		.eabi_attribute 25, 1
  11              		.eabi_attribute 26, 1
  12              		.eabi_attribute 30, 1
  13              		.eabi_attribute 34, 1
  14              		.eabi_attribute 18, 4
  15              		.file	"HAL_System.cpp"
  16              		.text
  17              	.Ltext0:
  18              		.cfi_sections	.debug_frame
  19              		.file 1 "My_Top/System/HAL_System.cpp"
  20              		.align	1
  21              		.global	_ZN10HAL_System23period_elapsed_callbackEP19__TIM_HandleTypeDef
  22              		.syntax unified
  23              		.thumb
  24              		.thumb_func
  26              	_ZN10HAL_System23period_elapsed_callbackEP19__TIM_HandleTypeDef:
  27              	.LVL0:
  28              	.LFB336:
   1:My_Top/System/HAL_System.cpp **** #include "HAL_System.hpp"
   2:My_Top/System/HAL_System.cpp **** #include "FreeRTOS.h"
   3:My_Top/System/HAL_System.cpp **** #include "task.h"
   4:My_Top/System/HAL_System.cpp **** 
   5:My_Top/System/HAL_System.cpp **** #define Tim_Number_ofdigits 32
   6:My_Top/System/HAL_System.cpp **** 
   7:My_Top/System/HAL_System.cpp **** #if Tim_Number_ofdigits == 16
   8:My_Top/System/HAL_System.cpp **** #define nub_reset 0xFFFFFFFFFFFF0000ULL
   9:My_Top/System/HAL_System.cpp **** #elif Tim_Number_ofdigits == 32
  10:My_Top/System/HAL_System.cpp **** #define nub_reset 0xFFFFFFFF00000000ULL
  11:My_Top/System/HAL_System.cpp **** #else
  12:My_Top/System/HAL_System.cpp **** #error "Tim_Number_ofdigits 只能填 16 或 32,当前值不合法"
  13:My_Top/System/HAL_System.cpp **** #endif
  14:My_Top/System/HAL_System.cpp **** 
  15:My_Top/System/HAL_System.cpp **** 
  16:My_Top/System/HAL_System.cpp **** 
  17:My_Top/System/HAL_System.cpp **** uint64_t HAL_System::tick_us = 0; 
  18:My_Top/System/HAL_System.cpp **** uint32_t HAL_System::tick_ms = 0;  
  19:My_Top/System/HAL_System.cpp **** 
  20:My_Top/System/HAL_System.cpp **** void HAL_System::init(void)
  21:My_Top/System/HAL_System.cpp **** {
  22:My_Top/System/HAL_System.cpp ****     // 启动定时器中断（计数器开始计数）
  23:My_Top/System/HAL_System.cpp ****     HAL_TIM_Base_Start_IT(System_htim);
  24:My_Top/System/HAL_System.cpp ****     System_htim->PeriodElapsedCallback = period_elapsed_callback;
  25:My_Top/System/HAL_System.cpp **** }
  26:My_Top/System/HAL_System.cpp **** 
  27:My_Top/System/HAL_System.cpp **** uint64_t HAL_System::get_tick_us(void)
  28:My_Top/System/HAL_System.cpp **** {
  29:My_Top/System/HAL_System.cpp ****     // 读取当前 TIM 计数器的低 32 位
  30:My_Top/System/HAL_System.cpp ****     uint32_t current_cnt = __HAL_TIM_GET_COUNTER(System_htim);
ARM GAS  /tmp/cc0ETORT.s 			page 2


  31:My_Top/System/HAL_System.cpp **** 
  32:My_Top/System/HAL_System.cpp ****     // 拼装 64 位计时器：
  33:My_Top/System/HAL_System.cpp ****     // tick_us 的高 32 位 = 之前的累加值（elapse_cnt × 2^32）
  34:My_Top/System/HAL_System.cpp ****     // tick_us 的低 32 位 = 当前 TIM 计数器值
  35:My_Top/System/HAL_System.cpp ****     // 先把当前的低 32 位清零（& ~0xFFFFFFFF），再或上新的计数器值
  36:My_Top/System/HAL_System.cpp ****     tick_us = (tick_us & (uint64_t)nub_reset) | current_cnt;
  37:My_Top/System/HAL_System.cpp **** 
  38:My_Top/System/HAL_System.cpp ****     return tick_us;
  39:My_Top/System/HAL_System.cpp **** }
  40:My_Top/System/HAL_System.cpp **** 
  41:My_Top/System/HAL_System.cpp **** 
  42:My_Top/System/HAL_System.cpp **** 
  43:My_Top/System/HAL_System.cpp **** // ============================================================
  44:My_Top/System/HAL_System.cpp **** // 获取当前毫秒数（32 位，由微秒计算得出）
  45:My_Top/System/HAL_System.cpp **** // ============================================================
  46:My_Top/System/HAL_System.cpp **** uint32_t HAL_System::get_tick_ms(void)
  47:My_Top/System/HAL_System.cpp **** {
  48:My_Top/System/HAL_System.cpp ****     // 微秒转毫秒（除以 1000）
  49:My_Top/System/HAL_System.cpp ****     tick_ms = get_tick_us() / 1000;
  50:My_Top/System/HAL_System.cpp ****     return tick_ms;
  51:My_Top/System/HAL_System.cpp **** }
  52:My_Top/System/HAL_System.cpp **** 
  53:My_Top/System/HAL_System.cpp **** // ============================================================
  54:My_Top/System/HAL_System.cpp **** // 定时器溢出回调函数（每当 TIM 计数器从 0xFFFFFFFF 回到 0 时触发）
  55:My_Top/System/HAL_System.cpp **** // ============================================================
  56:My_Top/System/HAL_System.cpp **** // 注意：此函数运行在中断上下文中！
  57:My_Top/System/HAL_System.cpp **** void HAL_System::period_elapsed_callback(TIM_HandleTypeDef *htim)
  58:My_Top/System/HAL_System.cpp **** {
  29              		.loc 1 58 1 view -0
  30              		.cfi_startproc
  31              		@ args = 0, pretend = 0, frame = 0
  32              		@ frame_needed = 0, uses_anonymous_args = 0
  33              		@ link register save eliminated.
  59:My_Top/System/HAL_System.cpp ****     tick_us += (uint64_t)1 << Tim_Number_ofdigits;
  34              		.loc 1 59 5 view .LVU1
  35              		.loc 1 59 13 is_stmt 0 view .LVU2
  36 0000 024A     		ldr	r2, .L2
  37 0002 5368     		ldr	r3, [r2, #4]
  38 0004 0133     		adds	r3, r3, #1
  39 0006 5360     		str	r3, [r2, #4]
  60:My_Top/System/HAL_System.cpp **** }
  40              		.loc 1 60 1 view .LVU3
  41 0008 7047     		bx	lr
  42              	.L3:
  43 000a 00BF     		.align	2
  44              	.L2:
  45 000c 00000000 		.word	.LANCHOR0
  46              		.cfi_endproc
  47              	.LFE336:
  49              		.align	1
  50              		.global	_ZN10HAL_System4initEv
  51              		.syntax unified
  52              		.thumb
  53              		.thumb_func
  55              	_ZN10HAL_System4initEv:
  56              	.LFB333:
  21:My_Top/System/HAL_System.cpp ****     // 启动定时器中断（计数器开始计数）
ARM GAS  /tmp/cc0ETORT.s 			page 3


  57              		.loc 1 21 1 is_stmt 1 view -0
  58              		.cfi_startproc
  59              		@ args = 0, pretend = 0, frame = 0
  60              		@ frame_needed = 0, uses_anonymous_args = 0
  61 0010 10B5     		push	{r4, lr}
  62              		.cfi_def_cfa_offset 8
  63              		.cfi_offset 4, -8
  64              		.cfi_offset 14, -4
  23:My_Top/System/HAL_System.cpp ****     System_htim->PeriodElapsedCallback = period_elapsed_callback;
  65              		.loc 1 23 5 view .LVU5
  23:My_Top/System/HAL_System.cpp ****     System_htim->PeriodElapsedCallback = period_elapsed_callback;
  66              		.loc 1 23 26 is_stmt 0 view .LVU6
  67 0012 044C     		ldr	r4, .L6
  68 0014 2046     		mov	r0, r4
  69 0016 FFF7FEFF 		bl	HAL_TIM_Base_Start_IT
  70              	.LVL1:
  24:My_Top/System/HAL_System.cpp **** }
  71              		.loc 1 24 5 is_stmt 1 view .LVU7
  24:My_Top/System/HAL_System.cpp **** }
  72              		.loc 1 24 40 is_stmt 0 view .LVU8
  73 001a 034B     		ldr	r3, .L6+4
  74 001c C4F88430 		str	r3, [r4, #132]
  25:My_Top/System/HAL_System.cpp **** 
  75              		.loc 1 25 1 view .LVU9
  76 0020 10BD     		pop	{r4, pc}
  77              	.L7:
  78 0022 00BF     		.align	2
  79              	.L6:
  80 0024 00000000 		.word	htim5
  81 0028 00000000 		.word	_ZN10HAL_System23period_elapsed_callbackEP19__TIM_HandleTypeDef
  82              		.cfi_endproc
  83              	.LFE333:
  85              		.align	1
  86              		.global	_ZN10HAL_System11get_tick_usEv
  87              		.syntax unified
  88              		.thumb
  89              		.thumb_func
  91              	_ZN10HAL_System11get_tick_usEv:
  92              	.LFB334:
  28:My_Top/System/HAL_System.cpp ****     // 读取当前 TIM 计数器的低 32 位
  93              		.loc 1 28 1 is_stmt 1 view -0
  94              		.cfi_startproc
  95              		@ args = 0, pretend = 0, frame = 0
  96              		@ frame_needed = 0, uses_anonymous_args = 0
  97              		@ link register save eliminated.
  30:My_Top/System/HAL_System.cpp **** 
  98              		.loc 1 30 5 view .LVU11
  30:My_Top/System/HAL_System.cpp **** 
  99              		.loc 1 30 28 is_stmt 0 view .LVU12
 100 002c 034B     		ldr	r3, .L9
 101 002e 1B68     		ldr	r3, [r3]
 102 0030 586A     		ldr	r0, [r3, #36]
 103              	.LVL2:
  36:My_Top/System/HAL_System.cpp **** 
 104              		.loc 1 36 5 is_stmt 1 view .LVU13
  36:My_Top/System/HAL_System.cpp **** 
 105              		.loc 1 36 24 is_stmt 0 view .LVU14
ARM GAS  /tmp/cc0ETORT.s 			page 4


 106 0032 034B     		ldr	r3, .L9+4
  36:My_Top/System/HAL_System.cpp **** 
 107              		.loc 1 36 13 view .LVU15
 108 0034 1860     		str	r0, [r3]
  38:My_Top/System/HAL_System.cpp **** }
 109              		.loc 1 38 5 is_stmt 1 view .LVU16
  39:My_Top/System/HAL_System.cpp **** 
 110              		.loc 1 39 1 is_stmt 0 view .LVU17
 111 0036 5968     		ldr	r1, [r3, #4]
 112 0038 7047     		bx	lr
 113              	.L10:
 114 003a 00BF     		.align	2
 115              	.L9:
 116 003c 00000000 		.word	htim5
 117 0040 00000000 		.word	.LANCHOR0
 118              		.cfi_endproc
 119              	.LFE334:
 121              		.align	1
 122              		.global	_ZN10HAL_System11get_tick_msEv
 123              		.syntax unified
 124              		.thumb
 125              		.thumb_func
 127              	_ZN10HAL_System11get_tick_msEv:
 128              	.LFB335:
  47:My_Top/System/HAL_System.cpp ****     // 微秒转毫秒（除以 1000）
 129              		.loc 1 47 1 is_stmt 1 view -0
 130              		.cfi_startproc
 131              		@ args = 0, pretend = 0, frame = 0
 132              		@ frame_needed = 0, uses_anonymous_args = 0
 133 0044 08B5     		push	{r3, lr}
 134              		.cfi_def_cfa_offset 8
 135              		.cfi_offset 3, -8
 136              		.cfi_offset 14, -4
  49:My_Top/System/HAL_System.cpp ****     return tick_ms;
 137              		.loc 1 49 5 view .LVU19
  49:My_Top/System/HAL_System.cpp ****     return tick_ms;
 138              		.loc 1 49 26 is_stmt 0 view .LVU20
 139 0046 FFF7FEFF 		bl	_ZN10HAL_System11get_tick_usEv
 140              	.LVL3:
  49:My_Top/System/HAL_System.cpp ****     return tick_ms;
 141              		.loc 1 49 29 discriminator 1 view .LVU21
 142 004a 4FF47A72 		mov	r2, #1000
 143 004e 0023     		movs	r3, #0
 144 0050 FFF7FEFF 		bl	__aeabi_uldivmod
 145              	.LVL4:
  49:My_Top/System/HAL_System.cpp ****     return tick_ms;
 146              		.loc 1 49 13 discriminator 1 view .LVU22
 147 0054 014B     		ldr	r3, .L13
 148 0056 9860     		str	r0, [r3, #8]
  50:My_Top/System/HAL_System.cpp **** }
 149              		.loc 1 50 5 is_stmt 1 view .LVU23
  51:My_Top/System/HAL_System.cpp **** 
 150              		.loc 1 51 1 is_stmt 0 view .LVU24
 151 0058 08BD     		pop	{r3, pc}
 152              	.L14:
 153 005a 00BF     		.align	2
 154              	.L13:
ARM GAS  /tmp/cc0ETORT.s 			page 5


 155 005c 00000000 		.word	.LANCHOR0
 156              		.cfi_endproc
 157              	.LFE335:
 159              		.align	1
 160              		.global	_ZN10HAL_System8delay_msEm
 161              		.syntax unified
 162              		.thumb
 163              		.thumb_func
 165              	_ZN10HAL_System8delay_msEm:
 166              	.LVL5:
 167              	.LFB337:
  61:My_Top/System/HAL_System.cpp **** 
  62:My_Top/System/HAL_System.cpp **** 
  63:My_Top/System/HAL_System.cpp **** void HAL_System::delay_ms(uint32_t ms)
  64:My_Top/System/HAL_System.cpp **** {
 168              		.loc 1 64 1 is_stmt 1 view -0
 169              		.cfi_startproc
 170              		@ args = 0, pretend = 0, frame = 0
 171              		@ frame_needed = 0, uses_anonymous_args = 0
 172              		.loc 1 64 1 is_stmt 0 view .LVU26
 173 0060 38B5     		push	{r3, r4, r5, lr}
 174              		.cfi_def_cfa_offset 16
 175              		.cfi_offset 3, -16
 176              		.cfi_offset 4, -12
 177              		.cfi_offset 5, -8
 178              		.cfi_offset 14, -4
 179 0062 0546     		mov	r5, r0
  65:My_Top/System/HAL_System.cpp ****     uint32_t start = get_tick_ms();
 180              		.loc 1 65 5 is_stmt 1 view .LVU27
 181              		.loc 1 65 33 is_stmt 0 view .LVU28
 182 0064 FFF7FEFF 		bl	_ZN10HAL_System11get_tick_msEv
 183              	.LVL6:
 184              		.loc 1 65 33 view .LVU29
 185 0068 0446     		mov	r4, r0
 186              	.LVL7:
  66:My_Top/System/HAL_System.cpp ****     while ((get_tick_ms() - start) < ms) {}
 187              		.loc 1 66 5 is_stmt 1 view .LVU30
 188              	.L16:
 189              		.loc 1 66 36 discriminator 1 view .LVU31
 190              		.loc 1 66 24 is_stmt 0 discriminator 1 view .LVU32
 191 006a FFF7FEFF 		bl	_ZN10HAL_System11get_tick_msEv
 192              	.LVL8:
 193              		.loc 1 66 27 discriminator 1 view .LVU33
 194 006e 001B     		subs	r0, r0, r4
 195              		.loc 1 66 36 discriminator 1 view .LVU34
 196 0070 A842     		cmp	r0, r5
 197 0072 FAD3     		bcc	.L16
  67:My_Top/System/HAL_System.cpp **** }
 198              		.loc 1 67 1 view .LVU35
 199 0074 38BD     		pop	{r3, r4, r5, pc}
 200              		.loc 1 67 1 view .LVU36
 201              		.cfi_endproc
 202              	.LFE337:
 204              		.global	_ZN10HAL_System7tick_msE
 205              		.global	_ZN10HAL_System7tick_usE
 206              		.bss
 207              		.align	3
ARM GAS  /tmp/cc0ETORT.s 			page 6


 208              		.set	.LANCHOR0,. + 0
 211              	_ZN10HAL_System7tick_usE:
 212 0000 00000000 		.space	8
 212      00000000 
 215              	_ZN10HAL_System7tick_msE:
 216 0008 00000000 		.space	4
 217              		.text
 218              	.Letext0:
 219              		.file 2 "/opt/arm-gnu-toolchain-14.2/arm-none-eabi/include/machine/_default_types.h"
 220              		.file 3 "/opt/arm-gnu-toolchain-14.2/arm-none-eabi/include/sys/_stdint.h"
 221              		.file 4 "Drivers/CMSIS/Device/ST/STM32G4xx/Include/stm32g474xx.h"
 222              		.file 5 "Drivers/CMSIS/Device/ST/STM32G4xx/Include/stm32g4xx.h"
 223              		.file 6 "Drivers/STM32G4xx_HAL_Driver/Inc/stm32g4xx_hal_def.h"
 224              		.file 7 "Drivers/STM32G4xx_HAL_Driver/Inc/stm32g4xx_hal_dma.h"
 225              		.file 8 "Drivers/STM32G4xx_HAL_Driver/Inc/stm32g4xx_hal_tim.h"
 226              		.file 9 "My_Top/System/HAL_System.hpp"
 227              		.file 10 "Core/Inc/tim.h"
ARM GAS  /tmp/cc0ETORT.s 			page 7


DEFINED SYMBOLS
                            *ABS*:00000000 HAL_System.cpp
     /tmp/cc0ETORT.s:20     .text:00000000 $t
     /tmp/cc0ETORT.s:26     .text:00000000 _ZN10HAL_System23period_elapsed_callbackEP19__TIM_HandleTypeDef
     /tmp/cc0ETORT.s:45     .text:0000000c $d
     /tmp/cc0ETORT.s:49     .text:00000010 $t
     /tmp/cc0ETORT.s:55     .text:00000010 _ZN10HAL_System4initEv
     /tmp/cc0ETORT.s:80     .text:00000024 $d
     /tmp/cc0ETORT.s:85     .text:0000002c $t
     /tmp/cc0ETORT.s:91     .text:0000002c _ZN10HAL_System11get_tick_usEv
     /tmp/cc0ETORT.s:116    .text:0000003c $d
     /tmp/cc0ETORT.s:121    .text:00000044 $t
     /tmp/cc0ETORT.s:127    .text:00000044 _ZN10HAL_System11get_tick_msEv
     /tmp/cc0ETORT.s:155    .text:0000005c $d
     /tmp/cc0ETORT.s:159    .text:00000060 $t
     /tmp/cc0ETORT.s:165    .text:00000060 _ZN10HAL_System8delay_msEm
     /tmp/cc0ETORT.s:215    .bss:00000008 _ZN10HAL_System7tick_msE
     /tmp/cc0ETORT.s:211    .bss:00000000 _ZN10HAL_System7tick_usE
     /tmp/cc0ETORT.s:207    .bss:00000000 $d

UNDEFINED SYMBOLS
HAL_TIM_Base_Start_IT
htim5
__aeabi_uldivmod
