ARM GAS  /tmp/cc73j0Ob.s 			page 1


   1              		.cpu cortex-m4
   2              		.arch armv7e-m
   3              		.fpu fpv4-sp-d16
   4              		.eabi_attribute 27, 1
   5              		.eabi_attribute 28, 1
   6              		.eabi_attribute 20, 1
   7              		.eabi_attribute 21, 1
   8              		.eabi_attribute 23, 3
   9              		.eabi_attribute 24, 1
  10              		.eabi_attribute 25, 1
  11              		.eabi_attribute 26, 1
  12              		.eabi_attribute 30, 1
  13              		.eabi_attribute 34, 1
  14              		.eabi_attribute 18, 4
  15              		.file	"My_CLI.cpp"
  16              		.text
  17              	.Ltext0:
  18              		.cfi_sections	.debug_frame
  19              		.file 1 "My_Top/System/My_CLI.cpp"
  20              		.section	.rodata.str1.4,"aMS",%progbits,1
  21              		.align	2
  22              	.LC0:
  23 0000 E7BCBAE5 		.ascii	"\347\274\272\345\260\221\347\224\265\346\234\272\347"
  23      B091E794 
  23      B5E69CBA 
  23      E7
  24 000d BC96E58F 		.ascii	"\274\226\345\217\267 1-4\015\012\000"
  24      B720312D 
  24      340D0A00 
  25 0019 000000   		.align	2
  26              	.LC1:
  27 001c E794B5E6 		.ascii	"\347\224\265\346\234\272\347\274\226\345\217\267\351"
  27      9CBAE7BC 
  27      96E58FB7 
  27      E9
  28 0029 9499E8AF 		.ascii	"\224\231\350\257\257 %d\015\012\000"
  28      AF202564 
  28      0D0A00
  29              		.text
  30              		.align	1
  31              		.global	_Z16get_motor_by_argPPKciPi
  32              		.syntax unified
  33              		.thumb
  34              		.thumb_func
  36              	_Z16get_motor_by_argPPKciPi:
  37              	.LVL0:
  38              	.LFB1360:
   1:My_Top/System/My_CLI.cpp **** #include "My_CLI.hpp"
   2:My_Top/System/My_CLI.cpp **** 
   3:My_Top/System/My_CLI.cpp **** 
   4:My_Top/System/My_CLI.cpp **** DC_Motor* get_motor_by_arg(const char **arg_list, int argc,int *idx_out)
   5:My_Top/System/My_CLI.cpp **** {
  39              		.loc 1 5 1 view -0
  40              		.cfi_startproc
  41              		@ args = 0, pretend = 0, frame = 0
  42              		@ frame_needed = 0, uses_anonymous_args = 0
  43              		.loc 1 5 1 is_stmt 0 view .LVU1
ARM GAS  /tmp/cc73j0Ob.s 			page 2


  44 0000 38B5     		push	{r3, r4, r5, lr}
  45              		.cfi_def_cfa_offset 16
  46              		.cfi_offset 3, -16
  47              		.cfi_offset 4, -12
  48              		.cfi_offset 5, -8
  49              		.cfi_offset 14, -4
   6:My_Top/System/My_CLI.cpp ****     if (argc <= 0) { printf("ç¼؛ه°‘ç”µوœ؛ç¼–هڈ· 1-4\r\n"); return NULL; }
  50              		.loc 1 6 5 is_stmt 1 view .LVU2
  51 0002 0029     		cmp	r1, #0
  52 0004 0FDD     		ble	.L12
  53 0006 1546     		mov	r5, r2
   7:My_Top/System/My_CLI.cpp ****     int idx = atoi(arg_list[1]);
  54              		.loc 1 7 5 view .LVU3
  55              		.loc 1 7 19 is_stmt 0 view .LVU4
  56 0008 4068     		ldr	r0, [r0, #4]
  57              	.LVL1:
  58              		.loc 1 7 19 view .LVU5
  59 000a FFF7FEFF 		bl	atoi
  60              	.LVL2:
  61              		.loc 1 7 19 view .LVU6
  62 000e 0446     		mov	r4, r0
  63              	.LVL3:
   8:My_Top/System/My_CLI.cpp ****     if (idx < 1 || idx > 4) { printf("ç”µوœ؛ç¼–هڈ·é”™è¯¯ %d\r\n", idx);}
  64              		.loc 1 8 5 is_stmt 1 view .LVU7
  65              		.loc 1 8 17 is_stmt 0 view .LVU8
  66 0010 431E     		subs	r3, r0, #1
  67              		.loc 1 8 5 view .LVU9
  68 0012 032B     		cmp	r3, #3
  69 0014 0CD8     		bhi	.L13
  70              	.LVL4:
  71              	.L4:
   9:My_Top/System/My_CLI.cpp ****     *idx_out = idx; //è؟”ه›‍ç”µوœ؛ç¼–هڈ·
  72              		.loc 1 9 5 is_stmt 1 view .LVU10
  73              		.loc 1 9 14 is_stmt 0 view .LVU11
  74 0016 2C60     		str	r4, [r5]
  10:My_Top/System/My_CLI.cpp ****     switch (idx) {
  75              		.loc 1 10 5 is_stmt 1 view .LVU12
  76 0018 013C     		subs	r4, r4, #1
  77              	.LVL5:
  78              		.loc 1 10 5 is_stmt 0 view .LVU13
  79 001a 032C     		cmp	r4, #3
  80 001c 13D8     		bhi	.L5
  81 001e DFE804F0 		tbb	[pc, r4]
  82              	.L7:
  83 0022 0C       		.byte	(.L9-.L7)/2
  84 0023 14       		.byte	(.L10-.L7)/2
  85 0024 0E       		.byte	(.L8-.L7)/2
  86 0025 10       		.byte	(.L6-.L7)/2
  87              	.LVL6:
  88              		.p2align 1
  89              	.L12:
   6:My_Top/System/My_CLI.cpp ****     int idx = atoi(arg_list[1]);
  90              		.loc 1 6 22 is_stmt 1 discriminator 1 view .LVU14
   6:My_Top/System/My_CLI.cpp ****     int idx = atoi(arg_list[1]);
  91              		.loc 1 6 28 is_stmt 0 discriminator 1 view .LVU15
  92 0026 0A48     		ldr	r0, .L14
  93              	.LVL7:
ARM GAS  /tmp/cc73j0Ob.s 			page 3


   6:My_Top/System/My_CLI.cpp ****     int idx = atoi(arg_list[1]);
  94              		.loc 1 6 28 discriminator 1 view .LVU16
  95 0028 FFF7FEFF 		bl	printf_
  96              	.LVL8:
   6:My_Top/System/My_CLI.cpp ****     int idx = atoi(arg_list[1]);
  97              		.loc 1 6 60 is_stmt 1 discriminator 1 view .LVU17
   6:My_Top/System/My_CLI.cpp ****     int idx = atoi(arg_list[1]);
  98              		.loc 1 6 67 is_stmt 0 discriminator 1 view .LVU18
  99 002c 0020     		movs	r0, #0
   6:My_Top/System/My_CLI.cpp ****     int idx = atoi(arg_list[1]);
 100              		.loc 1 6 67 view .LVU19
 101 002e 05E0     		b	.L1
 102              	.LVL9:
 103              	.L13:
   8:My_Top/System/My_CLI.cpp ****     *idx_out = idx; //è؟”ه›‍ç”µوœ؛ç¼–هڈ·
 104              		.loc 1 8 31 is_stmt 1 discriminator 1 view .LVU20
   8:My_Top/System/My_CLI.cpp ****     *idx_out = idx; //è؟”ه›‍ç”µوœ؛ç¼–هڈ·
 105              		.loc 1 8 37 is_stmt 0 discriminator 1 view .LVU21
 106 0030 0146     		mov	r1, r0
 107 0032 0848     		ldr	r0, .L14+4
 108              	.LVL10:
   8:My_Top/System/My_CLI.cpp ****     *idx_out = idx; //è؟”ه›‍ç”µوœ؛ç¼–هڈ·
 109              		.loc 1 8 37 discriminator 1 view .LVU22
 110 0034 FFF7FEFF 		bl	printf_
 111              	.LVL11:
 112 0038 EDE7     		b	.L4
 113              	.LVL12:
 114              	.L9:
 115              		.loc 1 10 5 view .LVU23
 116 003a 0748     		ldr	r0, .L14+8
 117              	.LVL13:
 118              	.L1:
  11:My_Top/System/My_CLI.cpp ****         case 1: return &M1;
  12:My_Top/System/My_CLI.cpp ****         case 2: return &M2;
  13:My_Top/System/My_CLI.cpp ****         case 3: return &M3;
  14:My_Top/System/My_CLI.cpp ****         case 4: return &M4;
  15:My_Top/System/My_CLI.cpp ****     }
  16:My_Top/System/My_CLI.cpp ****     return NULL;
  17:My_Top/System/My_CLI.cpp **** }
 119              		.loc 1 17 1 view .LVU24
 120 003c 38BD     		pop	{r3, r4, r5, pc}
 121              	.LVL14:
 122              	.L8:
  13:My_Top/System/My_CLI.cpp ****         case 4: return &M4;
 123              		.loc 1 13 9 is_stmt 1 view .LVU25
  13:My_Top/System/My_CLI.cpp ****         case 4: return &M4;
 124              		.loc 1 13 17 view .LVU26
  13:My_Top/System/My_CLI.cpp ****         case 4: return &M4;
 125              		.loc 1 13 25 is_stmt 0 view .LVU27
 126 003e 0748     		ldr	r0, .L14+12
 127 0040 FCE7     		b	.L1
 128              	.L6:
  14:My_Top/System/My_CLI.cpp ****     }
 129              		.loc 1 14 9 is_stmt 1 view .LVU28
  14:My_Top/System/My_CLI.cpp ****     }
 130              		.loc 1 14 17 view .LVU29
  14:My_Top/System/My_CLI.cpp ****     }
ARM GAS  /tmp/cc73j0Ob.s 			page 4


 131              		.loc 1 14 25 is_stmt 0 view .LVU30
 132 0042 0748     		ldr	r0, .L14+16
 133 0044 FAE7     		b	.L1
 134              	.L5:
  16:My_Top/System/My_CLI.cpp **** }
 135              		.loc 1 16 5 is_stmt 1 view .LVU31
  16:My_Top/System/My_CLI.cpp **** }
 136              		.loc 1 16 12 is_stmt 0 view .LVU32
 137 0046 0020     		movs	r0, #0
 138 0048 F8E7     		b	.L1
 139              	.L10:
  12:My_Top/System/My_CLI.cpp ****         case 3: return &M3;
 140              		.loc 1 12 25 view .LVU33
 141 004a 0648     		ldr	r0, .L14+20
 142 004c F6E7     		b	.L1
 143              	.L15:
 144 004e 00BF     		.align	2
 145              	.L14:
 146 0050 00000000 		.word	.LC0
 147 0054 1C000000 		.word	.LC1
 148 0058 00000000 		.word	M1
 149 005c 00000000 		.word	M3
 150 0060 00000000 		.word	M4
 151 0064 00000000 		.word	M2
 152              		.cfi_endproc
 153              	.LFE1360:
 155              		.section	.rodata.str1.4
 156              		.align	2
 157              	.LC2:
 158 0034 E590AFE5 		.ascii	"\345\220\257\345\212\250\347\224\265\346\234\272 M%"
 158      8AA8E794 
 158      B5E69CBA 
 158      204D25
 159 0043 640D0A00 		.ascii	"d\015\012\000"
 160              		.text
 161              		.align	1
 162              		.global	_Z5startP11EmbeddedCliPcPv
 163              		.syntax unified
 164              		.thumb
 165              		.thumb_func
 167              	_Z5startP11EmbeddedCliPcPv:
 168              	.LVL15:
 169              	.LFB1361:
  18:My_Top/System/My_CLI.cpp **** 
  19:My_Top/System/My_CLI.cpp **** 
  20:My_Top/System/My_CLI.cpp **** 
  21:My_Top/System/My_CLI.cpp **** void start(EmbeddedCli *cli, char *args, void *context) //هگ¯هٹ¨ç”µوœ؛
  22:My_Top/System/My_CLI.cpp **** {
 170              		.loc 1 22 1 is_stmt 1 view -0
 171              		.cfi_startproc
 172              		@ args = 0, pretend = 0, frame = 48
 173              		@ frame_needed = 0, uses_anonymous_args = 0
 174              		.loc 1 22 1 is_stmt 0 view .LVU35
 175 0068 30B5     		push	{r4, r5, lr}
 176              		.cfi_def_cfa_offset 12
 177              		.cfi_offset 4, -12
 178              		.cfi_offset 5, -8
ARM GAS  /tmp/cc73j0Ob.s 			page 5


 179              		.cfi_offset 14, -4
 180 006a 8DB0     		sub	sp, sp, #52
 181              		.cfi_def_cfa_offset 64
 182 006c 0C46     		mov	r4, r1
  23:My_Top/System/My_CLI.cpp ****     int idx = 0;
 183              		.loc 1 23 5 is_stmt 1 view .LVU36
 184              		.loc 1 23 9 is_stmt 0 view .LVU37
 185 006e 0023     		movs	r3, #0
 186 0070 0B93     		str	r3, [sp, #44]
  24:My_Top/System/My_CLI.cpp ****     // èژ·هڈ–CLIه®‍ن¾‹
  25:My_Top/System/My_CLI.cpp ****     CLI_Module *mc = CLI_Module::get_cli_module(cli);
 187              		.loc 1 25 5 is_stmt 1 view .LVU38
 188              		.loc 1 25 48 is_stmt 0 view .LVU39
 189 0072 FFF7FEFF 		bl	_ZN10CLI_Module14get_cli_moduleEP11EmbeddedCli
 190              	.LVL16:
  26:My_Top/System/My_CLI.cpp ****     if (mc == NULL) return;
 191              		.loc 1 26 5 is_stmt 1 view .LVU40
 192 0076 88B1     		cbz	r0, .L16
  27:My_Top/System/My_CLI.cpp **** 
  28:My_Top/System/My_CLI.cpp ****     // è§£و‍گهڈ‚و•°
  29:My_Top/System/My_CLI.cpp ****     const char *arg_list[CLI_MODULE_MAX_ARGS_NUM]; //و•°وچ®ه­کو”¾هŒ؛ è¶…é™گهڈھن؟‌ه­که‰چCLI_MODULE_M
 193              		.loc 1 29 5 view .LVU41
  30:My_Top/System/My_CLI.cpp ****     int argc = CLI_Module::init_arg_list(arg_list, args);//è؟”ه›‍ه€¼argcوک¯é™¤ن؛†ه®ڑن¹‰ه¤´هگژ ه­—ç¬
 194              		.loc 1 30 5 view .LVU42
 195              		.loc 1 30 41 is_stmt 0 view .LVU43
 196 0078 01AD     		add	r5, sp, #4
 197 007a 2146     		mov	r1, r4
 198 007c 2846     		mov	r0, r5
 199              	.LVL17:
 200              		.loc 1 30 41 view .LVU44
 201 007e FFF7FEFF 		bl	_ZN10CLI_Module13init_arg_listEPPKcS1_
 202              	.LVL18:
 203 0082 0146     		mov	r1, r0
 204              	.LVL19:
  31:My_Top/System/My_CLI.cpp ****     DC_Motor *m = get_motor_by_arg(arg_list, argc,&idx); //èژ·هڈ–ç”µوœ؛ه¯¹è±،
 205              		.loc 1 31 5 is_stmt 1 view .LVU45
 206              		.loc 1 31 35 is_stmt 0 view .LVU46
 207 0084 0BAA     		add	r2, sp, #44
 208 0086 2846     		mov	r0, r5
 209              	.LVL20:
 210              		.loc 1 31 35 view .LVU47
 211 0088 FFF7FEFF 		bl	_Z16get_motor_by_argPPKciPi
 212              	.LVL21:
  32:My_Top/System/My_CLI.cpp ****     if (!m) return;
 213              		.loc 1 32 5 is_stmt 1 view .LVU48
 214 008c 30B1     		cbz	r0, .L16
  33:My_Top/System/My_CLI.cpp ****     m->Motor_EN(true); // و‰“ه¼€PWMè¾“ه‡؛
 215              		.loc 1 33 5 view .LVU49
 216              		.loc 1 33 16 is_stmt 0 view .LVU50
 217 008e 0121     		movs	r1, #1
 218 0090 FFF7FEFF 		bl	_ZN8DC_Motor8Motor_ENEb
 219              	.LVL22:
  34:My_Top/System/My_CLI.cpp **** 
  35:My_Top/System/My_CLI.cpp ****     printf("هگ¯هٹ¨ç”µوœ؛ M%d\r\n", idx);
 220              		.loc 1 35 5 is_stmt 1 view .LVU51
 221              		.loc 1 35 11 is_stmt 0 view .LVU52
 222 0094 0B99     		ldr	r1, [sp, #44]
ARM GAS  /tmp/cc73j0Ob.s 			page 6


 223 0096 0248     		ldr	r0, .L20
 224 0098 FFF7FEFF 		bl	printf_
 225              	.LVL23:
 226              	.L16:
  36:My_Top/System/My_CLI.cpp **** }
 227              		.loc 1 36 1 view .LVU53
 228 009c 0DB0     		add	sp, sp, #52
 229              		.cfi_def_cfa_offset 12
 230              		@ sp needed
 231 009e 30BD     		pop	{r4, r5, pc}
 232              	.LVL24:
 233              	.L21:
 234              		.loc 1 36 1 view .LVU54
 235              		.align	2
 236              	.L20:
 237 00a0 34000000 		.word	.LC2
 238              		.cfi_endproc
 239              	.LFE1361:
 241              		.section	.rodata.str1.4
 242 0047 00       		.align	2
 243              	.LC3:
 244 0048 E5819CE6 		.ascii	"\345\201\234\346\255\242\347\224\265\346\234\272 M%"
 244      ADA2E794 
 244      B5E69CBA 
 244      204D25
 245 0057 640D0A00 		.ascii	"d\015\012\000"
 246              		.text
 247              		.align	1
 248              		.global	_Z4stopP11EmbeddedCliPcPv
 249              		.syntax unified
 250              		.thumb
 251              		.thumb_func
 253              	_Z4stopP11EmbeddedCliPcPv:
 254              	.LVL25:
 255              	.LFB1362:
  37:My_Top/System/My_CLI.cpp **** 
  38:My_Top/System/My_CLI.cpp **** void stop(EmbeddedCli *cli, char *args, void *context) //هپœو­¢ç”µوœ؛
  39:My_Top/System/My_CLI.cpp **** {
 256              		.loc 1 39 1 is_stmt 1 view -0
 257              		.cfi_startproc
 258              		@ args = 0, pretend = 0, frame = 48
 259              		@ frame_needed = 0, uses_anonymous_args = 0
 260              		.loc 1 39 1 is_stmt 0 view .LVU56
 261 00a4 30B5     		push	{r4, r5, lr}
 262              		.cfi_def_cfa_offset 12
 263              		.cfi_offset 4, -12
 264              		.cfi_offset 5, -8
 265              		.cfi_offset 14, -4
 266 00a6 8DB0     		sub	sp, sp, #52
 267              		.cfi_def_cfa_offset 64
 268 00a8 0C46     		mov	r4, r1
  40:My_Top/System/My_CLI.cpp ****     int idx = 0;
 269              		.loc 1 40 5 is_stmt 1 view .LVU57
 270              		.loc 1 40 9 is_stmt 0 view .LVU58
 271 00aa 0023     		movs	r3, #0
 272 00ac 0B93     		str	r3, [sp, #44]
  41:My_Top/System/My_CLI.cpp ****     // èژ·هڈ–CLIه®‍ن¾‹
ARM GAS  /tmp/cc73j0Ob.s 			page 7


  42:My_Top/System/My_CLI.cpp ****     CLI_Module *mc = CLI_Module::get_cli_module(cli);
 273              		.loc 1 42 5 is_stmt 1 view .LVU59
 274              		.loc 1 42 48 is_stmt 0 view .LVU60
 275 00ae FFF7FEFF 		bl	_ZN10CLI_Module14get_cli_moduleEP11EmbeddedCli
 276              	.LVL26:
  43:My_Top/System/My_CLI.cpp ****     if (mc == NULL) return;
 277              		.loc 1 43 5 is_stmt 1 view .LVU61
 278 00b2 88B1     		cbz	r0, .L22
  44:My_Top/System/My_CLI.cpp **** 
  45:My_Top/System/My_CLI.cpp ****     // è§£و‍گهڈ‚و•°
  46:My_Top/System/My_CLI.cpp ****     const char *arg_list[CLI_MODULE_MAX_ARGS_NUM]; //و•°وچ®ه­کو”¾هŒ؛ è¶…é™گهڈھن؟‌ه­که‰چCLI_MODULE_M
 279              		.loc 1 46 5 view .LVU62
  47:My_Top/System/My_CLI.cpp ****     int argc = CLI_Module::init_arg_list(arg_list, args);
 280              		.loc 1 47 5 view .LVU63
 281              		.loc 1 47 41 is_stmt 0 view .LVU64
 282 00b4 01AD     		add	r5, sp, #4
 283 00b6 2146     		mov	r1, r4
 284 00b8 2846     		mov	r0, r5
 285              	.LVL27:
 286              		.loc 1 47 41 view .LVU65
 287 00ba FFF7FEFF 		bl	_ZN10CLI_Module13init_arg_listEPPKcS1_
 288              	.LVL28:
 289 00be 0146     		mov	r1, r0
 290              	.LVL29:
  48:My_Top/System/My_CLI.cpp ****     DC_Motor *m = get_motor_by_arg(arg_list, argc,&idx); //èژ·هڈ–ç”µوœ؛ه¯¹è±،
 291              		.loc 1 48 5 is_stmt 1 view .LVU66
 292              		.loc 1 48 35 is_stmt 0 view .LVU67
 293 00c0 0BAA     		add	r2, sp, #44
 294 00c2 2846     		mov	r0, r5
 295              	.LVL30:
 296              		.loc 1 48 35 view .LVU68
 297 00c4 FFF7FEFF 		bl	_Z16get_motor_by_argPPKciPi
 298              	.LVL31:
  49:My_Top/System/My_CLI.cpp ****     if (!m) return;
 299              		.loc 1 49 5 is_stmt 1 view .LVU69
 300 00c8 30B1     		cbz	r0, .L22
  50:My_Top/System/My_CLI.cpp ****     m->Motor_EN(false); // ه…³é—­PWMè¾“ه‡؛
 301              		.loc 1 50 5 view .LVU70
 302              		.loc 1 50 16 is_stmt 0 view .LVU71
 303 00ca 0021     		movs	r1, #0
 304 00cc FFF7FEFF 		bl	_ZN8DC_Motor8Motor_ENEb
 305              	.LVL32:
  51:My_Top/System/My_CLI.cpp ****     printf("هپœو­¢ç”µوœ؛ M%d\r\n", idx);
 306              		.loc 1 51 5 is_stmt 1 view .LVU72
 307              		.loc 1 51 11 is_stmt 0 view .LVU73
 308 00d0 0B99     		ldr	r1, [sp, #44]
 309 00d2 0248     		ldr	r0, .L26
 310 00d4 FFF7FEFF 		bl	printf_
 311              	.LVL33:
 312              	.L22:
  52:My_Top/System/My_CLI.cpp **** }
 313              		.loc 1 52 1 view .LVU74
 314 00d8 0DB0     		add	sp, sp, #52
 315              		.cfi_def_cfa_offset 12
 316              		@ sp needed
 317 00da 30BD     		pop	{r4, r5, pc}
 318              	.LVL34:
ARM GAS  /tmp/cc73j0Ob.s 			page 8


 319              	.L27:
 320              		.loc 1 52 1 view .LVU75
 321              		.align	2
 322              	.L26:
 323 00dc 48000000 		.word	.LC3
 324              		.cfi_endproc
 325              	.LFE1362:
 327              		.section	.rodata.str1.4
 328 005b 00       		.align	2
 329              	.LC4:
 330 005c E9A9B1E5 		.ascii	"\351\251\261\345\212\250\346\235\277\351\207\215\345"
 330      8AA8E69D 
 330      BFE9878D 
 330      E5
 331 0069 90AF0D0A 		.ascii	"\220\257\015\012\000"
 331      00
 332              		.text
 333              		.align	1
 334              		.global	_Z5resetP11EmbeddedCliPcPv
 335              		.syntax unified
 336              		.thumb
 337              		.thumb_func
 339              	_Z5resetP11EmbeddedCliPcPv:
 340              	.LVL35:
 341              	.LFB1363:
  53:My_Top/System/My_CLI.cpp **** 
  54:My_Top/System/My_CLI.cpp **** 
  55:My_Top/System/My_CLI.cpp **** void reset(EmbeddedCli *cli, char *args, void *context) //é©±هٹ¨و‌؟é‡چهگ¯
  56:My_Top/System/My_CLI.cpp **** {
 342              		.loc 1 56 1 is_stmt 1 view -0
 343              		.cfi_startproc
 344              		@ args = 0, pretend = 0, frame = 40
 345              		@ frame_needed = 0, uses_anonymous_args = 0
 346              		.loc 1 56 1 is_stmt 0 view .LVU77
 347 00e0 10B5     		push	{r4, lr}
 348              		.cfi_def_cfa_offset 8
 349              		.cfi_offset 4, -8
 350              		.cfi_offset 14, -4
 351 00e2 8AB0     		sub	sp, sp, #40
 352              		.cfi_def_cfa_offset 48
 353 00e4 0C46     		mov	r4, r1
  57:My_Top/System/My_CLI.cpp ****     // èژ·هڈ–CLIه®‍ن¾‹
  58:My_Top/System/My_CLI.cpp ****     CLI_Module *mc = CLI_Module::get_cli_module(cli);
 354              		.loc 1 58 5 is_stmt 1 view .LVU78
 355              		.loc 1 58 48 is_stmt 0 view .LVU79
 356 00e6 FFF7FEFF 		bl	_ZN10CLI_Module14get_cli_moduleEP11EmbeddedCli
 357              	.LVL36:
  59:My_Top/System/My_CLI.cpp ****     if (mc == NULL) return;
 358              		.loc 1 59 5 is_stmt 1 view .LVU80
 359 00ea 40B1     		cbz	r0, .L28
  60:My_Top/System/My_CLI.cpp **** 
  61:My_Top/System/My_CLI.cpp ****     // è§£و‍گهڈ‚و•°
  62:My_Top/System/My_CLI.cpp ****     const char *arg_list[CLI_MODULE_MAX_ARGS_NUM]; //و•°وچ®ه­کو”¾هŒ؛ è¶…é™گهڈھن؟‌ه­که‰چCLI_MODULE_M
 360              		.loc 1 62 5 view .LVU81
  63:My_Top/System/My_CLI.cpp ****     int argc = CLI_Module::init_arg_list(arg_list, args);
 361              		.loc 1 63 5 view .LVU82
 362              		.loc 1 63 41 is_stmt 0 view .LVU83
ARM GAS  /tmp/cc73j0Ob.s 			page 9


 363 00ec 2146     		mov	r1, r4
 364 00ee 6846     		mov	r0, sp
 365              	.LVL37:
 366              		.loc 1 63 41 view .LVU84
 367 00f0 FFF7FEFF 		bl	_ZN10CLI_Module13init_arg_listEPPKcS1_
 368              	.LVL38:
  64:My_Top/System/My_CLI.cpp **** 
  65:My_Top/System/My_CLI.cpp ****     HAL_NVIC_SystemReset();//ه¤چن½چèٹ¯ç‰‡
 369              		.loc 1 65 5 is_stmt 1 view .LVU85
 370              		.loc 1 65 25 is_stmt 0 view .LVU86
 371 00f4 FFF7FEFF 		bl	HAL_NVIC_SystemReset
 372              	.LVL39:
  66:My_Top/System/My_CLI.cpp ****     printf("é©±هٹ¨و‌؟é‡چهگ¯\r\n");
 373              		.loc 1 66 5 is_stmt 1 view .LVU87
 374              		.loc 1 66 11 is_stmt 0 view .LVU88
 375 00f8 0248     		ldr	r0, .L32
 376 00fa FFF7FEFF 		bl	printf_
 377              	.LVL40:
 378              	.L28:
  67:My_Top/System/My_CLI.cpp **** 
  68:My_Top/System/My_CLI.cpp **** }
 379              		.loc 1 68 1 view .LVU89
 380 00fe 0AB0     		add	sp, sp, #40
 381              		.cfi_def_cfa_offset 8
 382              		@ sp needed
 383 0100 10BD     		pop	{r4, pc}
 384              	.LVL41:
 385              	.L33:
 386              		.loc 1 68 1 view .LVU90
 387 0102 00BF     		.align	2
 388              	.L32:
 389 0104 5C000000 		.word	.LC4
 390              		.cfi_endproc
 391              	.LFE1363:
 393              		.section	.rodata.str1.4
 394 006e 0000     		.align	2
 395              	.LC5:
 396 0070 E6B885E9 		.ascii	"\346\270\205\351\231\244M%d\347\224\265\346\234\272"
 396      99A44D25 
 396      64E794B5 
 396      E69CBA
 397 007f E6A087E5 		.ascii	"\346\240\207\345\277\227\344\275\215 \346\210\220\345"
 397      BF97E4BD 
 397      8D20E688 
 397      90E5
 398 008d 8A9F0D0A 		.ascii	"\212\237\015\012\000"
 398      00
 399 0092 0000     		.align	2
 400              	.LC6:
 401 0094 E6B885E9 		.ascii	"\346\270\205\351\231\244M%d\347\224\265\346\234\272"
 401      99A44D25 
 401      64E794B5 
 401      E69CBA
 402 00a3 E6A087E5 		.ascii	"\346\240\207\345\277\227\344\275\215 \345\244\261\350"
 402      BF97E4BD 
 402      8D20E5A4 
 402      B1E8
ARM GAS  /tmp/cc73j0Ob.s 			page 10


 403 00b1 B4A50D0A 		.ascii	"\264\245\015\012\000"
 403      00
 404              		.text
 405              		.align	1
 406              		.global	_Z12clear_eepromP11EmbeddedCliPcPv
 407              		.syntax unified
 408              		.thumb
 409              		.thumb_func
 411              	_Z12clear_eepromP11EmbeddedCliPcPv:
 412              	.LVL42:
 413              	.LFB1364:
  69:My_Top/System/My_CLI.cpp **** 
  70:My_Top/System/My_CLI.cpp **** void clear_eeprom(EmbeddedCli *cli, char *args, void *context) //و¸…ç©؛وŒ‡ه®ڑç”µوœ؛çڑ„eepromو ‡ه؟—ن
  71:My_Top/System/My_CLI.cpp **** {
 414              		.loc 1 71 1 is_stmt 1 view -0
 415              		.cfi_startproc
 416              		@ args = 0, pretend = 0, frame = 48
 417              		@ frame_needed = 0, uses_anonymous_args = 0
 418              		.loc 1 71 1 is_stmt 0 view .LVU92
 419 0108 30B5     		push	{r4, r5, lr}
 420              		.cfi_def_cfa_offset 12
 421              		.cfi_offset 4, -12
 422              		.cfi_offset 5, -8
 423              		.cfi_offset 14, -4
 424 010a 8DB0     		sub	sp, sp, #52
 425              		.cfi_def_cfa_offset 64
 426 010c 0C46     		mov	r4, r1
  72:My_Top/System/My_CLI.cpp ****     int idx = 0;
 427              		.loc 1 72 5 is_stmt 1 view .LVU93
 428              		.loc 1 72 9 is_stmt 0 view .LVU94
 429 010e 0023     		movs	r3, #0
 430 0110 0B93     		str	r3, [sp, #44]
  73:My_Top/System/My_CLI.cpp ****     bool clear_flag = false;
 431              		.loc 1 73 5 is_stmt 1 view .LVU95
 432              	.LVL43:
  74:My_Top/System/My_CLI.cpp ****     // èژ·هڈ–CLIه®‍ن¾‹
  75:My_Top/System/My_CLI.cpp ****     CLI_Module *mc = CLI_Module::get_cli_module(cli);
 433              		.loc 1 75 5 view .LVU96
 434              		.loc 1 75 48 is_stmt 0 view .LVU97
 435 0112 FFF7FEFF 		bl	_ZN10CLI_Module14get_cli_moduleEP11EmbeddedCli
 436              	.LVL44:
  76:My_Top/System/My_CLI.cpp ****     if (mc == NULL) return;
 437              		.loc 1 76 5 is_stmt 1 view .LVU98
 438 0116 90B1     		cbz	r0, .L34
  77:My_Top/System/My_CLI.cpp **** 
  78:My_Top/System/My_CLI.cpp ****     // è§£و‍گهڈ‚و•°
  79:My_Top/System/My_CLI.cpp ****     const char *arg_list[CLI_MODULE_MAX_ARGS_NUM]; //و•°وچ®ه­کو”¾هŒ؛ è¶…é™گهڈھن؟‌ه­که‰چCLI_MODULE_M
 439              		.loc 1 79 5 view .LVU99
  80:My_Top/System/My_CLI.cpp ****     int argc = CLI_Module::init_arg_list(arg_list, args);
 440              		.loc 1 80 5 view .LVU100
 441              		.loc 1 80 41 is_stmt 0 view .LVU101
 442 0118 01AD     		add	r5, sp, #4
 443 011a 2146     		mov	r1, r4
 444 011c 2846     		mov	r0, r5
 445              	.LVL45:
 446              		.loc 1 80 41 view .LVU102
 447 011e FFF7FEFF 		bl	_ZN10CLI_Module13init_arg_listEPPKcS1_
ARM GAS  /tmp/cc73j0Ob.s 			page 11


 448              	.LVL46:
 449 0122 0146     		mov	r1, r0
 450              	.LVL47:
  81:My_Top/System/My_CLI.cpp ****     DC_Motor *m = get_motor_by_arg(arg_list, argc,&idx); //èژ·هڈ–ç”µوœ؛ه¯¹è±،
 451              		.loc 1 81 5 is_stmt 1 view .LVU103
 452              		.loc 1 81 35 is_stmt 0 view .LVU104
 453 0124 0BAA     		add	r2, sp, #44
 454 0126 2846     		mov	r0, r5
 455              	.LVL48:
 456              		.loc 1 81 35 view .LVU105
 457 0128 FFF7FEFF 		bl	_Z16get_motor_by_argPPKciPi
 458              	.LVL49:
  82:My_Top/System/My_CLI.cpp ****     clear_flag = Motor_Storage::clear(idx);
 459              		.loc 1 82 5 is_stmt 1 view .LVU106
 460              		.loc 1 82 38 is_stmt 0 view .LVU107
 461 012c 9DF82C00 		ldrb	r0, [sp, #44]	@ zero_extendqisi2
 462 0130 FFF7FEFF 		bl	_ZN13Motor_Storage5clearEh
 463              	.LVL50:
  83:My_Top/System/My_CLI.cpp ****     if(clear_flag)printf("و¸…é™¤M%dç”µوœ؛و ‡ه؟—ن½چ وˆگهٹں\r\n",idx);
 464              		.loc 1 83 5 is_stmt 1 view .LVU108
 465 0134 28B1     		cbz	r0, .L37
 466              		.loc 1 83 19 discriminator 1 view .LVU109
 467              		.loc 1 83 25 is_stmt 0 discriminator 1 view .LVU110
 468 0136 0B99     		ldr	r1, [sp, #44]
 469 0138 0448     		ldr	r0, .L40
 470              	.LVL51:
 471              		.loc 1 83 25 discriminator 1 view .LVU111
 472 013a FFF7FEFF 		bl	printf_
 473              	.LVL52:
 474              	.L34:
  84:My_Top/System/My_CLI.cpp ****     else printf("و¸…é™¤M%dç”µوœ؛و ‡ه؟—ن½چ ه¤±è´¥\r\n",idx);
  85:My_Top/System/My_CLI.cpp **** }
 475              		.loc 1 85 1 view .LVU112
 476 013e 0DB0     		add	sp, sp, #52
 477              		.cfi_remember_state
 478              		.cfi_def_cfa_offset 12
 479              		@ sp needed
 480 0140 30BD     		pop	{r4, r5, pc}
 481              	.LVL53:
 482              	.L37:
 483              		.cfi_restore_state
  84:My_Top/System/My_CLI.cpp ****     else printf("و¸…é™¤M%dç”µوœ؛و ‡ه؟—ن½چ ه¤±è´¥\r\n",idx);
 484              		.loc 1 84 10 is_stmt 1 view .LVU113
  84:My_Top/System/My_CLI.cpp ****     else printf("و¸…é™¤M%dç”µوœ؛و ‡ه؟—ن½چ ه¤±è´¥\r\n",idx);
 485              		.loc 1 84 16 is_stmt 0 view .LVU114
 486 0142 0B99     		ldr	r1, [sp, #44]
 487 0144 0248     		ldr	r0, .L40+4
 488              	.LVL54:
  84:My_Top/System/My_CLI.cpp ****     else printf("و¸…é™¤M%dç”µوœ؛و ‡ه؟—ن½چ ه¤±è´¥\r\n",idx);
 489              		.loc 1 84 16 view .LVU115
 490 0146 FFF7FEFF 		bl	printf_
 491              	.LVL55:
 492 014a F8E7     		b	.L34
 493              	.L41:
 494              		.align	2
 495              	.L40:
 496 014c 70000000 		.word	.LC5
ARM GAS  /tmp/cc73j0Ob.s 			page 12


 497 0150 94000000 		.word	.LC6
 498              		.cfi_endproc
 499              	.LFE1364:
 501              		.section	.rodata.str1.4
 502 00b6 0000     		.align	2
 503              	.LC7:
 504 00b8 4D2564E7 		.ascii	"M%d\347\224\265\346\234\272\345\217\202\346\225\260"
 504      94B5E69C 
 504      BAE58F82 
 504      E695B0
 505 00c7 E4BF9DE5 		.ascii	"\344\277\235\345\255\230\346\210\220\345\212\237\015"
 505      AD98E688 
 505      90E58A9F 
 505      0D
 506 00d4 0A00     		.ascii	"\012\000"
 507 00d6 0000     		.align	2
 508              	.LC8:
 509 00d8 4D2564E7 		.ascii	"M%d\347\224\265\346\234\272\345\217\202\346\225\260"
 509      94B5E69C 
 509      BAE58F82 
 509      E695B0
 510 00e7 E4BF9DE5 		.ascii	"\344\277\235\345\255\230\345\244\261\350\264\245\015"
 510      AD98E5A4 
 510      B1E8B4A5 
 510      0D
 511 00f4 0A00     		.ascii	"\012\000"
 512              		.text
 513              		.align	1
 514              		.global	_Z4saveP11EmbeddedCliPcPv
 515              		.syntax unified
 516              		.thumb
 517              		.thumb_func
 519              	_Z4saveP11EmbeddedCliPcPv:
 520              	.LVL56:
 521              	.LFB1365:
  86:My_Top/System/My_CLI.cpp **** 
  87:My_Top/System/My_CLI.cpp **** void save(EmbeddedCli *cli, char *args, void *context) //هڈ‚و•°ن؟‌ه­ک
  88:My_Top/System/My_CLI.cpp **** {
 522              		.loc 1 88 1 is_stmt 1 view -0
 523              		.cfi_startproc
 524              		@ args = 0, pretend = 0, frame = 48
 525              		@ frame_needed = 0, uses_anonymous_args = 0
 526              		.loc 1 88 1 is_stmt 0 view .LVU117
 527 0154 30B5     		push	{r4, r5, lr}
 528              		.cfi_def_cfa_offset 12
 529              		.cfi_offset 4, -12
 530              		.cfi_offset 5, -8
 531              		.cfi_offset 14, -4
 532 0156 8DB0     		sub	sp, sp, #52
 533              		.cfi_def_cfa_offset 64
 534 0158 0C46     		mov	r4, r1
  89:My_Top/System/My_CLI.cpp ****     int idx = 0;
 535              		.loc 1 89 5 is_stmt 1 view .LVU118
 536              		.loc 1 89 9 is_stmt 0 view .LVU119
 537 015a 0023     		movs	r3, #0
 538 015c 0B93     		str	r3, [sp, #44]
  90:My_Top/System/My_CLI.cpp ****     bool save_flag = false;
ARM GAS  /tmp/cc73j0Ob.s 			page 13


 539              		.loc 1 90 5 is_stmt 1 view .LVU120
 540              	.LVL57:
  91:My_Top/System/My_CLI.cpp ****     // èژ·هڈ–CLIه®‍ن¾‹
  92:My_Top/System/My_CLI.cpp ****     CLI_Module *mc = CLI_Module::get_cli_module(cli);
 541              		.loc 1 92 5 view .LVU121
 542              		.loc 1 92 48 is_stmt 0 view .LVU122
 543 015e FFF7FEFF 		bl	_ZN10CLI_Module14get_cli_moduleEP11EmbeddedCli
 544              	.LVL58:
  93:My_Top/System/My_CLI.cpp ****     if (mc == NULL) return;
 545              		.loc 1 93 5 is_stmt 1 view .LVU123
 546 0162 98B1     		cbz	r0, .L42
  94:My_Top/System/My_CLI.cpp **** 
  95:My_Top/System/My_CLI.cpp ****     // è§£و‍گهڈ‚و•°
  96:My_Top/System/My_CLI.cpp ****     const char *arg_list[CLI_MODULE_MAX_ARGS_NUM]; //و•°وچ®ه­کو”¾هŒ؛ è¶…é™گهڈھن؟‌ه­که‰چCLI_MODULE_M
 547              		.loc 1 96 5 view .LVU124
  97:My_Top/System/My_CLI.cpp ****     int argc = CLI_Module::init_arg_list(arg_list, args);
 548              		.loc 1 97 5 view .LVU125
 549              		.loc 1 97 41 is_stmt 0 view .LVU126
 550 0164 01AD     		add	r5, sp, #4
 551 0166 2146     		mov	r1, r4
 552 0168 2846     		mov	r0, r5
 553              	.LVL59:
 554              		.loc 1 97 41 view .LVU127
 555 016a FFF7FEFF 		bl	_ZN10CLI_Module13init_arg_listEPPKcS1_
 556              	.LVL60:
 557 016e 0146     		mov	r1, r0
 558              	.LVL61:
  98:My_Top/System/My_CLI.cpp ****     DC_Motor *m = get_motor_by_arg(arg_list, argc,&idx); //èژ·هڈ–ç”µوœ؛ه¯¹è±،
 559              		.loc 1 98 5 is_stmt 1 view .LVU128
 560              		.loc 1 98 35 is_stmt 0 view .LVU129
 561 0170 0BAA     		add	r2, sp, #44
 562 0172 2846     		mov	r0, r5
 563              	.LVL62:
 564              		.loc 1 98 35 view .LVU130
 565 0174 FFF7FEFF 		bl	_Z16get_motor_by_argPPKciPi
 566              	.LVL63:
  99:My_Top/System/My_CLI.cpp ****     if (!m) return;
 567              		.loc 1 99 5 is_stmt 1 view .LVU131
 568 0178 40B1     		cbz	r0, .L42
 100:My_Top/System/My_CLI.cpp ****     save_flag = Motor_Storage::save(idx);
 569              		.loc 1 100 5 view .LVU132
 570              		.loc 1 100 36 is_stmt 0 view .LVU133
 571 017a 9DF82C00 		ldrb	r0, [sp, #44]	@ zero_extendqisi2
 572              	.LVL64:
 573              		.loc 1 100 36 view .LVU134
 574 017e FFF7FEFF 		bl	_ZN13Motor_Storage4saveEh
 575              	.LVL65:
 101:My_Top/System/My_CLI.cpp ****     if(save_flag) printf("M%dç”µوœ؛هڈ‚و•°ن؟‌ه­کوˆگهٹں\r\n",idx);
 576              		.loc 1 101 5 is_stmt 1 view .LVU135
 577 0182 28B1     		cbz	r0, .L44
 578              		.loc 1 101 19 discriminator 1 view .LVU136
 579              		.loc 1 101 25 is_stmt 0 discriminator 1 view .LVU137
 580 0184 0B99     		ldr	r1, [sp, #44]
 581 0186 0548     		ldr	r0, .L48
 582              	.LVL66:
 583              		.loc 1 101 25 discriminator 1 view .LVU138
 584 0188 FFF7FEFF 		bl	printf_
ARM GAS  /tmp/cc73j0Ob.s 			page 14


 585              	.LVL67:
 586              	.L42:
 102:My_Top/System/My_CLI.cpp ****     else printf("M%dç”µوœ؛هڈ‚و•°ن؟‌ه­که¤±è´¥\r\n",idx);
 103:My_Top/System/My_CLI.cpp **** }
 587              		.loc 1 103 1 view .LVU139
 588 018c 0DB0     		add	sp, sp, #52
 589              		.cfi_remember_state
 590              		.cfi_def_cfa_offset 12
 591              		@ sp needed
 592 018e 30BD     		pop	{r4, r5, pc}
 593              	.LVL68:
 594              	.L44:
 595              		.cfi_restore_state
 102:My_Top/System/My_CLI.cpp ****     else printf("M%dç”µوœ؛هڈ‚و•°ن؟‌ه­که¤±è´¥\r\n",idx);
 596              		.loc 1 102 10 is_stmt 1 view .LVU140
 102:My_Top/System/My_CLI.cpp ****     else printf("M%dç”µوœ؛هڈ‚و•°ن؟‌ه­که¤±è´¥\r\n",idx);
 597              		.loc 1 102 16 is_stmt 0 view .LVU141
 598 0190 0B99     		ldr	r1, [sp, #44]
 599 0192 0348     		ldr	r0, .L48+4
 600              	.LVL69:
 102:My_Top/System/My_CLI.cpp ****     else printf("M%dç”µوœ؛هڈ‚و•°ن؟‌ه­که¤±è´¥\r\n",idx);
 601              		.loc 1 102 16 view .LVU142
 602 0194 FFF7FEFF 		bl	printf_
 603              	.LVL70:
 604 0198 F8E7     		b	.L42
 605              	.L49:
 606 019a 00BF     		.align	2
 607              	.L48:
 608 019c B8000000 		.word	.LC7
 609 01a0 D8000000 		.word	.LC8
 610              		.cfi_endproc
 611              	.LFE1365:
 613              		.section	.rodata.str1.4
 614 00f6 0000     		.align	2
 615              	.LC9:
 616 00f8 E58F82E6 		.ascii	"\345\217\202\346\225\260\346\240\274\345\274\217\351"
 616      95B0E6A0 
 616      BCE5BC8F 
 616      E9
 617 0105 9499E8AF 		.ascii	"\224\231\350\257\257\015\012\000"
 617      AF0D0A00 
 618 010d 000000   		.align	2
 619              	.LC10:
 620 0110 E794B5E6 		.ascii	"\347\224\265\346\234\272M%d \350\256\276\347\275\256"
 620      9CBA4D25 
 620      6420E8AE 
 620      BEE7BDAE 
 621 0120 E5BD93E5 		.ascii	"\345\275\223\345\211\215\350\247\222\345\272\246\344"
 621      898DE8A7 
 621      92E5BAA6 
 621      E4
 622 012d B8BA252E 		.ascii	"\270\272%.2f\345\272\246\015\012\000"
 622      3266E5BA 
 622      A60D0A00 
 623              		.text
 624              		.align	1
 625              		.global	_Z8set_zeroP11EmbeddedCliPcPv
ARM GAS  /tmp/cc73j0Ob.s 			page 15


 626              		.syntax unified
 627              		.thumb
 628              		.thumb_func
 630              	_Z8set_zeroP11EmbeddedCliPcPv:
 631              	.LVL71:
 632              	.LFB1366:
 104:My_Top/System/My_CLI.cpp **** 
 105:My_Top/System/My_CLI.cpp **** 
 106:My_Top/System/My_CLI.cpp **** 
 107:My_Top/System/My_CLI.cpp **** 
 108:My_Top/System/My_CLI.cpp **** void set_zero(EmbeddedCli *cli, char *args, void *context) //è®¾ç½®0ç‚¹هچ•ن½چآ°
 109:My_Top/System/My_CLI.cpp **** {
 633              		.loc 1 109 1 is_stmt 1 view -0
 634              		.cfi_startproc
 635              		@ args = 0, pretend = 0, frame = 48
 636              		@ frame_needed = 0, uses_anonymous_args = 0
 637              		.loc 1 109 1 is_stmt 0 view .LVU144
 638 01a4 2DE9F041 		push	{r4, r5, r6, r7, r8, lr}
 639              		.cfi_def_cfa_offset 24
 640              		.cfi_offset 4, -24
 641              		.cfi_offset 5, -20
 642              		.cfi_offset 6, -16
 643              		.cfi_offset 7, -12
 644              		.cfi_offset 8, -8
 645              		.cfi_offset 14, -4
 646 01a8 8CB0     		sub	sp, sp, #48
 647              		.cfi_def_cfa_offset 72
 648 01aa 0C46     		mov	r4, r1
 110:My_Top/System/My_CLI.cpp ****     int idx = 0;
 649              		.loc 1 110 5 is_stmt 1 view .LVU145
 650              		.loc 1 110 9 is_stmt 0 view .LVU146
 651 01ac 0023     		movs	r3, #0
 652 01ae 0B93     		str	r3, [sp, #44]
 111:My_Top/System/My_CLI.cpp ****     char *end;
 653              		.loc 1 111 5 is_stmt 1 view .LVU147
 112:My_Top/System/My_CLI.cpp ****     // èژ·هڈ–CLIه®‍ن¾‹
 113:My_Top/System/My_CLI.cpp ****     CLI_Module *mc = CLI_Module::get_cli_module(cli);
 654              		.loc 1 113 5 view .LVU148
 655              		.loc 1 113 48 is_stmt 0 view .LVU149
 656 01b0 FFF7FEFF 		bl	_ZN10CLI_Module14get_cli_moduleEP11EmbeddedCli
 657              	.LVL72:
 114:My_Top/System/My_CLI.cpp ****     if (mc == NULL) return;
 658              		.loc 1 114 5 is_stmt 1 view .LVU150
 659 01b4 0028     		cmp	r0, #0
 660 01b6 50D0     		beq	.L50
 115:My_Top/System/My_CLI.cpp ****     // è§£و‍گهڈ‚و•°
 116:My_Top/System/My_CLI.cpp ****     const char *arg_list[CLI_MODULE_MAX_ARGS_NUM]; //و•°وچ®ه­کو”¾هŒ؛ è¶…é™گهڈھن؟‌ه­که‰چCLI_MODULE_M
 661              		.loc 1 116 5 view .LVU151
 117:My_Top/System/My_CLI.cpp ****     int argc = CLI_Module::init_arg_list(arg_list, args);
 662              		.loc 1 117 5 view .LVU152
 663              		.loc 1 117 41 is_stmt 0 view .LVU153
 664 01b8 2146     		mov	r1, r4
 665 01ba 6846     		mov	r0, sp
 666              	.LVL73:
 667              		.loc 1 117 41 view .LVU154
 668 01bc FFF7FEFF 		bl	_ZN10CLI_Module13init_arg_listEPPKcS1_
 669              	.LVL74:
ARM GAS  /tmp/cc73j0Ob.s 			page 16


 670 01c0 0146     		mov	r1, r0
 671              	.LVL75:
 118:My_Top/System/My_CLI.cpp ****     DC_Motor *m = get_motor_by_arg(arg_list, argc,&idx); //èژ·هڈ–ç”µوœ؛ه¯¹è±،
 672              		.loc 1 118 5 is_stmt 1 view .LVU155
 673              		.loc 1 118 35 is_stmt 0 view .LVU156
 674 01c2 0BAA     		add	r2, sp, #44
 675 01c4 6846     		mov	r0, sp
 676              	.LVL76:
 677              		.loc 1 118 35 view .LVU157
 678 01c6 FFF7FEFF 		bl	_Z16get_motor_by_argPPKciPi
 679              	.LVL77:
 119:My_Top/System/My_CLI.cpp ****     if (!m) return;
 680              		.loc 1 119 5 is_stmt 1 view .LVU158
 681 01ca 8046     		mov	r8, r0
 682 01cc 0028     		cmp	r0, #0
 683 01ce 44D0     		beq	.L50
 120:My_Top/System/My_CLI.cpp ****     float temp = strtof(arg_list[2], &end); //ه°†ه­—ç¬¦ن¸²è½¬وچ¢ن¸؛وµ®ç‚¹و•°
 684              		.loc 1 120 5 view .LVU159
 685              		.loc 1 120 24 is_stmt 0 view .LVU160
 686 01d0 0AA9     		add	r1, sp, #40
 687 01d2 0298     		ldr	r0, [sp, #8]
 688              	.LVL78:
 689              		.loc 1 120 24 view .LVU161
 690 01d4 FFF7FEFF 		bl	strtof
 691              	.LVL79:
 692 01d8 10EE104A 		vmov	r4, s0
 693              	.LVL80:
 121:My_Top/System/My_CLI.cpp ****     if(end == arg_list[2]) 
 694              		.loc 1 121 5 is_stmt 1 view .LVU162
 695 01dc 029A     		ldr	r2, [sp, #8]
 696 01de 0A9B     		ldr	r3, [sp, #40]
 697 01e0 9A42     		cmp	r2, r3
 698 01e2 3DD0     		beq	.L58
 122:My_Top/System/My_CLI.cpp ****     {
 123:My_Top/System/My_CLI.cpp ****         printf("هڈ‚و•°و ¼ه¼ڈé”™è¯¯\r\n");
 124:My_Top/System/My_CLI.cpp ****         return;
 125:My_Top/System/My_CLI.cpp ****     }
 126:My_Top/System/My_CLI.cpp ****     m->zero_offset = wrap_to_PI(m->theta_temp - deg2rad(temp) );
 699              		.loc 1 126 5 view .LVU163
 700              	.LBB2:
 701              		.loc 1 126 22 view .LVU164
 702 01e4 D8F81400 		ldr	r0, [r8, #20]	@ float
 703 01e8 FFF7FEFF 		bl	__aeabi_f2d
 704              	.LVL81:
 705 01ec 0646     		mov	r6, r0
 706 01ee 0F46     		mov	r7, r1
 707 01f0 2046     		mov	r0, r4	@ float
 708 01f2 FFF7FEFF 		bl	__aeabi_f2d
 709              	.LVL82:
 710 01f6 0446     		mov	r4, r0
 711              	.LVL83:
 712              		.loc 1 126 22 is_stmt 0 view .LVU165
 713 01f8 0D46     		mov	r5, r1
 714 01fa 24A3     		adr	r3, .L60+20
 715 01fc D3E90023 		ldrd	r2, [r3]
 716 0200 FFF7FEFF 		bl	__aeabi_dmul
 717              	.LVL84:
ARM GAS  /tmp/cc73j0Ob.s 			page 17


 718 0204 0246     		mov	r2, r0
 719 0206 0B46     		mov	r3, r1
 720 0208 3046     		mov	r0, r6
 721 020a 3946     		mov	r1, r7
 722 020c FFF7FEFF 		bl	__aeabi_dsub
 723              	.LVL85:
 724 0210 19A3     		adr	r3, .L60
 725 0212 D3E90023 		ldrd	r2, [r3]
 726 0216 FFF7FEFF 		bl	__aeabi_dadd
 727              	.LVL86:
 728 021a FFF7FEFF 		bl	__aeabi_d2f
 729              	.LVL87:
 730 021e DFED180A 		vldr.32	s1, .L60+8
 731 0222 00EE100A 		vmov	s0, r0
 732 0226 FFF7FEFF 		bl	fmodf
 733              	.LVL88:
 734              		.loc 1 126 22 is_stmt 1 discriminator 1 view .LVU166
 735 022a B5EEC00A 		vcmpe.f32	s0, #0
 736 022e F1EE10FA 		vmrs	APSR_nzcv, FPSCR
 737 0232 19D4     		bmi	.L59
 738              	.LVL89:
 739              	.L53:
 740              		.loc 1 126 22 discriminator 3 view .LVU167
 741 0234 10EE100A 		vmov	r0, s0
 742 0238 FFF7FEFF 		bl	__aeabi_f2d
 743              	.LVL90:
 744              		.loc 1 126 22 is_stmt 0 discriminator 3 view .LVU168
 745 023c 0EA3     		adr	r3, .L60
 746 023e D3E90023 		ldrd	r2, [r3]
 747 0242 FFF7FEFF 		bl	__aeabi_dsub
 748              	.LVL91:
 749              	.LBE2:
 750 0246 FFF7FEFF 		bl	__aeabi_d2f
 751              	.LVL92:
 752              		.loc 1 126 20 discriminator 3 view .LVU169
 753 024a C8F82C00 		str	r0, [r8, #44]	@ float
 127:My_Top/System/My_CLI.cpp ****     printf("ç”µوœ؛M%d è®¾ç½®ه½“ه‰چè§’ه؛¦ن¸؛%.2fه؛¦\r\n",idx,temp);
 754              		.loc 1 127 5 is_stmt 1 view .LVU170
 755              		.loc 1 127 11 is_stmt 0 view .LVU171
 756 024e 2246     		mov	r2, r4
 757 0250 2B46     		mov	r3, r5
 758 0252 0B99     		ldr	r1, [sp, #44]
 759 0254 0B48     		ldr	r0, .L60+12
 760 0256 FFF7FEFF 		bl	printf_
 761              	.LVL93:
 762              	.L50:
 128:My_Top/System/My_CLI.cpp **** }
 763              		.loc 1 128 1 view .LVU172
 764 025a 0CB0     		add	sp, sp, #48
 765              		.cfi_remember_state
 766              		.cfi_def_cfa_offset 24
 767              		@ sp needed
 768 025c BDE8F081 		pop	{r4, r5, r6, r7, r8, pc}
 769              	.LVL94:
 770              	.L58:
 771              		.cfi_restore_state
 123:My_Top/System/My_CLI.cpp ****         return;
ARM GAS  /tmp/cc73j0Ob.s 			page 18


 772              		.loc 1 123 9 is_stmt 1 view .LVU173
 123:My_Top/System/My_CLI.cpp ****         return;
 773              		.loc 1 123 15 is_stmt 0 view .LVU174
 774 0260 0948     		ldr	r0, .L60+16
 775 0262 FFF7FEFF 		bl	printf_
 776              	.LVL95:
 124:My_Top/System/My_CLI.cpp ****     }
 777              		.loc 1 124 9 is_stmt 1 view .LVU175
 778 0266 F8E7     		b	.L50
 779              	.LVL96:
 780              	.L59:
 781              	.LBB3:
 126:My_Top/System/My_CLI.cpp ****     printf("ç”µوœ؛M%d è®¾ç½®ه½“ه‰چè§’ه؛¦ن¸؛%.2fه؛¦\r\n",idx,temp);
 782              		.loc 1 126 22 discriminator 1 view .LVU176
 783 0268 DFED057A 		vldr.32	s15, .L60+8
 784 026c 30EE270A 		vadd.f32	s0, s0, s15
 785              	.LVL97:
 126:My_Top/System/My_CLI.cpp ****     printf("ç”µوœ؛M%d è®¾ç½®ه½“ه‰چè§’ه؛¦ن¸؛%.2fه؛¦\r\n",idx,temp);
 786              		.loc 1 126 22 is_stmt 0 discriminator 1 view .LVU177
 787 0270 E0E7     		b	.L53
 788              	.L61:
 789 0272 00BFAFF3 		.align	3
 789      0080
 790              	.L60:
 791 0278 182D4454 		.word	1413754136
 792 027c FB210940 		.word	1074340347
 793 0280 DB0FC940 		.word	1086918619
 794 0284 10010000 		.word	.LC10
 795 0288 F8000000 		.word	.LC9
 796 028c 399D52A2 		.word	-1571644103
 797 0290 46DF913F 		.word	1066524486
 798              	.LBE3:
 799              		.cfi_endproc
 800              	.LFE1366:
 802              		.section	.rodata.str1.4
 803 0139 000000   		.align	2
 804              	.LC11:
 805 013c E794B5E6 		.ascii	"\347\224\265\346\234\272M%d \351\242\221\347\216\207"
 805      9CBA4D25 
 805      6420E9A2 
 805      91E78E87 
 806 014c E8AEBEE7 		.ascii	"\350\256\276\347\275\256%.2fhz\015\012\000"
 806      BDAE252E 
 806      3266687A 
 806      0D0A00
 807              		.text
 808              		.align	1
 809              		.global	_Z7set_freP11EmbeddedCliPcPv
 810              		.syntax unified
 811              		.thumb
 812              		.thumb_func
 814              	_Z7set_freP11EmbeddedCliPcPv:
 815              	.LVL98:
 816              	.LFB1367:
 129:My_Top/System/My_CLI.cpp **** 
 130:My_Top/System/My_CLI.cpp **** 
 131:My_Top/System/My_CLI.cpp **** void set_fre(EmbeddedCli *cli, char *args, void *context) //è®¾ç½®ç”µوœ؛é¢‘çژ‡ هچ•ن½چ Hz
ARM GAS  /tmp/cc73j0Ob.s 			page 19


 132:My_Top/System/My_CLI.cpp **** {
 817              		.loc 1 132 1 is_stmt 1 view -0
 818              		.cfi_startproc
 819              		@ args = 0, pretend = 0, frame = 48
 820              		@ frame_needed = 0, uses_anonymous_args = 0
 821              		.loc 1 132 1 is_stmt 0 view .LVU179
 822 0294 30B5     		push	{r4, r5, lr}
 823              		.cfi_def_cfa_offset 12
 824              		.cfi_offset 4, -12
 825              		.cfi_offset 5, -8
 826              		.cfi_offset 14, -4
 827 0296 8DB0     		sub	sp, sp, #52
 828              		.cfi_def_cfa_offset 64
 829 0298 0C46     		mov	r4, r1
 133:My_Top/System/My_CLI.cpp ****     int idx = 0;
 830              		.loc 1 133 5 is_stmt 1 view .LVU180
 831              		.loc 1 133 9 is_stmt 0 view .LVU181
 832 029a 0023     		movs	r3, #0
 833 029c 0B93     		str	r3, [sp, #44]
 134:My_Top/System/My_CLI.cpp ****     char *end;
 834              		.loc 1 134 5 is_stmt 1 view .LVU182
 135:My_Top/System/My_CLI.cpp ****     // èژ·هڈ–CLIه®‍ن¾‹
 136:My_Top/System/My_CLI.cpp ****     CLI_Module *mc = CLI_Module::get_cli_module(cli);
 835              		.loc 1 136 5 view .LVU183
 836              		.loc 1 136 48 is_stmt 0 view .LVU184
 837 029e FFF7FEFF 		bl	_ZN10CLI_Module14get_cli_moduleEP11EmbeddedCli
 838              	.LVL99:
 137:My_Top/System/My_CLI.cpp ****     if (mc == NULL) return;
 839              		.loc 1 137 5 is_stmt 1 view .LVU185
 840 02a2 F0B1     		cbz	r0, .L62
 138:My_Top/System/My_CLI.cpp ****     // è§£و‍گهڈ‚و•°
 139:My_Top/System/My_CLI.cpp ****     const char *arg_list[CLI_MODULE_MAX_ARGS_NUM]; //و•°وچ®ه­کو”¾هŒ؛ è¶…é™گهڈھن؟‌ه­که‰چCLI_MODULE_M
 841              		.loc 1 139 5 view .LVU186
 140:My_Top/System/My_CLI.cpp ****     int argc = CLI_Module::init_arg_list(arg_list, args);
 842              		.loc 1 140 5 view .LVU187
 843              		.loc 1 140 41 is_stmt 0 view .LVU188
 844 02a4 2146     		mov	r1, r4
 845 02a6 6846     		mov	r0, sp
 846              	.LVL100:
 847              		.loc 1 140 41 view .LVU189
 848 02a8 FFF7FEFF 		bl	_ZN10CLI_Module13init_arg_listEPPKcS1_
 849              	.LVL101:
 850 02ac 0146     		mov	r1, r0
 851              	.LVL102:
 141:My_Top/System/My_CLI.cpp ****     DC_Motor *m = get_motor_by_arg(arg_list, argc,&idx); //èژ·هڈ–ç”µوœ؛ه¯¹è±،
 852              		.loc 1 141 5 is_stmt 1 view .LVU190
 853              		.loc 1 141 35 is_stmt 0 view .LVU191
 854 02ae 0BAA     		add	r2, sp, #44
 855 02b0 6846     		mov	r0, sp
 856              	.LVL103:
 857              		.loc 1 141 35 view .LVU192
 858 02b2 FFF7FEFF 		bl	_Z16get_motor_by_argPPKciPi
 859              	.LVL104:
 142:My_Top/System/My_CLI.cpp ****     if (!m) return;
 860              		.loc 1 142 5 is_stmt 1 view .LVU193
 861 02b6 0446     		mov	r4, r0
 862              	.LVL105:
ARM GAS  /tmp/cc73j0Ob.s 			page 20


 863              		.loc 1 142 5 is_stmt 0 view .LVU194
 864 02b8 98B1     		cbz	r0, .L62
 143:My_Top/System/My_CLI.cpp ****     float temp = strtof(arg_list[2], &end); //ه°†ه­—ç¬¦ن¸²è½¬وچ¢ن¸؛وµ®ç‚¹و•°
 865              		.loc 1 143 5 is_stmt 1 view .LVU195
 866              		.loc 1 143 24 is_stmt 0 view .LVU196
 867 02ba 0AA9     		add	r1, sp, #40
 868 02bc 0298     		ldr	r0, [sp, #8]
 869              	.LVL106:
 870              		.loc 1 143 24 view .LVU197
 871 02be FFF7FEFF 		bl	strtof
 872              	.LVL107:
 873 02c2 10EE100A 		vmov	r0, s0
 874              	.LVL108:
 144:My_Top/System/My_CLI.cpp ****     if(end == arg_list[2]) 
 875              		.loc 1 144 5 is_stmt 1 view .LVU198
 876 02c6 029A     		ldr	r2, [sp, #8]
 877 02c8 0A9B     		ldr	r3, [sp, #40]
 878 02ca 9A42     		cmp	r2, r3
 879 02cc 0BD0     		beq	.L67
 145:My_Top/System/My_CLI.cpp ****     {
 146:My_Top/System/My_CLI.cpp ****         printf("هڈ‚و•°و ¼ه¼ڈé”™è¯¯\r\n");
 147:My_Top/System/My_CLI.cpp ****         return;
 148:My_Top/System/My_CLI.cpp ****     }
 149:My_Top/System/My_CLI.cpp ****     m->motor_freq = temp;
 880              		.loc 1 149 5 view .LVU199
 881              		.loc 1 149 19 is_stmt 0 view .LVU200
 882 02ce 84ED010A 		vstr.32	s0, [r4, #4]
 150:My_Top/System/My_CLI.cpp ****     printf("ç”µوœ؛M%d é¢‘çژ‡è®¾ç½®%.2fhz\r\n",idx,temp);
 883              		.loc 1 150 5 is_stmt 1 view .LVU201
 884              		.loc 1 150 11 is_stmt 0 view .LVU202
 885 02d2 FFF7FEFF 		bl	__aeabi_f2d
 886              	.LVL109:
 887              		.loc 1 150 11 view .LVU203
 888 02d6 0246     		mov	r2, r0
 889 02d8 0B46     		mov	r3, r1
 890 02da 0B99     		ldr	r1, [sp, #44]
 891 02dc 0448     		ldr	r0, .L68
 892 02de FFF7FEFF 		bl	printf_
 893              	.LVL110:
 894              	.L62:
 151:My_Top/System/My_CLI.cpp **** }
 895              		.loc 1 151 1 view .LVU204
 896 02e2 0DB0     		add	sp, sp, #52
 897              		.cfi_remember_state
 898              		.cfi_def_cfa_offset 12
 899              		@ sp needed
 900 02e4 30BD     		pop	{r4, r5, pc}
 901              	.LVL111:
 902              	.L67:
 903              		.cfi_restore_state
 146:My_Top/System/My_CLI.cpp ****         return;
 904              		.loc 1 146 9 is_stmt 1 view .LVU205
 146:My_Top/System/My_CLI.cpp ****         return;
 905              		.loc 1 146 15 is_stmt 0 view .LVU206
 906 02e6 0348     		ldr	r0, .L68+4
 907              	.LVL112:
 146:My_Top/System/My_CLI.cpp ****         return;
ARM GAS  /tmp/cc73j0Ob.s 			page 21


 908              		.loc 1 146 15 view .LVU207
 909 02e8 FFF7FEFF 		bl	printf_
 910              	.LVL113:
 147:My_Top/System/My_CLI.cpp ****     }
 911              		.loc 1 147 9 is_stmt 1 view .LVU208
 912 02ec F9E7     		b	.L62
 913              	.L69:
 914 02ee 00BF     		.align	2
 915              	.L68:
 916 02f0 3C010000 		.word	.LC11
 917 02f4 F8000000 		.word	.LC9
 918              		.cfi_endproc
 919              	.LFE1367:
 921              		.section	.rodata.str1.4
 922 015b 00       		.align	2
 923              	.LC12:
 924 015c E794B5E6 		.ascii	"\347\224\265\346\234\272M%d \345\215\240\347\251\272"
 924      9CBA4D25 
 924      6420E58D 
 924      A0E7A9BA 
 925 016c E6AF94E8 		.ascii	"\346\257\224\350\256\276\347\275\256%.2f\015\012\000"
 925      AEBEE7BD 
 925      AE252E32 
 925      660D0A00 
 926              		.text
 927              		.align	1
 928              		.global	_Z8set_dutyP11EmbeddedCliPcPv
 929              		.syntax unified
 930              		.thumb
 931              		.thumb_func
 933              	_Z8set_dutyP11EmbeddedCliPcPv:
 934              	.LVL114:
 935              	.LFB1368:
 152:My_Top/System/My_CLI.cpp **** 
 153:My_Top/System/My_CLI.cpp **** void set_duty(EmbeddedCli *cli, char *args, void *context) //è®¾ç½®ç”µوœ؛هچ ç©؛و¯”0-1
 154:My_Top/System/My_CLI.cpp **** {
 936              		.loc 1 154 1 view -0
 937              		.cfi_startproc
 938              		@ args = 0, pretend = 0, frame = 48
 939              		@ frame_needed = 0, uses_anonymous_args = 0
 940              		.loc 1 154 1 is_stmt 0 view .LVU210
 941 02f8 30B5     		push	{r4, r5, lr}
 942              		.cfi_def_cfa_offset 12
 943              		.cfi_offset 4, -12
 944              		.cfi_offset 5, -8
 945              		.cfi_offset 14, -4
 946 02fa 8DB0     		sub	sp, sp, #52
 947              		.cfi_def_cfa_offset 64
 948 02fc 0C46     		mov	r4, r1
 155:My_Top/System/My_CLI.cpp ****     int idx = 0;
 949              		.loc 1 155 5 is_stmt 1 view .LVU211
 950              		.loc 1 155 9 is_stmt 0 view .LVU212
 951 02fe 0023     		movs	r3, #0
 952 0300 0B93     		str	r3, [sp, #44]
 156:My_Top/System/My_CLI.cpp ****     char *end;
 953              		.loc 1 156 5 is_stmt 1 view .LVU213
 157:My_Top/System/My_CLI.cpp ****     // èژ·هڈ–CLIه®‍ن¾‹
ARM GAS  /tmp/cc73j0Ob.s 			page 22


 158:My_Top/System/My_CLI.cpp ****     CLI_Module *mc = CLI_Module::get_cli_module(cli);
 954              		.loc 1 158 5 view .LVU214
 955              		.loc 1 158 48 is_stmt 0 view .LVU215
 956 0302 FFF7FEFF 		bl	_ZN10CLI_Module14get_cli_moduleEP11EmbeddedCli
 957              	.LVL115:
 159:My_Top/System/My_CLI.cpp ****     if (mc == NULL) return;
 958              		.loc 1 159 5 is_stmt 1 view .LVU216
 959 0306 F0B1     		cbz	r0, .L70
 160:My_Top/System/My_CLI.cpp ****     // è§£و‍گهڈ‚و•°
 161:My_Top/System/My_CLI.cpp ****     const char *arg_list[CLI_MODULE_MAX_ARGS_NUM]; //و•°وچ®ه­کو”¾هŒ؛ è¶…é™گهڈھن؟‌ه­که‰چCLI_MODULE_M
 960              		.loc 1 161 5 view .LVU217
 162:My_Top/System/My_CLI.cpp ****     int argc = CLI_Module::init_arg_list(arg_list, args);
 961              		.loc 1 162 5 view .LVU218
 962              		.loc 1 162 41 is_stmt 0 view .LVU219
 963 0308 2146     		mov	r1, r4
 964 030a 6846     		mov	r0, sp
 965              	.LVL116:
 966              		.loc 1 162 41 view .LVU220
 967 030c FFF7FEFF 		bl	_ZN10CLI_Module13init_arg_listEPPKcS1_
 968              	.LVL117:
 969 0310 0146     		mov	r1, r0
 970              	.LVL118:
 163:My_Top/System/My_CLI.cpp ****     DC_Motor *m = get_motor_by_arg(arg_list, argc,&idx); //èژ·هڈ–ç”µوœ؛ه¯¹è±،
 971              		.loc 1 163 5 is_stmt 1 view .LVU221
 972              		.loc 1 163 35 is_stmt 0 view .LVU222
 973 0312 0BAA     		add	r2, sp, #44
 974 0314 6846     		mov	r0, sp
 975              	.LVL119:
 976              		.loc 1 163 35 view .LVU223
 977 0316 FFF7FEFF 		bl	_Z16get_motor_by_argPPKciPi
 978              	.LVL120:
 164:My_Top/System/My_CLI.cpp ****     if (!m) return;
 979              		.loc 1 164 5 is_stmt 1 view .LVU224
 980 031a 0446     		mov	r4, r0
 981              	.LVL121:
 982              		.loc 1 164 5 is_stmt 0 view .LVU225
 983 031c 98B1     		cbz	r0, .L70
 165:My_Top/System/My_CLI.cpp ****     float temp = strtof(arg_list[2], &end); //ه°†ه­—ç¬¦ن¸²è½¬وچ¢ن¸؛وµ®ç‚¹و•°
 984              		.loc 1 165 5 is_stmt 1 view .LVU226
 985              		.loc 1 165 24 is_stmt 0 view .LVU227
 986 031e 0AA9     		add	r1, sp, #40
 987 0320 0298     		ldr	r0, [sp, #8]
 988              	.LVL122:
 989              		.loc 1 165 24 view .LVU228
 990 0322 FFF7FEFF 		bl	strtof
 991              	.LVL123:
 992 0326 10EE100A 		vmov	r0, s0
 993              	.LVL124:
 166:My_Top/System/My_CLI.cpp ****     if(end == arg_list[2]) 
 994              		.loc 1 166 5 is_stmt 1 view .LVU229
 995 032a 029A     		ldr	r2, [sp, #8]
 996 032c 0A9B     		ldr	r3, [sp, #40]
 997 032e 9A42     		cmp	r2, r3
 998 0330 0BD0     		beq	.L75
 167:My_Top/System/My_CLI.cpp ****     {
 168:My_Top/System/My_CLI.cpp ****         printf("هڈ‚و•°و ¼ه¼ڈé”™è¯¯\r\n");
 169:My_Top/System/My_CLI.cpp ****         return;
ARM GAS  /tmp/cc73j0Ob.s 			page 23


 170:My_Top/System/My_CLI.cpp ****     }
 171:My_Top/System/My_CLI.cpp ****     m->updown_duty = temp;
 999              		.loc 1 171 5 view .LVU230
 1000              		.loc 1 171 20 is_stmt 0 view .LVU231
 1001 0332 84ED040A 		vstr.32	s0, [r4, #16]
 172:My_Top/System/My_CLI.cpp ****     printf("ç”µوœ؛M%d هچ ç©؛و¯”è®¾ç½®%.2f\r\n",idx,temp);
 1002              		.loc 1 172 5 is_stmt 1 view .LVU232
 1003              		.loc 1 172 11 is_stmt 0 view .LVU233
 1004 0336 FFF7FEFF 		bl	__aeabi_f2d
 1005              	.LVL125:
 1006              		.loc 1 172 11 view .LVU234
 1007 033a 0246     		mov	r2, r0
 1008 033c 0B46     		mov	r3, r1
 1009 033e 0B99     		ldr	r1, [sp, #44]
 1010 0340 0448     		ldr	r0, .L76
 1011 0342 FFF7FEFF 		bl	printf_
 1012              	.LVL126:
 1013              	.L70:
 173:My_Top/System/My_CLI.cpp **** }
 1014              		.loc 1 173 1 view .LVU235
 1015 0346 0DB0     		add	sp, sp, #52
 1016              		.cfi_remember_state
 1017              		.cfi_def_cfa_offset 12
 1018              		@ sp needed
 1019 0348 30BD     		pop	{r4, r5, pc}
 1020              	.LVL127:
 1021              	.L75:
 1022              		.cfi_restore_state
 168:My_Top/System/My_CLI.cpp ****         return;
 1023              		.loc 1 168 9 is_stmt 1 view .LVU236
 168:My_Top/System/My_CLI.cpp ****         return;
 1024              		.loc 1 168 15 is_stmt 0 view .LVU237
 1025 034a 0348     		ldr	r0, .L76+4
 1026              	.LVL128:
 168:My_Top/System/My_CLI.cpp ****         return;
 1027              		.loc 1 168 15 view .LVU238
 1028 034c FFF7FEFF 		bl	printf_
 1029              	.LVL129:
 169:My_Top/System/My_CLI.cpp ****     }
 1030              		.loc 1 169 9 is_stmt 1 view .LVU239
 1031 0350 F9E7     		b	.L70
 1032              	.L77:
 1033 0352 00BF     		.align	2
 1034              	.L76:
 1035 0354 5C010000 		.word	.LC12
 1036 0358 F8000000 		.word	.LC9
 1037              		.cfi_endproc
 1038              	.LFE1368:
 1040              		.section	.rodata.str1.4
 1041              		.align	2
 1042              	.LC13:
 1043 017c E794B5E6 		.ascii	"\347\224\265\346\234\272M%d \347\233\256\346\240\207"
 1043      9CBA4D25 
 1043      6420E79B 
 1043      AEE6A087 
 1044 018c E4BD8DE7 		.ascii	"\344\275\215\347\275\256\350\256\276\347\275\256%.2"
 1044      BDAEE8AE 
ARM GAS  /tmp/cc73j0Ob.s 			page 24


 1044      BEE7BDAE 
 1044      252E32
 1045 019b 660D0A00 		.ascii	"f\015\012\000"
 1046              		.text
 1047              		.align	1
 1048              		.global	_Z7set_posP11EmbeddedCliPcPv
 1049              		.syntax unified
 1050              		.thumb
 1051              		.thumb_func
 1053              	_Z7set_posP11EmbeddedCliPcPv:
 1054              	.LVL130:
 1055              	.LFB1369:
 174:My_Top/System/My_CLI.cpp **** 
 175:My_Top/System/My_CLI.cpp **** 
 176:My_Top/System/My_CLI.cpp ****  
 177:My_Top/System/My_CLI.cpp **** 
 178:My_Top/System/My_CLI.cpp **** void set_pos(EmbeddedCli *cli, char *args, void *context) //è®¾ç½®ç›®و ‡ن½چç½®
 179:My_Top/System/My_CLI.cpp **** {
 1056              		.loc 1 179 1 view -0
 1057              		.cfi_startproc
 1058              		@ args = 0, pretend = 0, frame = 48
 1059              		@ frame_needed = 0, uses_anonymous_args = 0
 1060              		.loc 1 179 1 is_stmt 0 view .LVU241
 1061 035c 30B5     		push	{r4, r5, lr}
 1062              		.cfi_def_cfa_offset 12
 1063              		.cfi_offset 4, -12
 1064              		.cfi_offset 5, -8
 1065              		.cfi_offset 14, -4
 1066 035e 8DB0     		sub	sp, sp, #52
 1067              		.cfi_def_cfa_offset 64
 1068 0360 0C46     		mov	r4, r1
 180:My_Top/System/My_CLI.cpp ****     int idx = 0;
 1069              		.loc 1 180 5 is_stmt 1 view .LVU242
 1070              		.loc 1 180 9 is_stmt 0 view .LVU243
 1071 0362 0023     		movs	r3, #0
 1072 0364 0B93     		str	r3, [sp, #44]
 181:My_Top/System/My_CLI.cpp ****     char *end;
 1073              		.loc 1 181 5 is_stmt 1 view .LVU244
 182:My_Top/System/My_CLI.cpp ****     // èژ·هڈ–CLIه®‍ن¾‹
 183:My_Top/System/My_CLI.cpp ****     CLI_Module *mc = CLI_Module::get_cli_module(cli);
 1074              		.loc 1 183 5 view .LVU245
 1075              		.loc 1 183 48 is_stmt 0 view .LVU246
 1076 0366 FFF7FEFF 		bl	_ZN10CLI_Module14get_cli_moduleEP11EmbeddedCli
 1077              	.LVL131:
 184:My_Top/System/My_CLI.cpp ****     if (mc == NULL) return;
 1078              		.loc 1 184 5 is_stmt 1 view .LVU247
 1079 036a F0B1     		cbz	r0, .L78
 185:My_Top/System/My_CLI.cpp ****     // è§£و‍گهڈ‚و•°
 186:My_Top/System/My_CLI.cpp ****     const char *arg_list[CLI_MODULE_MAX_ARGS_NUM]; //و•°وچ®ه­کو”¾هŒ؛ è¶…é™گهڈھن؟‌ه­که‰چCLI_MODULE_M
 1080              		.loc 1 186 5 view .LVU248
 187:My_Top/System/My_CLI.cpp ****     int argc = CLI_Module::init_arg_list(arg_list, args);
 1081              		.loc 1 187 5 view .LVU249
 1082              		.loc 1 187 41 is_stmt 0 view .LVU250
 1083 036c 2146     		mov	r1, r4
 1084 036e 6846     		mov	r0, sp
 1085              	.LVL132:
 1086              		.loc 1 187 41 view .LVU251
ARM GAS  /tmp/cc73j0Ob.s 			page 25


 1087 0370 FFF7FEFF 		bl	_ZN10CLI_Module13init_arg_listEPPKcS1_
 1088              	.LVL133:
 1089 0374 0146     		mov	r1, r0
 1090              	.LVL134:
 188:My_Top/System/My_CLI.cpp ****     DC_Motor *m = get_motor_by_arg(arg_list, argc,&idx); //èژ·هڈ–ç”µوœ؛ه¯¹è±،
 1091              		.loc 1 188 5 is_stmt 1 view .LVU252
 1092              		.loc 1 188 35 is_stmt 0 view .LVU253
 1093 0376 0BAA     		add	r2, sp, #44
 1094 0378 6846     		mov	r0, sp
 1095              	.LVL135:
 1096              		.loc 1 188 35 view .LVU254
 1097 037a FFF7FEFF 		bl	_Z16get_motor_by_argPPKciPi
 1098              	.LVL136:
 189:My_Top/System/My_CLI.cpp ****     if (!m) return;
 1099              		.loc 1 189 5 is_stmt 1 view .LVU255
 1100 037e 0446     		mov	r4, r0
 1101              	.LVL137:
 1102              		.loc 1 189 5 is_stmt 0 view .LVU256
 1103 0380 98B1     		cbz	r0, .L78
 190:My_Top/System/My_CLI.cpp ****     float temp = strtof(arg_list[2], &end); //ه°†ه­—ç¬¦ن¸²è½¬وچ¢ن¸؛وµ®ç‚¹و•°
 1104              		.loc 1 190 5 is_stmt 1 view .LVU257
 1105              		.loc 1 190 24 is_stmt 0 view .LVU258
 1106 0382 0AA9     		add	r1, sp, #40
 1107 0384 0298     		ldr	r0, [sp, #8]
 1108              	.LVL138:
 1109              		.loc 1 190 24 view .LVU259
 1110 0386 FFF7FEFF 		bl	strtof
 1111              	.LVL139:
 1112 038a 10EE100A 		vmov	r0, s0
 1113              	.LVL140:
 191:My_Top/System/My_CLI.cpp ****     if(end == arg_list[2]) 
 1114              		.loc 1 191 5 is_stmt 1 view .LVU260
 1115 038e 029A     		ldr	r2, [sp, #8]
 1116 0390 0A9B     		ldr	r3, [sp, #40]
 1117 0392 9A42     		cmp	r2, r3
 1118 0394 0BD0     		beq	.L83
 192:My_Top/System/My_CLI.cpp ****     {
 193:My_Top/System/My_CLI.cpp ****         printf("هڈ‚و•°و ¼ه¼ڈé”™è¯¯\r\n");
 194:My_Top/System/My_CLI.cpp ****         return;
 195:My_Top/System/My_CLI.cpp ****     }
 196:My_Top/System/My_CLI.cpp ****     m->_target_location2 = temp;
 1119              		.loc 1 196 5 view .LVU261
 1120              		.loc 1 196 26 is_stmt 0 view .LVU262
 1121 0396 84ED0D0A 		vstr.32	s0, [r4, #52]
 197:My_Top/System/My_CLI.cpp ****     printf("ç”µوœ؛M%d ç›®و ‡ن½چç½®è®¾ç½®%.2f\r\n",idx,temp);
 1122              		.loc 1 197 5 is_stmt 1 view .LVU263
 1123              		.loc 1 197 11 is_stmt 0 view .LVU264
 1124 039a FFF7FEFF 		bl	__aeabi_f2d
 1125              	.LVL141:
 1126              		.loc 1 197 11 view .LVU265
 1127 039e 0246     		mov	r2, r0
 1128 03a0 0B46     		mov	r3, r1
 1129 03a2 0B99     		ldr	r1, [sp, #44]
 1130 03a4 0448     		ldr	r0, .L84
 1131 03a6 FFF7FEFF 		bl	printf_
 1132              	.LVL142:
 1133              	.L78:
ARM GAS  /tmp/cc73j0Ob.s 			page 26


 198:My_Top/System/My_CLI.cpp **** }
 1134              		.loc 1 198 1 view .LVU266
 1135 03aa 0DB0     		add	sp, sp, #52
 1136              		.cfi_remember_state
 1137              		.cfi_def_cfa_offset 12
 1138              		@ sp needed
 1139 03ac 30BD     		pop	{r4, r5, pc}
 1140              	.LVL143:
 1141              	.L83:
 1142              		.cfi_restore_state
 193:My_Top/System/My_CLI.cpp ****         return;
 1143              		.loc 1 193 9 is_stmt 1 view .LVU267
 193:My_Top/System/My_CLI.cpp ****         return;
 1144              		.loc 1 193 15 is_stmt 0 view .LVU268
 1145 03ae 0348     		ldr	r0, .L84+4
 1146              	.LVL144:
 193:My_Top/System/My_CLI.cpp ****         return;
 1147              		.loc 1 193 15 view .LVU269
 1148 03b0 FFF7FEFF 		bl	printf_
 1149              	.LVL145:
 194:My_Top/System/My_CLI.cpp ****     }
 1150              		.loc 1 194 9 is_stmt 1 view .LVU270
 1151 03b4 F9E7     		b	.L78
 1152              	.L85:
 1153 03b6 00BF     		.align	2
 1154              	.L84:
 1155 03b8 7C010000 		.word	.LC13
 1156 03bc F8000000 		.word	.LC9
 1157              		.cfi_endproc
 1158              	.LFE1369:
 1160              		.section	.rodata.str1.4
 1161 019f 00       		.align	2
 1162              	.LC14:
 1163 01a0 E794B5E6 		.ascii	"\347\224\265\346\234\272M%d \347\233\256\346\240\207"
 1163      9CBA4D25 
 1163      6420E79B 
 1163      AEE6A087 
 1164 01b0 E9809FE5 		.ascii	"\351\200\237\345\272\246\350\256\276\347\275\256%.2"
 1164      BAA6E8AE 
 1164      BEE7BDAE 
 1164      252E32
 1165 01bf 660D0A00 		.ascii	"f\015\012\000"
 1166              		.text
 1167              		.align	1
 1168              		.global	_Z9set_speedP11EmbeddedCliPcPv
 1169              		.syntax unified
 1170              		.thumb
 1171              		.thumb_func
 1173              	_Z9set_speedP11EmbeddedCliPcPv:
 1174              	.LVL146:
 1175              	.LFB1370:
 199:My_Top/System/My_CLI.cpp **** 
 200:My_Top/System/My_CLI.cpp **** 
 201:My_Top/System/My_CLI.cpp **** void set_speed(EmbeddedCli *cli, char *args, void *context) //è®¾ç½®ç›®و ‡é€ںه؛¦
 202:My_Top/System/My_CLI.cpp **** {
 1176              		.loc 1 202 1 view -0
 1177              		.cfi_startproc
ARM GAS  /tmp/cc73j0Ob.s 			page 27


 1178              		@ args = 0, pretend = 0, frame = 48
 1179              		@ frame_needed = 0, uses_anonymous_args = 0
 1180              		.loc 1 202 1 is_stmt 0 view .LVU272
 1181 03c0 30B5     		push	{r4, r5, lr}
 1182              		.cfi_def_cfa_offset 12
 1183              		.cfi_offset 4, -12
 1184              		.cfi_offset 5, -8
 1185              		.cfi_offset 14, -4
 1186 03c2 8DB0     		sub	sp, sp, #52
 1187              		.cfi_def_cfa_offset 64
 1188 03c4 0C46     		mov	r4, r1
 203:My_Top/System/My_CLI.cpp ****     int idx = 0;
 1189              		.loc 1 203 5 is_stmt 1 view .LVU273
 1190              		.loc 1 203 9 is_stmt 0 view .LVU274
 1191 03c6 0023     		movs	r3, #0
 1192 03c8 0B93     		str	r3, [sp, #44]
 204:My_Top/System/My_CLI.cpp ****     char *end;
 1193              		.loc 1 204 5 is_stmt 1 view .LVU275
 205:My_Top/System/My_CLI.cpp ****     // èژ·هڈ–CLIه®‍ن¾‹
 206:My_Top/System/My_CLI.cpp ****     CLI_Module *mc = CLI_Module::get_cli_module(cli);
 1194              		.loc 1 206 5 view .LVU276
 1195              		.loc 1 206 48 is_stmt 0 view .LVU277
 1196 03ca FFF7FEFF 		bl	_ZN10CLI_Module14get_cli_moduleEP11EmbeddedCli
 1197              	.LVL147:
 207:My_Top/System/My_CLI.cpp ****     if (mc == NULL) return;
 1198              		.loc 1 207 5 is_stmt 1 view .LVU278
 1199 03ce F0B1     		cbz	r0, .L86
 208:My_Top/System/My_CLI.cpp ****     // è§£و‍گهڈ‚و•°
 209:My_Top/System/My_CLI.cpp ****     const char *arg_list[CLI_MODULE_MAX_ARGS_NUM]; //و•°وچ®ه­کو”¾هŒ؛ è¶…é™گهڈھن؟‌ه­که‰چCLI_MODULE_M
 1200              		.loc 1 209 5 view .LVU279
 210:My_Top/System/My_CLI.cpp ****     int argc = CLI_Module::init_arg_list(arg_list, args);
 1201              		.loc 1 210 5 view .LVU280
 1202              		.loc 1 210 41 is_stmt 0 view .LVU281
 1203 03d0 2146     		mov	r1, r4
 1204 03d2 6846     		mov	r0, sp
 1205              	.LVL148:
 1206              		.loc 1 210 41 view .LVU282
 1207 03d4 FFF7FEFF 		bl	_ZN10CLI_Module13init_arg_listEPPKcS1_
 1208              	.LVL149:
 1209 03d8 0146     		mov	r1, r0
 1210              	.LVL150:
 211:My_Top/System/My_CLI.cpp ****     DC_Motor *m = get_motor_by_arg(arg_list, argc,&idx); //èژ·هڈ–ç”µوœ؛ه¯¹è±،
 1211              		.loc 1 211 5 is_stmt 1 view .LVU283
 1212              		.loc 1 211 35 is_stmt 0 view .LVU284
 1213 03da 0BAA     		add	r2, sp, #44
 1214 03dc 6846     		mov	r0, sp
 1215              	.LVL151:
 1216              		.loc 1 211 35 view .LVU285
 1217 03de FFF7FEFF 		bl	_Z16get_motor_by_argPPKciPi
 1218              	.LVL152:
 212:My_Top/System/My_CLI.cpp ****     if (!m) return;
 1219              		.loc 1 212 5 is_stmt 1 view .LVU286
 1220 03e2 0446     		mov	r4, r0
 1221              	.LVL153:
 1222              		.loc 1 212 5 is_stmt 0 view .LVU287
 1223 03e4 98B1     		cbz	r0, .L86
 213:My_Top/System/My_CLI.cpp ****     float temp = strtof(arg_list[2], &end); //ه°†ه­—ç¬¦ن¸²è½¬وچ¢ن¸؛وµ®ç‚¹و•°
ARM GAS  /tmp/cc73j0Ob.s 			page 28


 1224              		.loc 1 213 5 is_stmt 1 view .LVU288
 1225              		.loc 1 213 24 is_stmt 0 view .LVU289
 1226 03e6 0AA9     		add	r1, sp, #40
 1227 03e8 0298     		ldr	r0, [sp, #8]
 1228              	.LVL154:
 1229              		.loc 1 213 24 view .LVU290
 1230 03ea FFF7FEFF 		bl	strtof
 1231              	.LVL155:
 1232 03ee 10EE100A 		vmov	r0, s0
 1233              	.LVL156:
 214:My_Top/System/My_CLI.cpp ****     if(end == arg_list[2]) 
 1234              		.loc 1 214 5 is_stmt 1 view .LVU291
 1235 03f2 029A     		ldr	r2, [sp, #8]
 1236 03f4 0A9B     		ldr	r3, [sp, #40]
 1237 03f6 9A42     		cmp	r2, r3
 1238 03f8 0BD0     		beq	.L91
 215:My_Top/System/My_CLI.cpp ****     {
 216:My_Top/System/My_CLI.cpp ****         printf("هڈ‚و•°و ¼ه¼ڈé”™è¯¯\r\n");
 217:My_Top/System/My_CLI.cpp ****         return;
 218:My_Top/System/My_CLI.cpp ****     }
 219:My_Top/System/My_CLI.cpp ****     m->_target_speed = temp;
 1239              		.loc 1 219 5 view .LVU292
 1240              		.loc 1 219 22 is_stmt 0 view .LVU293
 1241 03fa 84ED0C0A 		vstr.32	s0, [r4, #48]
 220:My_Top/System/My_CLI.cpp ****     printf("ç”µوœ؛M%d ç›®و ‡é€ںه؛¦è®¾ç½®%.2f\r\n",idx,temp);
 1242              		.loc 1 220 5 is_stmt 1 view .LVU294
 1243              		.loc 1 220 11 is_stmt 0 view .LVU295
 1244 03fe FFF7FEFF 		bl	__aeabi_f2d
 1245              	.LVL157:
 1246              		.loc 1 220 11 view .LVU296
 1247 0402 0246     		mov	r2, r0
 1248 0404 0B46     		mov	r3, r1
 1249 0406 0B99     		ldr	r1, [sp, #44]
 1250 0408 0448     		ldr	r0, .L92
 1251 040a FFF7FEFF 		bl	printf_
 1252              	.LVL158:
 1253              	.L86:
 221:My_Top/System/My_CLI.cpp **** }
 1254              		.loc 1 221 1 view .LVU297
 1255 040e 0DB0     		add	sp, sp, #52
 1256              		.cfi_remember_state
 1257              		.cfi_def_cfa_offset 12
 1258              		@ sp needed
 1259 0410 30BD     		pop	{r4, r5, pc}
 1260              	.LVL159:
 1261              	.L91:
 1262              		.cfi_restore_state
 216:My_Top/System/My_CLI.cpp ****         return;
 1263              		.loc 1 216 9 is_stmt 1 view .LVU298
 216:My_Top/System/My_CLI.cpp ****         return;
 1264              		.loc 1 216 15 is_stmt 0 view .LVU299
 1265 0412 0348     		ldr	r0, .L92+4
 1266              	.LVL160:
 216:My_Top/System/My_CLI.cpp ****         return;
 1267              		.loc 1 216 15 view .LVU300
 1268 0414 FFF7FEFF 		bl	printf_
 1269              	.LVL161:
ARM GAS  /tmp/cc73j0Ob.s 			page 29


 217:My_Top/System/My_CLI.cpp ****     }
 1270              		.loc 1 217 9 is_stmt 1 view .LVU301
 1271 0418 F9E7     		b	.L86
 1272              	.L93:
 1273 041a 00BF     		.align	2
 1274              	.L92:
 1275 041c A0010000 		.word	.LC14
 1276 0420 F8000000 		.word	.LC9
 1277              		.cfi_endproc
 1278              	.LFE1370:
 1280              		.section	.rodata.str1.4
 1281 01c3 00       		.align	2
 1282              	.LC15:
 1283 01c4 73706565 		.ascii	"speed\000"
 1283      6400
 1284 01ca 0000     		.align	2
 1285              	.LC16:
 1286 01cc 706F7300 		.ascii	"pos\000"
 1287              		.align	2
 1288              	.LC17:
 1289 01d0 6F70656E 		.ascii	"open_loop\000"
 1289      5F6C6F6F 
 1289      7000
 1290 01da 0000     		.align	2
 1291              	.LC18:
 1292 01dc 63616C69 		.ascii	"calib\000"
 1292      6200
 1293 01e2 0000     		.align	2
 1294              	.LC19:
 1295 01e4 E69CAAE7 		.ascii	"\346\234\252\347\237\245\346\250\241\345\274\217\015"
 1295      9FA5E6A8 
 1295      A1E5BC8F 
 1295      0D
 1296 01f1 0A00     		.ascii	"\012\000"
 1297 01f3 00       		.align	2
 1298              	.LC20:
 1299 01f4 E794B5E6 		.ascii	"\347\224\265\346\234\272M%d \345\267\245\344\275\234"
 1299      9CBA4D25 
 1299      6420E5B7 
 1299      A5E4BD9C 
 1300 0204 E6A8A1E5 		.ascii	"\346\250\241\345\274\217\350\256\276\347\275\256%s\015"
 1300      BC8FE8AE 
 1300      BEE7BDAE 
 1300      25730D
 1301 0213 0A00     		.ascii	"\012\000"
 1302 0215 000000   		.align	2
 1303              	.LC21:
 1304 0218 E794B5E6 		.ascii	"\347\224\265\346\234\272M%d \346\240\241\345\207\206"
 1304      9CBA4D25 
 1304      6420E6A0 
 1304      A1E58786 
 1305 0228 E6A8A1E5 		.ascii	"\346\250\241\345\274\217\357\274\232\345\220\257\345"
 1305      BC8FEFBC 
 1305      9AE590AF 
 1305      E5
 1306 0235 8AA8E5BC 		.ascii	"\212\250\345\274\200\347\216\257\345\205\250\351\200"
 1306      80E78EAF 
ARM GAS  /tmp/cc73j0Ob.s 			page 30


 1306      E585A8E9 
 1306      80
 1307 0242 9F0D0A00 		.ascii	"\237\015\012\000"
 1308 0246 0000     		.align	2
 1309              	.LC22:
 1310 0248 E794B5E6 		.ascii	"\347\224\265\346\234\272M%d \345\274\200\345\247\213"
 1310      9CBA4D25 
 1310      6420E5BC 
 1310      80E5A78B 
 1311 0258 20414E4C 		.ascii	" ANLC \346\240\241\345\207\206\357\274\214\344\277\235"
 1311      4320E6A0 
 1311      A1E58786 
 1311      EFBC8CE4 
 1311      BF9D
 1312 026a E68C81E8 		.ascii	"\346\214\201\350\275\254\345\212\250...\015\012\000"
 1312      BDACE58A 
 1312      A82E2E2E 
 1312      0D0A00
 1313 0279 000000   		.align	2
 1314              	.LC23:
 1315 027c E794B5E6 		.ascii	"\347\224\265\346\234\272M%d ANLC \346\240\241\345\207"
 1315      9CBA4D25 
 1315      6420414E 
 1315      4C4320E6 
 1315      A0A1E587 
 1316 0290 86E68890 		.ascii	"\206\346\210\220\345\212\237\357\274\201\345\217\202"
 1316      E58A9FEF 
 1316      BC81E58F 
 1316      82
 1317 029d E695B0E5 		.ascii	"\346\225\260\345\267\262\344\277\235\345\255\230\350"
 1317      B7B2E4BF 
 1317      9DE5AD98 
 1317      E8
 1318 02aa 87B34D54 		.ascii	"\207\263MTP\015\012\000"
 1318      500D0A00 
 1319 02b2 0000     		.align	2
 1320              	.LC24:
 1321 02b4 E794B5E6 		.ascii	"\347\224\265\346\234\272M%d ANLC \346\240\241\345\207"
 1321      9CBA4D25 
 1321      6420414E 
 1321      4C4320E6 
 1321      A0A1E587 
 1322 02c8 86E5A4B1 		.ascii	"\206\345\244\261\350\264\245\015\012\000"
 1322      E8B4A50D 
 1322      0A00
 1323              		.text
 1324              		.align	1
 1325              		.global	_Z8set_modeP11EmbeddedCliPcPv
 1326              		.syntax unified
 1327              		.thumb
 1328              		.thumb_func
 1330              	_Z8set_modeP11EmbeddedCliPcPv:
 1331              	.LVL162:
 1332              	.LFB1371:
 222:My_Top/System/My_CLI.cpp **** 
 223:My_Top/System/My_CLI.cpp **** 
 224:My_Top/System/My_CLI.cpp **** 
ARM GAS  /tmp/cc73j0Ob.s 			page 31


 225:My_Top/System/My_CLI.cpp **** void set_mode(EmbeddedCli *cli, char *args, void *context) //è®¾ç½®ه·¥ن½œو¨،ه¼ڈ
 226:My_Top/System/My_CLI.cpp **** {
 1333              		.loc 1 226 1 view -0
 1334              		.cfi_startproc
 1335              		@ args = 0, pretend = 0, frame = 48
 1336              		@ frame_needed = 0, uses_anonymous_args = 0
 1337              		.loc 1 226 1 is_stmt 0 view .LVU303
 1338 0424 70B5     		push	{r4, r5, r6, lr}
 1339              		.cfi_def_cfa_offset 16
 1340              		.cfi_offset 4, -16
 1341              		.cfi_offset 5, -12
 1342              		.cfi_offset 6, -8
 1343              		.cfi_offset 14, -4
 1344 0426 8CB0     		sub	sp, sp, #48
 1345              		.cfi_def_cfa_offset 64
 1346 0428 0C46     		mov	r4, r1
 227:My_Top/System/My_CLI.cpp ****     int idx = 0;
 1347              		.loc 1 227 5 is_stmt 1 view .LVU304
 1348              		.loc 1 227 9 is_stmt 0 view .LVU305
 1349 042a 0023     		movs	r3, #0
 1350 042c 0B93     		str	r3, [sp, #44]
 228:My_Top/System/My_CLI.cpp ****     char *end;
 1351              		.loc 1 228 5 is_stmt 1 view .LVU306
 229:My_Top/System/My_CLI.cpp ****     Work_Mode mode_temp = null_mode;
 1352              		.loc 1 229 5 view .LVU307
 1353              	.LVL163:
 230:My_Top/System/My_CLI.cpp ****     // èژ·هڈ–CLIه®‍ن¾‹
 231:My_Top/System/My_CLI.cpp ****     CLI_Module *mc = CLI_Module::get_cli_module(cli);
 1354              		.loc 1 231 5 view .LVU308
 1355              		.loc 1 231 48 is_stmt 0 view .LVU309
 1356 042e FFF7FEFF 		bl	_ZN10CLI_Module14get_cli_moduleEP11EmbeddedCli
 1357              	.LVL164:
 232:My_Top/System/My_CLI.cpp ****     if (mc == NULL) return;
 1358              		.loc 1 232 5 is_stmt 1 view .LVU310
 1359 0432 A0B3     		cbz	r0, .L94
 233:My_Top/System/My_CLI.cpp ****     // è§£و‍گهڈ‚و•°
 234:My_Top/System/My_CLI.cpp ****     const char *arg_list[CLI_MODULE_MAX_ARGS_NUM]; //و•°وچ®ه­کو”¾هŒ؛ è¶…é™گهڈھن؟‌ه­که‰چCLI_MODULE_M
 1360              		.loc 1 234 5 view .LVU311
 235:My_Top/System/My_CLI.cpp ****     int argc = CLI_Module::init_arg_list(arg_list, args);
 1361              		.loc 1 235 5 view .LVU312
 1362              		.loc 1 235 41 is_stmt 0 view .LVU313
 1363 0434 01AD     		add	r5, sp, #4
 1364 0436 2146     		mov	r1, r4
 1365 0438 2846     		mov	r0, r5
 1366              	.LVL165:
 1367              		.loc 1 235 41 view .LVU314
 1368 043a FFF7FEFF 		bl	_ZN10CLI_Module13init_arg_listEPPKcS1_
 1369              	.LVL166:
 1370 043e 0146     		mov	r1, r0
 1371              	.LVL167:
 236:My_Top/System/My_CLI.cpp ****     DC_Motor *m = get_motor_by_arg(arg_list, argc,&idx); //èژ·هڈ–ç”µوœ؛ه¯¹è±،
 1372              		.loc 1 236 5 is_stmt 1 view .LVU315
 1373              		.loc 1 236 35 is_stmt 0 view .LVU316
 1374 0440 0BAA     		add	r2, sp, #44
 1375 0442 2846     		mov	r0, r5
 1376              	.LVL168:
 1377              		.loc 1 236 35 view .LVU317
ARM GAS  /tmp/cc73j0Ob.s 			page 32


 1378 0444 FFF7FEFF 		bl	_Z16get_motor_by_argPPKciPi
 1379              	.LVL169:
 237:My_Top/System/My_CLI.cpp ****     if (!m) return;
 1380              		.loc 1 237 5 is_stmt 1 view .LVU318
 1381 0448 0446     		mov	r4, r0
 1382              	.LVL170:
 1383              		.loc 1 237 5 is_stmt 0 view .LVU319
 1384 044a 40B3     		cbz	r0, .L94
 238:My_Top/System/My_CLI.cpp **** 
 239:My_Top/System/My_CLI.cpp ****     if (strcmp(arg_list[2], "speed") == 0) {
 1385              		.loc 1 239 5 is_stmt 1 view .LVU320
 1386              		.loc 1 239 15 is_stmt 0 view .LVU321
 1387 044c 039D     		ldr	r5, [sp, #12]
 1388 044e 2949     		ldr	r1, .L107
 1389 0450 2846     		mov	r0, r5
 1390              	.LVL171:
 1391              		.loc 1 239 15 view .LVU322
 1392 0452 FFF7FEFF 		bl	strcmp
 1393              	.LVL172:
 1394              		.loc 1 239 5 discriminator 1 view .LVU323
 1395 0456 A0B1     		cbz	r0, .L100
 240:My_Top/System/My_CLI.cpp ****         mode_temp = speed;
 241:My_Top/System/My_CLI.cpp ****     } else if (strcmp(arg_list[2], "pos") == 0) {
 1396              		.loc 1 241 12 is_stmt 1 view .LVU324
 1397              		.loc 1 241 22 is_stmt 0 view .LVU325
 1398 0458 2749     		ldr	r1, .L107+4
 1399 045a 2846     		mov	r0, r5
 1400 045c FFF7FEFF 		bl	strcmp
 1401              	.LVL173:
 1402              		.loc 1 241 12 discriminator 1 view .LVU326
 1403 0460 88B1     		cbz	r0, .L101
 242:My_Top/System/My_CLI.cpp ****         mode_temp = position;
 243:My_Top/System/My_CLI.cpp ****     } else if (strcmp(arg_list[2], "open_loop") == 0) {
 1404              		.loc 1 243 12 is_stmt 1 view .LVU327
 1405              		.loc 1 243 22 is_stmt 0 view .LVU328
 1406 0462 2649     		ldr	r1, .L107+8
 1407 0464 2846     		mov	r0, r5
 1408 0466 FFF7FEFF 		bl	strcmp
 1409              	.LVL174:
 1410              		.loc 1 243 12 discriminator 1 view .LVU329
 1411 046a D0B1     		cbz	r0, .L102
 244:My_Top/System/My_CLI.cpp ****         mode_temp = open_loop;
 245:My_Top/System/My_CLI.cpp ****     } else if (strcmp(arg_list[2], "calib") == 0) {
 1412              		.loc 1 245 12 is_stmt 1 view .LVU330
 1413              		.loc 1 245 22 is_stmt 0 view .LVU331
 1414 046c 2449     		ldr	r1, .L107+12
 1415 046e 2846     		mov	r0, r5
 1416 0470 FFF7FEFF 		bl	strcmp
 1417              	.LVL175:
 1418              		.loc 1 245 12 discriminator 1 view .LVU332
 1419 0474 08B9     		cbnz	r0, .L105
 246:My_Top/System/My_CLI.cpp ****         mode_temp = EncoderCalibration;
 1420              		.loc 1 246 19 view .LVU333
 1421 0476 6325     		movs	r5, #99
 1422 0478 06E0     		b	.L96
 1423              	.L105:
 247:My_Top/System/My_CLI.cpp ****     }else {
ARM GAS  /tmp/cc73j0Ob.s 			page 33


 248:My_Top/System/My_CLI.cpp ****         printf("وœھçں¥و¨،ه¼ڈ\r\n");
 1424              		.loc 1 248 9 is_stmt 1 view .LVU334
 1425              		.loc 1 248 15 is_stmt 0 view .LVU335
 1426 047a 2248     		ldr	r0, .L107+16
 1427 047c FFF7FEFF 		bl	printf_
 1428              	.LVL176:
 249:My_Top/System/My_CLI.cpp ****         return;
 1429              		.loc 1 249 9 is_stmt 1 view .LVU336
 1430 0480 0DE0     		b	.L94
 1431              	.L100:
 240:My_Top/System/My_CLI.cpp ****     } else if (strcmp(arg_list[2], "pos") == 0) {
 1432              		.loc 1 240 19 is_stmt 0 view .LVU337
 1433 0482 0125     		movs	r5, #1
 1434 0484 00E0     		b	.L96
 1435              	.L101:
 242:My_Top/System/My_CLI.cpp ****     } else if (strcmp(arg_list[2], "open_loop") == 0) {
 1436              		.loc 1 242 19 view .LVU338
 1437 0486 0225     		movs	r5, #2
 1438              	.L96:
 1439              	.LVL177:
 250:My_Top/System/My_CLI.cpp ****     }
 251:My_Top/System/My_CLI.cpp ****     m->work_mode = mode_temp;
 1440              		.loc 1 251 5 is_stmt 1 view .LVU339
 1441              		.loc 1 251 18 is_stmt 0 view .LVU340
 1442 0488 2570     		strb	r5, [r4]
 252:My_Top/System/My_CLI.cpp **** 
 253:My_Top/System/My_CLI.cpp ****     m->My_DC_Motor_Reset(); //é‡چç½®ç”µوœ؛
 1443              		.loc 1 253 5 is_stmt 1 view .LVU341
 1444              		.loc 1 253 25 is_stmt 0 view .LVU342
 1445 048a 2046     		mov	r0, r4
 1446 048c FFF7FEFF 		bl	_ZN8DC_Motor17My_DC_Motor_ResetEv
 1447              	.LVL178:
 254:My_Top/System/My_CLI.cpp **** 
 255:My_Top/System/My_CLI.cpp ****     printf("ç”µوœ؛M%d ه·¥ن½œو¨،ه¼ڈè®¾ç½®%s\r\n",idx,arg_list[2]);
 1448              		.loc 1 255 5 is_stmt 1 view .LVU343
 1449              		.loc 1 255 11 is_stmt 0 view .LVU344
 1450 0490 039A     		ldr	r2, [sp, #12]
 1451 0492 0B99     		ldr	r1, [sp, #44]
 1452 0494 1C48     		ldr	r0, .L107+20
 1453 0496 FFF7FEFF 		bl	printf_
 1454              	.LVL179:
 256:My_Top/System/My_CLI.cpp **** 
 257:My_Top/System/My_CLI.cpp **** 
 258:My_Top/System/My_CLI.cpp ****     if(mode_temp == EncoderCalibration)
 1455              		.loc 1 258 5 is_stmt 1 view .LVU345
 1456              	.LBB4:
 1457 049a 632D     		cmp	r5, #99
 1458 049c 03D0     		beq	.L106
 1459              	.LVL180:
 1460              	.L94:
 1461              		.loc 1 258 5 is_stmt 0 view .LVU346
 1462              	.LBE4:
 259:My_Top/System/My_CLI.cpp ****     {
 260:My_Top/System/My_CLI.cpp ****         printf("ç”µوœ؛M%d و ،ه‡†و¨،ه¼ڈï¼ڑهگ¯هٹ¨ه¼€çژ¯ه…¨é€ں\r\n", idx);
 261:My_Top/System/My_CLI.cpp ****         vTaskDelay(pdMS_TO_TICKS(2000));
 262:My_Top/System/My_CLI.cpp **** 
 263:My_Top/System/My_CLI.cpp ****         printf("ç”µوœ؛M%d ه¼€ه§‹ ANLC و ،ه‡†ï¼Œن؟‌وŒپè½¬هٹ¨...\r\n", idx);
ARM GAS  /tmp/cc73j0Ob.s 			page 34


 264:My_Top/System/My_CLI.cpp ****         bool ok = m->_encoder->KTH7111_ANLC_Calibration(60);
 265:My_Top/System/My_CLI.cpp ****         m->work_mode = open_loop;//هˆ‡ه›‍ه¼€çژ¯وژ§هˆ¶
 266:My_Top/System/My_CLI.cpp ****         vTaskDelay(pdMS_TO_TICKS(10));
 267:My_Top/System/My_CLI.cpp ****         m->Motor_EN(false);
 268:My_Top/System/My_CLI.cpp ****         m->updown_duty = 0.0;//هپœو­¢ç”µوœ؛
 269:My_Top/System/My_CLI.cpp ****         if (ok) {
 270:My_Top/System/My_CLI.cpp ****             printf("ç”µوœ؛M%d ANLC و ،ه‡†وˆگهٹںï¼پهڈ‚و•°ه·²ن؟‌ه­کè‡³MTP\r\n", idx);
 271:My_Top/System/My_CLI.cpp ****         } else {
 272:My_Top/System/My_CLI.cpp ****             printf("ç”µوœ؛M%d ANLC و ،ه‡†ه¤±è´¥\r\n", idx);
 273:My_Top/System/My_CLI.cpp ****         }
 274:My_Top/System/My_CLI.cpp ****     }
 275:My_Top/System/My_CLI.cpp **** 
 276:My_Top/System/My_CLI.cpp **** }
 1463              		.loc 1 276 1 view .LVU347
 1464 049e 0CB0     		add	sp, sp, #48
 1465              		.cfi_remember_state
 1466              		.cfi_def_cfa_offset 16
 1467              		@ sp needed
 1468 04a0 70BD     		pop	{r4, r5, r6, pc}
 1469              	.LVL181:
 1470              	.L102:
 1471              		.cfi_restore_state
 244:My_Top/System/My_CLI.cpp ****     } else if (strcmp(arg_list[2], "calib") == 0) {
 1472              		.loc 1 244 19 view .LVU348
 1473 04a2 0025     		movs	r5, #0
 1474 04a4 F0E7     		b	.L96
 1475              	.LVL182:
 1476              	.L106:
 1477              	.LBB6:
 1478              	.LBB5:
 260:My_Top/System/My_CLI.cpp ****         vTaskDelay(pdMS_TO_TICKS(2000));
 1479              		.loc 1 260 9 is_stmt 1 view .LVU349
 260:My_Top/System/My_CLI.cpp ****         vTaskDelay(pdMS_TO_TICKS(2000));
 1480              		.loc 1 260 15 is_stmt 0 view .LVU350
 1481 04a6 0B99     		ldr	r1, [sp, #44]
 1482 04a8 1848     		ldr	r0, .L107+24
 1483 04aa FFF7FEFF 		bl	printf_
 1484              	.LVL183:
 261:My_Top/System/My_CLI.cpp **** 
 1485              		.loc 1 261 9 is_stmt 1 view .LVU351
 261:My_Top/System/My_CLI.cpp **** 
 1486              		.loc 1 261 19 is_stmt 0 view .LVU352
 1487 04ae 4FF4FA60 		mov	r0, #2000
 1488 04b2 FFF7FEFF 		bl	vTaskDelay
 1489              	.LVL184:
 263:My_Top/System/My_CLI.cpp ****         bool ok = m->_encoder->KTH7111_ANLC_Calibration(60);
 1490              		.loc 1 263 9 is_stmt 1 view .LVU353
 263:My_Top/System/My_CLI.cpp ****         bool ok = m->_encoder->KTH7111_ANLC_Calibration(60);
 1491              		.loc 1 263 15 is_stmt 0 view .LVU354
 1492 04b6 0B99     		ldr	r1, [sp, #44]
 1493 04b8 1548     		ldr	r0, .L107+28
 1494 04ba FFF7FEFF 		bl	printf_
 1495              	.LVL185:
 264:My_Top/System/My_CLI.cpp ****         m->work_mode = open_loop;//هˆ‡ه›‍ه¼€çژ¯وژ§هˆ¶
 1496              		.loc 1 264 9 is_stmt 1 view .LVU355
 264:My_Top/System/My_CLI.cpp ****         m->work_mode = open_loop;//هˆ‡ه›‍ه¼€çژ¯وژ§هˆ¶
 1497              		.loc 1 264 56 is_stmt 0 view .LVU356
ARM GAS  /tmp/cc73j0Ob.s 			page 35


 1498 04be 3C21     		movs	r1, #60
 1499 04c0 206C     		ldr	r0, [r4, #64]
 1500 04c2 FFF7FEFF 		bl	_ZN7KTH711124KTH7111_ANLC_CalibrationEm
 1501              	.LVL186:
 1502 04c6 0546     		mov	r5, r0
 1503              	.LVL187:
 265:My_Top/System/My_CLI.cpp ****         vTaskDelay(pdMS_TO_TICKS(10));
 1504              		.loc 1 265 9 is_stmt 1 view .LVU357
 265:My_Top/System/My_CLI.cpp ****         vTaskDelay(pdMS_TO_TICKS(10));
 1505              		.loc 1 265 22 is_stmt 0 view .LVU358
 1506 04c8 0026     		movs	r6, #0
 1507 04ca 2670     		strb	r6, [r4]
 266:My_Top/System/My_CLI.cpp ****         m->Motor_EN(false);
 1508              		.loc 1 266 9 is_stmt 1 view .LVU359
 266:My_Top/System/My_CLI.cpp ****         m->Motor_EN(false);
 1509              		.loc 1 266 19 is_stmt 0 view .LVU360
 1510 04cc 0A20     		movs	r0, #10
 1511 04ce FFF7FEFF 		bl	vTaskDelay
 1512              	.LVL188:
 267:My_Top/System/My_CLI.cpp ****         m->updown_duty = 0.0;//هپœو­¢ç”µوœ؛
 1513              		.loc 1 267 9 is_stmt 1 view .LVU361
 267:My_Top/System/My_CLI.cpp ****         m->updown_duty = 0.0;//هپœو­¢ç”µوœ؛
 1514              		.loc 1 267 20 is_stmt 0 view .LVU362
 1515 04d2 3146     		mov	r1, r6
 1516 04d4 2046     		mov	r0, r4
 1517 04d6 FFF7FEFF 		bl	_ZN8DC_Motor8Motor_ENEb
 1518              	.LVL189:
 268:My_Top/System/My_CLI.cpp ****         if (ok) {
 1519              		.loc 1 268 9 is_stmt 1 view .LVU363
 268:My_Top/System/My_CLI.cpp ****         if (ok) {
 1520              		.loc 1 268 24 is_stmt 0 view .LVU364
 1521 04da 0023     		movs	r3, #0
 1522 04dc 2361     		str	r3, [r4, #16]	@ float
 269:My_Top/System/My_CLI.cpp ****             printf("ç”µوœ؛M%d ANLC و ،ه‡†وˆگهٹںï¼پهڈ‚و•°ه·²ن؟‌ه­کè‡³MTP\r\n", idx);
 1523              		.loc 1 269 9 is_stmt 1 view .LVU365
 1524 04de 25B1     		cbz	r5, .L98
 270:My_Top/System/My_CLI.cpp ****         } else {
 1525              		.loc 1 270 13 view .LVU366
 270:My_Top/System/My_CLI.cpp ****         } else {
 1526              		.loc 1 270 19 is_stmt 0 view .LVU367
 1527 04e0 0B99     		ldr	r1, [sp, #44]
 1528 04e2 0C48     		ldr	r0, .L107+32
 1529 04e4 FFF7FEFF 		bl	printf_
 1530              	.LVL190:
 1531 04e8 D9E7     		b	.L94
 1532              	.L98:
 272:My_Top/System/My_CLI.cpp ****         }
 1533              		.loc 1 272 13 is_stmt 1 view .LVU368
 272:My_Top/System/My_CLI.cpp ****         }
 1534              		.loc 1 272 19 is_stmt 0 view .LVU369
 1535 04ea 0B99     		ldr	r1, [sp, #44]
 1536 04ec 0A48     		ldr	r0, .L107+36
 1537 04ee FFF7FEFF 		bl	printf_
 1538              	.LVL191:
 1539 04f2 D4E7     		b	.L94
 1540              	.L108:
 1541              		.align	2
ARM GAS  /tmp/cc73j0Ob.s 			page 36


 1542              	.L107:
 1543 04f4 C4010000 		.word	.LC15
 1544 04f8 CC010000 		.word	.LC16
 1545 04fc D0010000 		.word	.LC17
 1546 0500 DC010000 		.word	.LC18
 1547 0504 E4010000 		.word	.LC19
 1548 0508 F4010000 		.word	.LC20
 1549 050c 18020000 		.word	.LC21
 1550 0510 48020000 		.word	.LC22
 1551 0514 7C020000 		.word	.LC23
 1552 0518 B4020000 		.word	.LC24
 1553              	.LBE5:
 1554              	.LBE6:
 1555              		.cfi_endproc
 1556              	.LFE1371:
 1558              		.section	.rodata.str1.4
 1559 02d2 0000     		.align	2
 1560              	.LC25:
 1561 02d4 E794B5E6 		.ascii	"\347\224\265\346\234\272M%d \351\200\237\345\272\246"
 1561      9CBA4D25 
 1561      6420E980 
 1561      9FE5BAA6 
 1562 02e4 706964E8 		.ascii	"pid\350\256\276\347\275\256 kp:%.3f ki:%.3f kd:%.3f"
 1562      AEBEE7BD 
 1562      AE206B70 
 1562      3A252E33 
 1562      66206B69 
 1563 0305 200D0A00 		.ascii	" \015\012\000"
 1564              		.text
 1565              		.align	1
 1566              		.global	_Z9set_pid_vP11EmbeddedCliPcPv
 1567              		.syntax unified
 1568              		.thumb
 1569              		.thumb_func
 1571              	_Z9set_pid_vP11EmbeddedCliPcPv:
 1572              	.LVL192:
 1573              	.LFB1372:
 277:My_Top/System/My_CLI.cpp **** 
 278:My_Top/System/My_CLI.cpp **** 
 279:My_Top/System/My_CLI.cpp **** 
 280:My_Top/System/My_CLI.cpp **** 
 281:My_Top/System/My_CLI.cpp **** 
 282:My_Top/System/My_CLI.cpp **** void set_pid_v(EmbeddedCli *cli, char *args, void *context) //è®¾ç½®PID é€ںه؛¦çژ¯  
 283:My_Top/System/My_CLI.cpp **** {
 1574              		.loc 1 283 1 is_stmt 1 view -0
 1575              		.cfi_startproc
 1576              		@ args = 0, pretend = 0, frame = 56
 1577              		@ frame_needed = 0, uses_anonymous_args = 0
 1578              		.loc 1 283 1 is_stmt 0 view .LVU371
 1579 051c F0B5     		push	{r4, r5, r6, r7, lr}
 1580              		.cfi_def_cfa_offset 20
 1581              		.cfi_offset 4, -20
 1582              		.cfi_offset 5, -16
 1583              		.cfi_offset 6, -12
 1584              		.cfi_offset 7, -8
 1585              		.cfi_offset 14, -4
 1586 051e 93B0     		sub	sp, sp, #76
ARM GAS  /tmp/cc73j0Ob.s 			page 37


 1587              		.cfi_def_cfa_offset 96
 1588 0520 0C46     		mov	r4, r1
 284:My_Top/System/My_CLI.cpp ****     int idx = 0;
 1589              		.loc 1 284 5 is_stmt 1 view .LVU372
 1590              		.loc 1 284 9 is_stmt 0 view .LVU373
 1591 0522 0023     		movs	r3, #0
 1592 0524 1193     		str	r3, [sp, #68]
 285:My_Top/System/My_CLI.cpp ****     char *end1,*end2,*end3;
 1593              		.loc 1 285 5 is_stmt 1 view .LVU374
 286:My_Top/System/My_CLI.cpp ****     // èژ·هڈ–CLIه®‍ن¾‹
 287:My_Top/System/My_CLI.cpp ****     CLI_Module *mc = CLI_Module::get_cli_module(cli);
 1594              		.loc 1 287 5 view .LVU375
 1595              		.loc 1 287 48 is_stmt 0 view .LVU376
 1596 0526 FFF7FEFF 		bl	_ZN10CLI_Module14get_cli_moduleEP11EmbeddedCli
 1597              	.LVL193:
 288:My_Top/System/My_CLI.cpp ****     if (mc == NULL) return;
 1598              		.loc 1 288 5 is_stmt 1 view .LVU377
 1599 052a 0028     		cmp	r0, #0
 1600 052c 49D0     		beq	.L109
 289:My_Top/System/My_CLI.cpp ****     // è§£و‍گهڈ‚و•°
 290:My_Top/System/My_CLI.cpp ****     const char *arg_list[CLI_MODULE_MAX_ARGS_NUM]; //و•°وچ®ه­کو”¾هŒ؛ è¶…é™گهڈھن؟‌ه­که‰چCLI_MODULE_M
 1601              		.loc 1 290 5 view .LVU378
 291:My_Top/System/My_CLI.cpp ****     int argc = CLI_Module::init_arg_list(arg_list, args);
 1602              		.loc 1 291 5 view .LVU379
 1603              		.loc 1 291 41 is_stmt 0 view .LVU380
 1604 052e 04AD     		add	r5, sp, #16
 1605 0530 2146     		mov	r1, r4
 1606 0532 2846     		mov	r0, r5
 1607              	.LVL194:
 1608              		.loc 1 291 41 view .LVU381
 1609 0534 FFF7FEFF 		bl	_ZN10CLI_Module13init_arg_listEPPKcS1_
 1610              	.LVL195:
 1611 0538 0146     		mov	r1, r0
 1612              	.LVL196:
 292:My_Top/System/My_CLI.cpp ****     DC_Motor *m = get_motor_by_arg(arg_list, argc,&idx); //èژ·هڈ–ç”µوœ؛ه¯¹è±،
 1613              		.loc 1 292 5 is_stmt 1 view .LVU382
 1614              		.loc 1 292 35 is_stmt 0 view .LVU383
 1615 053a 11AA     		add	r2, sp, #68
 1616 053c 2846     		mov	r0, r5
 1617              	.LVL197:
 1618              		.loc 1 292 35 view .LVU384
 1619 053e FFF7FEFF 		bl	_Z16get_motor_by_argPPKciPi
 1620              	.LVL198:
 293:My_Top/System/My_CLI.cpp ****     if (!m) return;
 1621              		.loc 1 293 5 is_stmt 1 view .LVU385
 1622 0542 0746     		mov	r7, r0
 1623 0544 0028     		cmp	r0, #0
 1624 0546 3CD0     		beq	.L109
 294:My_Top/System/My_CLI.cpp ****     float kp = strtof(arg_list[2], &end1); //ه°†ه­—ç¬¦ن¸²è½¬وچ¢ن¸؛وµ®ç‚¹و•°
 1625              		.loc 1 294 5 view .LVU386
 1626              		.loc 1 294 22 is_stmt 0 view .LVU387
 1627 0548 10A9     		add	r1, sp, #64
 1628 054a 0698     		ldr	r0, [sp, #24]
 1629              	.LVL199:
 1630              		.loc 1 294 22 view .LVU388
 1631 054c FFF7FEFF 		bl	strtof
 1632              	.LVL200:
ARM GAS  /tmp/cc73j0Ob.s 			page 38


 1633 0550 10EE106A 		vmov	r6, s0
 1634              	.LVL201:
 295:My_Top/System/My_CLI.cpp ****     float ki = strtof(arg_list[3], &end2); //ه°†ه­—ç¬¦ن¸²è½¬وچ¢ن¸؛وµ®ç‚¹و•°
 1635              		.loc 1 295 5 is_stmt 1 view .LVU389
 1636              		.loc 1 295 22 is_stmt 0 view .LVU390
 1637 0554 0FA9     		add	r1, sp, #60
 1638 0556 0798     		ldr	r0, [sp, #28]
 1639 0558 FFF7FEFF 		bl	strtof
 1640              	.LVL202:
 1641 055c 10EE104A 		vmov	r4, s0
 1642              	.LVL203:
 296:My_Top/System/My_CLI.cpp ****     float kd = strtof(arg_list[4], &end3); //ه°†ه­—ç¬¦ن¸²è½¬وچ¢ن¸؛وµ®ç‚¹و•°
 1643              		.loc 1 296 5 is_stmt 1 view .LVU391
 1644              		.loc 1 296 22 is_stmt 0 view .LVU392
 1645 0560 0EA9     		add	r1, sp, #56
 1646 0562 0898     		ldr	r0, [sp, #32]
 1647 0564 FFF7FEFF 		bl	strtof
 1648              	.LVL204:
 1649 0568 10EE105A 		vmov	r5, s0
 1650              	.LVL205:
 297:My_Top/System/My_CLI.cpp ****     if(end1 == arg_list[2] || end2 == arg_list[3] || end3 == arg_list[4])
 1651              		.loc 1 297 5 is_stmt 1 view .LVU393
 1652 056c 069A     		ldr	r2, [sp, #24]
 1653 056e 109B     		ldr	r3, [sp, #64]
 1654 0570 9A42     		cmp	r2, r3
 1655 0572 28D0     		beq	.L111
 1656              		.loc 1 297 28 is_stmt 0 discriminator 1 view .LVU394
 1657 0574 079A     		ldr	r2, [sp, #28]
 1658 0576 0F9B     		ldr	r3, [sp, #60]
 1659 0578 9A42     		cmp	r2, r3
 1660 057a 24D0     		beq	.L111
 1661              		.loc 1 297 51 discriminator 2 view .LVU395
 1662 057c 089A     		ldr	r2, [sp, #32]
 1663 057e 0E9B     		ldr	r3, [sp, #56]
 1664 0580 9A42     		cmp	r2, r3
 1665 0582 20D0     		beq	.L111
 298:My_Top/System/My_CLI.cpp ****     {
 299:My_Top/System/My_CLI.cpp ****         printf("هڈ‚و•°و ¼ه¼ڈé”™è¯¯\r\n");
 300:My_Top/System/My_CLI.cpp ****         return;
 301:My_Top/System/My_CLI.cpp ****     }
 302:My_Top/System/My_CLI.cpp ****     m->pid_speed_incparam->_kp = kp;
 1666              		.loc 1 302 5 is_stmt 1 view .LVU396
 1667              		.loc 1 302 8 is_stmt 0 view .LVU397
 1668 0584 7B6C     		ldr	r3, [r7, #68]
 1669              		.loc 1 302 32 view .LVU398
 1670 0586 1E60     		str	r6, [r3]	@ float
 303:My_Top/System/My_CLI.cpp ****     m->pid_speed_incparam->_ki = ki;
 1671              		.loc 1 303 5 is_stmt 1 view .LVU399
 1672              		.loc 1 303 8 is_stmt 0 view .LVU400
 1673 0588 7B6C     		ldr	r3, [r7, #68]
 1674              		.loc 1 303 32 view .LVU401
 1675 058a 5C60     		str	r4, [r3, #4]	@ float
 304:My_Top/System/My_CLI.cpp ****     m->pid_speed_incparam->_kd = kd;
 1676              		.loc 1 304 5 is_stmt 1 view .LVU402
 1677              		.loc 1 304 8 is_stmt 0 view .LVU403
 1678 058c 7B6C     		ldr	r3, [r7, #68]
 1679              		.loc 1 304 32 view .LVU404
ARM GAS  /tmp/cc73j0Ob.s 			page 39


 1680 058e 83ED020A 		vstr.32	s0, [r3, #8]
 305:My_Top/System/My_CLI.cpp ****     m->My_DC_Motor_Reset(); //é‡چç½®ç”µوœ؛
 1681              		.loc 1 305 5 is_stmt 1 view .LVU405
 1682              		.loc 1 305 25 is_stmt 0 view .LVU406
 1683 0592 3846     		mov	r0, r7
 1684 0594 FFF7FEFF 		bl	_ZN8DC_Motor17My_DC_Motor_ResetEv
 1685              	.LVL206:
 306:My_Top/System/My_CLI.cpp ****     printf("ç”µوœ؛M%d é€ںه؛¦pidè®¾ç½® kp:%.3f ki:%.3f kd:%.3f \r\n",idx,kp,ki,kd);
 1686              		.loc 1 306 5 is_stmt 1 view .LVU407
 1687              		.loc 1 306 11 is_stmt 0 view .LVU408
 1688 0598 3046     		mov	r0, r6	@ float
 1689 059a FFF7FEFF 		bl	__aeabi_f2d
 1690              	.LVL207:
 1691 059e 0646     		mov	r6, r0
 1692              	.LVL208:
 1693              		.loc 1 306 11 view .LVU409
 1694 05a0 0F46     		mov	r7, r1
 1695              	.LVL209:
 1696              		.loc 1 306 11 view .LVU410
 1697 05a2 2846     		mov	r0, r5	@ float
 1698 05a4 FFF7FEFF 		bl	__aeabi_f2d
 1699              	.LVL210:
 1700 05a8 CDE90201 		strd	r0, [sp, #8]
 1701 05ac 2046     		mov	r0, r4	@ float
 1702 05ae FFF7FEFF 		bl	__aeabi_f2d
 1703              	.LVL211:
 1704 05b2 CDE90001 		strd	r0, [sp]
 1705 05b6 3246     		mov	r2, r6
 1706 05b8 3B46     		mov	r3, r7
 1707 05ba 1199     		ldr	r1, [sp, #68]
 1708 05bc 0448     		ldr	r0, .L115
 1709 05be FFF7FEFF 		bl	printf_
 1710              	.LVL212:
 1711              	.L109:
 307:My_Top/System/My_CLI.cpp **** }
 1712              		.loc 1 307 1 view .LVU411
 1713 05c2 13B0     		add	sp, sp, #76
 1714              		.cfi_remember_state
 1715              		.cfi_def_cfa_offset 20
 1716              		@ sp needed
 1717 05c4 F0BD     		pop	{r4, r5, r6, r7, pc}
 1718              	.LVL213:
 1719              	.L111:
 1720              		.cfi_restore_state
 299:My_Top/System/My_CLI.cpp ****         return;
 1721              		.loc 1 299 9 is_stmt 1 view .LVU412
 299:My_Top/System/My_CLI.cpp ****         return;
 1722              		.loc 1 299 15 is_stmt 0 view .LVU413
 1723 05c6 0348     		ldr	r0, .L115+4
 1724 05c8 FFF7FEFF 		bl	printf_
 1725              	.LVL214:
 300:My_Top/System/My_CLI.cpp ****     }
 1726              		.loc 1 300 9 is_stmt 1 view .LVU414
 1727 05cc F9E7     		b	.L109
 1728              	.L116:
 1729 05ce 00BF     		.align	2
 1730              	.L115:
ARM GAS  /tmp/cc73j0Ob.s 			page 40


 1731 05d0 D4020000 		.word	.LC25
 1732 05d4 F8000000 		.word	.LC9
 1733              		.cfi_endproc
 1734              	.LFE1372:
 1736              		.section	.rodata.str1.4
 1737 0309 000000   		.align	2
 1738              	.LC26:
 1739 030c E794B5E6 		.ascii	"\347\224\265\346\234\272M%d \344\275\215\347\275\256"
 1739      9CBA4D25 
 1739      6420E4BD 
 1739      8DE7BDAE 
 1740 031c 706964E8 		.ascii	"pid\350\256\276\347\275\256 kp:%.3f ki:%.3f kd:%.3f"
 1740      AEBEE7BD 
 1740      AE206B70 
 1740      3A252E33 
 1740      66206B69 
 1741 033d 200D0A00 		.ascii	" \015\012\000"
 1742              		.text
 1743              		.align	1
 1744              		.global	_Z9set_pid_pP11EmbeddedCliPcPv
 1745              		.syntax unified
 1746              		.thumb
 1747              		.thumb_func
 1749              	_Z9set_pid_pP11EmbeddedCliPcPv:
 1750              	.LVL215:
 1751              	.LFB1373:
 308:My_Top/System/My_CLI.cpp **** 
 309:My_Top/System/My_CLI.cpp **** 
 310:My_Top/System/My_CLI.cpp **** void set_pid_p(EmbeddedCli *cli, char *args, void *context) //è®¾ç½®PID ن½چç½®çژ¯  
 311:My_Top/System/My_CLI.cpp **** {
 1752              		.loc 1 311 1 view -0
 1753              		.cfi_startproc
 1754              		@ args = 0, pretend = 0, frame = 56
 1755              		@ frame_needed = 0, uses_anonymous_args = 0
 1756              		.loc 1 311 1 is_stmt 0 view .LVU416
 1757 05d8 F0B5     		push	{r4, r5, r6, r7, lr}
 1758              		.cfi_def_cfa_offset 20
 1759              		.cfi_offset 4, -20
 1760              		.cfi_offset 5, -16
 1761              		.cfi_offset 6, -12
 1762              		.cfi_offset 7, -8
 1763              		.cfi_offset 14, -4
 1764 05da 93B0     		sub	sp, sp, #76
 1765              		.cfi_def_cfa_offset 96
 1766 05dc 0C46     		mov	r4, r1
 312:My_Top/System/My_CLI.cpp ****     int idx = 0;
 1767              		.loc 1 312 5 is_stmt 1 view .LVU417
 1768              		.loc 1 312 9 is_stmt 0 view .LVU418
 1769 05de 0023     		movs	r3, #0
 1770 05e0 1193     		str	r3, [sp, #68]
 313:My_Top/System/My_CLI.cpp ****     char *end1,*end2,*end3;
 1771              		.loc 1 313 5 is_stmt 1 view .LVU419
 314:My_Top/System/My_CLI.cpp ****     // èژ·هڈ–CLIه®‍ن¾‹
 315:My_Top/System/My_CLI.cpp ****     CLI_Module *mc = CLI_Module::get_cli_module(cli);
 1772              		.loc 1 315 5 view .LVU420
 1773              		.loc 1 315 48 is_stmt 0 view .LVU421
 1774 05e2 FFF7FEFF 		bl	_ZN10CLI_Module14get_cli_moduleEP11EmbeddedCli
ARM GAS  /tmp/cc73j0Ob.s 			page 41


 1775              	.LVL216:
 316:My_Top/System/My_CLI.cpp ****     if (mc == NULL) return;
 1776              		.loc 1 316 5 is_stmt 1 view .LVU422
 1777 05e6 0028     		cmp	r0, #0
 1778 05e8 49D0     		beq	.L117
 317:My_Top/System/My_CLI.cpp ****     // è§£و‍گهڈ‚و•°
 318:My_Top/System/My_CLI.cpp ****     const char *arg_list[CLI_MODULE_MAX_ARGS_NUM]; //و•°وچ®ه­کو”¾هŒ؛ è¶…é™گهڈھن؟‌ه­که‰چCLI_MODULE_M
 1779              		.loc 1 318 5 view .LVU423
 319:My_Top/System/My_CLI.cpp ****     int argc = CLI_Module::init_arg_list(arg_list, args);
 1780              		.loc 1 319 5 view .LVU424
 1781              		.loc 1 319 41 is_stmt 0 view .LVU425
 1782 05ea 04AD     		add	r5, sp, #16
 1783 05ec 2146     		mov	r1, r4
 1784 05ee 2846     		mov	r0, r5
 1785              	.LVL217:
 1786              		.loc 1 319 41 view .LVU426
 1787 05f0 FFF7FEFF 		bl	_ZN10CLI_Module13init_arg_listEPPKcS1_
 1788              	.LVL218:
 1789 05f4 0146     		mov	r1, r0
 1790              	.LVL219:
 320:My_Top/System/My_CLI.cpp ****     DC_Motor *m = get_motor_by_arg(arg_list, argc,&idx); //èژ·هڈ–ç”µوœ؛ه¯¹è±،
 1791              		.loc 1 320 5 is_stmt 1 view .LVU427
 1792              		.loc 1 320 35 is_stmt 0 view .LVU428
 1793 05f6 11AA     		add	r2, sp, #68
 1794 05f8 2846     		mov	r0, r5
 1795              	.LVL220:
 1796              		.loc 1 320 35 view .LVU429
 1797 05fa FFF7FEFF 		bl	_Z16get_motor_by_argPPKciPi
 1798              	.LVL221:
 321:My_Top/System/My_CLI.cpp ****     if (!m) return;
 1799              		.loc 1 321 5 is_stmt 1 view .LVU430
 1800 05fe 0746     		mov	r7, r0
 1801 0600 0028     		cmp	r0, #0
 1802 0602 3CD0     		beq	.L117
 322:My_Top/System/My_CLI.cpp ****     float kp = strtof(arg_list[2], &end1); //ه°†ه­—ç¬¦ن¸²è½¬وچ¢ن¸؛وµ®ç‚¹و•°
 1803              		.loc 1 322 5 view .LVU431
 1804              		.loc 1 322 22 is_stmt 0 view .LVU432
 1805 0604 10A9     		add	r1, sp, #64
 1806 0606 0698     		ldr	r0, [sp, #24]
 1807              	.LVL222:
 1808              		.loc 1 322 22 view .LVU433
 1809 0608 FFF7FEFF 		bl	strtof
 1810              	.LVL223:
 1811 060c 10EE106A 		vmov	r6, s0
 1812              	.LVL224:
 323:My_Top/System/My_CLI.cpp ****     float ki = strtof(arg_list[3], &end2); //ه°†ه­—ç¬¦ن¸²è½¬وچ¢ن¸؛وµ®ç‚¹و•°
 1813              		.loc 1 323 5 is_stmt 1 view .LVU434
 1814              		.loc 1 323 22 is_stmt 0 view .LVU435
 1815 0610 0FA9     		add	r1, sp, #60
 1816 0612 0798     		ldr	r0, [sp, #28]
 1817 0614 FFF7FEFF 		bl	strtof
 1818              	.LVL225:
 1819 0618 10EE104A 		vmov	r4, s0
 1820              	.LVL226:
 324:My_Top/System/My_CLI.cpp ****     float kd = strtof(arg_list[4], &end3); //ه°†ه­—ç¬¦ن¸²è½¬وچ¢ن¸؛وµ®ç‚¹و•°
 1821              		.loc 1 324 5 is_stmt 1 view .LVU436
 1822              		.loc 1 324 22 is_stmt 0 view .LVU437
ARM GAS  /tmp/cc73j0Ob.s 			page 42


 1823 061c 0EA9     		add	r1, sp, #56
 1824 061e 0898     		ldr	r0, [sp, #32]
 1825 0620 FFF7FEFF 		bl	strtof
 1826              	.LVL227:
 1827 0624 10EE105A 		vmov	r5, s0
 1828              	.LVL228:
 325:My_Top/System/My_CLI.cpp ****     if(end1 == arg_list[2] || end2 == arg_list[3] || end3 == arg_list[4])
 1829              		.loc 1 325 5 is_stmt 1 view .LVU438
 1830 0628 069A     		ldr	r2, [sp, #24]
 1831 062a 109B     		ldr	r3, [sp, #64]
 1832 062c 9A42     		cmp	r2, r3
 1833 062e 28D0     		beq	.L119
 1834              		.loc 1 325 28 is_stmt 0 discriminator 1 view .LVU439
 1835 0630 079A     		ldr	r2, [sp, #28]
 1836 0632 0F9B     		ldr	r3, [sp, #60]
 1837 0634 9A42     		cmp	r2, r3
 1838 0636 24D0     		beq	.L119
 1839              		.loc 1 325 51 discriminator 2 view .LVU440
 1840 0638 089A     		ldr	r2, [sp, #32]
 1841 063a 0E9B     		ldr	r3, [sp, #56]
 1842 063c 9A42     		cmp	r2, r3
 1843 063e 20D0     		beq	.L119
 326:My_Top/System/My_CLI.cpp ****     {
 327:My_Top/System/My_CLI.cpp ****         printf("هڈ‚و•°و ¼ه¼ڈé”™è¯¯\r\n");
 328:My_Top/System/My_CLI.cpp ****         return;
 329:My_Top/System/My_CLI.cpp ****     }
 330:My_Top/System/My_CLI.cpp ****     m->pid_location->_kp = kp;
 1844              		.loc 1 330 5 is_stmt 1 view .LVU441
 1845              		.loc 1 330 8 is_stmt 0 view .LVU442
 1846 0640 BB6C     		ldr	r3, [r7, #72]
 1847              		.loc 1 330 26 view .LVU443
 1848 0642 1E60     		str	r6, [r3]	@ float
 331:My_Top/System/My_CLI.cpp ****     m->pid_location->_ki = ki;
 1849              		.loc 1 331 5 is_stmt 1 view .LVU444
 1850              		.loc 1 331 8 is_stmt 0 view .LVU445
 1851 0644 BB6C     		ldr	r3, [r7, #72]
 1852              		.loc 1 331 26 view .LVU446
 1853 0646 5C60     		str	r4, [r3, #4]	@ float
 332:My_Top/System/My_CLI.cpp ****     m->pid_location->_kd = kd;
 1854              		.loc 1 332 5 is_stmt 1 view .LVU447
 1855              		.loc 1 332 8 is_stmt 0 view .LVU448
 1856 0648 BB6C     		ldr	r3, [r7, #72]
 1857              		.loc 1 332 26 view .LVU449
 1858 064a 83ED020A 		vstr.32	s0, [r3, #8]
 333:My_Top/System/My_CLI.cpp ****     m->My_DC_Motor_Reset(); //é‡چç½®ç”µوœ؛
 1859              		.loc 1 333 5 is_stmt 1 view .LVU450
 1860              		.loc 1 333 25 is_stmt 0 view .LVU451
 1861 064e 3846     		mov	r0, r7
 1862 0650 FFF7FEFF 		bl	_ZN8DC_Motor17My_DC_Motor_ResetEv
 1863              	.LVL229:
 334:My_Top/System/My_CLI.cpp ****     printf("ç”µوœ؛M%d ن½چç½®pidè®¾ç½® kp:%.3f ki:%.3f kd:%.3f \r\n",idx,kp,ki,kd);
 1864              		.loc 1 334 5 is_stmt 1 view .LVU452
 1865              		.loc 1 334 11 is_stmt 0 view .LVU453
 1866 0654 3046     		mov	r0, r6	@ float
 1867 0656 FFF7FEFF 		bl	__aeabi_f2d
 1868              	.LVL230:
 1869 065a 0646     		mov	r6, r0
ARM GAS  /tmp/cc73j0Ob.s 			page 43


 1870              	.LVL231:
 1871              		.loc 1 334 11 view .LVU454
 1872 065c 0F46     		mov	r7, r1
 1873              	.LVL232:
 1874              		.loc 1 334 11 view .LVU455
 1875 065e 2846     		mov	r0, r5	@ float
 1876 0660 FFF7FEFF 		bl	__aeabi_f2d
 1877              	.LVL233:
 1878 0664 CDE90201 		strd	r0, [sp, #8]
 1879 0668 2046     		mov	r0, r4	@ float
 1880 066a FFF7FEFF 		bl	__aeabi_f2d
 1881              	.LVL234:
 1882 066e CDE90001 		strd	r0, [sp]
 1883 0672 3246     		mov	r2, r6
 1884 0674 3B46     		mov	r3, r7
 1885 0676 1199     		ldr	r1, [sp, #68]
 1886 0678 0448     		ldr	r0, .L123
 1887 067a FFF7FEFF 		bl	printf_
 1888              	.LVL235:
 1889              	.L117:
 335:My_Top/System/My_CLI.cpp **** }
 1890              		.loc 1 335 1 view .LVU456
 1891 067e 13B0     		add	sp, sp, #76
 1892              		.cfi_remember_state
 1893              		.cfi_def_cfa_offset 20
 1894              		@ sp needed
 1895 0680 F0BD     		pop	{r4, r5, r6, r7, pc}
 1896              	.LVL236:
 1897              	.L119:
 1898              		.cfi_restore_state
 327:My_Top/System/My_CLI.cpp ****         return;
 1899              		.loc 1 327 9 is_stmt 1 view .LVU457
 327:My_Top/System/My_CLI.cpp ****         return;
 1900              		.loc 1 327 15 is_stmt 0 view .LVU458
 1901 0682 0348     		ldr	r0, .L123+4
 1902 0684 FFF7FEFF 		bl	printf_
 1903              	.LVL237:
 328:My_Top/System/My_CLI.cpp ****     }
 1904              		.loc 1 328 9 is_stmt 1 view .LVU459
 1905 0688 F9E7     		b	.L117
 1906              	.L124:
 1907 068a 00BF     		.align	2
 1908              	.L123:
 1909 068c 0C030000 		.word	.LC26
 1910 0690 F8000000 		.word	.LC9
 1911              		.cfi_endproc
 1912              	.LFE1373:
 1914              		.section	.rodata.str1.4
 1915 0341 000000   		.align	2
 1916              	.LC27:
 1917 0344 E794B5E6 		.ascii	"\347\224\265\346\234\272M%d \345\275\223\345\211\215"
 1917      9CBA4D25 
 1917      6420E5BD 
 1917      93E5898D 
 1918 0354 E6A8A1E5 		.ascii	"\346\250\241\345\274\217\344\270\272\345\274\200\347"
 1918      BC8FE4B8 
 1918      BAE5BC80 
ARM GAS  /tmp/cc73j0Ob.s 			page 44


 1918      E7
 1919 0361 8EAFE68E 		.ascii	"\216\257\346\216\247\345\210\266\346\250\241\345\274"
 1919      A7E588B6 
 1919      E6A8A1E5 
 1919      BC
 1920 036e 8F0D0A00 		.ascii	"\217\015\012\000"
 1921 0372 0000     		.align	2
 1922              	.LC28:
 1923 0374 E794B5E6 		.ascii	"\347\224\265\346\234\272M%d \345\275\223\345\211\215"
 1923      9CBA4D25 
 1923      6420E5BD 
 1923      93E5898D 
 1924 0384 E6A8A1E5 		.ascii	"\346\250\241\345\274\217\344\270\272\351\200\237\345"
 1924      BC8FE4B8 
 1924      BAE9809F 
 1924      E5
 1925 0391 BAA6E68E 		.ascii	"\272\246\346\216\247\345\210\266\346\250\241\345\274"
 1925      A7E588B6 
 1925      E6A8A1E5 
 1925      BC
 1926 039e 8F0D0A00 		.ascii	"\217\015\012\000"
 1927 03a2 0000     		.align	2
 1928              	.LC29:
 1929 03a4 E794B5E6 		.ascii	"\347\224\265\346\234\272M%d \345\275\223\345\211\215"
 1929      9CBA4D25 
 1929      6420E5BD 
 1929      93E5898D 
 1930 03b4 E6A8A1E5 		.ascii	"\346\250\241\345\274\217\344\270\272\344\275\215\347"
 1930      BC8FE4B8 
 1930      BAE4BD8D 
 1930      E7
 1931 03c1 BDAEE68E 		.ascii	"\275\256\346\216\247\345\210\266\346\250\241\345\274"
 1931      A7E588B6 
 1931      E6A8A1E5 
 1931      BC
 1932 03ce 8F0D0A00 		.ascii	"\217\015\012\000"
 1933 03d2 0000     		.align	2
 1934              	.LC30:
 1935 03d4 E794B5E6 		.ascii	"\347\224\265\346\234\272M%d \346\234\252\347\237\245"
 1935      9CBA4D25 
 1935      6420E69C 
 1935      AAE79FA5 
 1936 03e4 E6A8A1E5 		.ascii	"\346\250\241\345\274\217\015\012\000"
 1936      BC8F0D0A 
 1936      00
 1937              		.text
 1938              		.align	1
 1939              		.global	_Z8get_modeP11EmbeddedCliPcPv
 1940              		.syntax unified
 1941              		.thumb
 1942              		.thumb_func
 1944              	_Z8get_modeP11EmbeddedCliPcPv:
 1945              	.LVL238:
 1946              	.LFB1374:
 336:My_Top/System/My_CLI.cpp **** 
 337:My_Top/System/My_CLI.cpp **** 
 338:My_Top/System/My_CLI.cpp **** void get_mode(EmbeddedCli *cli, char *args, void *context) //èژ·هڈ–ه½“ه‰چه·¥ن½œو¨،ه¼ڈ
ARM GAS  /tmp/cc73j0Ob.s 			page 45


 339:My_Top/System/My_CLI.cpp **** {
 1947              		.loc 1 339 1 view -0
 1948              		.cfi_startproc
 1949              		@ args = 0, pretend = 0, frame = 48
 1950              		@ frame_needed = 0, uses_anonymous_args = 0
 1951              		.loc 1 339 1 is_stmt 0 view .LVU461
 1952 0694 30B5     		push	{r4, r5, lr}
 1953              		.cfi_def_cfa_offset 12
 1954              		.cfi_offset 4, -12
 1955              		.cfi_offset 5, -8
 1956              		.cfi_offset 14, -4
 1957 0696 8DB0     		sub	sp, sp, #52
 1958              		.cfi_def_cfa_offset 64
 1959 0698 0C46     		mov	r4, r1
 340:My_Top/System/My_CLI.cpp ****     int idx = 0;
 1960              		.loc 1 340 5 is_stmt 1 view .LVU462
 1961              		.loc 1 340 9 is_stmt 0 view .LVU463
 1962 069a 0023     		movs	r3, #0
 1963 069c 0B93     		str	r3, [sp, #44]
 341:My_Top/System/My_CLI.cpp ****     char *end;
 1964              		.loc 1 341 5 is_stmt 1 view .LVU464
 342:My_Top/System/My_CLI.cpp ****     // èژ·هڈ–CLIه®‍ن¾‹
 343:My_Top/System/My_CLI.cpp ****     CLI_Module *mc = CLI_Module::get_cli_module(cli);
 1965              		.loc 1 343 5 view .LVU465
 1966              		.loc 1 343 48 is_stmt 0 view .LVU466
 1967 069e FFF7FEFF 		bl	_ZN10CLI_Module14get_cli_moduleEP11EmbeddedCli
 1968              	.LVL239:
 344:My_Top/System/My_CLI.cpp ****     if (mc == NULL) return;
 1969              		.loc 1 344 5 is_stmt 1 view .LVU467
 1970 06a2 A0B1     		cbz	r0, .L125
 345:My_Top/System/My_CLI.cpp ****     // è§£و‍گهڈ‚و•°
 346:My_Top/System/My_CLI.cpp ****     const char *arg_list[CLI_MODULE_MAX_ARGS_NUM]; //و•°وچ®ه­کو”¾هŒ؛ è¶…é™گهڈھن؟‌ه­که‰چCLI_MODULE_M
 1971              		.loc 1 346 5 view .LVU468
 347:My_Top/System/My_CLI.cpp ****     int argc = CLI_Module::init_arg_list(arg_list, args);
 1972              		.loc 1 347 5 view .LVU469
 1973              		.loc 1 347 41 is_stmt 0 view .LVU470
 1974 06a4 01AD     		add	r5, sp, #4
 1975 06a6 2146     		mov	r1, r4
 1976 06a8 2846     		mov	r0, r5
 1977              	.LVL240:
 1978              		.loc 1 347 41 view .LVU471
 1979 06aa FFF7FEFF 		bl	_ZN10CLI_Module13init_arg_listEPPKcS1_
 1980              	.LVL241:
 1981 06ae 0146     		mov	r1, r0
 1982              	.LVL242:
 348:My_Top/System/My_CLI.cpp ****     DC_Motor *m = get_motor_by_arg(arg_list, argc,&idx); //èژ·هڈ–ç”µوœ؛ه¯¹è±،
 1983              		.loc 1 348 5 is_stmt 1 view .LVU472
 1984              		.loc 1 348 35 is_stmt 0 view .LVU473
 1985 06b0 0BAA     		add	r2, sp, #44
 1986 06b2 2846     		mov	r0, r5
 1987              	.LVL243:
 1988              		.loc 1 348 35 view .LVU474
 1989 06b4 FFF7FEFF 		bl	_Z16get_motor_by_argPPKciPi
 1990              	.LVL244:
 349:My_Top/System/My_CLI.cpp ****     if (!m) return;
 1991              		.loc 1 349 5 is_stmt 1 view .LVU475
 1992 06b8 48B1     		cbz	r0, .L125
ARM GAS  /tmp/cc73j0Ob.s 			page 46


 350:My_Top/System/My_CLI.cpp ****     Work_Mode temp = m->work_mode;
 1993              		.loc 1 350 5 view .LVU476
 1994              		.loc 1 350 15 is_stmt 0 view .LVU477
 1995 06ba 0378     		ldrb	r3, [r0]	@ zero_extendqisi2
 1996              	.LVL245:
 351:My_Top/System/My_CLI.cpp ****     switch (temp)
 1997              		.loc 1 351 5 is_stmt 1 view .LVU478
 1998 06bc 012B     		cmp	r3, #1
 1999 06be 08D0     		beq	.L127
 2000 06c0 022B     		cmp	r3, #2
 2001 06c2 0BD0     		beq	.L128
 2002 06c4 7BB9     		cbnz	r3, .L129
 352:My_Top/System/My_CLI.cpp ****     {
 353:My_Top/System/My_CLI.cpp ****     case open_loop:
 2003              		.loc 1 353 5 view .LVU479
 354:My_Top/System/My_CLI.cpp ****         printf("ç”µوœ؛M%d ه½“ه‰چو¨،ه¼ڈن¸؛ه¼€çژ¯وژ§هˆ¶و¨،ه¼ڈ\r\n",idx);
 2004              		.loc 1 354 9 view .LVU480
 2005              		.loc 1 354 15 is_stmt 0 view .LVU481
 2006 06c6 0B99     		ldr	r1, [sp, #44]
 2007 06c8 0948     		ldr	r0, .L133
 2008              	.LVL246:
 2009              		.loc 1 354 15 view .LVU482
 2010 06ca FFF7FEFF 		bl	printf_
 2011              	.LVL247:
 355:My_Top/System/My_CLI.cpp ****         break;
 2012              		.loc 1 355 9 is_stmt 1 view .LVU483
 2013              	.L125:
 356:My_Top/System/My_CLI.cpp ****     case speed:
 357:My_Top/System/My_CLI.cpp ****         printf("ç”µوœ؛M%d ه½“ه‰چو¨،ه¼ڈن¸؛é€ںه؛¦وژ§هˆ¶و¨،ه¼ڈ\r\n",idx);
 358:My_Top/System/My_CLI.cpp ****         break;
 359:My_Top/System/My_CLI.cpp ****     case position:
 360:My_Top/System/My_CLI.cpp ****         printf("ç”µوœ؛M%d ه½“ه‰چو¨،ه¼ڈن¸؛ن½چç½®وژ§هˆ¶و¨،ه¼ڈ\r\n",idx);
 361:My_Top/System/My_CLI.cpp ****         break;    
 362:My_Top/System/My_CLI.cpp ****     default:
 363:My_Top/System/My_CLI.cpp ****         printf("ç”µوœ؛M%d وœھçں¥و¨،ه¼ڈ\r\n",idx);
 364:My_Top/System/My_CLI.cpp ****         break;
 365:My_Top/System/My_CLI.cpp ****     }
 366:My_Top/System/My_CLI.cpp ****     
 367:My_Top/System/My_CLI.cpp **** }
 2014              		.loc 1 367 1 is_stmt 0 view .LVU484
 2015 06ce 0DB0     		add	sp, sp, #52
 2016              		.cfi_remember_state
 2017              		.cfi_def_cfa_offset 12
 2018              		@ sp needed
 2019 06d0 30BD     		pop	{r4, r5, pc}
 2020              	.LVL248:
 2021              	.L127:
 2022              		.cfi_restore_state
 356:My_Top/System/My_CLI.cpp ****     case speed:
 2023              		.loc 1 356 5 is_stmt 1 view .LVU485
 357:My_Top/System/My_CLI.cpp ****         break;
 2024              		.loc 1 357 9 view .LVU486
 357:My_Top/System/My_CLI.cpp ****         break;
 2025              		.loc 1 357 15 is_stmt 0 view .LVU487
 2026 06d2 0B99     		ldr	r1, [sp, #44]
 2027 06d4 0748     		ldr	r0, .L133+4
 2028              	.LVL249:
ARM GAS  /tmp/cc73j0Ob.s 			page 47


 357:My_Top/System/My_CLI.cpp ****         break;
 2029              		.loc 1 357 15 view .LVU488
 2030 06d6 FFF7FEFF 		bl	printf_
 2031              	.LVL250:
 358:My_Top/System/My_CLI.cpp ****     case position:
 2032              		.loc 1 358 9 is_stmt 1 view .LVU489
 2033 06da F8E7     		b	.L125
 2034              	.LVL251:
 2035              	.L128:
 359:My_Top/System/My_CLI.cpp ****         printf("ç”µوœ؛M%d ه½“ه‰چو¨،ه¼ڈن¸؛ن½چç½®وژ§هˆ¶و¨،ه¼ڈ\r\n",idx);
 2036              		.loc 1 359 5 view .LVU490
 360:My_Top/System/My_CLI.cpp ****         break;    
 2037              		.loc 1 360 9 view .LVU491
 360:My_Top/System/My_CLI.cpp ****         break;    
 2038              		.loc 1 360 15 is_stmt 0 view .LVU492
 2039 06dc 0B99     		ldr	r1, [sp, #44]
 2040 06de 0648     		ldr	r0, .L133+8
 2041              	.LVL252:
 360:My_Top/System/My_CLI.cpp ****         break;    
 2042              		.loc 1 360 15 view .LVU493
 2043 06e0 FFF7FEFF 		bl	printf_
 2044              	.LVL253:
 361:My_Top/System/My_CLI.cpp ****     default:
 2045              		.loc 1 361 9 is_stmt 1 view .LVU494
 2046 06e4 F3E7     		b	.L125
 2047              	.LVL254:
 2048              	.L129:
 362:My_Top/System/My_CLI.cpp ****         printf("ç”µوœ؛M%d وœھçں¥و¨،ه¼ڈ\r\n",idx);
 2049              		.loc 1 362 5 view .LVU495
 363:My_Top/System/My_CLI.cpp ****         break;
 2050              		.loc 1 363 9 view .LVU496
 363:My_Top/System/My_CLI.cpp ****         break;
 2051              		.loc 1 363 15 is_stmt 0 view .LVU497
 2052 06e6 0B99     		ldr	r1, [sp, #44]
 2053 06e8 0448     		ldr	r0, .L133+12
 2054              	.LVL255:
 363:My_Top/System/My_CLI.cpp ****         break;
 2055              		.loc 1 363 15 view .LVU498
 2056 06ea FFF7FEFF 		bl	printf_
 2057              	.LVL256:
 364:My_Top/System/My_CLI.cpp ****     }
 2058              		.loc 1 364 9 is_stmt 1 view .LVU499
 2059 06ee EEE7     		b	.L125
 2060              	.L134:
 2061              		.align	2
 2062              	.L133:
 2063 06f0 44030000 		.word	.LC27
 2064 06f4 74030000 		.word	.LC28
 2065 06f8 A4030000 		.word	.LC29
 2066 06fc D4030000 		.word	.LC30
 2067              		.cfi_endproc
 2068              	.LFE1374:
 2070              	.Letext0:
 2071              		.file 2 "/opt/arm-gnu-toolchain-14.2/lib/gcc/arm-none-eabi/14.2.1/include/stddef.h"
 2072              		.file 3 "/opt/arm-gnu-toolchain-14.2/arm-none-eabi/include/machine/_default_types.h"
 2073              		.file 4 "/opt/arm-gnu-toolchain-14.2/arm-none-eabi/include/sys/_stdint.h"
 2074              		.file 5 "Middlewares/Third_Party/FreeRTOS/Source/portable/GCC/ARM_CM4F/portmacro.h"
ARM GAS  /tmp/cc73j0Ob.s 			page 48


 2075              		.file 6 "Middlewares/Third_Party/FreeRTOS/Source/include/task.h"
 2076              		.file 7 "/opt/arm-gnu-toolchain-14.2/arm-none-eabi/include/stdlib.h"
 2077              		.file 8 "/opt/arm-gnu-toolchain-14.2/arm-none-eabi/include/c++/14.2.1/cstdlib"
 2078              		.file 9 "/opt/arm-gnu-toolchain-14.2/arm-none-eabi/include/c++/14.2.1/cmath"
 2079              		.file 10 "/opt/arm-gnu-toolchain-14.2/arm-none-eabi/include/c++/14.2.1/type_traits"
 2080              		.file 11 "/opt/arm-gnu-toolchain-14.2/arm-none-eabi/include/c++/14.2.1/debug/debug.h"
 2081              		.file 12 "/opt/arm-gnu-toolchain-14.2/arm-none-eabi/include/c++/14.2.1/bits/std_abs.h"
 2082              		.file 13 "/opt/arm-gnu-toolchain-14.2/arm-none-eabi/include/c++/14.2.1/bits/predefined_ops.h"
 2083              		.file 14 "Middlewares/Third_Party/FreeRTOS/Source/include/queue.h"
 2084              		.file 15 "Middlewares/Third_Party/FreeRTOS/Source/include/semphr.h"
 2085              		.file 16 "Drivers/CMSIS/Device/ST/STM32G4xx/Include/stm32g474xx.h"
 2086              		.file 17 "Drivers/STM32G4xx_HAL_Driver/Inc/stm32g4xx_hal_def.h"
 2087              		.file 18 "Drivers/STM32G4xx_HAL_Driver/Inc/stm32g4xx_hal_dma.h"
 2088              		.file 19 "Drivers/STM32G4xx_HAL_Driver/Inc/stm32g4xx_hal_spi.h"
 2089              		.file 20 "Drivers/STM32G4xx_HAL_Driver/Inc/stm32g4xx_hal_tim.h"
 2090              		.file 21 "Drivers/STM32G4xx_HAL_Driver/Inc/stm32g4xx_hal_uart.h"
 2091              		.file 22 "Lib/serial/serial.hpp"
 2092              		.file 23 "Lib/embedded-cli/embedded_cli.h"
 2093              		.file 24 "My_Top/Modules/CLI_Module.hpp"
 2094              		.file 25 "My_Top/System/bsp.hpp"
 2095              		.file 26 "Lib/compute/pid/pid.hpp"
 2096              		.file 27 "Lib/compute/pid/pid_Increment.hpp"
 2097              		.file 28 "/opt/arm-gnu-toolchain-14.2/arm-none-eabi/include/math.h"
 2098              		.file 29 "/opt/arm-gnu-toolchain-14.2/arm-none-eabi/include/c++/14.2.1/arm-none-eabi/thumb/v7e-m+f
 2099              		.file 30 "/opt/arm-gnu-toolchain-14.2/arm-none-eabi/include/c++/14.2.1/math.h"
 2100              		.file 31 "Lib/compute/ex_math.hpp"
 2101              		.file 32 "Lib/compute/pid/pll.hpp"
 2102              		.file 33 "Lib/compute/pid/LQR.hpp"
 2103              		.file 34 "My_Top/System/kth_read.hpp"
 2104              		.file 35 "My_Top/Motor_Control/DcMotor_ClosedLoop.hpp"
 2105              		.file 36 "My_Top/EEPROM/Motor_Storage.hpp"
 2106              		.file 37 "/opt/arm-gnu-toolchain-14.2/arm-none-eabi/include/string.h"
 2107              		.file 38 "Lib/serial/printf.h"
 2108              		.file 39 "Drivers/STM32G4xx_HAL_Driver/Inc/stm32g4xx_hal_cortex.h"
ARM GAS  /tmp/cc73j0Ob.s 			page 49

