ARM GAS  /tmp/ccTfUzTX.s 			page 1


   1              		.cpu cortex-m4
   2              		.arch armv7e-m
   3              		.fpu fpv4-sp-d16
   4              		.eabi_attribute 27, 1
   5              		.eabi_attribute 28, 1
   6              		.eabi_attribute 20, 1
   7              		.eabi_attribute 21, 1
   8              		.eabi_attribute 23, 3
   9              		.eabi_attribute 24, 1
  10              		.eabi_attribute 25, 1
  11              		.eabi_attribute 26, 1
  12              		.eabi_attribute 30, 1
  13              		.eabi_attribute 34, 1
  14              		.eabi_attribute 18, 4
  15              		.file	"My_HID_Keyboard.cpp"
  16              		.text
  17              	.Ltext0:
  18              		.cfi_sections	.debug_frame
  19              		.file 1 "My_Top/USB_Composite/My_HID_Keyboard.cpp"
  20              		.align	1
  21              		.syntax unified
  22              		.thumb
  23              		.thumb_func
  25              	_ZL17HID_KB_SendReporthhhhhh:
  26              	.LVL0:
  27              	.LFB345:
   1:My_Top/USB_Composite/My_HID_Keyboard.cpp **** /**
   2:My_Top/USB_Composite/My_HID_Keyboard.cpp ****   * @file    My_HID_Keyboard.c
   3:My_Top/USB_Composite/My_HID_Keyboard.cpp ****   * @brief   AL94 USB Composite HID Keyboard 封装层实现
   4:My_Top/USB_Composite/My_HID_Keyboard.cpp ****   * @note    使用 AL94 库原始 HID_KEYBOARD 描述符格式（含 Report ID）
   5:My_Top/USB_Composite/My_HID_Keyboard.cpp ****   *
   6:My_Top/USB_Composite/My_HID_Keyboard.cpp ****   * 描述符格式回顾：
   7:My_Top/USB_Composite/My_HID_Keyboard.cpp ****   *   byte0: Report ID = 0x01（AL94 描述符中 0x85,0x01 定义）
   8:My_Top/USB_Composite/My_HID_Keyboard.cpp ****   *   byte1: Modifier（Ctrl/Shift/Alt/Win 组合键位图）
   9:My_Top/USB_Composite/My_HID_Keyboard.cpp ****   *   byte2: Reserved（保留，固定为 0x00）
  10:My_Top/USB_Composite/My_HID_Keyboard.cpp ****   *   byte3: Keycode1（HID Usage ID）
  11:My_Top/USB_Composite/My_HID_Keyboard.cpp ****   *   byte4: Keycode2
  12:My_Top/USB_Composite/My_HID_Keyboard.cpp ****   *   byte5: Keycode3
  13:My_Top/USB_Composite/My_HID_Keyboard.cpp ****   *   byte6: Keycode4
  14:My_Top/USB_Composite/My_HID_Keyboard.cpp ****   *   byte7: Keycode5
  15:My_Top/USB_Composite/My_HID_Keyboard.cpp ****   *
  16:My_Top/USB_Composite/My_HID_Keyboard.cpp ****   * 数据长度：8 字节
  17:My_Top/USB_Composite/My_HID_Keyboard.cpp ****   *
  18:My_Top/USB_Composite/My_HID_Keyboard.cpp ****   * 重要：
  19:My_Top/USB_Composite/My_HID_Keyboard.cpp ****   *   - 发送前需确保 USB 设备已枚举完成（dev_state == USBD_STATE_CONFIGURED）
  20:My_Top/USB_Composite/My_HID_Keyboard.cpp ****   *   - 每个按键必须发"按下+释放"，否则主机会认为该键一直被按住
  21:My_Top/USB_Composite/My_HID_Keyboard.cpp ****   *   - 按键之间需保持至少 10ms 间隔，给主机轮询时间
  22:My_Top/USB_Composite/My_HID_Keyboard.cpp ****   */
  23:My_Top/USB_Composite/My_HID_Keyboard.cpp **** 
  24:My_Top/USB_Composite/My_HID_Keyboard.cpp **** #include "My_HID_Keyboard.hpp"
  25:My_Top/USB_Composite/My_HID_Keyboard.cpp **** #include "usbd_hid_keyboard.h"
  26:My_Top/USB_Composite/My_HID_Keyboard.cpp **** #include "FreeRTOS.h"
  27:My_Top/USB_Composite/My_HID_Keyboard.cpp **** #include "task.h"
  28:My_Top/USB_Composite/My_HID_Keyboard.cpp **** 
  29:My_Top/USB_Composite/My_HID_Keyboard.cpp **** /* USB 设备句柄（定义在 AL94 的 usb_device.c 中） */
  30:My_Top/USB_Composite/My_HID_Keyboard.cpp **** extern USBD_HandleTypeDef hUsbDevice;
  31:My_Top/USB_Composite/My_HID_Keyboard.cpp **** 
ARM GAS  /tmp/ccTfUzTX.s 			page 2


  32:My_Top/USB_Composite/My_HID_Keyboard.cpp **** /* ========================================================================= */
  33:My_Top/USB_Composite/My_HID_Keyboard.cpp **** /* ASCII 字符到 HID 键码映射表（US 键盘布局）                                */
  34:My_Top/USB_Composite/My_HID_Keyboard.cpp **** /* ========================================================================= */
  35:My_Top/USB_Composite/My_HID_Keyboard.cpp **** /* 每个条目 = {keycode, modifier}
  36:My_Top/USB_Composite/My_HID_Keyboard.cpp ****  *   keycode:  HID Usage Page 0x07 的 Usage ID
  37:My_Top/USB_Composite/My_HID_Keyboard.cpp ****  *   modifier: 0x00 = 不需要 Shift，0x02 = 需要左 Shift
  38:My_Top/USB_Composite/My_HID_Keyboard.cpp ****  *
  39:My_Top/USB_Composite/My_HID_Keyboard.cpp ****  * 索引 = ASCII 码值（0x00~0x7F），未映射的字符填 {0x00, 0x00} */
  40:My_Top/USB_Composite/My_HID_Keyboard.cpp **** static const struct {
  41:My_Top/USB_Composite/My_HID_Keyboard.cpp ****     uint8_t keycode;    /* HID Usage ID */
  42:My_Top/USB_Composite/My_HID_Keyboard.cpp ****     uint8_t modifier;   /* 0x00 或 HID_MOD_LSHIFT */
  43:My_Top/USB_Composite/My_HID_Keyboard.cpp **** } ascii_to_hid[128] = {
  44:My_Top/USB_Composite/My_HID_Keyboard.cpp ****     /* 0x00~0x1F: 控制字符（未映射） */
  45:My_Top/USB_Composite/My_HID_Keyboard.cpp ****     {0x00,0x00}, {0x00,0x00}, {0x00,0x00}, {0x00,0x00},
  46:My_Top/USB_Composite/My_HID_Keyboard.cpp ****     {0x00,0x00}, {0x00,0x00}, {0x00,0x00}, {0x00,0x00},
  47:My_Top/USB_Composite/My_HID_Keyboard.cpp ****     {0x00,0x00}, {0x00,0x00}, {0x00,0x00}, {0x00,0x00},
  48:My_Top/USB_Composite/My_HID_Keyboard.cpp ****     {0x00,0x00}, {0x00,0x00}, {0x00,0x00}, {0x00,0x00},
  49:My_Top/USB_Composite/My_HID_Keyboard.cpp ****     {0x00,0x00}, {0x00,0x00}, {0x00,0x00}, {0x00,0x00},
  50:My_Top/USB_Composite/My_HID_Keyboard.cpp ****     {0x00,0x00}, {0x00,0x00}, {0x00,0x00}, {0x00,0x00},
  51:My_Top/USB_Composite/My_HID_Keyboard.cpp ****     {0x00,0x00}, {0x00,0x00}, {0x00,0x00}, {0x00,0x00},
  52:My_Top/USB_Composite/My_HID_Keyboard.cpp ****     {0x00,0x00}, {0x00,0x00}, {0x00,0x00}, {0x00,0x00},
  53:My_Top/USB_Composite/My_HID_Keyboard.cpp **** 
  54:My_Top/USB_Composite/My_HID_Keyboard.cpp ****     /* 0x20 Space */
  55:My_Top/USB_Composite/My_HID_Keyboard.cpp ****     {HID_KEY_SPACE,  HID_MOD_NONE},
  56:My_Top/USB_Composite/My_HID_Keyboard.cpp **** 
  57:My_Top/USB_Composite/My_HID_Keyboard.cpp ****     /* 0x21 '!' 需要 Shift + '1' */
  58:My_Top/USB_Composite/My_HID_Keyboard.cpp ****     {HID_KEY_1,      HID_MOD_LSHIFT},
  59:My_Top/USB_Composite/My_HID_Keyboard.cpp **** 
  60:My_Top/USB_Composite/My_HID_Keyboard.cpp ****     /* 0x22 '"' 需要 Shift + '\'' */
  61:My_Top/USB_Composite/My_HID_Keyboard.cpp ****     {HID_KEY_QUOTE,  HID_MOD_LSHIFT},
  62:My_Top/USB_Composite/My_HID_Keyboard.cpp **** 
  63:My_Top/USB_Composite/My_HID_Keyboard.cpp ****     /* 0x23 '#' 需要 Shift + '3' */
  64:My_Top/USB_Composite/My_HID_Keyboard.cpp ****     {HID_KEY_3,      HID_MOD_LSHIFT},
  65:My_Top/USB_Composite/My_HID_Keyboard.cpp **** 
  66:My_Top/USB_Composite/My_HID_Keyboard.cpp ****     /* 0x24 '$' 需要 Shift + '4' */
  67:My_Top/USB_Composite/My_HID_Keyboard.cpp ****     {HID_KEY_4,      HID_MOD_LSHIFT},
  68:My_Top/USB_Composite/My_HID_Keyboard.cpp **** 
  69:My_Top/USB_Composite/My_HID_Keyboard.cpp ****     /* 0x25 '%' 需要 Shift + '5' */
  70:My_Top/USB_Composite/My_HID_Keyboard.cpp ****     {HID_KEY_5,      HID_MOD_LSHIFT},
  71:My_Top/USB_Composite/My_HID_Keyboard.cpp **** 
  72:My_Top/USB_Composite/My_HID_Keyboard.cpp ****     /* 0x26 '&' 需要 Shift + '7' */
  73:My_Top/USB_Composite/My_HID_Keyboard.cpp ****     {HID_KEY_7,      HID_MOD_LSHIFT},
  74:My_Top/USB_Composite/My_HID_Keyboard.cpp **** 
  75:My_Top/USB_Composite/My_HID_Keyboard.cpp ****     /* 0x27 '\'' 单引号，不需要 Shift */
  76:My_Top/USB_Composite/My_HID_Keyboard.cpp ****     {HID_KEY_QUOTE,  HID_MOD_NONE},
  77:My_Top/USB_Composite/My_HID_Keyboard.cpp **** 
  78:My_Top/USB_Composite/My_HID_Keyboard.cpp ****     /* 0x28 '(' 需要 Shift + '9' */
  79:My_Top/USB_Composite/My_HID_Keyboard.cpp ****     {HID_KEY_9,      HID_MOD_LSHIFT},
  80:My_Top/USB_Composite/My_HID_Keyboard.cpp **** 
  81:My_Top/USB_Composite/My_HID_Keyboard.cpp ****     /* 0x29 ')' 需要 Shift + '0' */
  82:My_Top/USB_Composite/My_HID_Keyboard.cpp ****     {HID_KEY_0,      HID_MOD_LSHIFT},
  83:My_Top/USB_Composite/My_HID_Keyboard.cpp **** 
  84:My_Top/USB_Composite/My_HID_Keyboard.cpp ****     /* 0x2A '*' 需要 Shift + '8' */
  85:My_Top/USB_Composite/My_HID_Keyboard.cpp ****     {HID_KEY_8,      HID_MOD_LSHIFT},
  86:My_Top/USB_Composite/My_HID_Keyboard.cpp **** 
  87:My_Top/USB_Composite/My_HID_Keyboard.cpp ****     /* 0x2B '+' 需要 Shift + '=' */
  88:My_Top/USB_Composite/My_HID_Keyboard.cpp ****     {HID_KEY_EQUAL,  HID_MOD_LSHIFT},
ARM GAS  /tmp/ccTfUzTX.s 			page 3


  89:My_Top/USB_Composite/My_HID_Keyboard.cpp **** 
  90:My_Top/USB_Composite/My_HID_Keyboard.cpp ****     /* 0x2C ',' 逗号，不需要 Shift */
  91:My_Top/USB_Composite/My_HID_Keyboard.cpp ****     {HID_KEY_COMMA,  HID_MOD_NONE},
  92:My_Top/USB_Composite/My_HID_Keyboard.cpp **** 
  93:My_Top/USB_Composite/My_HID_Keyboard.cpp ****     /* 0x2D '-' 减号，不需要 Shift */
  94:My_Top/USB_Composite/My_HID_Keyboard.cpp ****     {HID_KEY_MINUS,  HID_MOD_NONE},
  95:My_Top/USB_Composite/My_HID_Keyboard.cpp **** 
  96:My_Top/USB_Composite/My_HID_Keyboard.cpp ****     /* 0x2E '.' 句点，不需要 Shift */
  97:My_Top/USB_Composite/My_HID_Keyboard.cpp ****     {HID_KEY_PERIOD, HID_MOD_NONE},
  98:My_Top/USB_Composite/My_HID_Keyboard.cpp **** 
  99:My_Top/USB_Composite/My_HID_Keyboard.cpp ****     /* 0x2F '/' 斜杠，不需要 Shift */
 100:My_Top/USB_Composite/My_HID_Keyboard.cpp ****     {HID_KEY_SLASH,  HID_MOD_NONE},
 101:My_Top/USB_Composite/My_HID_Keyboard.cpp **** 
 102:My_Top/USB_Composite/My_HID_Keyboard.cpp ****     /* 0x30~0x39 '0'~'9'，不需要 Shift */
 103:My_Top/USB_Composite/My_HID_Keyboard.cpp ****     {HID_KEY_0, HID_MOD_NONE}, {HID_KEY_1, HID_MOD_NONE},
 104:My_Top/USB_Composite/My_HID_Keyboard.cpp ****     {HID_KEY_2, HID_MOD_NONE}, {HID_KEY_3, HID_MOD_NONE},
 105:My_Top/USB_Composite/My_HID_Keyboard.cpp ****     {HID_KEY_4, HID_MOD_NONE}, {HID_KEY_5, HID_MOD_NONE},
 106:My_Top/USB_Composite/My_HID_Keyboard.cpp ****     {HID_KEY_6, HID_MOD_NONE}, {HID_KEY_7, HID_MOD_NONE},
 107:My_Top/USB_Composite/My_HID_Keyboard.cpp ****     {HID_KEY_8, HID_MOD_NONE}, {HID_KEY_9, HID_MOD_NONE},
 108:My_Top/USB_Composite/My_HID_Keyboard.cpp **** 
 109:My_Top/USB_Composite/My_HID_Keyboard.cpp ****     /* 0x3A ':' 需要 Shift + ';' */
 110:My_Top/USB_Composite/My_HID_Keyboard.cpp ****     {HID_KEY_SEMICOLON, HID_MOD_LSHIFT},
 111:My_Top/USB_Composite/My_HID_Keyboard.cpp **** 
 112:My_Top/USB_Composite/My_HID_Keyboard.cpp ****     /* 0x3B ';' 分号，不需要 Shift */
 113:My_Top/USB_Composite/My_HID_Keyboard.cpp ****     {HID_KEY_SEMICOLON, HID_MOD_NONE},
 114:My_Top/USB_Composite/My_HID_Keyboard.cpp **** 
 115:My_Top/USB_Composite/My_HID_Keyboard.cpp ****     /* 0x3C '<' 需要 Shift + ',' */
 116:My_Top/USB_Composite/My_HID_Keyboard.cpp ****     {HID_KEY_COMMA,  HID_MOD_LSHIFT},
 117:My_Top/USB_Composite/My_HID_Keyboard.cpp **** 
 118:My_Top/USB_Composite/My_HID_Keyboard.cpp ****     /* 0x3D '=' 等号，不需要 Shift */
 119:My_Top/USB_Composite/My_HID_Keyboard.cpp ****     {HID_KEY_EQUAL,  HID_MOD_NONE},
 120:My_Top/USB_Composite/My_HID_Keyboard.cpp **** 
 121:My_Top/USB_Composite/My_HID_Keyboard.cpp ****     /* 0x3E '>' 需要 Shift + '.' */
 122:My_Top/USB_Composite/My_HID_Keyboard.cpp ****     {HID_KEY_PERIOD, HID_MOD_LSHIFT},
 123:My_Top/USB_Composite/My_HID_Keyboard.cpp **** 
 124:My_Top/USB_Composite/My_HID_Keyboard.cpp ****     /* 0x3F '?' 需要 Shift + '/' */
 125:My_Top/USB_Composite/My_HID_Keyboard.cpp ****     {HID_KEY_SLASH,  HID_MOD_LSHIFT},
 126:My_Top/USB_Composite/My_HID_Keyboard.cpp **** 
 127:My_Top/USB_Composite/My_HID_Keyboard.cpp ****     /* 0x40 '@' 需要 Shift + '2' */
 128:My_Top/USB_Composite/My_HID_Keyboard.cpp ****     {HID_KEY_2,      HID_MOD_LSHIFT},
 129:My_Top/USB_Composite/My_HID_Keyboard.cpp **** 
 130:My_Top/USB_Composite/My_HID_Keyboard.cpp ****     /* 0x41~0x5A 'A'~'Z'，需要 Shift + 对应小写字母 */
 131:My_Top/USB_Composite/My_HID_Keyboard.cpp ****     {HID_KEY_A, HID_MOD_LSHIFT}, {HID_KEY_B, HID_MOD_LSHIFT},
 132:My_Top/USB_Composite/My_HID_Keyboard.cpp ****     {HID_KEY_C, HID_MOD_LSHIFT}, {HID_KEY_D, HID_MOD_LSHIFT},
 133:My_Top/USB_Composite/My_HID_Keyboard.cpp ****     {HID_KEY_E, HID_MOD_LSHIFT}, {HID_KEY_F, HID_MOD_LSHIFT},
 134:My_Top/USB_Composite/My_HID_Keyboard.cpp ****     {HID_KEY_G, HID_MOD_LSHIFT}, {HID_KEY_H, HID_MOD_LSHIFT},
 135:My_Top/USB_Composite/My_HID_Keyboard.cpp ****     {HID_KEY_I, HID_MOD_LSHIFT}, {HID_KEY_J, HID_MOD_LSHIFT},
 136:My_Top/USB_Composite/My_HID_Keyboard.cpp ****     {HID_KEY_K, HID_MOD_LSHIFT}, {HID_KEY_L, HID_MOD_LSHIFT},
 137:My_Top/USB_Composite/My_HID_Keyboard.cpp ****     {HID_KEY_M, HID_MOD_LSHIFT}, {HID_KEY_N, HID_MOD_LSHIFT},
 138:My_Top/USB_Composite/My_HID_Keyboard.cpp ****     {HID_KEY_O, HID_MOD_LSHIFT}, {HID_KEY_P, HID_MOD_LSHIFT},
 139:My_Top/USB_Composite/My_HID_Keyboard.cpp ****     {HID_KEY_Q, HID_MOD_LSHIFT}, {HID_KEY_R, HID_MOD_LSHIFT},
 140:My_Top/USB_Composite/My_HID_Keyboard.cpp ****     {HID_KEY_S, HID_MOD_LSHIFT}, {HID_KEY_T, HID_MOD_LSHIFT},
 141:My_Top/USB_Composite/My_HID_Keyboard.cpp ****     {HID_KEY_U, HID_MOD_LSHIFT}, {HID_KEY_V, HID_MOD_LSHIFT},
 142:My_Top/USB_Composite/My_HID_Keyboard.cpp ****     {HID_KEY_W, HID_MOD_LSHIFT}, {HID_KEY_X, HID_MOD_LSHIFT},
 143:My_Top/USB_Composite/My_HID_Keyboard.cpp ****     {HID_KEY_Y, HID_MOD_LSHIFT}, {HID_KEY_Z, HID_MOD_LSHIFT},
 144:My_Top/USB_Composite/My_HID_Keyboard.cpp **** 
 145:My_Top/USB_Composite/My_HID_Keyboard.cpp ****     /* 0x5B '[' 左方括号，不需要 Shift */
ARM GAS  /tmp/ccTfUzTX.s 			page 4


 146:My_Top/USB_Composite/My_HID_Keyboard.cpp ****     {HID_KEY_LBRACKET, HID_MOD_NONE},
 147:My_Top/USB_Composite/My_HID_Keyboard.cpp **** 
 148:My_Top/USB_Composite/My_HID_Keyboard.cpp ****     /* 0x5C '\' 反斜杠，不需要 Shift */
 149:My_Top/USB_Composite/My_HID_Keyboard.cpp ****     {HID_KEY_BACKSLASH, HID_MOD_NONE},
 150:My_Top/USB_Composite/My_HID_Keyboard.cpp **** 
 151:My_Top/USB_Composite/My_HID_Keyboard.cpp ****     /* 0x5D ']' 右方括号，不需要 Shift */
 152:My_Top/USB_Composite/My_HID_Keyboard.cpp ****     {HID_KEY_RBRACKET, HID_MOD_NONE},
 153:My_Top/USB_Composite/My_HID_Keyboard.cpp **** 
 154:My_Top/USB_Composite/My_HID_Keyboard.cpp ****     /* 0x5E '^' 需要 Shift + '6' */
 155:My_Top/USB_Composite/My_HID_Keyboard.cpp ****     {HID_KEY_6, HID_MOD_LSHIFT},
 156:My_Top/USB_Composite/My_HID_Keyboard.cpp **** 
 157:My_Top/USB_Composite/My_HID_Keyboard.cpp ****     /* 0x5F '_' 下划线，需要 Shift + '-' */
 158:My_Top/USB_Composite/My_HID_Keyboard.cpp ****     {HID_KEY_MINUS, HID_MOD_LSHIFT},
 159:My_Top/USB_Composite/My_HID_Keyboard.cpp **** 
 160:My_Top/USB_Composite/My_HID_Keyboard.cpp ****     /* 0x60 '`' 反引号，不需要 Shift */
 161:My_Top/USB_Composite/My_HID_Keyboard.cpp ****     {HID_KEY_GRAVE, HID_MOD_NONE},
 162:My_Top/USB_Composite/My_HID_Keyboard.cpp **** 
 163:My_Top/USB_Composite/My_HID_Keyboard.cpp ****     /* 0x61~0x7A 'a'~'z'，不需要 Shift */
 164:My_Top/USB_Composite/My_HID_Keyboard.cpp ****     {HID_KEY_A, HID_MOD_NONE}, {HID_KEY_B, HID_MOD_NONE},
 165:My_Top/USB_Composite/My_HID_Keyboard.cpp ****     {HID_KEY_C, HID_MOD_NONE}, {HID_KEY_D, HID_MOD_NONE},
 166:My_Top/USB_Composite/My_HID_Keyboard.cpp ****     {HID_KEY_E, HID_MOD_NONE}, {HID_KEY_F, HID_MOD_NONE},
 167:My_Top/USB_Composite/My_HID_Keyboard.cpp ****     {HID_KEY_G, HID_MOD_NONE}, {HID_KEY_H, HID_MOD_NONE},
 168:My_Top/USB_Composite/My_HID_Keyboard.cpp ****     {HID_KEY_I, HID_MOD_NONE}, {HID_KEY_J, HID_MOD_NONE},
 169:My_Top/USB_Composite/My_HID_Keyboard.cpp ****     {HID_KEY_K, HID_MOD_NONE}, {HID_KEY_L, HID_MOD_NONE},
 170:My_Top/USB_Composite/My_HID_Keyboard.cpp ****     {HID_KEY_M, HID_MOD_NONE}, {HID_KEY_N, HID_MOD_NONE},
 171:My_Top/USB_Composite/My_HID_Keyboard.cpp ****     {HID_KEY_O, HID_MOD_NONE}, {HID_KEY_P, HID_MOD_NONE},
 172:My_Top/USB_Composite/My_HID_Keyboard.cpp ****     {HID_KEY_Q, HID_MOD_NONE}, {HID_KEY_R, HID_MOD_NONE},
 173:My_Top/USB_Composite/My_HID_Keyboard.cpp ****     {HID_KEY_S, HID_MOD_NONE}, {HID_KEY_T, HID_MOD_NONE},
 174:My_Top/USB_Composite/My_HID_Keyboard.cpp ****     {HID_KEY_U, HID_MOD_NONE}, {HID_KEY_V, HID_MOD_NONE},
 175:My_Top/USB_Composite/My_HID_Keyboard.cpp ****     {HID_KEY_W, HID_MOD_NONE}, {HID_KEY_X, HID_MOD_NONE},
 176:My_Top/USB_Composite/My_HID_Keyboard.cpp ****     {HID_KEY_Y, HID_MOD_NONE}, {HID_KEY_Z, HID_MOD_NONE},
 177:My_Top/USB_Composite/My_HID_Keyboard.cpp **** 
 178:My_Top/USB_Composite/My_HID_Keyboard.cpp ****     /* 0x7B '{' 需要 Shift + '[' */
 179:My_Top/USB_Composite/My_HID_Keyboard.cpp ****     {HID_KEY_LBRACKET, HID_MOD_LSHIFT},
 180:My_Top/USB_Composite/My_HID_Keyboard.cpp **** 
 181:My_Top/USB_Composite/My_HID_Keyboard.cpp ****     /* 0x7C '|' 需要 Shift + '\' */
 182:My_Top/USB_Composite/My_HID_Keyboard.cpp ****     {HID_KEY_BACKSLASH, HID_MOD_LSHIFT},
 183:My_Top/USB_Composite/My_HID_Keyboard.cpp **** 
 184:My_Top/USB_Composite/My_HID_Keyboard.cpp ****     /* 0x7D '}' 需要 Shift + ']' */
 185:My_Top/USB_Composite/My_HID_Keyboard.cpp ****     {HID_KEY_RBRACKET, HID_MOD_LSHIFT},
 186:My_Top/USB_Composite/My_HID_Keyboard.cpp **** 
 187:My_Top/USB_Composite/My_HID_Keyboard.cpp ****     /* 0x7E '~' 需要 Shift + '`' */
 188:My_Top/USB_Composite/My_HID_Keyboard.cpp ****     {HID_KEY_GRAVE, HID_MOD_LSHIFT},
 189:My_Top/USB_Composite/My_HID_Keyboard.cpp **** 
 190:My_Top/USB_Composite/My_HID_Keyboard.cpp ****     /* 0x7F DEL（未映射） */
 191:My_Top/USB_Composite/My_HID_Keyboard.cpp ****     {0x00, 0x00}
 192:My_Top/USB_Composite/My_HID_Keyboard.cpp **** };
 193:My_Top/USB_Composite/My_HID_Keyboard.cpp **** 
 194:My_Top/USB_Composite/My_HID_Keyboard.cpp **** /* ========================================================================= */
 195:My_Top/USB_Composite/My_HID_Keyboard.cpp **** /* 内部辅助函数                                                              */
 196:My_Top/USB_Composite/My_HID_Keyboard.cpp **** /* ========================================================================= */
 197:My_Top/USB_Composite/My_HID_Keyboard.cpp **** 
 198:My_Top/USB_Composite/My_HID_Keyboard.cpp **** /**
 199:My_Top/USB_Composite/My_HID_Keyboard.cpp ****   * @brief  发送一个 HID 键盘报告（8 字节，含 Report ID）
 200:My_Top/USB_Composite/My_HID_Keyboard.cpp ****   * @param  modifier: 修饰键位图
 201:My_Top/USB_Composite/My_HID_Keyboard.cpp ****   * @param  key1~5:   按键码（HID Usage ID）
 202:My_Top/USB_Composite/My_HID_Keyboard.cpp ****   * @note   此函数只发报告，不处理延时或释放，由上层调用者控制
ARM GAS  /tmp/ccTfUzTX.s 			page 5


 203:My_Top/USB_Composite/My_HID_Keyboard.cpp ****   */
 204:My_Top/USB_Composite/My_HID_Keyboard.cpp **** static void HID_KB_SendReport(uint8_t modifier,
 205:My_Top/USB_Composite/My_HID_Keyboard.cpp ****                               uint8_t k1, uint8_t k2, uint8_t k3,
 206:My_Top/USB_Composite/My_HID_Keyboard.cpp ****                               uint8_t k4, uint8_t k5)
 207:My_Top/USB_Composite/My_HID_Keyboard.cpp **** {
  28              		.loc 1 207 1 view -0
  29              		.cfi_startproc
  30              		@ args = 8, pretend = 0, frame = 8
  31              		@ frame_needed = 0, uses_anonymous_args = 0
  32              		.loc 1 207 1 is_stmt 0 view .LVU1
  33 0000 10B5     		push	{r4, lr}
  34              		.cfi_def_cfa_offset 8
  35              		.cfi_offset 4, -8
  36              		.cfi_offset 14, -4
  37 0002 82B0     		sub	sp, sp, #8
  38              		.cfi_def_cfa_offset 16
  39 0004 8C46     		mov	ip, r1
 208:My_Top/USB_Composite/My_HID_Keyboard.cpp ****     /* 8 字节报告，符合 AL94 HID_KEYBOARD 描述符格式：
 209:My_Top/USB_Composite/My_HID_Keyboard.cpp ****      * byte0: Report ID = 0x01（必须，因为描述符里有 0x85,0x01）
 210:My_Top/USB_Composite/My_HID_Keyboard.cpp ****      * byte1: Modifier
 211:My_Top/USB_Composite/My_HID_Keyboard.cpp ****      * byte2: Reserved = 0x00
 212:My_Top/USB_Composite/My_HID_Keyboard.cpp ****      * byte3~7: Keycode1~5 */
 213:My_Top/USB_Composite/My_HID_Keyboard.cpp ****     uint8_t report[8] = {
  40              		.loc 1 213 5 is_stmt 1 view .LVU2
  41              		.loc 1 213 13 is_stmt 0 view .LVU3
  42 0006 6946     		mov	r1, sp
  43              	.LVL1:
  44              		.loc 1 213 13 view .LVU4
  45 0008 0024     		movs	r4, #0
  46 000a 0094     		str	r4, [sp]
  47 000c 0194     		str	r4, [sp, #4]
  48 000e 0124     		movs	r4, #1
  49 0010 8DF80040 		strb	r4, [sp]
 214:My_Top/USB_Composite/My_HID_Keyboard.cpp ****         0x01,       /* Report ID = 1 */
 215:My_Top/USB_Composite/My_HID_Keyboard.cpp ****         modifier,   /* Ctrl/Shift/Alt/Win */
 216:My_Top/USB_Composite/My_HID_Keyboard.cpp ****         0x00,       /* Reserved */
 217:My_Top/USB_Composite/My_HID_Keyboard.cpp ****         k1, k2, k3, k4, k5
 218:My_Top/USB_Composite/My_HID_Keyboard.cpp ****     };
  50              		.loc 1 218 5 view .LVU5
  51 0014 8DF80100 		strb	r0, [sp, #1]
  52 0018 8DF803C0 		strb	ip, [sp, #3]
  53 001c 8DF80420 		strb	r2, [sp, #4]
  54 0020 8DF80530 		strb	r3, [sp, #5]
  55 0024 9DF81030 		ldrb	r3, [sp, #16]	@ zero_extendqisi2
  56              	.LVL2:
  57              		.loc 1 218 5 view .LVU6
  58 0028 8DF80630 		strb	r3, [sp, #6]
  59 002c 9DF81430 		ldrb	r3, [sp, #20]	@ zero_extendqisi2
  60 0030 8DF80730 		strb	r3, [sp, #7]
 219:My_Top/USB_Composite/My_HID_Keyboard.cpp **** 
 220:My_Top/USB_Composite/My_HID_Keyboard.cpp ****     USBD_HID_Keybaord_SendReport(&hUsbDevice, report, 8);
  61              		.loc 1 220 5 is_stmt 1 view .LVU7
  62              		.loc 1 220 33 is_stmt 0 view .LVU8
  63 0034 0822     		movs	r2, #8
  64              	.LVL3:
  65              		.loc 1 220 33 view .LVU9
  66 0036 0248     		ldr	r0, .L3
ARM GAS  /tmp/ccTfUzTX.s 			page 6


  67              	.LVL4:
  68              		.loc 1 220 33 view .LVU10
  69 0038 FFF7FEFF 		bl	USBD_HID_Keybaord_SendReport
  70              	.LVL5:
 221:My_Top/USB_Composite/My_HID_Keyboard.cpp **** }
  71              		.loc 1 221 1 view .LVU11
  72 003c 02B0     		add	sp, sp, #8
  73              		.cfi_def_cfa_offset 8
  74              		@ sp needed
  75 003e 10BD     		pop	{r4, pc}
  76              	.LVL6:
  77              	.L4:
  78              		.loc 1 221 1 view .LVU12
  79              		.align	2
  80              	.L3:
  81 0040 00000000 		.word	hUsbDevice
  82              		.cfi_endproc
  83              	.LFE345:
  85              		.align	1
  86              		.syntax unified
  87              		.thumb
  88              		.thumb_func
  90              	_ZL18HID_KB_SendReleasev:
  91              	.LFB346:
 222:My_Top/USB_Composite/My_HID_Keyboard.cpp **** 
 223:My_Top/USB_Composite/My_HID_Keyboard.cpp **** /**
 224:My_Top/USB_Composite/My_HID_Keyboard.cpp ****   * @brief  发送全零释放报告（所有按键释放）
 225:My_Top/USB_Composite/My_HID_Keyboard.cpp ****   */
 226:My_Top/USB_Composite/My_HID_Keyboard.cpp **** static void HID_KB_SendRelease(void)
 227:My_Top/USB_Composite/My_HID_Keyboard.cpp **** {
  92              		.loc 1 227 1 is_stmt 1 view -0
  93              		.cfi_startproc
  94              		@ args = 0, pretend = 0, frame = 8
  95              		@ frame_needed = 0, uses_anonymous_args = 0
  96 0044 00B5     		push	{lr}
  97              		.cfi_def_cfa_offset 4
  98              		.cfi_offset 14, -4
  99 0046 83B0     		sub	sp, sp, #12
 100              		.cfi_def_cfa_offset 16
 228:My_Top/USB_Composite/My_HID_Keyboard.cpp ****     uint8_t report[8] = {0x01, 0x00, 0x00, 0x00, 0x00, 0x00, 0x00, 0x00};
 101              		.loc 1 228 5 view .LVU14
 102              		.loc 1 228 13 is_stmt 0 view .LVU15
 103 0048 0123     		movs	r3, #1
 104 004a 0093     		str	r3, [sp]
 105 004c 0023     		movs	r3, #0
 106 004e 0193     		str	r3, [sp, #4]
 229:My_Top/USB_Composite/My_HID_Keyboard.cpp ****     USBD_HID_Keybaord_SendReport(&hUsbDevice, report, 8);
 107              		.loc 1 229 5 is_stmt 1 view .LVU16
 108              		.loc 1 229 33 is_stmt 0 view .LVU17
 109 0050 0822     		movs	r2, #8
 110 0052 6946     		mov	r1, sp
 111 0054 0248     		ldr	r0, .L7
 112 0056 FFF7FEFF 		bl	USBD_HID_Keybaord_SendReport
 113              	.LVL7:
 230:My_Top/USB_Composite/My_HID_Keyboard.cpp **** }
 114              		.loc 1 230 1 view .LVU18
 115 005a 03B0     		add	sp, sp, #12
ARM GAS  /tmp/ccTfUzTX.s 			page 7


 116              		.cfi_def_cfa_offset 4
 117              		@ sp needed
 118 005c 5DF804FB 		ldr	pc, [sp], #4
 119              	.L8:
 120              		.align	2
 121              	.L7:
 122 0060 00000000 		.word	hUsbDevice
 123              		.cfi_endproc
 124              	.LFE346:
 126              		.align	1
 127              		.global	_Z14HID_KB_SendKeyhh
 128              		.syntax unified
 129              		.thumb
 130              		.thumb_func
 132              	_Z14HID_KB_SendKeyhh:
 133              	.LVL8:
 134              	.LFB347:
 231:My_Top/USB_Composite/My_HID_Keyboard.cpp **** 
 232:My_Top/USB_Composite/My_HID_Keyboard.cpp **** /* ========================================================================= */
 233:My_Top/USB_Composite/My_HID_Keyboard.cpp **** /* 对外接口函数                                                              */
 234:My_Top/USB_Composite/My_HID_Keyboard.cpp **** /* ========================================================================= */
 235:My_Top/USB_Composite/My_HID_Keyboard.cpp **** 
 236:My_Top/USB_Composite/My_HID_Keyboard.cpp **** /**
 237:My_Top/USB_Composite/My_HID_Keyboard.cpp ****   * @brief  发送单个按键（按下+自动释放）
 238:My_Top/USB_Composite/My_HID_Keyboard.cpp ****   * @param  modifier: 修饰键位图（见 HID_MOD_* 宏）
 239:My_Top/USB_Composite/My_HID_Keyboard.cpp ****   * @param  keycode:  HID Usage ID（见 HID_KEY_* 宏）
 240:My_Top/USB_Composite/My_HID_Keyboard.cpp ****   *
 241:My_Top/USB_Composite/My_HID_Keyboard.cpp ****   * 流程：按下 → 延时 10ms → 释放 → 延时 10ms
 242:My_Top/USB_Composite/My_HID_Keyboard.cpp ****   * 10ms 是给主机 HID 轮询间隔，确保不会漏掉按键
 243:My_Top/USB_Composite/My_HID_Keyboard.cpp ****   */
 244:My_Top/USB_Composite/My_HID_Keyboard.cpp **** void HID_KB_SendKey(uint8_t modifier, uint8_t keycode)
 245:My_Top/USB_Composite/My_HID_Keyboard.cpp **** {
 135              		.loc 1 245 1 is_stmt 1 view -0
 136              		.cfi_startproc
 137              		@ args = 0, pretend = 0, frame = 0
 138              		@ frame_needed = 0, uses_anonymous_args = 0
 139              		.loc 1 245 1 is_stmt 0 view .LVU20
 140 0064 00B5     		push	{lr}
 141              		.cfi_def_cfa_offset 4
 142              		.cfi_offset 14, -4
 143 0066 83B0     		sub	sp, sp, #12
 144              		.cfi_def_cfa_offset 16
 246:My_Top/USB_Composite/My_HID_Keyboard.cpp ****     /* 1. 发送按下报告 */
 247:My_Top/USB_Composite/My_HID_Keyboard.cpp ****     HID_KB_SendReport(modifier, keycode, 0x00, 0x00, 0x00, 0x00);
 145              		.loc 1 247 5 is_stmt 1 view .LVU21
 146              		.loc 1 247 22 is_stmt 0 view .LVU22
 147 0068 0022     		movs	r2, #0
 148 006a 0192     		str	r2, [sp, #4]
 149 006c 0092     		str	r2, [sp]
 150 006e 1346     		mov	r3, r2
 151 0070 FFF7C6FF 		bl	_ZL17HID_KB_SendReporthhhhhh
 152              	.LVL9:
 248:My_Top/USB_Composite/My_HID_Keyboard.cpp **** 
 249:My_Top/USB_Composite/My_HID_Keyboard.cpp ****     /* 2. 等待主机轮询（至少一个 HID 轮询间隔，通常 10ms） */
 250:My_Top/USB_Composite/My_HID_Keyboard.cpp ****     vTaskDelay(pdMS_TO_TICKS(10));
 153              		.loc 1 250 5 is_stmt 1 view .LVU23
 154              		.loc 1 250 15 is_stmt 0 view .LVU24
ARM GAS  /tmp/ccTfUzTX.s 			page 8


 155 0074 0A20     		movs	r0, #10
 156 0076 FFF7FEFF 		bl	vTaskDelay
 157              	.LVL10:
 251:My_Top/USB_Composite/My_HID_Keyboard.cpp **** 
 252:My_Top/USB_Composite/My_HID_Keyboard.cpp ****     /* 3. 发送释放报告（全零，否则主机认为按键一直被按住） */
 253:My_Top/USB_Composite/My_HID_Keyboard.cpp ****     HID_KB_SendRelease();
 158              		.loc 1 253 5 is_stmt 1 view .LVU25
 159              		.loc 1 253 23 is_stmt 0 view .LVU26
 160 007a FFF7E3FF 		bl	_ZL18HID_KB_SendReleasev
 161              	.LVL11:
 254:My_Top/USB_Composite/My_HID_Keyboard.cpp **** 
 255:My_Top/USB_Composite/My_HID_Keyboard.cpp ****     /* 4. 再等待一个间隔，避免两次发送太密集 */
 256:My_Top/USB_Composite/My_HID_Keyboard.cpp ****     vTaskDelay(pdMS_TO_TICKS(10));
 162              		.loc 1 256 5 is_stmt 1 view .LVU27
 163              		.loc 1 256 15 is_stmt 0 view .LVU28
 164 007e 0A20     		movs	r0, #10
 165 0080 FFF7FEFF 		bl	vTaskDelay
 166              	.LVL12:
 257:My_Top/USB_Composite/My_HID_Keyboard.cpp **** }
 167              		.loc 1 257 1 view .LVU29
 168 0084 03B0     		add	sp, sp, #12
 169              		.cfi_def_cfa_offset 4
 170              		@ sp needed
 171 0086 5DF804FB 		ldr	pc, [sp], #4
 172              		.cfi_endproc
 173              	.LFE347:
 175              		.align	1
 176              		.global	_Z21HID_KB_SendSpecialKeyh
 177              		.syntax unified
 178              		.thumb
 179              		.thumb_func
 181              	_Z21HID_KB_SendSpecialKeyh:
 182              	.LVL13:
 183              	.LFB350:
 258:My_Top/USB_Composite/My_HID_Keyboard.cpp **** 
 259:My_Top/USB_Composite/My_HID_Keyboard.cpp **** /**
 260:My_Top/USB_Composite/My_HID_Keyboard.cpp ****   * @brief  发送一个 ASCII 字符（自动处理大小写和符号）
 261:My_Top/USB_Composite/My_HID_Keyboard.cpp ****   * @param  c: 要发送的 ASCII 字符（0x00~0x7F）
 262:My_Top/USB_Composite/My_HID_Keyboard.cpp ****   *
 263:My_Top/USB_Composite/My_HID_Keyboard.cpp ****   * 说明：
 264:My_Top/USB_Composite/My_HID_Keyboard.cpp ****   *   - 支持标准 US 键盘布局的全部可打印 ASCII 字符
 265:My_Top/USB_Composite/My_HID_Keyboard.cpp ****   *   - 大写字母自动加 Shift
 266:My_Top/USB_Composite/My_HID_Keyboard.cpp ****   *   - 符号（如 !@#$%）自动加 Shift
 267:My_Top/USB_Composite/My_HID_Keyboard.cpp ****   *   - 非 ASCII（>= 0x80）或控制字符直接忽略
 268:My_Top/USB_Composite/My_HID_Keyboard.cpp ****   *   - 换行符 '\n' 映射为 Enter 键
 269:My_Top/USB_Composite/My_HID_Keyboard.cpp ****   */
 270:My_Top/USB_Composite/My_HID_Keyboard.cpp **** void HID_KB_SendChar(char c)
 271:My_Top/USB_Composite/My_HID_Keyboard.cpp **** {
 272:My_Top/USB_Composite/My_HID_Keyboard.cpp ****     uint8_t idx = (uint8_t)c;
 273:My_Top/USB_Composite/My_HID_Keyboard.cpp **** 
 274:My_Top/USB_Composite/My_HID_Keyboard.cpp ****     /* 非 ASCII，直接返回 */
 275:My_Top/USB_Composite/My_HID_Keyboard.cpp ****     if (idx >= 0x80) {
 276:My_Top/USB_Composite/My_HID_Keyboard.cpp ****         return;
 277:My_Top/USB_Composite/My_HID_Keyboard.cpp ****     }
 278:My_Top/USB_Composite/My_HID_Keyboard.cpp **** 
 279:My_Top/USB_Composite/My_HID_Keyboard.cpp ****     /* 换行符映射为 Enter */
 280:My_Top/USB_Composite/My_HID_Keyboard.cpp ****     if (c == '\n' || c == '\r') {
ARM GAS  /tmp/ccTfUzTX.s 			page 9


 281:My_Top/USB_Composite/My_HID_Keyboard.cpp ****         HID_KB_SendSpecialKey(HID_KEY_ENTER);
 282:My_Top/USB_Composite/My_HID_Keyboard.cpp ****         return;
 283:My_Top/USB_Composite/My_HID_Keyboard.cpp ****     }
 284:My_Top/USB_Composite/My_HID_Keyboard.cpp **** 
 285:My_Top/USB_Composite/My_HID_Keyboard.cpp ****     /* 查找映射表 */
 286:My_Top/USB_Composite/My_HID_Keyboard.cpp ****     uint8_t keycode  = ascii_to_hid[idx].keycode;
 287:My_Top/USB_Composite/My_HID_Keyboard.cpp ****     uint8_t modifier = ascii_to_hid[idx].modifier;
 288:My_Top/USB_Composite/My_HID_Keyboard.cpp **** 
 289:My_Top/USB_Composite/My_HID_Keyboard.cpp ****     /* 未映射（如 DEL 0x7F）直接忽略 */
 290:My_Top/USB_Composite/My_HID_Keyboard.cpp ****     if (keycode == 0x00) {
 291:My_Top/USB_Composite/My_HID_Keyboard.cpp ****         return;
 292:My_Top/USB_Composite/My_HID_Keyboard.cpp ****     }
 293:My_Top/USB_Composite/My_HID_Keyboard.cpp **** 
 294:My_Top/USB_Composite/My_HID_Keyboard.cpp ****     HID_KB_SendKey(modifier, keycode);
 295:My_Top/USB_Composite/My_HID_Keyboard.cpp **** }
 296:My_Top/USB_Composite/My_HID_Keyboard.cpp **** 
 297:My_Top/USB_Composite/My_HID_Keyboard.cpp **** /**
 298:My_Top/USB_Composite/My_HID_Keyboard.cpp ****   * @brief  发送一个 ASCII 字符串（逐字符发送）
 299:My_Top/USB_Composite/My_HID_Keyboard.cpp ****   * @param  str: 要发送的字符串（以 '\0' 结尾）
 300:My_Top/USB_Composite/My_HID_Keyboard.cpp ****   *
 301:My_Top/USB_Composite/My_HID_Keyboard.cpp ****   * 性能：每个字符约 20ms（按下+释放+延时）
 302:My_Top/USB_Composite/My_HID_Keyboard.cpp ****   * 发送 "Hello" 约需 100ms
 303:My_Top/USB_Composite/My_HID_Keyboard.cpp ****   */
 304:My_Top/USB_Composite/My_HID_Keyboard.cpp **** void HID_KB_SendString(const char *str)
 305:My_Top/USB_Composite/My_HID_Keyboard.cpp **** {
 306:My_Top/USB_Composite/My_HID_Keyboard.cpp ****     if (str == NULL) {
 307:My_Top/USB_Composite/My_HID_Keyboard.cpp ****         return;
 308:My_Top/USB_Composite/My_HID_Keyboard.cpp ****     }
 309:My_Top/USB_Composite/My_HID_Keyboard.cpp **** 
 310:My_Top/USB_Composite/My_HID_Keyboard.cpp ****     while (*str != '\0') {
 311:My_Top/USB_Composite/My_HID_Keyboard.cpp ****         HID_KB_SendChar(*str++);
 312:My_Top/USB_Composite/My_HID_Keyboard.cpp ****     }
 313:My_Top/USB_Composite/My_HID_Keyboard.cpp **** }
 314:My_Top/USB_Composite/My_HID_Keyboard.cpp **** 
 315:My_Top/USB_Composite/My_HID_Keyboard.cpp **** /**
 316:My_Top/USB_Composite/My_HID_Keyboard.cpp ****   * @brief  发送特殊功能键（Enter/Esc/方向键等）
 317:My_Top/USB_Composite/My_HID_Keyboard.cpp ****   * @param  keycode:  HID Usage ID（见 HID_KEY_* 宏）
 318:My_Top/USB_Composite/My_HID_Keyboard.cpp ****   *
 319:My_Top/USB_Composite/My_HID_Keyboard.cpp ****   * 等同于 HID_KB_SendKey(HID_MOD_NONE, keycode)
 320:My_Top/USB_Composite/My_HID_Keyboard.cpp ****   */
 321:My_Top/USB_Composite/My_HID_Keyboard.cpp **** void HID_KB_SendSpecialKey(uint8_t keycode)
 322:My_Top/USB_Composite/My_HID_Keyboard.cpp **** {
 184              		.loc 1 322 1 is_stmt 1 view -0
 185              		.cfi_startproc
 186              		@ args = 0, pretend = 0, frame = 0
 187              		@ frame_needed = 0, uses_anonymous_args = 0
 188              		.loc 1 322 1 is_stmt 0 view .LVU31
 189 008a 08B5     		push	{r3, lr}
 190              		.cfi_def_cfa_offset 8
 191              		.cfi_offset 3, -8
 192              		.cfi_offset 14, -4
 193 008c 0146     		mov	r1, r0
 323:My_Top/USB_Composite/My_HID_Keyboard.cpp ****     HID_KB_SendKey(HID_MOD_NONE, keycode);
 194              		.loc 1 323 5 is_stmt 1 view .LVU32
 195              		.loc 1 323 19 is_stmt 0 view .LVU33
 196 008e 0020     		movs	r0, #0
 197              	.LVL14:
ARM GAS  /tmp/ccTfUzTX.s 			page 10


 198              		.loc 1 323 19 view .LVU34
 199 0090 FFF7FEFF 		bl	_Z14HID_KB_SendKeyhh
 200              	.LVL15:
 324:My_Top/USB_Composite/My_HID_Keyboard.cpp **** }
 201              		.loc 1 324 1 view .LVU35
 202 0094 08BD     		pop	{r3, pc}
 203              		.cfi_endproc
 204              	.LFE350:
 206              		.align	1
 207              		.global	_Z15HID_KB_SendCharc
 208              		.syntax unified
 209              		.thumb
 210              		.thumb_func
 212              	_Z15HID_KB_SendCharc:
 213              	.LVL16:
 214              	.LFB348:
 271:My_Top/USB_Composite/My_HID_Keyboard.cpp ****     uint8_t idx = (uint8_t)c;
 215              		.loc 1 271 1 is_stmt 1 view -0
 216              		.cfi_startproc
 217              		@ args = 0, pretend = 0, frame = 0
 218              		@ frame_needed = 0, uses_anonymous_args = 0
 272:My_Top/USB_Composite/My_HID_Keyboard.cpp **** 
 219              		.loc 1 272 5 view .LVU37
 275:My_Top/USB_Composite/My_HID_Keyboard.cpp ****         return;
 220              		.loc 1 275 5 view .LVU38
 221 0096 10F0800F 		tst	r0, #128
 222 009a 13D1     		bne	.L18
 271:My_Top/USB_Composite/My_HID_Keyboard.cpp ****     uint8_t idx = (uint8_t)c;
 223              		.loc 1 271 1 is_stmt 0 view .LVU39
 224 009c 08B5     		push	{r3, lr}
 225              		.cfi_def_cfa_offset 8
 226              		.cfi_offset 3, -8
 227              		.cfi_offset 14, -4
 280:My_Top/USB_Composite/My_HID_Keyboard.cpp ****         HID_KB_SendSpecialKey(HID_KEY_ENTER);
 228              		.loc 1 280 5 is_stmt 1 view .LVU40
 229 009e 0A28     		cmp	r0, #10
 230 00a0 09D0     		beq	.L15
 280:My_Top/USB_Composite/My_HID_Keyboard.cpp ****         HID_KB_SendSpecialKey(HID_KEY_ENTER);
 231              		.loc 1 280 19 is_stmt 0 discriminator 1 view .LVU41
 232 00a2 0D28     		cmp	r0, #13
 233 00a4 07D0     		beq	.L15
 286:My_Top/USB_Composite/My_HID_Keyboard.cpp ****     uint8_t modifier = ascii_to_hid[idx].modifier;
 234              		.loc 1 286 5 is_stmt 1 view .LVU42
 286:My_Top/USB_Composite/My_HID_Keyboard.cpp ****     uint8_t modifier = ascii_to_hid[idx].modifier;
 235              		.loc 1 286 13 is_stmt 0 view .LVU43
 236 00a6 084B     		ldr	r3, .L22
 237 00a8 13F81010 		ldrb	r1, [r3, r0, lsl #1]	@ zero_extendqisi2
 238              	.LVL17:
 287:My_Top/USB_Composite/My_HID_Keyboard.cpp **** 
 239              		.loc 1 287 5 is_stmt 1 view .LVU44
 287:My_Top/USB_Composite/My_HID_Keyboard.cpp **** 
 240              		.loc 1 287 13 is_stmt 0 view .LVU45
 241 00ac 03EB4003 		add	r3, r3, r0, lsl #1
 242 00b0 5878     		ldrb	r0, [r3, #1]	@ zero_extendqisi2
 243              	.LVL18:
 290:My_Top/USB_Composite/My_HID_Keyboard.cpp ****         return;
 244              		.loc 1 290 5 is_stmt 1 view .LVU46
ARM GAS  /tmp/ccTfUzTX.s 			page 11


 245 00b2 21B9     		cbnz	r1, .L21
 246              	.LVL19:
 247              	.L13:
 295:My_Top/USB_Composite/My_HID_Keyboard.cpp **** 
 248              		.loc 1 295 1 is_stmt 0 view .LVU47
 249 00b4 08BD     		pop	{r3, pc}
 250              	.LVL20:
 251              	.L15:
 281:My_Top/USB_Composite/My_HID_Keyboard.cpp ****         return;
 252              		.loc 1 281 9 is_stmt 1 view .LVU48
 281:My_Top/USB_Composite/My_HID_Keyboard.cpp ****         return;
 253              		.loc 1 281 30 is_stmt 0 view .LVU49
 254 00b6 2820     		movs	r0, #40
 255              	.LVL21:
 281:My_Top/USB_Composite/My_HID_Keyboard.cpp ****         return;
 256              		.loc 1 281 30 view .LVU50
 257 00b8 FFF7FEFF 		bl	_Z21HID_KB_SendSpecialKeyh
 258              	.LVL22:
 282:My_Top/USB_Composite/My_HID_Keyboard.cpp ****     }
 259              		.loc 1 282 9 is_stmt 1 view .LVU51
 260 00bc FAE7     		b	.L13
 261              	.LVL23:
 262              	.L21:
 294:My_Top/USB_Composite/My_HID_Keyboard.cpp **** }
 263              		.loc 1 294 5 view .LVU52
 294:My_Top/USB_Composite/My_HID_Keyboard.cpp **** }
 264              		.loc 1 294 19 is_stmt 0 view .LVU53
 265 00be FFF7FEFF 		bl	_Z14HID_KB_SendKeyhh
 266              	.LVL24:
 294:My_Top/USB_Composite/My_HID_Keyboard.cpp **** }
 267              		.loc 1 294 19 view .LVU54
 268 00c2 F7E7     		b	.L13
 269              	.LVL25:
 270              	.L18:
 271              		.cfi_def_cfa_offset 0
 272              		.cfi_restore 3
 273              		.cfi_restore 14
 294:My_Top/USB_Composite/My_HID_Keyboard.cpp **** }
 274              		.loc 1 294 19 view .LVU55
 275 00c4 7047     		bx	lr
 276              	.L23:
 277 00c6 00BF     		.align	2
 278              	.L22:
 279 00c8 00000000 		.word	.LANCHOR0
 280              		.cfi_endproc
 281              	.LFE348:
 283              		.align	1
 284              		.global	_Z17HID_KB_SendStringPKc
 285              		.syntax unified
 286              		.thumb
 287              		.thumb_func
 289              	_Z17HID_KB_SendStringPKc:
 290              	.LVL26:
 291              	.LFB349:
 305:My_Top/USB_Composite/My_HID_Keyboard.cpp ****     if (str == NULL) {
 292              		.loc 1 305 1 is_stmt 1 view -0
 293              		.cfi_startproc
ARM GAS  /tmp/ccTfUzTX.s 			page 12


 294              		@ args = 0, pretend = 0, frame = 0
 295              		@ frame_needed = 0, uses_anonymous_args = 0
 305:My_Top/USB_Composite/My_HID_Keyboard.cpp ****     if (str == NULL) {
 296              		.loc 1 305 1 is_stmt 0 view .LVU57
 297 00cc 10B5     		push	{r4, lr}
 298              		.cfi_def_cfa_offset 8
 299              		.cfi_offset 4, -8
 300              		.cfi_offset 14, -4
 306:My_Top/USB_Composite/My_HID_Keyboard.cpp ****         return;
 301              		.loc 1 306 5 is_stmt 1 view .LVU58
 302 00ce 0446     		mov	r4, r0
 303 00d0 18B9     		cbnz	r0, .L26
 304 00d2 05E0     		b	.L24
 305              	.LVL27:
 306              	.L27:
 311:My_Top/USB_Composite/My_HID_Keyboard.cpp ****     }
 307              		.loc 1 311 9 view .LVU59
 311:My_Top/USB_Composite/My_HID_Keyboard.cpp ****     }
 308              		.loc 1 311 29 is_stmt 0 view .LVU60
 309 00d4 0134     		adds	r4, r4, #1
 310              	.LVL28:
 311:My_Top/USB_Composite/My_HID_Keyboard.cpp ****     }
 311              		.loc 1 311 24 view .LVU61
 312 00d6 FFF7FEFF 		bl	_Z15HID_KB_SendCharc
 313              	.LVL29:
 314              	.L26:
 310:My_Top/USB_Composite/My_HID_Keyboard.cpp ****         HID_KB_SendChar(*str++);
 315              		.loc 1 310 17 is_stmt 1 view .LVU62
 310:My_Top/USB_Composite/My_HID_Keyboard.cpp ****         HID_KB_SendChar(*str++);
 316              		.loc 1 310 12 is_stmt 0 view .LVU63
 317 00da 2078     		ldrb	r0, [r4]	@ zero_extendqisi2
 310:My_Top/USB_Composite/My_HID_Keyboard.cpp ****         HID_KB_SendChar(*str++);
 318              		.loc 1 310 17 view .LVU64
 319 00dc 0028     		cmp	r0, #0
 320 00de F9D1     		bne	.L27
 321              	.L24:
 313:My_Top/USB_Composite/My_HID_Keyboard.cpp **** 
 322              		.loc 1 313 1 view .LVU65
 323 00e0 10BD     		pop	{r4, pc}
 313:My_Top/USB_Composite/My_HID_Keyboard.cpp **** 
 324              		.loc 1 313 1 view .LVU66
 325              		.cfi_endproc
 326              	.LFE349:
 328              		.align	1
 329              		.global	_Z16HID_KB_SendCombohh
 330              		.syntax unified
 331              		.thumb
 332              		.thumb_func
 334              	_Z16HID_KB_SendCombohh:
 335              	.LVL30:
 336              	.LFB351:
 325:My_Top/USB_Composite/My_HID_Keyboard.cpp **** 
 326:My_Top/USB_Composite/My_HID_Keyboard.cpp **** /**
 327:My_Top/USB_Composite/My_HID_Keyboard.cpp ****   * @brief  发送组合键（如 Ctrl+C、Alt+F4）
 328:My_Top/USB_Composite/My_HID_Keyboard.cpp ****   * @param  modifier: 修饰键位图（见 HID_MOD_* 宏）
 329:My_Top/USB_Composite/My_HID_Keyboard.cpp ****   * @param  keycode:  主键 Usage ID（见 HID_KEY_* 宏）
 330:My_Top/USB_Composite/My_HID_Keyboard.cpp ****   *
ARM GAS  /tmp/ccTfUzTX.s 			page 13


 331:My_Top/USB_Composite/My_HID_Keyboard.cpp ****   * 示例：
 332:My_Top/USB_Composite/My_HID_Keyboard.cpp ****   *   HID_KB_SendCombo(HID_MOD_LCTRL, HID_KEY_C);   // Ctrl + C
 333:My_Top/USB_Composite/My_HID_Keyboard.cpp ****   *   HID_KB_SendCombo(HID_MOD_LALT,  HID_KEY_F4);  // Alt + F4
 334:My_Top/USB_Composite/My_HID_Keyboard.cpp ****   *   HID_KB_SendCombo(HID_MOD_LCTRL | HID_MOD_LSHIFT, HID_KEY_ESC); // Ctrl+Shift+Esc
 335:My_Top/USB_Composite/My_HID_Keyboard.cpp ****   */
 336:My_Top/USB_Composite/My_HID_Keyboard.cpp **** void HID_KB_SendCombo(uint8_t modifier, uint8_t keycode)
 337:My_Top/USB_Composite/My_HID_Keyboard.cpp **** {
 337              		.loc 1 337 1 is_stmt 1 view -0
 338              		.cfi_startproc
 339              		@ args = 0, pretend = 0, frame = 0
 340              		@ frame_needed = 0, uses_anonymous_args = 0
 341              		.loc 1 337 1 is_stmt 0 view .LVU68
 342 00e2 08B5     		push	{r3, lr}
 343              		.cfi_def_cfa_offset 8
 344              		.cfi_offset 3, -8
 345              		.cfi_offset 14, -4
 338:My_Top/USB_Composite/My_HID_Keyboard.cpp ****     HID_KB_SendKey(modifier, keycode);
 346              		.loc 1 338 5 is_stmt 1 view .LVU69
 347              		.loc 1 338 19 is_stmt 0 view .LVU70
 348 00e4 FFF7FEFF 		bl	_Z14HID_KB_SendKeyhh
 349              	.LVL31:
 339:My_Top/USB_Composite/My_HID_Keyboard.cpp **** }
 350              		.loc 1 339 1 view .LVU71
 351 00e8 08BD     		pop	{r3, pc}
 352              		.cfi_endproc
 353              	.LFE351:
 355              		.section	.rodata
 356              		.align	2
 357              		.set	.LANCHOR0,. + 0
 360              	_ZL12ascii_to_hid:
 361 0000 00       		.byte	0
 362 0001 00       		.byte	0
 363 0002 00       		.byte	0
 364 0003 00       		.byte	0
 365 0004 00       		.byte	0
 366 0005 00       		.byte	0
 367 0006 00       		.byte	0
 368 0007 00       		.byte	0
 369 0008 00       		.byte	0
 370 0009 00       		.byte	0
 371 000a 00       		.byte	0
 372 000b 00       		.byte	0
 373 000c 00       		.byte	0
 374 000d 00       		.byte	0
 375 000e 00       		.byte	0
 376 000f 00       		.byte	0
 377 0010 00       		.byte	0
 378 0011 00       		.byte	0
 379 0012 00       		.byte	0
 380 0013 00       		.byte	0
 381 0014 00       		.byte	0
 382 0015 00       		.byte	0
 383 0016 00       		.byte	0
 384 0017 00       		.byte	0
 385 0018 00       		.byte	0
 386 0019 00       		.byte	0
 387 001a 00       		.byte	0
ARM GAS  /tmp/ccTfUzTX.s 			page 14


 388 001b 00       		.byte	0
 389 001c 00       		.byte	0
 390 001d 00       		.byte	0
 391 001e 00       		.byte	0
 392 001f 00       		.byte	0
 393 0020 00       		.byte	0
 394 0021 00       		.byte	0
 395 0022 00       		.byte	0
 396 0023 00       		.byte	0
 397 0024 00       		.byte	0
 398 0025 00       		.byte	0
 399 0026 00       		.byte	0
 400 0027 00       		.byte	0
 401 0028 00       		.byte	0
 402 0029 00       		.byte	0
 403 002a 00       		.byte	0
 404 002b 00       		.byte	0
 405 002c 00       		.byte	0
 406 002d 00       		.byte	0
 407 002e 00       		.byte	0
 408 002f 00       		.byte	0
 409 0030 00       		.byte	0
 410 0031 00       		.byte	0
 411 0032 00       		.byte	0
 412 0033 00       		.byte	0
 413 0034 00       		.byte	0
 414 0035 00       		.byte	0
 415 0036 00       		.byte	0
 416 0037 00       		.byte	0
 417 0038 00       		.byte	0
 418 0039 00       		.byte	0
 419 003a 00       		.byte	0
 420 003b 00       		.byte	0
 421 003c 00       		.byte	0
 422 003d 00       		.byte	0
 423 003e 00       		.byte	0
 424 003f 00       		.byte	0
 425 0040 2C       		.byte	44
 426 0041 00       		.byte	0
 427 0042 1E       		.byte	30
 428 0043 02       		.byte	2
 429 0044 34       		.byte	52
 430 0045 02       		.byte	2
 431 0046 20       		.byte	32
 432 0047 02       		.byte	2
 433 0048 21       		.byte	33
 434 0049 02       		.byte	2
 435 004a 22       		.byte	34
 436 004b 02       		.byte	2
 437 004c 24       		.byte	36
 438 004d 02       		.byte	2
 439 004e 34       		.byte	52
 440 004f 00       		.byte	0
 441 0050 26       		.byte	38
 442 0051 02       		.byte	2
 443 0052 27       		.byte	39
 444 0053 02       		.byte	2
ARM GAS  /tmp/ccTfUzTX.s 			page 15


 445 0054 25       		.byte	37
 446 0055 02       		.byte	2
 447 0056 2E       		.byte	46
 448 0057 02       		.byte	2
 449 0058 36       		.byte	54
 450 0059 00       		.byte	0
 451 005a 2D       		.byte	45
 452 005b 00       		.byte	0
 453 005c 37       		.byte	55
 454 005d 00       		.byte	0
 455 005e 38       		.byte	56
 456 005f 00       		.byte	0
 457 0060 27       		.byte	39
 458 0061 00       		.byte	0
 459 0062 1E       		.byte	30
 460 0063 00       		.byte	0
 461 0064 1F       		.byte	31
 462 0065 00       		.byte	0
 463 0066 20       		.byte	32
 464 0067 00       		.byte	0
 465 0068 21       		.byte	33
 466 0069 00       		.byte	0
 467 006a 22       		.byte	34
 468 006b 00       		.byte	0
 469 006c 23       		.byte	35
 470 006d 00       		.byte	0
 471 006e 24       		.byte	36
 472 006f 00       		.byte	0
 473 0070 25       		.byte	37
 474 0071 00       		.byte	0
 475 0072 26       		.byte	38
 476 0073 00       		.byte	0
 477 0074 33       		.byte	51
 478 0075 02       		.byte	2
 479 0076 33       		.byte	51
 480 0077 00       		.byte	0
 481 0078 36       		.byte	54
 482 0079 02       		.byte	2
 483 007a 2E       		.byte	46
 484 007b 00       		.byte	0
 485 007c 37       		.byte	55
 486 007d 02       		.byte	2
 487 007e 38       		.byte	56
 488 007f 02       		.byte	2
 489 0080 1F       		.byte	31
 490 0081 02       		.byte	2
 491 0082 04       		.byte	4
 492 0083 02       		.byte	2
 493 0084 05       		.byte	5
 494 0085 02       		.byte	2
 495 0086 06       		.byte	6
 496 0087 02       		.byte	2
 497 0088 07       		.byte	7
 498 0089 02       		.byte	2
 499 008a 08       		.byte	8
 500 008b 02       		.byte	2
 501 008c 09       		.byte	9
ARM GAS  /tmp/ccTfUzTX.s 			page 16


 502 008d 02       		.byte	2
 503 008e 0A       		.byte	10
 504 008f 02       		.byte	2
 505 0090 0B       		.byte	11
 506 0091 02       		.byte	2
 507 0092 0C       		.byte	12
 508 0093 02       		.byte	2
 509 0094 0D       		.byte	13
 510 0095 02       		.byte	2
 511 0096 0E       		.byte	14
 512 0097 02       		.byte	2
 513 0098 0F       		.byte	15
 514 0099 02       		.byte	2
 515 009a 10       		.byte	16
 516 009b 02       		.byte	2
 517 009c 11       		.byte	17
 518 009d 02       		.byte	2
 519 009e 12       		.byte	18
 520 009f 02       		.byte	2
 521 00a0 13       		.byte	19
 522 00a1 02       		.byte	2
 523 00a2 14       		.byte	20
 524 00a3 02       		.byte	2
 525 00a4 15       		.byte	21
 526 00a5 02       		.byte	2
 527 00a6 16       		.byte	22
 528 00a7 02       		.byte	2
 529 00a8 17       		.byte	23
 530 00a9 02       		.byte	2
 531 00aa 18       		.byte	24
 532 00ab 02       		.byte	2
 533 00ac 19       		.byte	25
 534 00ad 02       		.byte	2
 535 00ae 1A       		.byte	26
 536 00af 02       		.byte	2
 537 00b0 1B       		.byte	27
 538 00b1 02       		.byte	2
 539 00b2 1C       		.byte	28
 540 00b3 02       		.byte	2
 541 00b4 1D       		.byte	29
 542 00b5 02       		.byte	2
 543 00b6 2F       		.byte	47
 544 00b7 00       		.byte	0
 545 00b8 31       		.byte	49
 546 00b9 00       		.byte	0
 547 00ba 30       		.byte	48
 548 00bb 00       		.byte	0
 549 00bc 23       		.byte	35
 550 00bd 02       		.byte	2
 551 00be 2D       		.byte	45
 552 00bf 02       		.byte	2
 553 00c0 35       		.byte	53
 554 00c1 00       		.byte	0
 555 00c2 04       		.byte	4
 556 00c3 00       		.byte	0
 557 00c4 05       		.byte	5
 558 00c5 00       		.byte	0
ARM GAS  /tmp/ccTfUzTX.s 			page 17


 559 00c6 06       		.byte	6
 560 00c7 00       		.byte	0
 561 00c8 07       		.byte	7
 562 00c9 00       		.byte	0
 563 00ca 08       		.byte	8
 564 00cb 00       		.byte	0
 565 00cc 09       		.byte	9
 566 00cd 00       		.byte	0
 567 00ce 0A       		.byte	10
 568 00cf 00       		.byte	0
 569 00d0 0B       		.byte	11
 570 00d1 00       		.byte	0
 571 00d2 0C       		.byte	12
 572 00d3 00       		.byte	0
 573 00d4 0D       		.byte	13
 574 00d5 00       		.byte	0
 575 00d6 0E       		.byte	14
 576 00d7 00       		.byte	0
 577 00d8 0F       		.byte	15
 578 00d9 00       		.byte	0
 579 00da 10       		.byte	16
 580 00db 00       		.byte	0
 581 00dc 11       		.byte	17
 582 00dd 00       		.byte	0
 583 00de 12       		.byte	18
 584 00df 00       		.byte	0
 585 00e0 13       		.byte	19
 586 00e1 00       		.byte	0
 587 00e2 14       		.byte	20
 588 00e3 00       		.byte	0
 589 00e4 15       		.byte	21
 590 00e5 00       		.byte	0
 591 00e6 16       		.byte	22
 592 00e7 00       		.byte	0
 593 00e8 17       		.byte	23
 594 00e9 00       		.byte	0
 595 00ea 18       		.byte	24
 596 00eb 00       		.byte	0
 597 00ec 19       		.byte	25
 598 00ed 00       		.byte	0
 599 00ee 1A       		.byte	26
 600 00ef 00       		.byte	0
 601 00f0 1B       		.byte	27
 602 00f1 00       		.byte	0
 603 00f2 1C       		.byte	28
 604 00f3 00       		.byte	0
 605 00f4 1D       		.byte	29
 606 00f5 00       		.byte	0
 607 00f6 2F       		.byte	47
 608 00f7 02       		.byte	2
 609 00f8 31       		.byte	49
 610 00f9 02       		.byte	2
 611 00fa 30       		.byte	48
 612 00fb 02       		.byte	2
 613 00fc 35       		.byte	53
 614 00fd 02       		.byte	2
 615 00fe 00       		.byte	0
ARM GAS  /tmp/ccTfUzTX.s 			page 18


 616 00ff 00       		.byte	0
 617              		.text
 618              	.Letext0:
 619              		.file 2 "/opt/arm-gnu-toolchain-14.2/arm-none-eabi/include/machine/_default_types.h"
 620              		.file 3 "/opt/arm-gnu-toolchain-14.2/arm-none-eabi/include/sys/_stdint.h"
 621              		.file 4 "/opt/arm-gnu-toolchain-14.2/lib/gcc/arm-none-eabi/14.2.1/include/stddef.h"
 622              		.file 5 "/opt/arm-gnu-toolchain-14.2/arm-none-eabi/include/stdlib.h"
 623              		.file 6 "/opt/arm-gnu-toolchain-14.2/arm-none-eabi/include/c++/14.2.1/cstdlib"
 624              		.file 7 "/opt/arm-gnu-toolchain-14.2/arm-none-eabi/include/c++/14.2.1/bits/std_abs.h"
 625              		.file 8 "/opt/arm-gnu-toolchain-14.2/arm-none-eabi/include/c++/14.2.1/stdlib.h"
 626              		.file 9 "Drivers/CMSIS/Device/ST/STM32G4xx/Include/stm32g4xx.h"
 627              		.file 10 "Middlewares/Third_Party/AL94_USB_Composite/COMPOSITE/Core/Inc/usbd_def.h"
 628              		.file 11 "Middlewares/Third_Party/FreeRTOS/Source/portable/GCC/ARM_CM4F/portmacro.h"
 629              		.file 12 "Middlewares/Third_Party/AL94_USB_Composite/COMPOSITE/Class/HID_KEYBOARD/Inc/usbd_hid_key
 630              		.file 13 "Middlewares/Third_Party/FreeRTOS/Source/include/task.h"
 631              		.file 14 "/opt/arm-gnu-toolchain-14.2/arm-none-eabi/include/c++/14.2.1/arm-none-eabi/thumb/v7e-m+f
ARM GAS  /tmp/ccTfUzTX.s 			page 19

