ARM GAS  /tmp/ccm5s4Q0.s 			page 1


   1              		.cpu cortex-m4
   2              		.arch armv7e-m
   3              		.fpu fpv4-sp-d16
   4              		.eabi_attribute 27, 1
   5              		.eabi_attribute 28, 1
   6              		.eabi_attribute 20, 1
   7              		.eabi_attribute 21, 1
   8              		.eabi_attribute 23, 3
   9              		.eabi_attribute 24, 1
  10              		.eabi_attribute 25, 1
  11              		.eabi_attribute 26, 1
  12              		.eabi_attribute 30, 1
  13              		.eabi_attribute 34, 1
  14              		.eabi_attribute 18, 4
  15              		.file	"My_Vofa.cpp"
  16              		.text
  17              	.Ltext0:
  18              		.cfi_sections	.debug_frame
  19              		.file 1 "My_Top/MC/My_Vofa.cpp"
  20              		.align	1
  21              		.global	_Z14My_USB_HandlerPhm
  22              		.syntax unified
  23              		.thumb
  24              		.thumb_func
  26              	_Z14My_USB_HandlerPhm:
  27              	.LVL0:
  28              	.LFB348:
   1:My_Top/MC/My_Vofa.cpp **** #include "My_Vofa.hpp"
   2:My_Top/MC/My_Vofa.cpp **** 
   3:My_Top/MC/My_Vofa.cpp **** 
   4:My_Top/MC/My_Vofa.cpp **** // 1.ÕÅæķĆüķā©Õłå
   5:My_Top/MC/My_Vofa.cpp **** // Õ«Üõ╣ēÕÅīń╝ōÕå▓Õī║’╝īķś▓µŁóĶ┐×ń╗ŁÕÅæķĆüµŚČĶ”åńø¢ 
   6:My_Top/MC/My_Vofa.cpp **** #define MAX_VOFA_FLOATS 30 // õĖ┤µŚČń╝ōÕå▓Õī║’╝īµ£ĆÕżÜÕÅæķĆü 30 õĖ¬µĄ«ńé╣µĢ░ 
   7:My_Top/MC/My_Vofa.cpp **** #define VOFA_BUFFER_SIZE (MAX_VOFA_FLOATS * sizeof(float) + 4)  // µ£ĆÕżÜ20õĖ¬µĄ«ńé╣µĢ░ + 4ÕŁŚĶŖéÕĖ
   8:My_Top/MC/My_Vofa.cpp **** static uint8_t vofa_buf1[VOFA_BUFFER_SIZE];
   9:My_Top/MC/My_Vofa.cpp **** static uint8_t vofa_buf2[VOFA_BUFFER_SIZE];
  10:My_Top/MC/My_Vofa.cpp **** static uint8_t vofa_buf_sel = 0;  // ń«ĆÕŹĢĶĮ«µŹóķĆēµŗ®
  11:My_Top/MC/My_Vofa.cpp **** 
  12:My_Top/MC/My_Vofa.cpp **** static const uint8_t tail[4] = {0x00, 0x00, 0x80, 0x7F};
  13:My_Top/MC/My_Vofa.cpp **** 
  14:My_Top/MC/My_Vofa.cpp **** void Vofa_SendFireWater(float *data, uint16_t count, uint32_t timeout)//ÕÅæķĆüµīćÕ«ÜÕÅéµĢ░
  15:My_Top/MC/My_Vofa.cpp **** {
  16:My_Top/MC/My_Vofa.cpp ****     if (count == 0) return;
  17:My_Top/MC/My_Vofa.cpp ****     uint16_t data_len = count * sizeof(float);
  18:My_Top/MC/My_Vofa.cpp ****     uint16_t total_len = data_len + 4;
  19:My_Top/MC/My_Vofa.cpp **** 
  20:My_Top/MC/My_Vofa.cpp ****     // ķĆēµŗ®ÕĮōÕēŹÕÅ»ńö©ńÜäń╝ōÕå▓Õī║’╝łń«ĆÕŹĢĶĮ«µŹó’╝īńĪ«õ┐ØõĖŹĶ”åńø¢µŁŻÕ£©DMAÕÅæķĆüõĖŁńÜäµĢ░µŹ«’╝
  21:My_Top/MC/My_Vofa.cpp ****     uint8_t *buf = (vofa_buf_sel == 0) ? vofa_buf1 : vofa_buf2;
  22:My_Top/MC/My_Vofa.cpp ****     vofa_buf_sel = !vofa_buf_sel;  // õĖŗµ¼Īńö©ÕÅ”õĖĆõĖ¬
  23:My_Top/MC/My_Vofa.cpp **** 
  24:My_Top/MC/My_Vofa.cpp ****     // µŗ╝µÄźµĢ░µŹ«
  25:My_Top/MC/My_Vofa.cpp ****     memcpy(buf, data, data_len);
  26:My_Top/MC/My_Vofa.cpp ****     memcpy(buf + data_len, tail, 4);
  27:My_Top/MC/My_Vofa.cpp ****  
  28:My_Top/MC/My_Vofa.cpp ****     CDC_Transmit_FS(buf, total_len); // ÕÅæķĆüµĢ░µŹ«
  29:My_Top/MC/My_Vofa.cpp **** 
  30:My_Top/MC/My_Vofa.cpp **** }
ARM GAS  /tmp/ccm5s4Q0.s 			page 2


  31:My_Top/MC/My_Vofa.cpp **** 
  32:My_Top/MC/My_Vofa.cpp **** 
  33:My_Top/MC/My_Vofa.cpp **** 
  34:My_Top/MC/My_Vofa.cpp **** void Vofa_SendFireWater_VA(uint16_t count, ...)//ÕÅæķĆüõĖŹÕ«ÜķĢ┐µĄ«ńé╣Õ×ŗÕÅéµĢ░
  35:My_Top/MC/My_Vofa.cpp **** {
  36:My_Top/MC/My_Vofa.cpp ****     float buffer[MAX_VOFA_FLOATS];
  37:My_Top/MC/My_Vofa.cpp ****     
  38:My_Top/MC/My_Vofa.cpp ****     if (count > MAX_VOFA_FLOATS) count = MAX_VOFA_FLOATS;  // ķś▓µ║óÕć║
  39:My_Top/MC/My_Vofa.cpp ****     
  40:My_Top/MC/My_Vofa.cpp ****     va_list args;
  41:My_Top/MC/My_Vofa.cpp ****     va_start(args, count); //Ķ«® args µīćÕÉæń¼¼õĖĆõĖ¬ÕÅ»ÕÅśÕÅéµĢ░
  42:My_Top/MC/My_Vofa.cpp ****     for (uint16_t i = 0; i < count; i++) {//ÕÅ¢Õć║õĖŗõĖĆõĖ¬ÕÅéµĢ░
  43:My_Top/MC/My_Vofa.cpp ****         buffer[i] = (float)va_arg(args, double);  // ÕÅśÕÅé float õ╝ÜĶó½µÅÉÕŹćõĖ║ double
  44:My_Top/MC/My_Vofa.cpp ****     }
  45:My_Top/MC/My_Vofa.cpp ****     va_end(args);
  46:My_Top/MC/My_Vofa.cpp ****     
  47:My_Top/MC/My_Vofa.cpp ****     Vofa_SendFireWater(buffer, count,0);
  48:My_Top/MC/My_Vofa.cpp **** }
  49:My_Top/MC/My_Vofa.cpp **** 
  50:My_Top/MC/My_Vofa.cpp **** 
  51:My_Top/MC/My_Vofa.cpp **** 
  52:My_Top/MC/My_Vofa.cpp **** //2.µÄźÕÅŚķā©Õłå
  53:My_Top/MC/My_Vofa.cpp **** VoFA_Rx vofa1 = {};
  54:My_Top/MC/My_Vofa.cpp **** 
  55:My_Top/MC/My_Vofa.cpp **** void My_USB_Handler(uint8_t* data, uint32_t len)
  56:My_Top/MC/My_Vofa.cpp **** {
  29              		.loc 1 56 1 view -0
  30              		.cfi_startproc
  31              		@ args = 0, pretend = 0, frame = 0
  32              		@ frame_needed = 0, uses_anonymous_args = 0
  33              		.loc 1 56 1 is_stmt 0 view .LVU1
  34 0000 38B5     		push	{r3, r4, r5, lr}
  35              		.cfi_def_cfa_offset 16
  36              		.cfi_offset 3, -16
  37              		.cfi_offset 4, -12
  38              		.cfi_offset 5, -8
  39              		.cfi_offset 14, -4
  57:My_Top/MC/My_Vofa.cpp ****     vofa1.on_recv(data, len);
  40              		.loc 1 57 5 is_stmt 1 view .LVU2
  41              		.loc 1 57 18 is_stmt 0 view .LVU3
  42 0002 8CB2     		uxth	r4, r1
  43              	.LVL1:
  44              	.LBB4:
  45              	.LBI4:
  46              		.file 2 "My_Top/MC/My_Vofa.hpp"
   1:My_Top/MC/My_Vofa.hpp **** #pragma once
   2:My_Top/MC/My_Vofa.hpp **** 
   3:My_Top/MC/My_Vofa.hpp **** #include "usbd_cdc_if.h"
   4:My_Top/MC/My_Vofa.hpp **** #include <stdint.h>
   5:My_Top/MC/My_Vofa.hpp **** #include <stdarg.h>
   6:My_Top/MC/My_Vofa.hpp **** #include <string.h>
   7:My_Top/MC/My_Vofa.hpp **** #include <stdlib.h>     // atof
   8:My_Top/MC/My_Vofa.hpp **** 
   9:My_Top/MC/My_Vofa.hpp **** #define VOFA_PARAM_MAX    30   // µ£ĆÕż¦ÕÅéµĢ░õĖ¬µĢ░
  10:My_Top/MC/My_Vofa.hpp **** #define VOFA_NAME_LEN     25   // ÕÅéµĢ░ÕÉŹµ£ĆÕż¦ķĢ┐Õ║”
  11:My_Top/MC/My_Vofa.hpp **** #define VOFA_RX_BUF_SIZE 128   // DMA µÄźµöČń╝ōÕå▓
  12:My_Top/MC/My_Vofa.hpp **** 
ARM GAS  /tmp/ccm5s4Q0.s 			page 3


  13:My_Top/MC/My_Vofa.hpp **** struct vofa_param_t {            // ÕŹĢõĖ¬ÕÅéµĢ░
  14:My_Top/MC/My_Vofa.hpp ****     char  name[VOFA_NAME_LEN];
  15:My_Top/MC/My_Vofa.hpp ****     float value;
  16:My_Top/MC/My_Vofa.hpp ****     bool  valid; //µś»ÕÉ”ĶĄŗÕĆ╝
  17:My_Top/MC/My_Vofa.hpp **** };
  18:My_Top/MC/My_Vofa.hpp **** 
  19:My_Top/MC/My_Vofa.hpp **** struct VoFA_Rx {
  20:My_Top/MC/My_Vofa.hpp ****     uint8_t      rx_buf[VOFA_RX_BUF_SIZE]; // DMA ÕÄ¤Õ¦ŗµĢ░µŹ«
  21:My_Top/MC/My_Vofa.hpp ****     uint16_t     rx_len;                    // µ£¼ÕĖ¦ÕŁŚĶŖéµĢ░
  22:My_Top/MC/My_Vofa.hpp ****     volatile bool rx_ready;                 // õĖŁµ¢ŁńĮ«1’╝īTaskµĖģ0
  23:My_Top/MC/My_Vofa.hpp **** 
  24:My_Top/MC/My_Vofa.hpp ****     vofa_param_t params[VOFA_PARAM_MAX];   // ÕÅéµĢ░ĶĪ©
  25:My_Top/MC/My_Vofa.hpp ****     uint8_t      param_cnt;                // ÕĘ▓µ│©ÕåīÕÅéµĢ░µĢ░
  26:My_Top/MC/My_Vofa.hpp **** 
  27:My_Top/MC/My_Vofa.hpp ****     /* õĖŁµ¢ŁķćīĶ░ā’╝ÜÕÅ¬µŗĘĶ┤Ø + ńĮ«µĀćÕ┐Ś */
  28:My_Top/MC/My_Vofa.hpp ****     void on_recv(uint8_t *buf, uint16_t len) {
  47              		.loc 2 28 10 is_stmt 1 view .LVU4
  48              	.LBB5:
  29:My_Top/MC/My_Vofa.hpp ****         // if (rx_ready) return;                             // õĖŖÕĖ¦µ£¬ÕżäńÉåÕłÖõĖóÕ╝ā
  30:My_Top/MC/My_Vofa.hpp ****         if (len > VOFA_RX_BUF_SIZE) len = VOFA_RX_BUF_SIZE; 
  49              		.loc 2 30 9 view .LVU5
  50 0004 802C     		cmp	r4, #128
  51 0006 00D9     		bls	.L2
  52              		.loc 2 30 41 is_stmt 0 discriminator 1 view .LVU6
  53 0008 8024     		movs	r4, #128
  54              	.LVL2:
  55              	.L2:
  31:My_Top/MC/My_Vofa.hpp ****         memcpy(rx_buf, buf, len);                        // µŗĘĶ┤ØµĢ░µŹ«
  56              		.loc 2 31 9 is_stmt 1 view .LVU7
  57              		.loc 2 31 15 is_stmt 0 view .LVU8
  58 000a 064D     		ldr	r5, .L5
  59 000c 2246     		mov	r2, r4
  60 000e 0146     		mov	r1, r0
  61              	.LVL3:
  62              		.loc 2 31 15 view .LVU9
  63 0010 2846     		mov	r0, r5
  64              	.LVL4:
  65              		.loc 2 31 15 view .LVU10
  66 0012 FFF7FEFF 		bl	memcpy
  67              	.LVL5:
  32:My_Top/MC/My_Vofa.hpp ****         rx_len = len; rx_ready = true;                   // ńĮ«µĀćÕ┐Ś
  68              		.loc 2 32 9 is_stmt 1 view .LVU11
  69              		.loc 2 32 16 is_stmt 0 view .LVU12
  70 0016 A5F88040 		strh	r4, [r5, #128]	@ movhi
  71              		.loc 2 32 23 is_stmt 1 view .LVU13
  72              		.loc 2 32 32 is_stmt 0 view .LVU14
  73 001a 0123     		movs	r3, #1
  74 001c 85F88230 		strb	r3, [r5, #130]
  75              	.LVL6:
  76              		.loc 2 32 32 view .LVU15
  77              	.LBE5:
  78              	.LBE4:
  58:My_Top/MC/My_Vofa.cpp **** }
  79              		.loc 1 58 1 view .LVU16
  80 0020 38BD     		pop	{r3, r4, r5, pc}
  81              	.L6:
  82 0022 00BF     		.align	2
ARM GAS  /tmp/ccm5s4Q0.s 			page 4


  83              	.L5:
  84 0024 00000000 		.word	.LANCHOR0
  85              		.cfi_endproc
  86              	.LFE348:
  88              		.align	1
  89              		.global	_Z18Vofa_SendFireWaterPftm
  90              		.syntax unified
  91              		.thumb
  92              		.thumb_func
  94              	_Z18Vofa_SendFireWaterPftm:
  95              	.LVL7:
  96              	.LFB346:
  15:My_Top/MC/My_Vofa.cpp ****     if (count == 0) return;
  97              		.loc 1 15 1 is_stmt 1 view -0
  98              		.cfi_startproc
  99              		@ args = 0, pretend = 0, frame = 0
 100              		@ frame_needed = 0, uses_anonymous_args = 0
  16:My_Top/MC/My_Vofa.cpp ****     uint16_t data_len = count * sizeof(float);
 101              		.loc 1 16 5 view .LVU18
 102 0028 F1B1     		cbz	r1, .L12
  15:My_Top/MC/My_Vofa.cpp ****     if (count == 0) return;
 103              		.loc 1 15 1 is_stmt 0 view .LVU19
 104 002a 70B5     		push	{r4, r5, r6, lr}
 105              		.cfi_def_cfa_offset 16
 106              		.cfi_offset 4, -16
 107              		.cfi_offset 5, -12
 108              		.cfi_offset 6, -8
 109              		.cfi_offset 14, -4
  17:My_Top/MC/My_Vofa.cpp ****     uint16_t total_len = data_len + 4;
 110              		.loc 1 17 5 is_stmt 1 view .LVU20
  17:My_Top/MC/My_Vofa.cpp ****     uint16_t total_len = data_len + 4;
 111              		.loc 1 17 14 is_stmt 0 view .LVU21
 112 002c 8C00     		lsls	r4, r1, #2
 113 002e A4B2     		uxth	r4, r4
 114              	.LVL8:
  18:My_Top/MC/My_Vofa.cpp **** 
 115              		.loc 1 18 5 is_stmt 1 view .LVU22
  18:My_Top/MC/My_Vofa.cpp **** 
 116              		.loc 1 18 14 is_stmt 0 view .LVU23
 117 0030 261D     		adds	r6, r4, #4
 118 0032 B6B2     		uxth	r6, r6
 119              	.LVL9:
  21:My_Top/MC/My_Vofa.cpp ****     vofa_buf_sel = !vofa_buf_sel;  // õĖŗµ¼Īńö©ÕÅ”õĖĆõĖ¬
 120              		.loc 1 21 5 is_stmt 1 view .LVU24
  21:My_Top/MC/My_Vofa.cpp ****     vofa_buf_sel = !vofa_buf_sel;  // õĖŗµ¼Īńö©ÕÅ”õĖĆõĖ¬
 121              		.loc 1 21 34 is_stmt 0 view .LVU25
 122 0034 0D4B     		ldr	r3, .L15
 123 0036 93F8B835 		ldrb	r3, [r3, #1464]	@ zero_extendqisi2
  21:My_Top/MC/My_Vofa.cpp ****     vofa_buf_sel = !vofa_buf_sel;  // õĖŗµ¼Īńö©ÕÅ”õĖĆõĖ¬
 124              		.loc 1 21 14 view .LVU26
 125 003a 9BB9     		cbnz	r3, .L10
  21:My_Top/MC/My_Vofa.cpp ****     vofa_buf_sel = !vofa_buf_sel;  // õĖŗµ¼Īńö©ÕÅ”õĖĆõĖ¬
 126              		.loc 1 21 14 discriminator 1 view .LVU27
 127 003c 0C4D     		ldr	r5, .L15+4
 128              	.L9:
 129              	.LVL10:
  22:My_Top/MC/My_Vofa.cpp **** 
ARM GAS  /tmp/ccm5s4Q0.s 			page 5


 130              		.loc 1 22 5 is_stmt 1 view .LVU28
  22:My_Top/MC/My_Vofa.cpp **** 
 131              		.loc 1 22 20 is_stmt 0 view .LVU29
 132 003e B3FA83F3 		clz	r3, r3
 133 0042 5B09     		lsrs	r3, r3, #5
  22:My_Top/MC/My_Vofa.cpp **** 
 134              		.loc 1 22 18 view .LVU30
 135 0044 094A     		ldr	r2, .L15
 136              	.LVL11:
  22:My_Top/MC/My_Vofa.cpp **** 
 137              		.loc 1 22 18 view .LVU31
 138 0046 82F8B835 		strb	r3, [r2, #1464]
  25:My_Top/MC/My_Vofa.cpp ****     memcpy(buf + data_len, tail, 4);
 139              		.loc 1 25 5 is_stmt 1 view .LVU32
  25:My_Top/MC/My_Vofa.cpp ****     memcpy(buf + data_len, tail, 4);
 140              		.loc 1 25 11 is_stmt 0 view .LVU33
 141 004a 2246     		mov	r2, r4
 142 004c 0146     		mov	r1, r0
 143              	.LVL12:
  25:My_Top/MC/My_Vofa.cpp ****     memcpy(buf + data_len, tail, 4);
 144              		.loc 1 25 11 view .LVU34
 145 004e 2846     		mov	r0, r5
 146              	.LVL13:
  25:My_Top/MC/My_Vofa.cpp ****     memcpy(buf + data_len, tail, 4);
 147              		.loc 1 25 11 view .LVU35
 148 0050 FFF7FEFF 		bl	memcpy
 149              	.LVL14:
  26:My_Top/MC/My_Vofa.cpp ****  
 150              		.loc 1 26 5 is_stmt 1 view .LVU36
  26:My_Top/MC/My_Vofa.cpp ****  
 151              		.loc 1 26 11 is_stmt 0 view .LVU37
 152 0054 074B     		ldr	r3, .L15+8
 153 0056 1868     		ldr	r0, [r3]
 154 0058 2851     		str	r0, [r5, r4]	@ unaligned
  28:My_Top/MC/My_Vofa.cpp **** 
 155              		.loc 1 28 5 is_stmt 1 view .LVU38
  28:My_Top/MC/My_Vofa.cpp **** 
 156              		.loc 1 28 20 is_stmt 0 view .LVU39
 157 005a 3146     		mov	r1, r6
 158 005c 2846     		mov	r0, r5
 159 005e FFF7FEFF 		bl	CDC_Transmit_FS
 160              	.LVL15:
  30:My_Top/MC/My_Vofa.cpp **** 
 161              		.loc 1 30 1 view .LVU40
 162 0062 70BD     		pop	{r4, r5, r6, pc}
 163              	.LVL16:
 164              	.L10:
  21:My_Top/MC/My_Vofa.cpp ****     vofa_buf_sel = !vofa_buf_sel;  // õĖŗµ¼Īńö©ÕÅ”õĖĆõĖ¬
 165              		.loc 1 21 14 discriminator 2 view .LVU41
 166 0064 044D     		ldr	r5, .L15+12
 167 0066 EAE7     		b	.L9
 168              	.LVL17:
 169              	.L12:
 170              		.cfi_def_cfa_offset 0
 171              		.cfi_restore 4
 172              		.cfi_restore 5
 173              		.cfi_restore 6
ARM GAS  /tmp/ccm5s4Q0.s 			page 6


 174              		.cfi_restore 14
  21:My_Top/MC/My_Vofa.cpp ****     vofa_buf_sel = !vofa_buf_sel;  // õĖŗµ¼Īńö©ÕÅ”õĖĆõĖ¬
 175              		.loc 1 21 14 discriminator 2 view .LVU42
 176 0068 7047     		bx	lr
 177              	.L16:
 178 006a 00BF     		.align	2
 179              	.L15:
 180 006c 00000000 		.word	.LANCHOR0
 181 0070 C0040000 		.word	.LANCHOR0+1216
 182 0074 00000000 		.word	.LANCHOR1
 183 0078 3C050000 		.word	.LANCHOR0+1340
 184              		.cfi_endproc
 185              	.LFE346:
 187              		.align	1
 188              		.global	_Z21Vofa_SendFireWater_VAtz
 189              		.syntax unified
 190              		.thumb
 191              		.thumb_func
 193              	_Z21Vofa_SendFireWater_VAtz:
 194              	.LVL18:
 195              	.LFB347:
  35:My_Top/MC/My_Vofa.cpp ****     float buffer[MAX_VOFA_FLOATS];
 196              		.loc 1 35 1 is_stmt 1 view -0
 197              		.cfi_startproc
 198              		@ args = 4, pretend = 16, frame = 128
 199              		@ frame_needed = 0, uses_anonymous_args = 1
  35:My_Top/MC/My_Vofa.cpp ****     float buffer[MAX_VOFA_FLOATS];
 200              		.loc 1 35 1 is_stmt 0 view .LVU44
 201 007c 0FB4     		push	{r0, r1, r2, r3}
 202              		.cfi_def_cfa_offset 16
 203              		.cfi_offset 0, -16
 204              		.cfi_offset 1, -12
 205              		.cfi_offset 2, -8
 206              		.cfi_offset 3, -4
 207 007e 30B5     		push	{r4, r5, lr}
 208              		.cfi_def_cfa_offset 28
 209              		.cfi_offset 4, -28
 210              		.cfi_offset 5, -24
 211              		.cfi_offset 14, -20
 212 0080 A1B0     		sub	sp, sp, #132
 213              		.cfi_def_cfa_offset 160
 214 0082 BDF89050 		ldrh	r5, [sp, #144]
  36:My_Top/MC/My_Vofa.cpp ****     
 215              		.loc 1 36 5 is_stmt 1 view .LVU45
  38:My_Top/MC/My_Vofa.cpp ****     
 216              		.loc 1 38 5 view .LVU46
 217 0086 1E2D     		cmp	r5, #30
 218 0088 00D9     		bls	.L18
  38:My_Top/MC/My_Vofa.cpp ****     
 219              		.loc 1 38 40 is_stmt 0 discriminator 1 view .LVU47
 220 008a 1E25     		movs	r5, #30
 221              	.L18:
 222              	.LVL19:
  40:My_Top/MC/My_Vofa.cpp ****     va_start(args, count); //Ķ«® args µīćÕÉæń¼¼õĖĆõĖ¬ÕÅ»ÕÅśÕÅéµĢ░
 223              		.loc 1 40 5 is_stmt 1 view .LVU48
  41:My_Top/MC/My_Vofa.cpp ****     for (uint16_t i = 0; i < count; i++) {//ÕÅ¢Õć║õĖŗõĖĆõĖ¬ÕÅéµĢ░
 224              		.loc 1 41 5 view .LVU49
ARM GAS  /tmp/ccm5s4Q0.s 			page 7


 225 008c 25AB     		add	r3, sp, #148
 226 008e 0193     		str	r3, [sp, #4]
  42:My_Top/MC/My_Vofa.cpp ****         buffer[i] = (float)va_arg(args, double);  // ÕÅśÕÅé float õ╝ÜĶó½µÅÉÕŹćõĖ║ double
 227              		.loc 1 42 5 view .LVU50
 228              	.LVL20:
 229              	.LBB6:
  42:My_Top/MC/My_Vofa.cpp ****         buffer[i] = (float)va_arg(args, double);  // ÕÅśÕÅé float õ╝ÜĶó½µÅÉÕŹćõĖ║ double
 230              		.loc 1 42 19 is_stmt 0 view .LVU51
 231 0090 0024     		movs	r4, #0
  42:My_Top/MC/My_Vofa.cpp ****         buffer[i] = (float)va_arg(args, double);  // ÕÅśÕÅé float õ╝ÜĶó½µÅÉÕŹćõĖ║ double
 232              		.loc 1 42 5 view .LVU52
 233 0092 11E0     		b	.L19
 234              	.LVL21:
 235              	.L20:
  43:My_Top/MC/My_Vofa.cpp ****     }
 236              		.loc 1 43 9 is_stmt 1 view .LVU53
  43:My_Top/MC/My_Vofa.cpp ****     }
 237              		.loc 1 43 28 is_stmt 0 view .LVU54
 238 0094 019B     		ldr	r3, [sp, #4]
 239 0096 0733     		adds	r3, r3, #7
 240 0098 23F00703 		bic	r3, r3, #7
 241 009c 03F10802 		add	r2, r3, #8
 242 00a0 0192     		str	r2, [sp, #4]
  43:My_Top/MC/My_Vofa.cpp ****     }
 243              		.loc 1 43 21 discriminator 1 view .LVU55
 244 00a2 D3E90001 		ldrd	r0, [r3]
 245 00a6 FFF7FEFF 		bl	__aeabi_d2f
 246              	.LVL22:
  43:My_Top/MC/My_Vofa.cpp ****     }
 247              		.loc 1 43 19 discriminator 1 view .LVU56
 248 00aa 20AB     		add	r3, sp, #128
 249 00ac 03EB8403 		add	r3, r3, r4, lsl #2
 250 00b0 43F8780C 		str	r0, [r3, #-120]	@ float
  42:My_Top/MC/My_Vofa.cpp ****         buffer[i] = (float)va_arg(args, double);  // ÕÅśÕÅé float õ╝ÜĶó½µÅÉÕŹćõĖ║ double
 251              		.loc 1 42 5 is_stmt 1 discriminator 3 view .LVU57
 252 00b4 0134     		adds	r4, r4, #1
 253              	.LVL23:
  42:My_Top/MC/My_Vofa.cpp ****         buffer[i] = (float)va_arg(args, double);  // ÕÅśÕÅé float õ╝ÜĶó½µÅÉÕŹćõĖ║ double
 254              		.loc 1 42 5 is_stmt 0 discriminator 3 view .LVU58
 255 00b6 A4B2     		uxth	r4, r4
 256              	.LVL24:
 257              	.L19:
  42:My_Top/MC/My_Vofa.cpp ****         buffer[i] = (float)va_arg(args, double);  // ÕÅśÕÅé float õ╝ÜĶó½µÅÉÕŹćõĖ║ double
 258              		.loc 1 42 28 is_stmt 1 discriminator 1 view .LVU59
 259 00b8 A542     		cmp	r5, r4
 260 00ba EBD8     		bhi	.L20
 261              	.LBE6:
  45:My_Top/MC/My_Vofa.cpp ****     
 262              		.loc 1 45 5 view .LVU60
  47:My_Top/MC/My_Vofa.cpp **** }
 263              		.loc 1 47 5 view .LVU61
  47:My_Top/MC/My_Vofa.cpp **** }
 264              		.loc 1 47 23 is_stmt 0 view .LVU62
 265 00bc 0022     		movs	r2, #0
 266 00be 2946     		mov	r1, r5
 267 00c0 02A8     		add	r0, sp, #8
 268 00c2 FFF7FEFF 		bl	_Z18Vofa_SendFireWaterPftm
ARM GAS  /tmp/ccm5s4Q0.s 			page 8


 269              	.LVL25:
  48:My_Top/MC/My_Vofa.cpp **** 
 270              		.loc 1 48 1 view .LVU63
 271 00c6 21B0     		add	sp, sp, #132
 272              		.cfi_def_cfa_offset 28
 273              		@ sp needed
 274 00c8 BDE83040 		pop	{r4, r5, lr}
 275              		.cfi_restore 14
 276              		.cfi_restore 5
 277              		.cfi_restore 4
 278              		.cfi_def_cfa_offset 16
 279              	.LVL26:
  48:My_Top/MC/My_Vofa.cpp **** 
 280              		.loc 1 48 1 view .LVU64
 281 00cc 04B0     		add	sp, sp, #16
 282              		.cfi_restore 3
 283              		.cfi_restore 2
 284              		.cfi_restore 1
 285              		.cfi_restore 0
 286              		.cfi_def_cfa_offset 0
 287 00ce 7047     		bx	lr
 288              		.cfi_endproc
 289              	.LFE347:
 291              		.align	1
 292              		.global	_Z9Vofa_Initv
 293              		.syntax unified
 294              		.thumb
 295              		.thumb_func
 297              	_Z9Vofa_Initv:
 298              	.LFB349:
  59:My_Top/MC/My_Vofa.cpp **** 
  60:My_Top/MC/My_Vofa.cpp **** void Vofa_Init()
  61:My_Top/MC/My_Vofa.cpp **** {
 299              		.loc 1 61 1 is_stmt 1 view -0
 300              		.cfi_startproc
 301              		@ args = 0, pretend = 0, frame = 0
 302              		@ frame_needed = 0, uses_anonymous_args = 0
 303 00d0 08B5     		push	{r3, lr}
 304              		.cfi_def_cfa_offset 8
 305              		.cfi_offset 3, -8
 306              		.cfi_offset 14, -4
  62:My_Top/MC/My_Vofa.cpp ****     USB_Register_RxCallback(My_USB_Handler); // µ│©ÕåīµÄźµöČÕø×Ķ░āÕćĮµĢ░
 307              		.loc 1 62 5 view .LVU66
 308              		.loc 1 62 28 is_stmt 0 view .LVU67
 309 00d2 0248     		ldr	r0, .L25
 310 00d4 FFF7FEFF 		bl	USB_Register_RxCallback
 311              	.LVL27:
  63:My_Top/MC/My_Vofa.cpp **** }
 312              		.loc 1 63 1 view .LVU68
 313 00d8 08BD     		pop	{r3, pc}
 314              	.L26:
 315 00da 00BF     		.align	2
 316              	.L25:
 317 00dc 00000000 		.word	_Z14My_USB_HandlerPhm
 318              		.cfi_endproc
 319              	.LFE349:
 321              		.global	vofa1
ARM GAS  /tmp/ccm5s4Q0.s 			page 9


 322              		.section	.rodata
 323              		.align	2
 324              		.set	.LANCHOR1,. + 0
 325              	.LC0:
 326 0000 0000807F 		.ascii	"\000\000\200\177"
 327              		.bss
 328              		.align	2
 329              		.set	.LANCHOR0,. + 0
 332              	vofa1:
 333 0000 00000000 		.space	1216
 333      00000000 
 333      00000000 
 333      00000000 
 333      00000000 
 336              	_ZL9vofa_buf1:
 337 04c0 00000000 		.space	124
 337      00000000 
 337      00000000 
 337      00000000 
 337      00000000 
 340              	_ZL9vofa_buf2:
 341 053c 00000000 		.space	124
 341      00000000 
 341      00000000 
 341      00000000 
 341      00000000 
 344              	_ZL12vofa_buf_sel:
 345 05b8 00       		.space	1
 346              		.text
 347              	.Letext0:
 348              		.file 3 "/opt/arm-gnu-toolchain-14.2/arm-none-eabi/include/machine/_default_types.h"
 349              		.file 4 "/opt/arm-gnu-toolchain-14.2/lib/gcc/arm-none-eabi/14.2.1/include/stddef.h"
 350              		.file 5 "/opt/arm-gnu-toolchain-14.2/lib/gcc/arm-none-eabi/14.2.1/include/stdarg.h"
 351              		.file 6 "/opt/arm-gnu-toolchain-14.2/arm-none-eabi/include/stdio.h"
 352              		.file 7 "/opt/arm-gnu-toolchain-14.2/arm-none-eabi/include/stdlib.h"
 353              		.file 8 "/opt/arm-gnu-toolchain-14.2/arm-none-eabi/include/c++/14.2.1/cstdlib"
 354              		.file 9 "/opt/arm-gnu-toolchain-14.2/arm-none-eabi/include/c++/14.2.1/bits/std_abs.h"
 355              		.file 10 "/opt/arm-gnu-toolchain-14.2/arm-none-eabi/include/c++/14.2.1/stdlib.h"
 356              		.file 11 "/opt/arm-gnu-toolchain-14.2/arm-none-eabi/include/sys/_stdint.h"
 357              		.file 12 "Drivers/CMSIS/Device/ST/STM32G4xx/Include/stm32g4xx.h"
 358              		.file 13 "USB_Device/App/usbd_cdc_if.h"
 359              		.file 14 "/opt/arm-gnu-toolchain-14.2/arm-none-eabi/include/string.h"
 360              		.file 15 "<built-in>"
 361              		.file 16 "/opt/arm-gnu-toolchain-14.2/arm-none-eabi/include/c++/14.2.1/arm-none-eabi/thumb/v7e-m+f
ARM GAS  /tmp/ccm5s4Q0.s 			page 10


DEFINED SYMBOLS
                            *ABS*:00000000 My_Vofa.cpp
     /tmp/ccm5s4Q0.s:20     .text:00000000 $t
     /tmp/ccm5s4Q0.s:26     .text:00000000 _Z14My_USB_HandlerPhm
     /tmp/ccm5s4Q0.s:84     .text:00000024 $d
     /tmp/ccm5s4Q0.s:88     .text:00000028 $t
     /tmp/ccm5s4Q0.s:94     .text:00000028 _Z18Vofa_SendFireWaterPftm
     /tmp/ccm5s4Q0.s:180    .text:0000006c $d
     /tmp/ccm5s4Q0.s:187    .text:0000007c $t
     /tmp/ccm5s4Q0.s:193    .text:0000007c _Z21Vofa_SendFireWater_VAtz
     /tmp/ccm5s4Q0.s:297    .text:000000d0 _Z9Vofa_Initv
     /tmp/ccm5s4Q0.s:317    .text:000000dc $d
     /tmp/ccm5s4Q0.s:332    .bss:00000000 vofa1
     /tmp/ccm5s4Q0.s:323    .rodata:00000000 $d
     /tmp/ccm5s4Q0.s:328    .bss:00000000 $d
     /tmp/ccm5s4Q0.s:336    .bss:000004c0 _ZL9vofa_buf1
     /tmp/ccm5s4Q0.s:340    .bss:0000053c _ZL9vofa_buf2
     /tmp/ccm5s4Q0.s:344    .bss:000005b8 _ZL12vofa_buf_sel

UNDEFINED SYMBOLS
memcpy
CDC_Transmit_FS
__aeabi_d2f
USB_Register_RxCallback
