ARM GAS  /tmp/ccbkrwNm.s 			page 1


   1              		.cpu cortex-m4
   2              		.arch armv7e-m
   3              		.fpu fpv4-sp-d16
   4              		.eabi_attribute 27, 1
   5              		.eabi_attribute 28, 1
   6              		.eabi_attribute 20, 1
   7              		.eabi_attribute 21, 1
   8              		.eabi_attribute 23, 3
   9              		.eabi_attribute 24, 1
  10              		.eabi_attribute 25, 1
  11              		.eabi_attribute 26, 1
  12              		.eabi_attribute 30, 1
  13              		.eabi_attribute 34, 1
  14              		.eabi_attribute 18, 4
  15              		.file	"My_Vofa.cpp"
  16              		.text
  17              	.Ltext0:
  18              		.cfi_sections	.debug_frame
  19              		.file 1 "My_Top/MC/My_Vofa.cpp"
  20              		.section	.text._ZN7VoFA_Rx7on_recvEPht,"axG",%progbits,_ZN7VoFA_Rx7on_recvEPht,comdat
  21              		.align	1
  22              		.weak	_ZN7VoFA_Rx7on_recvEPht
  23              		.syntax unified
  24              		.thumb
  25              		.thumb_func
  27              	_ZN7VoFA_Rx7on_recvEPht:
  28              	.LVL0:
  29              	.LFB345:
  30              		.file 2 "My_Top/MC/My_Vofa.hpp"
   1:My_Top/MC/My_Vofa.hpp **** #pragma once
   2:My_Top/MC/My_Vofa.hpp **** 
   3:My_Top/MC/My_Vofa.hpp **** #include <stdint.h>
   4:My_Top/MC/My_Vofa.hpp **** #include <stdarg.h>
   5:My_Top/MC/My_Vofa.hpp **** #include <string.h>
   6:My_Top/MC/My_Vofa.hpp **** #include <stdlib.h>     // atof
   7:My_Top/MC/My_Vofa.hpp **** #include "My_USB_CDC.hpp"
   8:My_Top/MC/My_Vofa.hpp **** #include "FreeRTOS.h"
   9:My_Top/MC/My_Vofa.hpp **** #include "task.h"
  10:My_Top/MC/My_Vofa.hpp **** #include "queue.h" 
  11:My_Top/MC/My_Vofa.hpp **** 
  12:My_Top/MC/My_Vofa.hpp **** #define VOFA_PARAM_MAX    30   // ТюђтцДтЈѓТЋ░СИфТЋ░
  13:My_Top/MC/My_Vofa.hpp **** #define VOFA_NAME_LEN     25   // тЈѓТЋ░тљЇТюђтцДжЋ┐т║д
  14:My_Top/MC/My_Vofa.hpp **** #define VOFA_RX_BUF_SIZE 128   // DMA ТјЦТћХу╝Њтє▓
  15:My_Top/MC/My_Vofa.hpp **** 
  16:My_Top/MC/My_Vofa.hpp **** 
  17:My_Top/MC/My_Vofa.hpp **** 
  18:My_Top/MC/My_Vofa.hpp **** /* жўЪтѕЌжА╣№╝џСИђтИД VOFA ТјЦТћХТЋ░ТЇ« */
  19:My_Top/MC/My_Vofa.hpp **** struct VofaRxFrame_t {
  20:My_Top/MC/My_Vofa.hpp ****     uint16_t len;
  21:My_Top/MC/My_Vofa.hpp ****     uint8_t  buf[VOFA_RX_BUF_SIZE];
  22:My_Top/MC/My_Vofa.hpp **** };
  23:My_Top/MC/My_Vofa.hpp **** 
  24:My_Top/MC/My_Vofa.hpp **** extern QueueHandle_t vofaRxQueue;   // VOFAжўЪтѕЌтЈЦТЪё
  25:My_Top/MC/My_Vofa.hpp **** 
  26:My_Top/MC/My_Vofa.hpp **** struct vofa_param_t {            // тЇЋСИфтЈѓТЋ░
  27:My_Top/MC/My_Vofa.hpp ****     char  name[VOFA_NAME_LEN];
  28:My_Top/MC/My_Vofa.hpp ****     float value;
ARM GAS  /tmp/ccbkrwNm.s 			page 2


  29:My_Top/MC/My_Vofa.hpp ****     bool  valid; //Тў»тљдУхІтђ╝
  30:My_Top/MC/My_Vofa.hpp **** };
  31:My_Top/MC/My_Vofa.hpp **** 
  32:My_Top/MC/My_Vofa.hpp **** struct VoFA_Rx {
  33:My_Top/MC/My_Vofa.hpp ****     uint8_t      rx_buf[VOFA_RX_BUF_SIZE]; // DMA тјЪтДІТЋ░ТЇ«
  34:My_Top/MC/My_Vofa.hpp ****     uint16_t     rx_len;                    // ТюгтИДтГЌУіѓТЋ░
  35:My_Top/MC/My_Vofa.hpp ****     volatile bool rx_ready;                 // СИГТќГуй«1№╝їTaskТИЁ0
  36:My_Top/MC/My_Vofa.hpp **** 
  37:My_Top/MC/My_Vofa.hpp ****     vofa_param_t params[VOFA_PARAM_MAX];   // тЈѓТЋ░УАе
  38:My_Top/MC/My_Vofa.hpp ****     uint8_t      param_cnt;                // ти▓Т│етєїтЈѓТЋ░ТЋ░
  39:My_Top/MC/My_Vofa.hpp **** 
  40:My_Top/MC/My_Vofa.hpp ****     /* СИГТќГжЄїУ░Ѓ№╝џТІиУ┤ЮТЋ░ТЇ«тѕ░жўЪтѕЌ№╝їТЏ┐С╗Б rx_ready ТаЄт┐ЌСйЇ */
  41:My_Top/MC/My_Vofa.hpp ****     void on_recv(uint8_t *buf, uint16_t len) {
  31              		.loc 2 41 10 view -0
  32              		.cfi_startproc
  33              		@ args = 0, pretend = 0, frame = 136
  34              		@ frame_needed = 0, uses_anonymous_args = 0
  35              		.loc 2 41 10 is_stmt 0 view .LVU1
  36 0000 00B5     		push	{lr}
  37              		.cfi_def_cfa_offset 4
  38              		.cfi_offset 14, -4
  39 0002 A3B0     		sub	sp, sp, #140
  40              		.cfi_def_cfa_offset 144
  42:My_Top/MC/My_Vofa.hpp ****         VofaRxFrame_t frame;
  41              		.loc 2 42 9 is_stmt 1 view .LVU2
  43:My_Top/MC/My_Vofa.hpp ****         if (len > VOFA_RX_BUF_SIZE) len = VOFA_RX_BUF_SIZE;
  42              		.loc 2 43 9 view .LVU3
  43 0004 802A     		cmp	r2, #128
  44 0006 00D9     		bls	.L2
  45              		.loc 2 43 41 is_stmt 0 discriminator 1 view .LVU4
  46 0008 8022     		movs	r2, #128
  47              	.LVL1:
  48              	.L2:
  44:My_Top/MC/My_Vofa.hpp ****         frame.len = len;
  49              		.loc 2 44 9 is_stmt 1 view .LVU5
  50              		.loc 2 44 19 is_stmt 0 view .LVU6
  51 000a ADF80420 		strh	r2, [sp, #4]	@ movhi
  45:My_Top/MC/My_Vofa.hpp ****         memcpy(frame.buf, buf, len);
  52              		.loc 2 45 9 is_stmt 1 view .LVU7
  53              		.loc 2 45 15 is_stmt 0 view .LVU8
  54 000e 0DF10600 		add	r0, sp, #6
  55              	.LVL2:
  56              		.loc 2 45 15 view .LVU9
  57 0012 FFF7FEFF 		bl	memcpy
  58              	.LVL3:
  46:My_Top/MC/My_Vofa.hpp ****         
  47:My_Top/MC/My_Vofa.hpp ****         BaseType_t xHigherPriorityTaskWoken = pdFALSE; //СИГТќГжЄїтљЉжўЪтѕЌтЈЉТХѕТЂ»уџёТаЄтЄєСИЅТЮ┐
  59              		.loc 2 47 9 is_stmt 1 view .LVU10
  60              		.loc 2 47 20 is_stmt 0 view .LVU11
  61 0016 0023     		movs	r3, #0
  62 0018 0093     		str	r3, [sp]
  48:My_Top/MC/My_Vofa.hpp ****         xQueueSendFromISR(vofaRxQueue, &frame, &xHigherPriorityTaskWoken);
  63              		.loc 2 48 9 is_stmt 1 view .LVU12
  64 001a 6A46     		mov	r2, sp
  65 001c 01A9     		add	r1, sp, #4
  66 001e 0948     		ldr	r0, .L6
  67 0020 0068     		ldr	r0, [r0]
ARM GAS  /tmp/ccbkrwNm.s 			page 3


  68 0022 FFF7FEFF 		bl	xQueueGenericSendFromISR
  69              	.LVL4:
  49:My_Top/MC/My_Vofa.hpp ****         portYIELD_FROM_ISR(xHigherPriorityTaskWoken);
  70              		.loc 2 49 9 view .LVU13
  71 0026 009B     		ldr	r3, [sp]
  72 0028 4BB1     		cbz	r3, .L1
  73              		.loc 2 49 9 discriminator 1 view .LVU14
  74 002a 4FF0E023 		mov	r3, #-536813568
  75 002e 4FF08052 		mov	r2, #268435456
  76 0032 C3F8042D 		str	r2, [r3, #3332]
  77              		.loc 2 49 9 view .LVU15
  78              		.loc 2 49 9 is_stmt 0 discriminator 1 view .LVU16
  79              		.syntax unified
  80              	@ 49 "My_Top/MC/My_Vofa.hpp" 1
  81 0036 BFF34F8F 		dsb
  82              	@ 0 "" 2
  83              		.loc 2 49 9 is_stmt 1 view .LVU17
  84              		.loc 2 49 9 is_stmt 0 discriminator 1 view .LVU18
  85              	@ 49 "My_Top/MC/My_Vofa.hpp" 1
  86 003a BFF36F8F 		isb
  87              	@ 0 "" 2
  88              		.loc 2 49 53 is_stmt 1 discriminator 3 view .LVU19
  89              		.thumb
  90              		.syntax unified
  91              	.L1:
  50:My_Top/MC/My_Vofa.hpp ****     }
  92              		.loc 2 50 5 is_stmt 0 view .LVU20
  93 003e 23B0     		add	sp, sp, #140
  94              		.cfi_def_cfa_offset 4
  95              		@ sp needed
  96 0040 5DF804FB 		ldr	pc, [sp], #4
  97              	.L7:
  98              		.align	2
  99              	.L6:
 100 0044 00000000 		.word	vofaRxQueue
 101              		.cfi_endproc
 102              	.LFE345:
 104              		.text
 105              		.align	1
 106              		.global	_Z14My_USB_HandlerPhm
 107              		.syntax unified
 108              		.thumb
 109              		.thumb_func
 111              	_Z14My_USB_HandlerPhm:
 112              	.LVL5:
 113              	.LFB352:
   1:My_Top/MC/My_Vofa.cpp **** #include "My_Vofa.hpp"
   2:My_Top/MC/My_Vofa.cpp **** 
   3:My_Top/MC/My_Vofa.cpp **** 
   4:My_Top/MC/My_Vofa.cpp **** // 1.тЈЉжђЂжЃетѕє
   5:My_Top/MC/My_Vofa.cpp **** // т«џС╣ЅтЈїу╝Њтє▓тї║№╝їжў▓ТГбУ┐ъу╗ГтЈЉжђЂТЌХУдєуЏќ 
   6:My_Top/MC/My_Vofa.cpp **** #define MAX_VOFA_FLOATS 30 // СИ┤ТЌХу╝Њтє▓тї║№╝їТюђтцџтЈЉжђЂ 30 СИфТх«уѓ╣ТЋ░ 
   7:My_Top/MC/My_Vofa.cpp **** #define VOFA_BUFFER_SIZE (MAX_VOFA_FLOATS * sizeof(float) + 4)  // Тюђтцџ20СИфТх«уѓ╣ТЋ░ + 4тГЌУіѓтИ
   8:My_Top/MC/My_Vofa.cpp **** static uint8_t vofa_buf1[VOFA_BUFFER_SIZE];
   9:My_Top/MC/My_Vofa.cpp **** static uint8_t vofa_buf2[VOFA_BUFFER_SIZE];
  10:My_Top/MC/My_Vofa.cpp **** static uint8_t vofa_buf_sel = 0;  // у«ђтЇЋУй«ТЇбжђЅТІЕ
  11:My_Top/MC/My_Vofa.cpp **** 
ARM GAS  /tmp/ccbkrwNm.s 			page 4


  12:My_Top/MC/My_Vofa.cpp **** static const uint8_t tail[4] = {0x00, 0x00, 0x80, 0x7F};
  13:My_Top/MC/My_Vofa.cpp **** 
  14:My_Top/MC/My_Vofa.cpp **** void Vofa_SendFireWater(float *data, uint16_t count, uint32_t timeout)//тЈЉжђЂТїЄт«џтЈѓТЋ░
  15:My_Top/MC/My_Vofa.cpp **** {
  16:My_Top/MC/My_Vofa.cpp ****     if (count == 0) return;
  17:My_Top/MC/My_Vofa.cpp ****     uint16_t data_len = count * sizeof(float);
  18:My_Top/MC/My_Vofa.cpp ****     uint16_t total_len = data_len + 4;
  19:My_Top/MC/My_Vofa.cpp **** 
  20:My_Top/MC/My_Vofa.cpp ****     // жђЅТІЕтйЊтЅЇтЈ»ућеуџёу╝Њтє▓тї║№╝ѕу«ђтЇЋУй«ТЇб№╝їуА«С┐ЮСИЇУдєуЏќТГБтюеDMAтЈЉжђЂСИГуџёТЋ░ТЇ«№╝
  21:My_Top/MC/My_Vofa.cpp ****     uint8_t *buf = (vofa_buf_sel == 0) ? vofa_buf1 : vofa_buf2;
  22:My_Top/MC/My_Vofa.cpp ****     vofa_buf_sel = !vofa_buf_sel;  // СИІТгАућетЈдСИђСИф
  23:My_Top/MC/My_Vofa.cpp **** 
  24:My_Top/MC/My_Vofa.cpp ****     // ТІ╝ТјЦТЋ░ТЇ«
  25:My_Top/MC/My_Vofa.cpp ****     memcpy(buf, data, data_len);
  26:My_Top/MC/My_Vofa.cpp ****     memcpy(buf + data_len, tail, 4);
  27:My_Top/MC/My_Vofa.cpp ****  
  28:My_Top/MC/My_Vofa.cpp ****     // CDC_Transmit_FS(buf, total_len); // тЈЉжђЂТЋ░ТЇ«
  29:My_Top/MC/My_Vofa.cpp ****     CDC_Transmit(0, (uint8_t*)buf, total_len); // тЈЉжђЂТЋ░ТЇ«
  30:My_Top/MC/My_Vofa.cpp **** }
  31:My_Top/MC/My_Vofa.cpp **** 
  32:My_Top/MC/My_Vofa.cpp **** 
  33:My_Top/MC/My_Vofa.cpp **** 
  34:My_Top/MC/My_Vofa.cpp **** void Vofa_SendFireWater_VA(uint16_t count, ...)//тЈЉжђЂСИЇт«џжЋ┐Тх«уѓ╣тъІтЈѓТЋ░
  35:My_Top/MC/My_Vofa.cpp **** {
  36:My_Top/MC/My_Vofa.cpp ****     float buffer[MAX_VOFA_FLOATS];
  37:My_Top/MC/My_Vofa.cpp ****     
  38:My_Top/MC/My_Vofa.cpp ****     if (count > MAX_VOFA_FLOATS) count = MAX_VOFA_FLOATS;  // жў▓Т║бтЄ║
  39:My_Top/MC/My_Vofa.cpp ****     
  40:My_Top/MC/My_Vofa.cpp ****     va_list args;
  41:My_Top/MC/My_Vofa.cpp ****     va_start(args, count); //У«Е args ТїЄтљЉуггСИђСИфтЈ»тЈўтЈѓТЋ░
  42:My_Top/MC/My_Vofa.cpp ****     for (uint16_t i = 0; i < count; i++) {//тЈќтЄ║СИІСИђСИфтЈѓТЋ░
  43:My_Top/MC/My_Vofa.cpp ****         buffer[i] = (float)va_arg(args, double);  // тЈўтЈѓ float С╝џУбФТЈљтЇЄСИ║ double
  44:My_Top/MC/My_Vofa.cpp ****     }
  45:My_Top/MC/My_Vofa.cpp ****     va_end(args);
  46:My_Top/MC/My_Vofa.cpp ****     
  47:My_Top/MC/My_Vofa.cpp ****     Vofa_SendFireWater(buffer, count,0);
  48:My_Top/MC/My_Vofa.cpp **** }
  49:My_Top/MC/My_Vofa.cpp **** 
  50:My_Top/MC/My_Vofa.cpp **** 
  51:My_Top/MC/My_Vofa.cpp **** 
  52:My_Top/MC/My_Vofa.cpp **** //2.ТјЦтЈЌжЃетѕє
  53:My_Top/MC/My_Vofa.cpp **** VoFA_Rx vofa1 = {};
  54:My_Top/MC/My_Vofa.cpp **** 
  55:My_Top/MC/My_Vofa.cpp **** void My_USB_Handler(uint8_t* data, uint32_t len)
  56:My_Top/MC/My_Vofa.cpp **** {
 114              		.loc 1 56 1 is_stmt 1 view -0
 115              		.cfi_startproc
 116              		@ args = 0, pretend = 0, frame = 0
 117              		@ frame_needed = 0, uses_anonymous_args = 0
 118              		.loc 1 56 1 is_stmt 0 view .LVU22
 119 0000 08B5     		push	{r3, lr}
 120              		.cfi_def_cfa_offset 8
 121              		.cfi_offset 3, -8
 122              		.cfi_offset 14, -4
  57:My_Top/MC/My_Vofa.cpp ****     vofa1.on_recv(data, len);
 123              		.loc 1 57 5 is_stmt 1 view .LVU23
 124              		.loc 1 57 18 is_stmt 0 view .LVU24
ARM GAS  /tmp/ccbkrwNm.s 			page 5


 125 0002 8AB2     		uxth	r2, r1
 126 0004 0146     		mov	r1, r0
 127              	.LVL6:
 128              		.loc 1 57 18 view .LVU25
 129 0006 0248     		ldr	r0, .L10
 130              	.LVL7:
 131              		.loc 1 57 18 view .LVU26
 132 0008 FFF7FEFF 		bl	_ZN7VoFA_Rx7on_recvEPht
 133              	.LVL8:
  58:My_Top/MC/My_Vofa.cpp **** }
 134              		.loc 1 58 1 view .LVU27
 135 000c 08BD     		pop	{r3, pc}
 136              	.L11:
 137 000e 00BF     		.align	2
 138              	.L10:
 139 0010 00000000 		.word	.LANCHOR0
 140              		.cfi_endproc
 141              	.LFE352:
 143              		.align	1
 144              		.global	_Z18Vofa_SendFireWaterPftm
 145              		.syntax unified
 146              		.thumb
 147              		.thumb_func
 149              	_Z18Vofa_SendFireWaterPftm:
 150              	.LVL9:
 151              	.LFB350:
  15:My_Top/MC/My_Vofa.cpp ****     if (count == 0) return;
 152              		.loc 1 15 1 is_stmt 1 view -0
 153              		.cfi_startproc
 154              		@ args = 0, pretend = 0, frame = 0
 155              		@ frame_needed = 0, uses_anonymous_args = 0
  16:My_Top/MC/My_Vofa.cpp ****     uint16_t data_len = count * sizeof(float);
 156              		.loc 1 16 5 view .LVU29
 157 0014 F9B1     		cbz	r1, .L17
  15:My_Top/MC/My_Vofa.cpp ****     if (count == 0) return;
 158              		.loc 1 15 1 is_stmt 0 view .LVU30
 159 0016 70B5     		push	{r4, r5, r6, lr}
 160              		.cfi_def_cfa_offset 16
 161              		.cfi_offset 4, -16
 162              		.cfi_offset 5, -12
 163              		.cfi_offset 6, -8
 164              		.cfi_offset 14, -4
  17:My_Top/MC/My_Vofa.cpp ****     uint16_t total_len = data_len + 4;
 165              		.loc 1 17 5 is_stmt 1 view .LVU31
  17:My_Top/MC/My_Vofa.cpp ****     uint16_t total_len = data_len + 4;
 166              		.loc 1 17 14 is_stmt 0 view .LVU32
 167 0018 8C00     		lsls	r4, r1, #2
 168 001a A4B2     		uxth	r4, r4
 169              	.LVL10:
  18:My_Top/MC/My_Vofa.cpp **** 
 170              		.loc 1 18 5 is_stmt 1 view .LVU33
  18:My_Top/MC/My_Vofa.cpp **** 
 171              		.loc 1 18 14 is_stmt 0 view .LVU34
 172 001c 261D     		adds	r6, r4, #4
 173 001e B6B2     		uxth	r6, r6
 174              	.LVL11:
  21:My_Top/MC/My_Vofa.cpp ****     vofa_buf_sel = !vofa_buf_sel;  // СИІТгАућетЈдСИђСИф
ARM GAS  /tmp/ccbkrwNm.s 			page 6


 175              		.loc 1 21 5 is_stmt 1 view .LVU35
  21:My_Top/MC/My_Vofa.cpp ****     vofa_buf_sel = !vofa_buf_sel;  // СИІТгАућетЈдСИђСИф
 176              		.loc 1 21 34 is_stmt 0 view .LVU36
 177 0020 0D4B     		ldr	r3, .L20
 178 0022 93F8B835 		ldrb	r3, [r3, #1464]	@ zero_extendqisi2
  21:My_Top/MC/My_Vofa.cpp ****     vofa_buf_sel = !vofa_buf_sel;  // СИІТгАућетЈдСИђСИф
 179              		.loc 1 21 14 view .LVU37
 180 0026 A3B9     		cbnz	r3, .L15
  21:My_Top/MC/My_Vofa.cpp ****     vofa_buf_sel = !vofa_buf_sel;  // СИІТгАућетЈдСИђСИф
 181              		.loc 1 21 14 discriminator 1 view .LVU38
 182 0028 0C4D     		ldr	r5, .L20+4
 183              	.L14:
 184              	.LVL12:
  22:My_Top/MC/My_Vofa.cpp **** 
 185              		.loc 1 22 5 is_stmt 1 view .LVU39
  22:My_Top/MC/My_Vofa.cpp **** 
 186              		.loc 1 22 20 is_stmt 0 view .LVU40
 187 002a B3FA83F3 		clz	r3, r3
 188 002e 5B09     		lsrs	r3, r3, #5
  22:My_Top/MC/My_Vofa.cpp **** 
 189              		.loc 1 22 18 view .LVU41
 190 0030 094A     		ldr	r2, .L20
 191              	.LVL13:
  22:My_Top/MC/My_Vofa.cpp **** 
 192              		.loc 1 22 18 view .LVU42
 193 0032 82F8B835 		strb	r3, [r2, #1464]
  25:My_Top/MC/My_Vofa.cpp ****     memcpy(buf + data_len, tail, 4);
 194              		.loc 1 25 5 is_stmt 1 view .LVU43
  25:My_Top/MC/My_Vofa.cpp ****     memcpy(buf + data_len, tail, 4);
 195              		.loc 1 25 11 is_stmt 0 view .LVU44
 196 0036 2246     		mov	r2, r4
 197 0038 0146     		mov	r1, r0
 198              	.LVL14:
  25:My_Top/MC/My_Vofa.cpp ****     memcpy(buf + data_len, tail, 4);
 199              		.loc 1 25 11 view .LVU45
 200 003a 2846     		mov	r0, r5
 201              	.LVL15:
  25:My_Top/MC/My_Vofa.cpp ****     memcpy(buf + data_len, tail, 4);
 202              		.loc 1 25 11 view .LVU46
 203 003c FFF7FEFF 		bl	memcpy
 204              	.LVL16:
  26:My_Top/MC/My_Vofa.cpp ****  
 205              		.loc 1 26 5 is_stmt 1 view .LVU47
  26:My_Top/MC/My_Vofa.cpp ****  
 206              		.loc 1 26 11 is_stmt 0 view .LVU48
 207 0040 074B     		ldr	r3, .L20+8
 208 0042 1868     		ldr	r0, [r3]
 209 0044 2851     		str	r0, [r5, r4]	@ unaligned
  29:My_Top/MC/My_Vofa.cpp **** }
 210              		.loc 1 29 5 is_stmt 1 view .LVU49
  29:My_Top/MC/My_Vofa.cpp **** }
 211              		.loc 1 29 17 is_stmt 0 view .LVU50
 212 0046 3246     		mov	r2, r6
 213 0048 2946     		mov	r1, r5
 214 004a 0020     		movs	r0, #0
 215 004c FFF7FEFF 		bl	CDC_Transmit
 216              	.LVL17:
ARM GAS  /tmp/ccbkrwNm.s 			page 7


  30:My_Top/MC/My_Vofa.cpp **** 
 217              		.loc 1 30 1 view .LVU51
 218 0050 70BD     		pop	{r4, r5, r6, pc}
 219              	.LVL18:
 220              	.L15:
  21:My_Top/MC/My_Vofa.cpp ****     vofa_buf_sel = !vofa_buf_sel;  // СИІТгАућетЈдСИђСИф
 221              		.loc 1 21 14 discriminator 2 view .LVU52
 222 0052 044D     		ldr	r5, .L20+12
 223 0054 E9E7     		b	.L14
 224              	.LVL19:
 225              	.L17:
 226              		.cfi_def_cfa_offset 0
 227              		.cfi_restore 4
 228              		.cfi_restore 5
 229              		.cfi_restore 6
 230              		.cfi_restore 14
  21:My_Top/MC/My_Vofa.cpp ****     vofa_buf_sel = !vofa_buf_sel;  // СИІТгАућетЈдСИђСИф
 231              		.loc 1 21 14 discriminator 2 view .LVU53
 232 0056 7047     		bx	lr
 233              	.L21:
 234              		.align	2
 235              	.L20:
 236 0058 00000000 		.word	.LANCHOR0
 237 005c C0040000 		.word	.LANCHOR0+1216
 238 0060 00000000 		.word	.LANCHOR1
 239 0064 3C050000 		.word	.LANCHOR0+1340
 240              		.cfi_endproc
 241              	.LFE350:
 243              		.align	1
 244              		.global	_Z21Vofa_SendFireWater_VAtz
 245              		.syntax unified
 246              		.thumb
 247              		.thumb_func
 249              	_Z21Vofa_SendFireWater_VAtz:
 250              	.LVL20:
 251              	.LFB351:
  35:My_Top/MC/My_Vofa.cpp ****     float buffer[MAX_VOFA_FLOATS];
 252              		.loc 1 35 1 is_stmt 1 view -0
 253              		.cfi_startproc
 254              		@ args = 4, pretend = 16, frame = 128
 255              		@ frame_needed = 0, uses_anonymous_args = 1
  35:My_Top/MC/My_Vofa.cpp ****     float buffer[MAX_VOFA_FLOATS];
 256              		.loc 1 35 1 is_stmt 0 view .LVU55
 257 0068 0FB4     		push	{r0, r1, r2, r3}
 258              		.cfi_def_cfa_offset 16
 259              		.cfi_offset 0, -16
 260              		.cfi_offset 1, -12
 261              		.cfi_offset 2, -8
 262              		.cfi_offset 3, -4
 263 006a 30B5     		push	{r4, r5, lr}
 264              		.cfi_def_cfa_offset 28
 265              		.cfi_offset 4, -28
 266              		.cfi_offset 5, -24
 267              		.cfi_offset 14, -20
 268 006c A1B0     		sub	sp, sp, #132
 269              		.cfi_def_cfa_offset 160
 270 006e BDF89050 		ldrh	r5, [sp, #144]
ARM GAS  /tmp/ccbkrwNm.s 			page 8


  36:My_Top/MC/My_Vofa.cpp ****     
 271              		.loc 1 36 5 is_stmt 1 view .LVU56
  38:My_Top/MC/My_Vofa.cpp ****     
 272              		.loc 1 38 5 view .LVU57
 273 0072 1E2D     		cmp	r5, #30
 274 0074 00D9     		bls	.L23
  38:My_Top/MC/My_Vofa.cpp ****     
 275              		.loc 1 38 40 is_stmt 0 discriminator 1 view .LVU58
 276 0076 1E25     		movs	r5, #30
 277              	.L23:
 278              	.LVL21:
  40:My_Top/MC/My_Vofa.cpp ****     va_start(args, count); //У«Е args ТїЄтљЉуггСИђСИфтЈ»тЈўтЈѓТЋ░
 279              		.loc 1 40 5 is_stmt 1 view .LVU59
  41:My_Top/MC/My_Vofa.cpp ****     for (uint16_t i = 0; i < count; i++) {//тЈќтЄ║СИІСИђСИфтЈѓТЋ░
 280              		.loc 1 41 5 view .LVU60
 281 0078 25AB     		add	r3, sp, #148
 282 007a 0193     		str	r3, [sp, #4]
  42:My_Top/MC/My_Vofa.cpp ****         buffer[i] = (float)va_arg(args, double);  // тЈўтЈѓ float С╝џУбФТЈљтЇЄСИ║ double
 283              		.loc 1 42 5 view .LVU61
 284              	.LVL22:
 285              	.LBB2:
  42:My_Top/MC/My_Vofa.cpp ****         buffer[i] = (float)va_arg(args, double);  // тЈўтЈѓ float С╝џУбФТЈљтЇЄСИ║ double
 286              		.loc 1 42 19 is_stmt 0 view .LVU62
 287 007c 0024     		movs	r4, #0
  42:My_Top/MC/My_Vofa.cpp ****         buffer[i] = (float)va_arg(args, double);  // тЈўтЈѓ float С╝џУбФТЈљтЇЄСИ║ double
 288              		.loc 1 42 5 view .LVU63
 289 007e 11E0     		b	.L24
 290              	.LVL23:
 291              	.L25:
  43:My_Top/MC/My_Vofa.cpp ****     }
 292              		.loc 1 43 9 is_stmt 1 view .LVU64
  43:My_Top/MC/My_Vofa.cpp ****     }
 293              		.loc 1 43 28 is_stmt 0 view .LVU65
 294 0080 019B     		ldr	r3, [sp, #4]
 295 0082 0733     		adds	r3, r3, #7
 296 0084 23F00703 		bic	r3, r3, #7
 297 0088 03F10802 		add	r2, r3, #8
 298 008c 0192     		str	r2, [sp, #4]
  43:My_Top/MC/My_Vofa.cpp ****     }
 299              		.loc 1 43 21 discriminator 1 view .LVU66
 300 008e D3E90001 		ldrd	r0, [r3]
 301 0092 FFF7FEFF 		bl	__aeabi_d2f
 302              	.LVL24:
  43:My_Top/MC/My_Vofa.cpp ****     }
 303              		.loc 1 43 19 discriminator 1 view .LVU67
 304 0096 20AB     		add	r3, sp, #128
 305 0098 03EB8403 		add	r3, r3, r4, lsl #2
 306 009c 43F8780C 		str	r0, [r3, #-120]	@ float
  42:My_Top/MC/My_Vofa.cpp ****         buffer[i] = (float)va_arg(args, double);  // тЈўтЈѓ float С╝џУбФТЈљтЇЄСИ║ double
 307              		.loc 1 42 5 is_stmt 1 discriminator 3 view .LVU68
 308 00a0 0134     		adds	r4, r4, #1
 309              	.LVL25:
  42:My_Top/MC/My_Vofa.cpp ****         buffer[i] = (float)va_arg(args, double);  // тЈўтЈѓ float С╝џУбФТЈљтЇЄСИ║ double
 310              		.loc 1 42 5 is_stmt 0 discriminator 3 view .LVU69
 311 00a2 A4B2     		uxth	r4, r4
 312              	.LVL26:
 313              	.L24:
ARM GAS  /tmp/ccbkrwNm.s 			page 9


  42:My_Top/MC/My_Vofa.cpp ****         buffer[i] = (float)va_arg(args, double);  // тЈўтЈѓ float С╝џУбФТЈљтЇЄСИ║ double
 314              		.loc 1 42 28 is_stmt 1 discriminator 1 view .LVU70
 315 00a4 A542     		cmp	r5, r4
 316 00a6 EBD8     		bhi	.L25
 317              	.LBE2:
  45:My_Top/MC/My_Vofa.cpp ****     
 318              		.loc 1 45 5 view .LVU71
  47:My_Top/MC/My_Vofa.cpp **** }
 319              		.loc 1 47 5 view .LVU72
  47:My_Top/MC/My_Vofa.cpp **** }
 320              		.loc 1 47 23 is_stmt 0 view .LVU73
 321 00a8 0022     		movs	r2, #0
 322 00aa 2946     		mov	r1, r5
 323 00ac 02A8     		add	r0, sp, #8
 324 00ae FFF7FEFF 		bl	_Z18Vofa_SendFireWaterPftm
 325              	.LVL27:
  48:My_Top/MC/My_Vofa.cpp **** 
 326              		.loc 1 48 1 view .LVU74
 327 00b2 21B0     		add	sp, sp, #132
 328              		.cfi_def_cfa_offset 28
 329              		@ sp needed
 330 00b4 BDE83040 		pop	{r4, r5, lr}
 331              		.cfi_restore 14
 332              		.cfi_restore 5
 333              		.cfi_restore 4
 334              		.cfi_def_cfa_offset 16
 335              	.LVL28:
  48:My_Top/MC/My_Vofa.cpp **** 
 336              		.loc 1 48 1 view .LVU75
 337 00b8 04B0     		add	sp, sp, #16
 338              		.cfi_restore 3
 339              		.cfi_restore 2
 340              		.cfi_restore 1
 341              		.cfi_restore 0
 342              		.cfi_def_cfa_offset 0
 343 00ba 7047     		bx	lr
 344              		.cfi_endproc
 345              	.LFE351:
 347              		.align	1
 348              		.global	_Z9Vofa_Initv
 349              		.syntax unified
 350              		.thumb
 351              		.thumb_func
 353              	_Z9Vofa_Initv:
 354              	.LFB353:
  59:My_Top/MC/My_Vofa.cpp **** 
  60:My_Top/MC/My_Vofa.cpp **** void Vofa_Init()
  61:My_Top/MC/My_Vofa.cpp **** {
 355              		.loc 1 61 1 is_stmt 1 view -0
 356              		.cfi_startproc
 357              		@ args = 0, pretend = 0, frame = 0
 358              		@ frame_needed = 0, uses_anonymous_args = 0
 359 00bc 08B5     		push	{r3, lr}
 360              		.cfi_def_cfa_offset 8
 361              		.cfi_offset 3, -8
 362              		.cfi_offset 14, -4
  62:My_Top/MC/My_Vofa.cpp ****     USB_Register_RxCallback(My_USB_Handler); // Т│етєїТјЦТћХтЏъУ░ЃтЄйТЋ░
ARM GAS  /tmp/ccbkrwNm.s 			page 10


 363              		.loc 1 62 5 view .LVU77
 364              		.loc 1 62 28 is_stmt 0 view .LVU78
 365 00be 0248     		ldr	r0, .L30
 366 00c0 FFF7FEFF 		bl	USB_Register_RxCallback
 367              	.LVL29:
  63:My_Top/MC/My_Vofa.cpp **** }
 368              		.loc 1 63 1 view .LVU79
 369 00c4 08BD     		pop	{r3, pc}
 370              	.L31:
 371 00c6 00BF     		.align	2
 372              	.L30:
 373 00c8 00000000 		.word	_Z14My_USB_HandlerPhm
 374              		.cfi_endproc
 375              	.LFE353:
 377              		.global	vofa1
 378              		.section	.rodata
 379              		.align	2
 380              		.set	.LANCHOR1,. + 0
 381              	.LC0:
 382 0000 0000807F 		.ascii	"\000\000\200\177"
 383              		.bss
 384              		.align	2
 385              		.set	.LANCHOR0,. + 0
 388              	vofa1:
 389 0000 00000000 		.space	1216
 389      00000000 
 389      00000000 
 389      00000000 
 389      00000000 
 392              	_ZL9vofa_buf1:
 393 04c0 00000000 		.space	124
 393      00000000 
 393      00000000 
 393      00000000 
 393      00000000 
 396              	_ZL9vofa_buf2:
 397 053c 00000000 		.space	124
 397      00000000 
 397      00000000 
 397      00000000 
 397      00000000 
 400              	_ZL12vofa_buf_sel:
 401 05b8 00       		.space	1
 402              		.text
 403              	.Letext0:
 404              		.file 3 "/opt/arm-gnu-toolchain-14.2/arm-none-eabi/include/machine/_default_types.h"
 405              		.file 4 "/opt/arm-gnu-toolchain-14.2/arm-none-eabi/include/sys/_stdint.h"
 406              		.file 5 "/opt/arm-gnu-toolchain-14.2/lib/gcc/arm-none-eabi/14.2.1/include/stdarg.h"
 407              		.file 6 "/opt/arm-gnu-toolchain-14.2/lib/gcc/arm-none-eabi/14.2.1/include/stddef.h"
 408              		.file 7 "/opt/arm-gnu-toolchain-14.2/arm-none-eabi/include/stdlib.h"
 409              		.file 8 "/opt/arm-gnu-toolchain-14.2/arm-none-eabi/include/c++/14.2.1/cstdlib"
 410              		.file 9 "/opt/arm-gnu-toolchain-14.2/arm-none-eabi/include/c++/14.2.1/bits/std_abs.h"
 411              		.file 10 "/opt/arm-gnu-toolchain-14.2/arm-none-eabi/include/c++/14.2.1/stdlib.h"
 412              		.file 11 "Drivers/CMSIS/Device/ST/STM32G4xx/Include/stm32g4xx.h"
 413              		.file 12 "My_Top/USB_Composite/My_USB_CDC.hpp"
 414              		.file 13 "Middlewares/Third_Party/FreeRTOS/Source/portable/GCC/ARM_CM4F/portmacro.h"
 415              		.file 14 "Middlewares/Third_Party/FreeRTOS/Source/include/queue.h"
ARM GAS  /tmp/ccbkrwNm.s 			page 11


 416              		.file 15 "Middlewares/Third_Party/AL94_USB_Composite/COMPOSITE/App/usbd_cdc_acm_if.h"
 417              		.file 16 "/opt/arm-gnu-toolchain-14.2/arm-none-eabi/include/string.h"
 418              		.file 17 "<built-in>"
 419              		.file 18 "/opt/arm-gnu-toolchain-14.2/arm-none-eabi/include/c++/14.2.1/arm-none-eabi/thumb/v7e-m+f
ARM GAS  /tmp/ccbkrwNm.s 			page 12


DEFINED SYMBOLS
                            *ABS*:00000000 My_Vofa.cpp
     /tmp/ccbkrwNm.s:21     .text._ZN7VoFA_Rx7on_recvEPht:00000000 $t
     /tmp/ccbkrwNm.s:27     .text._ZN7VoFA_Rx7on_recvEPht:00000000 _ZN7VoFA_Rx7on_recvEPht
     /tmp/ccbkrwNm.s:100    .text._ZN7VoFA_Rx7on_recvEPht:00000044 $d
     /tmp/ccbkrwNm.s:105    .text:00000000 $t
     /tmp/ccbkrwNm.s:111    .text:00000000 _Z14My_USB_HandlerPhm
     /tmp/ccbkrwNm.s:139    .text:00000010 $d
     /tmp/ccbkrwNm.s:143    .text:00000014 $t
     /tmp/ccbkrwNm.s:149    .text:00000014 _Z18Vofa_SendFireWaterPftm
     /tmp/ccbkrwNm.s:236    .text:00000058 $d
     /tmp/ccbkrwNm.s:243    .text:00000068 $t
     /tmp/ccbkrwNm.s:249    .text:00000068 _Z21Vofa_SendFireWater_VAtz
     /tmp/ccbkrwNm.s:353    .text:000000bc _Z9Vofa_Initv
     /tmp/ccbkrwNm.s:373    .text:000000c8 $d
     /tmp/ccbkrwNm.s:388    .bss:00000000 vofa1
     /tmp/ccbkrwNm.s:379    .rodata:00000000 $d
     /tmp/ccbkrwNm.s:384    .bss:00000000 $d
     /tmp/ccbkrwNm.s:392    .bss:000004c0 _ZL9vofa_buf1
     /tmp/ccbkrwNm.s:396    .bss:0000053c _ZL9vofa_buf2
     /tmp/ccbkrwNm.s:400    .bss:000005b8 _ZL12vofa_buf_sel

UNDEFINED SYMBOLS
memcpy
xQueueGenericSendFromISR
vofaRxQueue
CDC_Transmit
__aeabi_d2f
USB_Register_RxCallback
