ARM GAS  /tmp/ccmRmNHJ.s 			page 1


   1              		.cpu cortex-m4
   2              		.arch armv7e-m
   3              		.fpu fpv4-sp-d16
   4              		.eabi_attribute 27, 1
   5              		.eabi_attribute 28, 1
   6              		.eabi_attribute 20, 1
   7              		.eabi_attribute 21, 1
   8              		.eabi_attribute 23, 3
   9              		.eabi_attribute 24, 1
  10              		.eabi_attribute 25, 1
  11              		.eabi_attribute 26, 1
  12              		.eabi_attribute 30, 1
  13              		.eabi_attribute 34, 1
  14              		.eabi_attribute 18, 4
  15              		.file	"My_Vofa.cpp"
  16              		.text
  17              	.Ltext0:
  18              		.cfi_sections	.debug_frame
  19              		.file 1 "My_Top/MC/My_Vofa.cpp"
  20              		.align	1
  21              		.global	_Z14My_USB_HandlerPhm
  22              		.syntax unified
  23              		.thumb
  24              		.thumb_func
  26              	_Z14My_USB_HandlerPhm:
  27              	.LVL0:
  28              	.LFB348:
   1:My_Top/MC/My_Vofa.cpp **** #include "My_Vofa.hpp"
   2:My_Top/MC/My_Vofa.cpp **** 
   3:My_Top/MC/My_Vofa.cpp **** 
   4:My_Top/MC/My_Vofa.cpp **** // 1.ÕÅæķĆüķā©Õłå
   5:My_Top/MC/My_Vofa.cpp **** // Õ«Üõ╣ēÕÅīń╝ōÕå▓Õī║’╝īķś▓µŁóĶ┐×ń╗ŁÕÅæķĆüµŚČĶ”åńø¢ 
   6:My_Top/MC/My_Vofa.cpp **** #define MAX_VOFA_FLOATS 30 // õĖ┤µŚČń╝ōÕå▓Õī║’╝īµ£ĆÕżÜÕÅæķĆü 30 õĖ¬µĄ«ńé╣µĢ░ 
   7:My_Top/MC/My_Vofa.cpp **** #define VOFA_BUFFER_SIZE (MAX_VOFA_FLOATS * sizeof(float) + 4)  // µ£ĆÕżÜ20õĖ¬µĄ«ńé╣µĢ░ + 4ÕŁŚĶŖéÕĖ
   8:My_Top/MC/My_Vofa.cpp **** static uint8_t vofa_buf1[VOFA_BUFFER_SIZE];
   9:My_Top/MC/My_Vofa.cpp **** static uint8_t vofa_buf2[VOFA_BUFFER_SIZE];
  10:My_Top/MC/My_Vofa.cpp **** static uint8_t vofa_buf_sel = 0;  // ń«ĆÕŹĢĶĮ«µŹóķĆēµŗ®
  11:My_Top/MC/My_Vofa.cpp **** 
  12:My_Top/MC/My_Vofa.cpp **** static const uint8_t tail[4] = {0x00, 0x00, 0x80, 0x7F};
  13:My_Top/MC/My_Vofa.cpp **** 
  14:My_Top/MC/My_Vofa.cpp **** void Vofa_SendFireWater(float *data, uint16_t count, uint32_t timeout)//ÕÅæķĆüµīćÕ«ÜÕÅéµĢ░
  15:My_Top/MC/My_Vofa.cpp **** {
  16:My_Top/MC/My_Vofa.cpp ****     if (count == 0) return;
  17:My_Top/MC/My_Vofa.cpp ****     uint16_t data_len = count * sizeof(float);
  18:My_Top/MC/My_Vofa.cpp ****     uint16_t total_len = data_len + 4;
  19:My_Top/MC/My_Vofa.cpp **** 
  20:My_Top/MC/My_Vofa.cpp ****     // ķĆēµŗ®ÕĮōÕēŹÕÅ»ńö©ńÜäń╝ōÕå▓Õī║’╝łń«ĆÕŹĢĶĮ«µŹó’╝īńĪ«õ┐ØõĖŹĶ”åńø¢µŁŻÕ£©DMAÕÅæķĆüõĖŁńÜäµĢ░µŹ«’╝
  21:My_Top/MC/My_Vofa.cpp ****     uint8_t *buf = (vofa_buf_sel == 0) ? vofa_buf1 : vofa_buf2;
  22:My_Top/MC/My_Vofa.cpp ****     vofa_buf_sel = !vofa_buf_sel;  // õĖŗµ¼Īńö©ÕÅ”õĖĆõĖ¬
  23:My_Top/MC/My_Vofa.cpp **** 
  24:My_Top/MC/My_Vofa.cpp ****     // µŗ╝µÄźµĢ░µŹ«
  25:My_Top/MC/My_Vofa.cpp ****     memcpy(buf, data, data_len);
  26:My_Top/MC/My_Vofa.cpp ****     memcpy(buf + data_len, tail, 4);
  27:My_Top/MC/My_Vofa.cpp ****  
  28:My_Top/MC/My_Vofa.cpp ****     // CDC_Transmit_FS(buf, total_len); // ÕÅæķĆüµĢ░µŹ«
  29:My_Top/MC/My_Vofa.cpp ****     CDC_Transmit(0, (uint8_t*)buf, total_len); // ÕÅæķĆüµĢ░µŹ«
  30:My_Top/MC/My_Vofa.cpp **** 
ARM GAS  /tmp/ccmRmNHJ.s 			page 2


  31:My_Top/MC/My_Vofa.cpp **** }
  32:My_Top/MC/My_Vofa.cpp **** 
  33:My_Top/MC/My_Vofa.cpp **** 
  34:My_Top/MC/My_Vofa.cpp **** 
  35:My_Top/MC/My_Vofa.cpp **** void Vofa_SendFireWater_VA(uint16_t count, ...)//ÕÅæķĆüõĖŹÕ«ÜķĢ┐µĄ«ńé╣Õ×ŗÕÅéµĢ░
  36:My_Top/MC/My_Vofa.cpp **** {
  37:My_Top/MC/My_Vofa.cpp ****     float buffer[MAX_VOFA_FLOATS];
  38:My_Top/MC/My_Vofa.cpp ****     
  39:My_Top/MC/My_Vofa.cpp ****     if (count > MAX_VOFA_FLOATS) count = MAX_VOFA_FLOATS;  // ķś▓µ║óÕć║
  40:My_Top/MC/My_Vofa.cpp ****     
  41:My_Top/MC/My_Vofa.cpp ****     va_list args;
  42:My_Top/MC/My_Vofa.cpp ****     va_start(args, count); //Ķ«® args µīćÕÉæń¼¼õĖĆõĖ¬ÕÅ»ÕÅśÕÅéµĢ░
  43:My_Top/MC/My_Vofa.cpp ****     for (uint16_t i = 0; i < count; i++) {//ÕÅ¢Õć║õĖŗõĖĆõĖ¬ÕÅéµĢ░
  44:My_Top/MC/My_Vofa.cpp ****         buffer[i] = (float)va_arg(args, double);  // ÕÅśÕÅé float õ╝ÜĶó½µÅÉÕŹćõĖ║ double
  45:My_Top/MC/My_Vofa.cpp ****     }
  46:My_Top/MC/My_Vofa.cpp ****     va_end(args);
  47:My_Top/MC/My_Vofa.cpp ****     
  48:My_Top/MC/My_Vofa.cpp ****     Vofa_SendFireWater(buffer, count,0);
  49:My_Top/MC/My_Vofa.cpp **** }
  50:My_Top/MC/My_Vofa.cpp **** 
  51:My_Top/MC/My_Vofa.cpp **** 
  52:My_Top/MC/My_Vofa.cpp **** 
  53:My_Top/MC/My_Vofa.cpp **** //2.µÄźÕÅŚķā©Õłå
  54:My_Top/MC/My_Vofa.cpp **** VoFA_Rx vofa1 = {};
  55:My_Top/MC/My_Vofa.cpp **** 
  56:My_Top/MC/My_Vofa.cpp **** void My_USB_Handler(uint8_t* data, uint32_t len)
  57:My_Top/MC/My_Vofa.cpp **** {
  29              		.loc 1 57 1 view -0
  30              		.cfi_startproc
  31              		@ args = 0, pretend = 0, frame = 0
  32              		@ frame_needed = 0, uses_anonymous_args = 0
  33              		.loc 1 57 1 is_stmt 0 view .LVU1
  34 0000 38B5     		push	{r3, r4, r5, lr}
  35              		.cfi_def_cfa_offset 16
  36              		.cfi_offset 3, -16
  37              		.cfi_offset 4, -12
  38              		.cfi_offset 5, -8
  39              		.cfi_offset 14, -4
  58:My_Top/MC/My_Vofa.cpp ****     vofa1.on_recv(data, len);
  40              		.loc 1 58 5 is_stmt 1 view .LVU2
  41              		.loc 1 58 18 is_stmt 0 view .LVU3
  42 0002 8CB2     		uxth	r4, r1
  43              	.LVL1:
  44              	.LBB4:
  45              	.LBI4:
  46              		.file 2 "My_Top/MC/My_Vofa.hpp"
   1:My_Top/MC/My_Vofa.hpp **** #pragma once
   2:My_Top/MC/My_Vofa.hpp **** 
   3:My_Top/MC/My_Vofa.hpp **** #include <stdint.h>
   4:My_Top/MC/My_Vofa.hpp **** #include <stdarg.h>
   5:My_Top/MC/My_Vofa.hpp **** #include <string.h>
   6:My_Top/MC/My_Vofa.hpp **** #include <stdlib.h>     // atof
   7:My_Top/MC/My_Vofa.hpp **** #include "My_USB_CDC.hpp"
   8:My_Top/MC/My_Vofa.hpp **** 
   9:My_Top/MC/My_Vofa.hpp **** #define VOFA_PARAM_MAX    30   // µ£ĆÕż¦ÕÅéµĢ░õĖ¬µĢ░
  10:My_Top/MC/My_Vofa.hpp **** #define VOFA_NAME_LEN     25   // ÕÅéµĢ░ÕÉŹµ£ĆÕż¦ķĢ┐Õ║”
  11:My_Top/MC/My_Vofa.hpp **** #define VOFA_RX_BUF_SIZE 128   // DMA µÄźµöČń╝ōÕå▓
ARM GAS  /tmp/ccmRmNHJ.s 			page 3


  12:My_Top/MC/My_Vofa.hpp **** 
  13:My_Top/MC/My_Vofa.hpp **** struct vofa_param_t {            // ÕŹĢõĖ¬ÕÅéµĢ░
  14:My_Top/MC/My_Vofa.hpp ****     char  name[VOFA_NAME_LEN];
  15:My_Top/MC/My_Vofa.hpp ****     float value;
  16:My_Top/MC/My_Vofa.hpp ****     bool  valid; //µś»ÕÉ”ĶĄŗÕĆ╝
  17:My_Top/MC/My_Vofa.hpp **** };
  18:My_Top/MC/My_Vofa.hpp **** 
  19:My_Top/MC/My_Vofa.hpp **** struct VoFA_Rx {
  20:My_Top/MC/My_Vofa.hpp ****     uint8_t      rx_buf[VOFA_RX_BUF_SIZE]; // DMA ÕÄ¤Õ¦ŗµĢ░µŹ«
  21:My_Top/MC/My_Vofa.hpp ****     uint16_t     rx_len;                    // µ£¼ÕĖ¦ÕŁŚĶŖéµĢ░
  22:My_Top/MC/My_Vofa.hpp ****     volatile bool rx_ready;                 // õĖŁµ¢ŁńĮ«1’╝īTaskµĖģ0
  23:My_Top/MC/My_Vofa.hpp **** 
  24:My_Top/MC/My_Vofa.hpp ****     vofa_param_t params[VOFA_PARAM_MAX];   // ÕÅéµĢ░ĶĪ©
  25:My_Top/MC/My_Vofa.hpp ****     uint8_t      param_cnt;                // ÕĘ▓µ│©ÕåīÕÅéµĢ░µĢ░
  26:My_Top/MC/My_Vofa.hpp **** 
  27:My_Top/MC/My_Vofa.hpp ****     /* õĖŁµ¢ŁķćīĶ░ā’╝ÜÕÅ¬µŗĘĶ┤Ø + ńĮ«µĀćÕ┐Ś */
  28:My_Top/MC/My_Vofa.hpp ****     void on_recv(uint8_t *buf, uint16_t len) {
  47              		.loc 2 28 10 is_stmt 1 view .LVU4
  48              	.LBB5:
  29:My_Top/MC/My_Vofa.hpp ****         // if (rx_ready) return;                             // õĖŖÕĖ¦µ£¬ÕżäńÉåÕłÖõĖóÕ╝ā
  30:My_Top/MC/My_Vofa.hpp ****         if (len > VOFA_RX_BUF_SIZE) len = VOFA_RX_BUF_SIZE; 
  49              		.loc 2 30 9 view .LVU5
  50 0004 802C     		cmp	r4, #128
  51 0006 00D9     		bls	.L2
  52              		.loc 2 30 41 is_stmt 0 discriminator 1 view .LVU6
  53 0008 8024     		movs	r4, #128
  54              	.LVL2:
  55              	.L2:
  31:My_Top/MC/My_Vofa.hpp ****         memcpy(rx_buf, buf, len);                        // µŗĘĶ┤ØµĢ░µŹ«
  56              		.loc 2 31 9 is_stmt 1 view .LVU7
  57              		.loc 2 31 15 is_stmt 0 view .LVU8
  58 000a 064D     		ldr	r5, .L5
  59 000c 2246     		mov	r2, r4
  60 000e 0146     		mov	r1, r0
  61              	.LVL3:
  62              		.loc 2 31 15 view .LVU9
  63 0010 2846     		mov	r0, r5
  64              	.LVL4:
  65              		.loc 2 31 15 view .LVU10
  66 0012 FFF7FEFF 		bl	memcpy
  67              	.LVL5:
  32:My_Top/MC/My_Vofa.hpp ****         rx_len = len; rx_ready = true;                   // ńĮ«µĀćÕ┐Ś
  68              		.loc 2 32 9 is_stmt 1 view .LVU11
  69              		.loc 2 32 16 is_stmt 0 view .LVU12
  70 0016 A5F88040 		strh	r4, [r5, #128]	@ movhi
  71              		.loc 2 32 23 is_stmt 1 view .LVU13
  72              		.loc 2 32 32 is_stmt 0 view .LVU14
  73 001a 0123     		movs	r3, #1
  74 001c 85F88230 		strb	r3, [r5, #130]
  75              	.LVL6:
  76              		.loc 2 32 32 view .LVU15
  77              	.LBE5:
  78              	.LBE4:
  59:My_Top/MC/My_Vofa.cpp **** }
  79              		.loc 1 59 1 view .LVU16
  80 0020 38BD     		pop	{r3, r4, r5, pc}
  81              	.L6:
ARM GAS  /tmp/ccmRmNHJ.s 			page 4


  82 0022 00BF     		.align	2
  83              	.L5:
  84 0024 00000000 		.word	.LANCHOR0
  85              		.cfi_endproc
  86              	.LFE348:
  88              		.align	1
  89              		.global	_Z18Vofa_SendFireWaterPftm
  90              		.syntax unified
  91              		.thumb
  92              		.thumb_func
  94              	_Z18Vofa_SendFireWaterPftm:
  95              	.LVL7:
  96              	.LFB346:
  15:My_Top/MC/My_Vofa.cpp ****     if (count == 0) return;
  97              		.loc 1 15 1 is_stmt 1 view -0
  98              		.cfi_startproc
  99              		@ args = 0, pretend = 0, frame = 0
 100              		@ frame_needed = 0, uses_anonymous_args = 0
  16:My_Top/MC/My_Vofa.cpp ****     uint16_t data_len = count * sizeof(float);
 101              		.loc 1 16 5 view .LVU18
 102 0028 F9B1     		cbz	r1, .L12
  15:My_Top/MC/My_Vofa.cpp ****     if (count == 0) return;
 103              		.loc 1 15 1 is_stmt 0 view .LVU19
 104 002a 70B5     		push	{r4, r5, r6, lr}
 105              		.cfi_def_cfa_offset 16
 106              		.cfi_offset 4, -16
 107              		.cfi_offset 5, -12
 108              		.cfi_offset 6, -8
 109              		.cfi_offset 14, -4
  17:My_Top/MC/My_Vofa.cpp ****     uint16_t total_len = data_len + 4;
 110              		.loc 1 17 5 is_stmt 1 view .LVU20
  17:My_Top/MC/My_Vofa.cpp ****     uint16_t total_len = data_len + 4;
 111              		.loc 1 17 14 is_stmt 0 view .LVU21
 112 002c 8C00     		lsls	r4, r1, #2
 113 002e A4B2     		uxth	r4, r4
 114              	.LVL8:
  18:My_Top/MC/My_Vofa.cpp **** 
 115              		.loc 1 18 5 is_stmt 1 view .LVU22
  18:My_Top/MC/My_Vofa.cpp **** 
 116              		.loc 1 18 14 is_stmt 0 view .LVU23
 117 0030 261D     		adds	r6, r4, #4
 118 0032 B6B2     		uxth	r6, r6
 119              	.LVL9:
  21:My_Top/MC/My_Vofa.cpp ****     vofa_buf_sel = !vofa_buf_sel;  // õĖŗµ¼Īńö©ÕÅ”õĖĆõĖ¬
 120              		.loc 1 21 5 is_stmt 1 view .LVU24
  21:My_Top/MC/My_Vofa.cpp ****     vofa_buf_sel = !vofa_buf_sel;  // õĖŗµ¼Īńö©ÕÅ”õĖĆõĖ¬
 121              		.loc 1 21 34 is_stmt 0 view .LVU25
 122 0034 0D4B     		ldr	r3, .L15
 123 0036 93F8B835 		ldrb	r3, [r3, #1464]	@ zero_extendqisi2
  21:My_Top/MC/My_Vofa.cpp ****     vofa_buf_sel = !vofa_buf_sel;  // õĖŗµ¼Īńö©ÕÅ”õĖĆõĖ¬
 124              		.loc 1 21 14 view .LVU26
 125 003a A3B9     		cbnz	r3, .L10
  21:My_Top/MC/My_Vofa.cpp ****     vofa_buf_sel = !vofa_buf_sel;  // õĖŗµ¼Īńö©ÕÅ”õĖĆõĖ¬
 126              		.loc 1 21 14 discriminator 1 view .LVU27
 127 003c 0C4D     		ldr	r5, .L15+4
 128              	.L9:
 129              	.LVL10:
ARM GAS  /tmp/ccmRmNHJ.s 			page 5


  22:My_Top/MC/My_Vofa.cpp **** 
 130              		.loc 1 22 5 is_stmt 1 view .LVU28
  22:My_Top/MC/My_Vofa.cpp **** 
 131              		.loc 1 22 20 is_stmt 0 view .LVU29
 132 003e B3FA83F3 		clz	r3, r3
 133 0042 5B09     		lsrs	r3, r3, #5
  22:My_Top/MC/My_Vofa.cpp **** 
 134              		.loc 1 22 18 view .LVU30
 135 0044 094A     		ldr	r2, .L15
 136              	.LVL11:
  22:My_Top/MC/My_Vofa.cpp **** 
 137              		.loc 1 22 18 view .LVU31
 138 0046 82F8B835 		strb	r3, [r2, #1464]
  25:My_Top/MC/My_Vofa.cpp ****     memcpy(buf + data_len, tail, 4);
 139              		.loc 1 25 5 is_stmt 1 view .LVU32
  25:My_Top/MC/My_Vofa.cpp ****     memcpy(buf + data_len, tail, 4);
 140              		.loc 1 25 11 is_stmt 0 view .LVU33
 141 004a 2246     		mov	r2, r4
 142 004c 0146     		mov	r1, r0
 143              	.LVL12:
  25:My_Top/MC/My_Vofa.cpp ****     memcpy(buf + data_len, tail, 4);
 144              		.loc 1 25 11 view .LVU34
 145 004e 2846     		mov	r0, r5
 146              	.LVL13:
  25:My_Top/MC/My_Vofa.cpp ****     memcpy(buf + data_len, tail, 4);
 147              		.loc 1 25 11 view .LVU35
 148 0050 FFF7FEFF 		bl	memcpy
 149              	.LVL14:
  26:My_Top/MC/My_Vofa.cpp ****  
 150              		.loc 1 26 5 is_stmt 1 view .LVU36
  26:My_Top/MC/My_Vofa.cpp ****  
 151              		.loc 1 26 11 is_stmt 0 view .LVU37
 152 0054 074B     		ldr	r3, .L15+8
 153 0056 1868     		ldr	r0, [r3]
 154 0058 2851     		str	r0, [r5, r4]	@ unaligned
  29:My_Top/MC/My_Vofa.cpp **** 
 155              		.loc 1 29 5 is_stmt 1 view .LVU38
  29:My_Top/MC/My_Vofa.cpp **** 
 156              		.loc 1 29 17 is_stmt 0 view .LVU39
 157 005a 3246     		mov	r2, r6
 158 005c 2946     		mov	r1, r5
 159 005e 0020     		movs	r0, #0
 160 0060 FFF7FEFF 		bl	CDC_Transmit
 161              	.LVL15:
  31:My_Top/MC/My_Vofa.cpp **** 
 162              		.loc 1 31 1 view .LVU40
 163 0064 70BD     		pop	{r4, r5, r6, pc}
 164              	.LVL16:
 165              	.L10:
  21:My_Top/MC/My_Vofa.cpp ****     vofa_buf_sel = !vofa_buf_sel;  // õĖŗµ¼Īńö©ÕÅ”õĖĆõĖ¬
 166              		.loc 1 21 14 discriminator 2 view .LVU41
 167 0066 044D     		ldr	r5, .L15+12
 168 0068 E9E7     		b	.L9
 169              	.LVL17:
 170              	.L12:
 171              		.cfi_def_cfa_offset 0
 172              		.cfi_restore 4
ARM GAS  /tmp/ccmRmNHJ.s 			page 6


 173              		.cfi_restore 5
 174              		.cfi_restore 6
 175              		.cfi_restore 14
  21:My_Top/MC/My_Vofa.cpp ****     vofa_buf_sel = !vofa_buf_sel;  // õĖŗµ¼Īńö©ÕÅ”õĖĆõĖ¬
 176              		.loc 1 21 14 discriminator 2 view .LVU42
 177 006a 7047     		bx	lr
 178              	.L16:
 179              		.align	2
 180              	.L15:
 181 006c 00000000 		.word	.LANCHOR0
 182 0070 C0040000 		.word	.LANCHOR0+1216
 183 0074 00000000 		.word	.LANCHOR1
 184 0078 3C050000 		.word	.LANCHOR0+1340
 185              		.cfi_endproc
 186              	.LFE346:
 188              		.align	1
 189              		.global	_Z21Vofa_SendFireWater_VAtz
 190              		.syntax unified
 191              		.thumb
 192              		.thumb_func
 194              	_Z21Vofa_SendFireWater_VAtz:
 195              	.LVL18:
 196              	.LFB347:
  36:My_Top/MC/My_Vofa.cpp ****     float buffer[MAX_VOFA_FLOATS];
 197              		.loc 1 36 1 is_stmt 1 view -0
 198              		.cfi_startproc
 199              		@ args = 4, pretend = 16, frame = 128
 200              		@ frame_needed = 0, uses_anonymous_args = 1
  36:My_Top/MC/My_Vofa.cpp ****     float buffer[MAX_VOFA_FLOATS];
 201              		.loc 1 36 1 is_stmt 0 view .LVU44
 202 007c 0FB4     		push	{r0, r1, r2, r3}
 203              		.cfi_def_cfa_offset 16
 204              		.cfi_offset 0, -16
 205              		.cfi_offset 1, -12
 206              		.cfi_offset 2, -8
 207              		.cfi_offset 3, -4
 208 007e 30B5     		push	{r4, r5, lr}
 209              		.cfi_def_cfa_offset 28
 210              		.cfi_offset 4, -28
 211              		.cfi_offset 5, -24
 212              		.cfi_offset 14, -20
 213 0080 A1B0     		sub	sp, sp, #132
 214              		.cfi_def_cfa_offset 160
 215 0082 BDF89050 		ldrh	r5, [sp, #144]
  37:My_Top/MC/My_Vofa.cpp ****     
 216              		.loc 1 37 5 is_stmt 1 view .LVU45
  39:My_Top/MC/My_Vofa.cpp ****     
 217              		.loc 1 39 5 view .LVU46
 218 0086 1E2D     		cmp	r5, #30
 219 0088 00D9     		bls	.L18
  39:My_Top/MC/My_Vofa.cpp ****     
 220              		.loc 1 39 40 is_stmt 0 discriminator 1 view .LVU47
 221 008a 1E25     		movs	r5, #30
 222              	.L18:
 223              	.LVL19:
  41:My_Top/MC/My_Vofa.cpp ****     va_start(args, count); //Ķ«® args µīćÕÉæń¼¼õĖĆõĖ¬ÕÅ»ÕÅśÕÅéµĢ░
 224              		.loc 1 41 5 is_stmt 1 view .LVU48
ARM GAS  /tmp/ccmRmNHJ.s 			page 7


  42:My_Top/MC/My_Vofa.cpp ****     for (uint16_t i = 0; i < count; i++) {//ÕÅ¢Õć║õĖŗõĖĆõĖ¬ÕÅéµĢ░
 225              		.loc 1 42 5 view .LVU49
 226 008c 25AB     		add	r3, sp, #148
 227 008e 0193     		str	r3, [sp, #4]
  43:My_Top/MC/My_Vofa.cpp ****         buffer[i] = (float)va_arg(args, double);  // ÕÅśÕÅé float õ╝ÜĶó½µÅÉÕŹćõĖ║ double
 228              		.loc 1 43 5 view .LVU50
 229              	.LVL20:
 230              	.LBB6:
  43:My_Top/MC/My_Vofa.cpp ****         buffer[i] = (float)va_arg(args, double);  // ÕÅśÕÅé float õ╝ÜĶó½µÅÉÕŹćõĖ║ double
 231              		.loc 1 43 19 is_stmt 0 view .LVU51
 232 0090 0024     		movs	r4, #0
  43:My_Top/MC/My_Vofa.cpp ****         buffer[i] = (float)va_arg(args, double);  // ÕÅśÕÅé float õ╝ÜĶó½µÅÉÕŹćõĖ║ double
 233              		.loc 1 43 5 view .LVU52
 234 0092 11E0     		b	.L19
 235              	.LVL21:
 236              	.L20:
  44:My_Top/MC/My_Vofa.cpp ****     }
 237              		.loc 1 44 9 is_stmt 1 view .LVU53
  44:My_Top/MC/My_Vofa.cpp ****     }
 238              		.loc 1 44 28 is_stmt 0 view .LVU54
 239 0094 019B     		ldr	r3, [sp, #4]
 240 0096 0733     		adds	r3, r3, #7
 241 0098 23F00703 		bic	r3, r3, #7
 242 009c 03F10802 		add	r2, r3, #8
 243 00a0 0192     		str	r2, [sp, #4]
  44:My_Top/MC/My_Vofa.cpp ****     }
 244              		.loc 1 44 21 discriminator 1 view .LVU55
 245 00a2 D3E90001 		ldrd	r0, [r3]
 246 00a6 FFF7FEFF 		bl	__aeabi_d2f
 247              	.LVL22:
  44:My_Top/MC/My_Vofa.cpp ****     }
 248              		.loc 1 44 19 discriminator 1 view .LVU56
 249 00aa 20AB     		add	r3, sp, #128
 250 00ac 03EB8403 		add	r3, r3, r4, lsl #2
 251 00b0 43F8780C 		str	r0, [r3, #-120]	@ float
  43:My_Top/MC/My_Vofa.cpp ****         buffer[i] = (float)va_arg(args, double);  // ÕÅśÕÅé float õ╝ÜĶó½µÅÉÕŹćõĖ║ double
 252              		.loc 1 43 5 is_stmt 1 discriminator 3 view .LVU57
 253 00b4 0134     		adds	r4, r4, #1
 254              	.LVL23:
  43:My_Top/MC/My_Vofa.cpp ****         buffer[i] = (float)va_arg(args, double);  // ÕÅśÕÅé float õ╝ÜĶó½µÅÉÕŹćõĖ║ double
 255              		.loc 1 43 5 is_stmt 0 discriminator 3 view .LVU58
 256 00b6 A4B2     		uxth	r4, r4
 257              	.LVL24:
 258              	.L19:
  43:My_Top/MC/My_Vofa.cpp ****         buffer[i] = (float)va_arg(args, double);  // ÕÅśÕÅé float õ╝ÜĶó½µÅÉÕŹćõĖ║ double
 259              		.loc 1 43 28 is_stmt 1 discriminator 1 view .LVU59
 260 00b8 A542     		cmp	r5, r4
 261 00ba EBD8     		bhi	.L20
 262              	.LBE6:
  46:My_Top/MC/My_Vofa.cpp ****     
 263              		.loc 1 46 5 view .LVU60
  48:My_Top/MC/My_Vofa.cpp **** }
 264              		.loc 1 48 5 view .LVU61
  48:My_Top/MC/My_Vofa.cpp **** }
 265              		.loc 1 48 23 is_stmt 0 view .LVU62
 266 00bc 0022     		movs	r2, #0
 267 00be 2946     		mov	r1, r5
ARM GAS  /tmp/ccmRmNHJ.s 			page 8


 268 00c0 02A8     		add	r0, sp, #8
 269 00c2 FFF7FEFF 		bl	_Z18Vofa_SendFireWaterPftm
 270              	.LVL25:
  49:My_Top/MC/My_Vofa.cpp **** 
 271              		.loc 1 49 1 view .LVU63
 272 00c6 21B0     		add	sp, sp, #132
 273              		.cfi_def_cfa_offset 28
 274              		@ sp needed
 275 00c8 BDE83040 		pop	{r4, r5, lr}
 276              		.cfi_restore 14
 277              		.cfi_restore 5
 278              		.cfi_restore 4
 279              		.cfi_def_cfa_offset 16
 280              	.LVL26:
  49:My_Top/MC/My_Vofa.cpp **** 
 281              		.loc 1 49 1 view .LVU64
 282 00cc 04B0     		add	sp, sp, #16
 283              		.cfi_restore 3
 284              		.cfi_restore 2
 285              		.cfi_restore 1
 286              		.cfi_restore 0
 287              		.cfi_def_cfa_offset 0
 288 00ce 7047     		bx	lr
 289              		.cfi_endproc
 290              	.LFE347:
 292              		.align	1
 293              		.global	_Z9Vofa_Initv
 294              		.syntax unified
 295              		.thumb
 296              		.thumb_func
 298              	_Z9Vofa_Initv:
 299              	.LFB349:
  60:My_Top/MC/My_Vofa.cpp **** 
  61:My_Top/MC/My_Vofa.cpp **** void Vofa_Init()
  62:My_Top/MC/My_Vofa.cpp **** {
 300              		.loc 1 62 1 is_stmt 1 view -0
 301              		.cfi_startproc
 302              		@ args = 0, pretend = 0, frame = 0
 303              		@ frame_needed = 0, uses_anonymous_args = 0
 304 00d0 08B5     		push	{r3, lr}
 305              		.cfi_def_cfa_offset 8
 306              		.cfi_offset 3, -8
 307              		.cfi_offset 14, -4
  63:My_Top/MC/My_Vofa.cpp ****     USB_Register_RxCallback(My_USB_Handler); // µ│©ÕåīµÄźµöČÕø×Ķ░āÕćĮµĢ░
 308              		.loc 1 63 5 view .LVU66
 309              		.loc 1 63 28 is_stmt 0 view .LVU67
 310 00d2 0248     		ldr	r0, .L25
 311 00d4 FFF7FEFF 		bl	USB_Register_RxCallback
 312              	.LVL27:
  64:My_Top/MC/My_Vofa.cpp **** }
 313              		.loc 1 64 1 view .LVU68
 314 00d8 08BD     		pop	{r3, pc}
 315              	.L26:
 316 00da 00BF     		.align	2
 317              	.L25:
 318 00dc 00000000 		.word	_Z14My_USB_HandlerPhm
 319              		.cfi_endproc
ARM GAS  /tmp/ccmRmNHJ.s 			page 9


 320              	.LFE349:
 322              		.global	vofa1
 323              		.section	.rodata
 324              		.align	2
 325              		.set	.LANCHOR1,. + 0
 326              	.LC0:
 327 0000 0000807F 		.ascii	"\000\000\200\177"
 328              		.bss
 329              		.align	2
 330              		.set	.LANCHOR0,. + 0
 333              	vofa1:
 334 0000 00000000 		.space	1216
 334      00000000 
 334      00000000 
 334      00000000 
 334      00000000 
 337              	_ZL9vofa_buf1:
 338 04c0 00000000 		.space	124
 338      00000000 
 338      00000000 
 338      00000000 
 338      00000000 
 341              	_ZL9vofa_buf2:
 342 053c 00000000 		.space	124
 342      00000000 
 342      00000000 
 342      00000000 
 342      00000000 
 345              	_ZL12vofa_buf_sel:
 346 05b8 00       		.space	1
 347              		.text
 348              	.Letext0:
 349              		.file 3 "/opt/arm-gnu-toolchain-14.2/arm-none-eabi/include/machine/_default_types.h"
 350              		.file 4 "/opt/arm-gnu-toolchain-14.2/arm-none-eabi/include/sys/_stdint.h"
 351              		.file 5 "/opt/arm-gnu-toolchain-14.2/lib/gcc/arm-none-eabi/14.2.1/include/stdarg.h"
 352              		.file 6 "/opt/arm-gnu-toolchain-14.2/lib/gcc/arm-none-eabi/14.2.1/include/stddef.h"
 353              		.file 7 "/opt/arm-gnu-toolchain-14.2/arm-none-eabi/include/stdlib.h"
 354              		.file 8 "/opt/arm-gnu-toolchain-14.2/arm-none-eabi/include/c++/14.2.1/cstdlib"
 355              		.file 9 "/opt/arm-gnu-toolchain-14.2/arm-none-eabi/include/c++/14.2.1/bits/std_abs.h"
 356              		.file 10 "/opt/arm-gnu-toolchain-14.2/arm-none-eabi/include/c++/14.2.1/stdlib.h"
 357              		.file 11 "Drivers/CMSIS/Device/ST/STM32G4xx/Include/stm32g4xx.h"
 358              		.file 12 "My_Top/USB_Composite/My_USB_CDC.hpp"
 359              		.file 13 "Middlewares/Third_Party/AL94_USB_Composite/COMPOSITE/App/usbd_cdc_acm_if.h"
 360              		.file 14 "/opt/arm-gnu-toolchain-14.2/arm-none-eabi/include/string.h"
 361              		.file 15 "<built-in>"
 362              		.file 16 "/opt/arm-gnu-toolchain-14.2/arm-none-eabi/include/c++/14.2.1/arm-none-eabi/thumb/v7e-m+f
ARM GAS  /tmp/ccmRmNHJ.s 			page 10

