ARM GAS  /tmp/ccK4dYi5.s 			page 1


   1              		.cpu cortex-m4
   2              		.arch armv7e-m
   3              		.fpu fpv4-sp-d16
   4              		.eabi_attribute 27, 1
   5              		.eabi_attribute 28, 1
   6              		.eabi_attribute 20, 1
   7              		.eabi_attribute 21, 1
   8              		.eabi_attribute 23, 3
   9              		.eabi_attribute 24, 1
  10              		.eabi_attribute 25, 1
  11              		.eabi_attribute 26, 1
  12              		.eabi_attribute 30, 1
  13              		.eabi_attribute 34, 1
  14              		.eabi_attribute 18, 4
  15              		.file	"stm32g4xx_hal_gpio.c"
  16              		.text
  17              	.Ltext0:
  18              		.cfi_sections	.debug_frame
  19              		.file 1 "Drivers/STM32G4xx_HAL_Driver/Src/stm32g4xx_hal_gpio.c"
  20              		.section	.text.HAL_GPIO_Init,"ax",%progbits
  21              		.align	1
  22              		.global	HAL_GPIO_Init
  23              		.syntax unified
  24              		.thumb
  25              		.thumb_func
  27              	HAL_GPIO_Init:
  28              	.LVL0:
  29              	.LFB329:
   1:Drivers/STM32G4xx_HAL_Driver/Src/stm32g4xx_hal_gpio.c **** /**
   2:Drivers/STM32G4xx_HAL_Driver/Src/stm32g4xx_hal_gpio.c ****   ******************************************************************************
   3:Drivers/STM32G4xx_HAL_Driver/Src/stm32g4xx_hal_gpio.c ****   * @file    stm32g4xx_hal_gpio.c
   4:Drivers/STM32G4xx_HAL_Driver/Src/stm32g4xx_hal_gpio.c ****   * @author  MCD Application Team
   5:Drivers/STM32G4xx_HAL_Driver/Src/stm32g4xx_hal_gpio.c ****   * @brief   GPIO HAL module driver.
   6:Drivers/STM32G4xx_HAL_Driver/Src/stm32g4xx_hal_gpio.c ****   *          This file provides firmware functions to manage the following
   7:Drivers/STM32G4xx_HAL_Driver/Src/stm32g4xx_hal_gpio.c ****   *          functionalities of the General Purpose Input/Output (GPIO) peripheral:
   8:Drivers/STM32G4xx_HAL_Driver/Src/stm32g4xx_hal_gpio.c ****   *           + Initialization and de-initialization functions
   9:Drivers/STM32G4xx_HAL_Driver/Src/stm32g4xx_hal_gpio.c ****   *           + IO operation functions
  10:Drivers/STM32G4xx_HAL_Driver/Src/stm32g4xx_hal_gpio.c ****   *
  11:Drivers/STM32G4xx_HAL_Driver/Src/stm32g4xx_hal_gpio.c ****   ******************************************************************************
  12:Drivers/STM32G4xx_HAL_Driver/Src/stm32g4xx_hal_gpio.c ****   * @attention
  13:Drivers/STM32G4xx_HAL_Driver/Src/stm32g4xx_hal_gpio.c ****   *
  14:Drivers/STM32G4xx_HAL_Driver/Src/stm32g4xx_hal_gpio.c ****   * Copyright (c) 2019 STMicroelectronics.
  15:Drivers/STM32G4xx_HAL_Driver/Src/stm32g4xx_hal_gpio.c ****   * All rights reserved.
  16:Drivers/STM32G4xx_HAL_Driver/Src/stm32g4xx_hal_gpio.c ****   *
  17:Drivers/STM32G4xx_HAL_Driver/Src/stm32g4xx_hal_gpio.c ****   * This software is licensed under terms that can be found in the LICENSE file
  18:Drivers/STM32G4xx_HAL_Driver/Src/stm32g4xx_hal_gpio.c ****   * in the root directory of this software component.
  19:Drivers/STM32G4xx_HAL_Driver/Src/stm32g4xx_hal_gpio.c ****   * If no LICENSE file comes with this software, it is provided AS-IS.
  20:Drivers/STM32G4xx_HAL_Driver/Src/stm32g4xx_hal_gpio.c ****   *
  21:Drivers/STM32G4xx_HAL_Driver/Src/stm32g4xx_hal_gpio.c ****   ******************************************************************************
  22:Drivers/STM32G4xx_HAL_Driver/Src/stm32g4xx_hal_gpio.c ****   @verbatim
  23:Drivers/STM32G4xx_HAL_Driver/Src/stm32g4xx_hal_gpio.c ****   ==============================================================================
  24:Drivers/STM32G4xx_HAL_Driver/Src/stm32g4xx_hal_gpio.c ****                     ##### GPIO Peripheral features #####
  25:Drivers/STM32G4xx_HAL_Driver/Src/stm32g4xx_hal_gpio.c ****   ==============================================================================
  26:Drivers/STM32G4xx_HAL_Driver/Src/stm32g4xx_hal_gpio.c ****   [..]
  27:Drivers/STM32G4xx_HAL_Driver/Src/stm32g4xx_hal_gpio.c ****     (+) Each port bit of the general-purpose I/O (GPIO) ports can be individually
  28:Drivers/STM32G4xx_HAL_Driver/Src/stm32g4xx_hal_gpio.c ****         configured by software in several modes:
  29:Drivers/STM32G4xx_HAL_Driver/Src/stm32g4xx_hal_gpio.c ****         (++) Input mode
ARM GAS  /tmp/ccK4dYi5.s 			page 2


  30:Drivers/STM32G4xx_HAL_Driver/Src/stm32g4xx_hal_gpio.c ****         (++) Analog mode
  31:Drivers/STM32G4xx_HAL_Driver/Src/stm32g4xx_hal_gpio.c ****         (++) Output mode
  32:Drivers/STM32G4xx_HAL_Driver/Src/stm32g4xx_hal_gpio.c ****         (++) Alternate function mode
  33:Drivers/STM32G4xx_HAL_Driver/Src/stm32g4xx_hal_gpio.c ****         (++) External interrupt/event lines
  34:Drivers/STM32G4xx_HAL_Driver/Src/stm32g4xx_hal_gpio.c **** 
  35:Drivers/STM32G4xx_HAL_Driver/Src/stm32g4xx_hal_gpio.c ****     (+) During and just after reset, the alternate functions and external interrupt
  36:Drivers/STM32G4xx_HAL_Driver/Src/stm32g4xx_hal_gpio.c ****         lines are not active and the I/O ports are configured in input floating mode.
  37:Drivers/STM32G4xx_HAL_Driver/Src/stm32g4xx_hal_gpio.c **** 
  38:Drivers/STM32G4xx_HAL_Driver/Src/stm32g4xx_hal_gpio.c ****     (+) All GPIO pins have weak internal pull-up and pull-down resistors, which can be
  39:Drivers/STM32G4xx_HAL_Driver/Src/stm32g4xx_hal_gpio.c ****         activated or not.
  40:Drivers/STM32G4xx_HAL_Driver/Src/stm32g4xx_hal_gpio.c **** 
  41:Drivers/STM32G4xx_HAL_Driver/Src/stm32g4xx_hal_gpio.c ****     (+) In Output or Alternate mode, each IO can be configured on open-drain or push-pull
  42:Drivers/STM32G4xx_HAL_Driver/Src/stm32g4xx_hal_gpio.c ****         type and the IO speed can be selected depending on the VDD value.
  43:Drivers/STM32G4xx_HAL_Driver/Src/stm32g4xx_hal_gpio.c **** 
  44:Drivers/STM32G4xx_HAL_Driver/Src/stm32g4xx_hal_gpio.c ****     (+) The microcontroller IO pins are connected to onboard peripherals/modules through a
  45:Drivers/STM32G4xx_HAL_Driver/Src/stm32g4xx_hal_gpio.c ****         multiplexer that allows only one peripheral alternate function (AF) connected
  46:Drivers/STM32G4xx_HAL_Driver/Src/stm32g4xx_hal_gpio.c ****        to an IO pin at a time. In this way, there can be no conflict between peripherals
  47:Drivers/STM32G4xx_HAL_Driver/Src/stm32g4xx_hal_gpio.c ****        sharing the same IO pin.
  48:Drivers/STM32G4xx_HAL_Driver/Src/stm32g4xx_hal_gpio.c **** 
  49:Drivers/STM32G4xx_HAL_Driver/Src/stm32g4xx_hal_gpio.c ****     (+) All ports have external interrupt/event capability. To use external interrupt
  50:Drivers/STM32G4xx_HAL_Driver/Src/stm32g4xx_hal_gpio.c ****         lines, the port must be configured in input mode. All available GPIO pins are
  51:Drivers/STM32G4xx_HAL_Driver/Src/stm32g4xx_hal_gpio.c ****         connected to the 16 external interrupt/event lines from EXTI0 to EXTI15.
  52:Drivers/STM32G4xx_HAL_Driver/Src/stm32g4xx_hal_gpio.c **** 
  53:Drivers/STM32G4xx_HAL_Driver/Src/stm32g4xx_hal_gpio.c ****     (+) The external interrupt/event controller consists of up to 44 edge detectors
  54:Drivers/STM32G4xx_HAL_Driver/Src/stm32g4xx_hal_gpio.c ****         (16 lines are connected to GPIO) for generating event/interrupt requests (each
  55:Drivers/STM32G4xx_HAL_Driver/Src/stm32g4xx_hal_gpio.c ****         input line can be independently configured to select the type (interrupt or event)
  56:Drivers/STM32G4xx_HAL_Driver/Src/stm32g4xx_hal_gpio.c ****         and the corresponding trigger event (rising or falling or both). Each line can
  57:Drivers/STM32G4xx_HAL_Driver/Src/stm32g4xx_hal_gpio.c ****         also be masked independently.
  58:Drivers/STM32G4xx_HAL_Driver/Src/stm32g4xx_hal_gpio.c **** 
  59:Drivers/STM32G4xx_HAL_Driver/Src/stm32g4xx_hal_gpio.c ****                      ##### How to use this driver #####
  60:Drivers/STM32G4xx_HAL_Driver/Src/stm32g4xx_hal_gpio.c ****   ==============================================================================
  61:Drivers/STM32G4xx_HAL_Driver/Src/stm32g4xx_hal_gpio.c ****   [..]
  62:Drivers/STM32G4xx_HAL_Driver/Src/stm32g4xx_hal_gpio.c ****     (#) Enable the GPIO AHB clock using the following function: __HAL_RCC_GPIOx_CLK_ENABLE().
  63:Drivers/STM32G4xx_HAL_Driver/Src/stm32g4xx_hal_gpio.c **** 
  64:Drivers/STM32G4xx_HAL_Driver/Src/stm32g4xx_hal_gpio.c ****     (#) Configure the GPIO pin(s) using HAL_GPIO_Init().
  65:Drivers/STM32G4xx_HAL_Driver/Src/stm32g4xx_hal_gpio.c ****         (++) Configure the IO mode using "Mode" member from GPIO_InitTypeDef structure
  66:Drivers/STM32G4xx_HAL_Driver/Src/stm32g4xx_hal_gpio.c ****         (++) Activate Pull-up, Pull-down resistor using "Pull" member from GPIO_InitTypeDef
  67:Drivers/STM32G4xx_HAL_Driver/Src/stm32g4xx_hal_gpio.c ****              structure.
  68:Drivers/STM32G4xx_HAL_Driver/Src/stm32g4xx_hal_gpio.c ****         (++) In case of Output or alternate function mode selection: the speed is
  69:Drivers/STM32G4xx_HAL_Driver/Src/stm32g4xx_hal_gpio.c ****              configured through "Speed" member from GPIO_InitTypeDef structure.
  70:Drivers/STM32G4xx_HAL_Driver/Src/stm32g4xx_hal_gpio.c ****         (++) In alternate mode is selection, the alternate function connected to the IO
  71:Drivers/STM32G4xx_HAL_Driver/Src/stm32g4xx_hal_gpio.c ****              is configured through "Alternate" member from GPIO_InitTypeDef structure.
  72:Drivers/STM32G4xx_HAL_Driver/Src/stm32g4xx_hal_gpio.c ****         (++) Analog mode is required when a pin is to be used as ADC channel
  73:Drivers/STM32G4xx_HAL_Driver/Src/stm32g4xx_hal_gpio.c ****              or DAC output.
  74:Drivers/STM32G4xx_HAL_Driver/Src/stm32g4xx_hal_gpio.c ****         (++) In case of external interrupt/event selection the "Mode" member from
  75:Drivers/STM32G4xx_HAL_Driver/Src/stm32g4xx_hal_gpio.c ****              GPIO_InitTypeDef structure select the type (interrupt or event) and
  76:Drivers/STM32G4xx_HAL_Driver/Src/stm32g4xx_hal_gpio.c ****              the corresponding trigger event (rising or falling or both).
  77:Drivers/STM32G4xx_HAL_Driver/Src/stm32g4xx_hal_gpio.c **** 
  78:Drivers/STM32G4xx_HAL_Driver/Src/stm32g4xx_hal_gpio.c ****     (#) In case of external interrupt/event mode selection, configure NVIC IRQ priority
  79:Drivers/STM32G4xx_HAL_Driver/Src/stm32g4xx_hal_gpio.c ****         mapped to the EXTI line using HAL_NVIC_SetPriority() and enable it using
  80:Drivers/STM32G4xx_HAL_Driver/Src/stm32g4xx_hal_gpio.c ****         HAL_NVIC_EnableIRQ().
  81:Drivers/STM32G4xx_HAL_Driver/Src/stm32g4xx_hal_gpio.c **** 
  82:Drivers/STM32G4xx_HAL_Driver/Src/stm32g4xx_hal_gpio.c ****     (#) To get the level of a pin configured in input mode use HAL_GPIO_ReadPin().
  83:Drivers/STM32G4xx_HAL_Driver/Src/stm32g4xx_hal_gpio.c **** 
  84:Drivers/STM32G4xx_HAL_Driver/Src/stm32g4xx_hal_gpio.c ****     (#) To set/reset the level of a pin configured in output mode use
  85:Drivers/STM32G4xx_HAL_Driver/Src/stm32g4xx_hal_gpio.c ****         HAL_GPIO_WritePin()/HAL_GPIO_TogglePin().
  86:Drivers/STM32G4xx_HAL_Driver/Src/stm32g4xx_hal_gpio.c **** 
ARM GAS  /tmp/ccK4dYi5.s 			page 3


  87:Drivers/STM32G4xx_HAL_Driver/Src/stm32g4xx_hal_gpio.c ****    (#) To lock pin configuration until next reset use HAL_GPIO_LockPin().
  88:Drivers/STM32G4xx_HAL_Driver/Src/stm32g4xx_hal_gpio.c **** 
  89:Drivers/STM32G4xx_HAL_Driver/Src/stm32g4xx_hal_gpio.c ****     (#) During and just after reset, the alternate functions are not
  90:Drivers/STM32G4xx_HAL_Driver/Src/stm32g4xx_hal_gpio.c ****         active and the GPIO pins are configured in input floating mode (except JTAG
  91:Drivers/STM32G4xx_HAL_Driver/Src/stm32g4xx_hal_gpio.c ****         pins).
  92:Drivers/STM32G4xx_HAL_Driver/Src/stm32g4xx_hal_gpio.c **** 
  93:Drivers/STM32G4xx_HAL_Driver/Src/stm32g4xx_hal_gpio.c ****     (#) The LSE oscillator pins OSC32_IN and OSC32_OUT can be used as general purpose
  94:Drivers/STM32G4xx_HAL_Driver/Src/stm32g4xx_hal_gpio.c ****         (PC14 and PC15, respectively) when the LSE oscillator is off. The LSE has
  95:Drivers/STM32G4xx_HAL_Driver/Src/stm32g4xx_hal_gpio.c ****         priority over the GPIO function.
  96:Drivers/STM32G4xx_HAL_Driver/Src/stm32g4xx_hal_gpio.c **** 
  97:Drivers/STM32G4xx_HAL_Driver/Src/stm32g4xx_hal_gpio.c ****     (#) The HSE oscillator pins OSC_IN/OSC_OUT can be used as
  98:Drivers/STM32G4xx_HAL_Driver/Src/stm32g4xx_hal_gpio.c ****         general purpose PF0 and PF1, respectively, when the HSE oscillator is off.
  99:Drivers/STM32G4xx_HAL_Driver/Src/stm32g4xx_hal_gpio.c ****         The HSE has priority over the GPIO function.
 100:Drivers/STM32G4xx_HAL_Driver/Src/stm32g4xx_hal_gpio.c **** 
 101:Drivers/STM32G4xx_HAL_Driver/Src/stm32g4xx_hal_gpio.c ****   @endverbatim
 102:Drivers/STM32G4xx_HAL_Driver/Src/stm32g4xx_hal_gpio.c ****   ******************************************************************************
 103:Drivers/STM32G4xx_HAL_Driver/Src/stm32g4xx_hal_gpio.c ****   */
 104:Drivers/STM32G4xx_HAL_Driver/Src/stm32g4xx_hal_gpio.c **** 
 105:Drivers/STM32G4xx_HAL_Driver/Src/stm32g4xx_hal_gpio.c **** /* Includes ------------------------------------------------------------------*/
 106:Drivers/STM32G4xx_HAL_Driver/Src/stm32g4xx_hal_gpio.c **** #include "stm32g4xx_hal.h"
 107:Drivers/STM32G4xx_HAL_Driver/Src/stm32g4xx_hal_gpio.c **** 
 108:Drivers/STM32G4xx_HAL_Driver/Src/stm32g4xx_hal_gpio.c **** /** @addtogroup STM32G4xx_HAL_Driver
 109:Drivers/STM32G4xx_HAL_Driver/Src/stm32g4xx_hal_gpio.c ****   * @{
 110:Drivers/STM32G4xx_HAL_Driver/Src/stm32g4xx_hal_gpio.c ****   */
 111:Drivers/STM32G4xx_HAL_Driver/Src/stm32g4xx_hal_gpio.c **** 
 112:Drivers/STM32G4xx_HAL_Driver/Src/stm32g4xx_hal_gpio.c **** /** @addtogroup GPIO
 113:Drivers/STM32G4xx_HAL_Driver/Src/stm32g4xx_hal_gpio.c ****   * @{
 114:Drivers/STM32G4xx_HAL_Driver/Src/stm32g4xx_hal_gpio.c ****   */
 115:Drivers/STM32G4xx_HAL_Driver/Src/stm32g4xx_hal_gpio.c **** /** MISRA C:2012 deviation rule has been granted for following rules:
 116:Drivers/STM32G4xx_HAL_Driver/Src/stm32g4xx_hal_gpio.c ****   * Rule-12.2 - Medium: RHS argument is in interval [0,INF] which is out of
 117:Drivers/STM32G4xx_HAL_Driver/Src/stm32g4xx_hal_gpio.c ****   * range of the shift operator in following API :
 118:Drivers/STM32G4xx_HAL_Driver/Src/stm32g4xx_hal_gpio.c ****   * HAL_GPIO_Init
 119:Drivers/STM32G4xx_HAL_Driver/Src/stm32g4xx_hal_gpio.c ****   * HAL_GPIO_DeInit
 120:Drivers/STM32G4xx_HAL_Driver/Src/stm32g4xx_hal_gpio.c ****   */
 121:Drivers/STM32G4xx_HAL_Driver/Src/stm32g4xx_hal_gpio.c **** 
 122:Drivers/STM32G4xx_HAL_Driver/Src/stm32g4xx_hal_gpio.c **** #ifdef HAL_GPIO_MODULE_ENABLED
 123:Drivers/STM32G4xx_HAL_Driver/Src/stm32g4xx_hal_gpio.c **** 
 124:Drivers/STM32G4xx_HAL_Driver/Src/stm32g4xx_hal_gpio.c **** /* Private typedef -----------------------------------------------------------*/
 125:Drivers/STM32G4xx_HAL_Driver/Src/stm32g4xx_hal_gpio.c **** /* Private defines -----------------------------------------------------------*/
 126:Drivers/STM32G4xx_HAL_Driver/Src/stm32g4xx_hal_gpio.c **** /** @addtogroup GPIO_Private_Constants GPIO Private Constants
 127:Drivers/STM32G4xx_HAL_Driver/Src/stm32g4xx_hal_gpio.c ****   * @{
 128:Drivers/STM32G4xx_HAL_Driver/Src/stm32g4xx_hal_gpio.c ****   */
 129:Drivers/STM32G4xx_HAL_Driver/Src/stm32g4xx_hal_gpio.c **** #define GPIO_NUMBER           (16U)
 130:Drivers/STM32G4xx_HAL_Driver/Src/stm32g4xx_hal_gpio.c **** /**
 131:Drivers/STM32G4xx_HAL_Driver/Src/stm32g4xx_hal_gpio.c ****   * @}
 132:Drivers/STM32G4xx_HAL_Driver/Src/stm32g4xx_hal_gpio.c ****   */
 133:Drivers/STM32G4xx_HAL_Driver/Src/stm32g4xx_hal_gpio.c **** 
 134:Drivers/STM32G4xx_HAL_Driver/Src/stm32g4xx_hal_gpio.c **** /* Private macros ------------------------------------------------------------*/
 135:Drivers/STM32G4xx_HAL_Driver/Src/stm32g4xx_hal_gpio.c **** /* Private variables ---------------------------------------------------------*/
 136:Drivers/STM32G4xx_HAL_Driver/Src/stm32g4xx_hal_gpio.c **** /* Private function prototypes -----------------------------------------------*/
 137:Drivers/STM32G4xx_HAL_Driver/Src/stm32g4xx_hal_gpio.c **** /* Exported functions --------------------------------------------------------*/
 138:Drivers/STM32G4xx_HAL_Driver/Src/stm32g4xx_hal_gpio.c **** 
 139:Drivers/STM32G4xx_HAL_Driver/Src/stm32g4xx_hal_gpio.c **** /** @addtogroup GPIO_Exported_Functions
 140:Drivers/STM32G4xx_HAL_Driver/Src/stm32g4xx_hal_gpio.c ****   * @{
 141:Drivers/STM32G4xx_HAL_Driver/Src/stm32g4xx_hal_gpio.c ****   */
 142:Drivers/STM32G4xx_HAL_Driver/Src/stm32g4xx_hal_gpio.c **** 
 143:Drivers/STM32G4xx_HAL_Driver/Src/stm32g4xx_hal_gpio.c **** /** @defgroup GPIO_Exported_Functions_Group1 Initialization/de-initialization functions
ARM GAS  /tmp/ccK4dYi5.s 			page 4


 144:Drivers/STM32G4xx_HAL_Driver/Src/stm32g4xx_hal_gpio.c ****   *  @brief    Initialization and Configuration functions
 145:Drivers/STM32G4xx_HAL_Driver/Src/stm32g4xx_hal_gpio.c ****   *
 146:Drivers/STM32G4xx_HAL_Driver/Src/stm32g4xx_hal_gpio.c **** @verbatim
 147:Drivers/STM32G4xx_HAL_Driver/Src/stm32g4xx_hal_gpio.c ****  ===============================================================================
 148:Drivers/STM32G4xx_HAL_Driver/Src/stm32g4xx_hal_gpio.c ****               ##### Initialization and de-initialization functions #####
 149:Drivers/STM32G4xx_HAL_Driver/Src/stm32g4xx_hal_gpio.c ****  ===============================================================================
 150:Drivers/STM32G4xx_HAL_Driver/Src/stm32g4xx_hal_gpio.c **** 
 151:Drivers/STM32G4xx_HAL_Driver/Src/stm32g4xx_hal_gpio.c **** @endverbatim
 152:Drivers/STM32G4xx_HAL_Driver/Src/stm32g4xx_hal_gpio.c ****   * @{
 153:Drivers/STM32G4xx_HAL_Driver/Src/stm32g4xx_hal_gpio.c ****   */
 154:Drivers/STM32G4xx_HAL_Driver/Src/stm32g4xx_hal_gpio.c **** 
 155:Drivers/STM32G4xx_HAL_Driver/Src/stm32g4xx_hal_gpio.c **** /**
 156:Drivers/STM32G4xx_HAL_Driver/Src/stm32g4xx_hal_gpio.c ****   * @brief  Initialize the GPIOx peripheral according to the specified parameters in the GPIO_Init.
 157:Drivers/STM32G4xx_HAL_Driver/Src/stm32g4xx_hal_gpio.c ****   * @param  GPIOx where x can be (A..G) to select the GPIO peripheral for STM32G4xx family
 158:Drivers/STM32G4xx_HAL_Driver/Src/stm32g4xx_hal_gpio.c ****   * @param  GPIO_Init pointer to a GPIO_InitTypeDef structure that contains
 159:Drivers/STM32G4xx_HAL_Driver/Src/stm32g4xx_hal_gpio.c ****   *         the configuration information for the specified GPIO peripheral.
 160:Drivers/STM32G4xx_HAL_Driver/Src/stm32g4xx_hal_gpio.c ****   * @retval None
 161:Drivers/STM32G4xx_HAL_Driver/Src/stm32g4xx_hal_gpio.c ****   */
 162:Drivers/STM32G4xx_HAL_Driver/Src/stm32g4xx_hal_gpio.c **** void HAL_GPIO_Init(GPIO_TypeDef *GPIOx, GPIO_InitTypeDef const *GPIO_Init)
 163:Drivers/STM32G4xx_HAL_Driver/Src/stm32g4xx_hal_gpio.c **** {
  30              		.loc 1 163 1 view -0
  31              		.cfi_startproc
  32              		@ args = 0, pretend = 0, frame = 8
  33              		@ frame_needed = 0, uses_anonymous_args = 0
  34              		.loc 1 163 1 is_stmt 0 view .LVU1
  35 0000 F0B5     		push	{r4, r5, r6, r7, lr}
  36              		.cfi_def_cfa_offset 20
  37              		.cfi_offset 4, -20
  38              		.cfi_offset 5, -16
  39              		.cfi_offset 6, -12
  40              		.cfi_offset 7, -8
  41              		.cfi_offset 14, -4
  42 0002 83B0     		sub	sp, sp, #12
  43              		.cfi_def_cfa_offset 32
 164:Drivers/STM32G4xx_HAL_Driver/Src/stm32g4xx_hal_gpio.c ****   uint32_t position = 0x00U;
  44              		.loc 1 164 3 is_stmt 1 view .LVU2
  45              	.LVL1:
 165:Drivers/STM32G4xx_HAL_Driver/Src/stm32g4xx_hal_gpio.c ****   uint32_t iocurrent;
  46              		.loc 1 165 3 view .LVU3
 166:Drivers/STM32G4xx_HAL_Driver/Src/stm32g4xx_hal_gpio.c ****   uint32_t temp;
  47              		.loc 1 166 3 view .LVU4
 167:Drivers/STM32G4xx_HAL_Driver/Src/stm32g4xx_hal_gpio.c **** 
 168:Drivers/STM32G4xx_HAL_Driver/Src/stm32g4xx_hal_gpio.c ****   /* Check the parameters */
 169:Drivers/STM32G4xx_HAL_Driver/Src/stm32g4xx_hal_gpio.c ****   assert_param(IS_GPIO_ALL_INSTANCE(GPIOx));
  48              		.loc 1 169 3 view .LVU5
 170:Drivers/STM32G4xx_HAL_Driver/Src/stm32g4xx_hal_gpio.c ****   assert_param(IS_GPIO_PIN(GPIO_Init->Pin));
  49              		.loc 1 170 3 view .LVU6
 171:Drivers/STM32G4xx_HAL_Driver/Src/stm32g4xx_hal_gpio.c ****   assert_param(IS_GPIO_MODE(GPIO_Init->Mode));
  50              		.loc 1 171 3 view .LVU7
 172:Drivers/STM32G4xx_HAL_Driver/Src/stm32g4xx_hal_gpio.c **** 
 173:Drivers/STM32G4xx_HAL_Driver/Src/stm32g4xx_hal_gpio.c ****   /* Configure the port pins */
 174:Drivers/STM32G4xx_HAL_Driver/Src/stm32g4xx_hal_gpio.c ****   while (((GPIO_Init->Pin) >> position) != 0U)
  51              		.loc 1 174 3 view .LVU8
 164:Drivers/STM32G4xx_HAL_Driver/Src/stm32g4xx_hal_gpio.c ****   uint32_t iocurrent;
  52              		.loc 1 164 12 is_stmt 0 view .LVU9
  53 0004 0023     		movs	r3, #0
  54              		.loc 1 174 9 view .LVU10
ARM GAS  /tmp/ccK4dYi5.s 			page 5


  55 0006 66E0     		b	.L2
  56              	.LVL2:
  57              	.L22:
 175:Drivers/STM32G4xx_HAL_Driver/Src/stm32g4xx_hal_gpio.c ****   {
 176:Drivers/STM32G4xx_HAL_Driver/Src/stm32g4xx_hal_gpio.c ****     /* Get current io position */
 177:Drivers/STM32G4xx_HAL_Driver/Src/stm32g4xx_hal_gpio.c ****     iocurrent = (GPIO_Init->Pin) & (1UL << position);
 178:Drivers/STM32G4xx_HAL_Driver/Src/stm32g4xx_hal_gpio.c **** 
 179:Drivers/STM32G4xx_HAL_Driver/Src/stm32g4xx_hal_gpio.c ****     if (iocurrent != 0x00u)
 180:Drivers/STM32G4xx_HAL_Driver/Src/stm32g4xx_hal_gpio.c ****     {
 181:Drivers/STM32G4xx_HAL_Driver/Src/stm32g4xx_hal_gpio.c ****       /*--------------------- GPIO Mode Configuration ------------------------*/
 182:Drivers/STM32G4xx_HAL_Driver/Src/stm32g4xx_hal_gpio.c ****       /* In case of Output or Alternate function mode selection */
 183:Drivers/STM32G4xx_HAL_Driver/Src/stm32g4xx_hal_gpio.c ****       if(((GPIO_Init->Mode & GPIO_MODE) == MODE_OUTPUT) ||
 184:Drivers/STM32G4xx_HAL_Driver/Src/stm32g4xx_hal_gpio.c ****          ((GPIO_Init->Mode & GPIO_MODE) == MODE_AF))
 185:Drivers/STM32G4xx_HAL_Driver/Src/stm32g4xx_hal_gpio.c ****       {
 186:Drivers/STM32G4xx_HAL_Driver/Src/stm32g4xx_hal_gpio.c ****         /* Check the Speed parameter */
 187:Drivers/STM32G4xx_HAL_Driver/Src/stm32g4xx_hal_gpio.c ****         assert_param(IS_GPIO_SPEED(GPIO_Init->Speed));
  58              		.loc 1 187 9 is_stmt 1 view .LVU11
 188:Drivers/STM32G4xx_HAL_Driver/Src/stm32g4xx_hal_gpio.c ****         /* Configure the IO Speed */
 189:Drivers/STM32G4xx_HAL_Driver/Src/stm32g4xx_hal_gpio.c ****         temp = GPIOx->OSPEEDR;
  59              		.loc 1 189 9 view .LVU12
  60              		.loc 1 189 14 is_stmt 0 view .LVU13
  61 0008 8568     		ldr	r5, [r0, #8]
  62              	.LVL3:
 190:Drivers/STM32G4xx_HAL_Driver/Src/stm32g4xx_hal_gpio.c ****         temp &= ~(GPIO_OSPEEDR_OSPEED0 << (position * 2U));
  63              		.loc 1 190 9 is_stmt 1 view .LVU14
  64              		.loc 1 190 53 is_stmt 0 view .LVU15
  65 000a 5E00     		lsls	r6, r3, #1
  66              		.loc 1 190 40 view .LVU16
  67 000c 0324     		movs	r4, #3
  68 000e B440     		lsls	r4, r4, r6
  69              		.loc 1 190 14 view .LVU17
  70 0010 25EA0405 		bic	r5, r5, r4
  71              	.LVL4:
 191:Drivers/STM32G4xx_HAL_Driver/Src/stm32g4xx_hal_gpio.c ****         temp |= (GPIO_Init->Speed << (position * 2U));
  72              		.loc 1 191 9 is_stmt 1 view .LVU18
  73              		.loc 1 191 27 is_stmt 0 view .LVU19
  74 0014 CC68     		ldr	r4, [r1, #12]
  75              		.loc 1 191 35 view .LVU20
  76 0016 B440     		lsls	r4, r4, r6
  77              		.loc 1 191 14 view .LVU21
  78 0018 2C43     		orrs	r4, r4, r5
  79              	.LVL5:
 192:Drivers/STM32G4xx_HAL_Driver/Src/stm32g4xx_hal_gpio.c ****         GPIOx->OSPEEDR = temp;
  80              		.loc 1 192 9 is_stmt 1 view .LVU22
  81              		.loc 1 192 24 is_stmt 0 view .LVU23
  82 001a 8460     		str	r4, [r0, #8]
 193:Drivers/STM32G4xx_HAL_Driver/Src/stm32g4xx_hal_gpio.c **** 
 194:Drivers/STM32G4xx_HAL_Driver/Src/stm32g4xx_hal_gpio.c ****         /* Configure the IO Output Type */
 195:Drivers/STM32G4xx_HAL_Driver/Src/stm32g4xx_hal_gpio.c ****         temp = GPIOx->OTYPER;
  83              		.loc 1 195 9 is_stmt 1 view .LVU24
  84              		.loc 1 195 14 is_stmt 0 view .LVU25
  85 001c 4568     		ldr	r5, [r0, #4]
  86              	.LVL6:
 196:Drivers/STM32G4xx_HAL_Driver/Src/stm32g4xx_hal_gpio.c ****         temp &= ~(GPIO_OTYPER_OT0 << position) ;
  87              		.loc 1 196 9 is_stmt 1 view .LVU26
  88              		.loc 1 196 14 is_stmt 0 view .LVU27
  89 001e 25EA0C05 		bic	r5, r5, ip
ARM GAS  /tmp/ccK4dYi5.s 			page 6


  90              	.LVL7:
 197:Drivers/STM32G4xx_HAL_Driver/Src/stm32g4xx_hal_gpio.c ****         temp |= (((GPIO_Init->Mode & OUTPUT_TYPE) >> OUTPUT_TYPE_Pos) << position);
  91              		.loc 1 197 9 is_stmt 1 view .LVU28
  92              		.loc 1 197 29 is_stmt 0 view .LVU29
  93 0022 4C68     		ldr	r4, [r1, #4]
  94              		.loc 1 197 51 view .LVU30
  95 0024 C4F30014 		ubfx	r4, r4, #4, #1
  96              		.loc 1 197 71 view .LVU31
  97 0028 9C40     		lsls	r4, r4, r3
  98              		.loc 1 197 14 view .LVU32
  99 002a 2C43     		orrs	r4, r4, r5
 100              	.LVL8:
 198:Drivers/STM32G4xx_HAL_Driver/Src/stm32g4xx_hal_gpio.c ****         GPIOx->OTYPER = temp;
 101              		.loc 1 198 9 is_stmt 1 view .LVU33
 102              		.loc 1 198 23 is_stmt 0 view .LVU34
 103 002c 4460     		str	r4, [r0, #4]
 104 002e 63E0     		b	.L4
 105              	.LVL9:
 106              	.L23:
 199:Drivers/STM32G4xx_HAL_Driver/Src/stm32g4xx_hal_gpio.c ****       }
 200:Drivers/STM32G4xx_HAL_Driver/Src/stm32g4xx_hal_gpio.c **** 
 201:Drivers/STM32G4xx_HAL_Driver/Src/stm32g4xx_hal_gpio.c ****       if (((GPIO_Init->Mode & GPIO_MODE) != MODE_ANALOG) ||
 202:Drivers/STM32G4xx_HAL_Driver/Src/stm32g4xx_hal_gpio.c ****           (((GPIO_Init->Mode & GPIO_MODE) == MODE_ANALOG) && (GPIO_Init->Pull != GPIO_PULLUP)))
 107              		.loc 1 202 72 view .LVU35
 108 0030 8C68     		ldr	r4, [r1, #8]
 201:Drivers/STM32G4xx_HAL_Driver/Src/stm32g4xx_hal_gpio.c ****           (((GPIO_Init->Mode & GPIO_MODE) == MODE_ANALOG) && (GPIO_Init->Pull != GPIO_PULLUP)))
 109              		.loc 1 201 58 discriminator 1 view .LVU36
 110 0032 012C     		cmp	r4, #1
 111 0034 65D1     		bne	.L5
 112 0036 73E0     		b	.L6
 113              	.L24:
 203:Drivers/STM32G4xx_HAL_Driver/Src/stm32g4xx_hal_gpio.c ****       {
 204:Drivers/STM32G4xx_HAL_Driver/Src/stm32g4xx_hal_gpio.c ****         /* Check the Pull parameter */
 205:Drivers/STM32G4xx_HAL_Driver/Src/stm32g4xx_hal_gpio.c ****         assert_param(IS_GPIO_PULL(GPIO_Init->Pull));
 206:Drivers/STM32G4xx_HAL_Driver/Src/stm32g4xx_hal_gpio.c **** 
 207:Drivers/STM32G4xx_HAL_Driver/Src/stm32g4xx_hal_gpio.c ****         /* Activate the Pull-up or Pull down resistor for the current IO */
 208:Drivers/STM32G4xx_HAL_Driver/Src/stm32g4xx_hal_gpio.c ****         temp = GPIOx->PUPDR;
 209:Drivers/STM32G4xx_HAL_Driver/Src/stm32g4xx_hal_gpio.c ****         temp &= ~(GPIO_PUPDR_PUPD0 << (position * 2U));
 210:Drivers/STM32G4xx_HAL_Driver/Src/stm32g4xx_hal_gpio.c ****         temp |= ((GPIO_Init->Pull) << (position * 2U));
 211:Drivers/STM32G4xx_HAL_Driver/Src/stm32g4xx_hal_gpio.c ****         GPIOx->PUPDR = temp;
 212:Drivers/STM32G4xx_HAL_Driver/Src/stm32g4xx_hal_gpio.c ****       }
 213:Drivers/STM32G4xx_HAL_Driver/Src/stm32g4xx_hal_gpio.c **** 
 214:Drivers/STM32G4xx_HAL_Driver/Src/stm32g4xx_hal_gpio.c ****       /* In case of Alternate function mode selection */
 215:Drivers/STM32G4xx_HAL_Driver/Src/stm32g4xx_hal_gpio.c ****       if ((GPIO_Init->Mode & GPIO_MODE) == MODE_AF)
 216:Drivers/STM32G4xx_HAL_Driver/Src/stm32g4xx_hal_gpio.c ****       {
 217:Drivers/STM32G4xx_HAL_Driver/Src/stm32g4xx_hal_gpio.c ****         /* Check the Alternate function parameters */
 218:Drivers/STM32G4xx_HAL_Driver/Src/stm32g4xx_hal_gpio.c ****         assert_param(IS_GPIO_AF_INSTANCE(GPIOx));
 114              		.loc 1 218 9 is_stmt 1 view .LVU37
 219:Drivers/STM32G4xx_HAL_Driver/Src/stm32g4xx_hal_gpio.c ****         assert_param(IS_GPIO_AF(GPIO_Init->Alternate));
 115              		.loc 1 219 9 view .LVU38
 220:Drivers/STM32G4xx_HAL_Driver/Src/stm32g4xx_hal_gpio.c **** 
 221:Drivers/STM32G4xx_HAL_Driver/Src/stm32g4xx_hal_gpio.c ****         /* Configure Alternate function mapped with the current IO */
 222:Drivers/STM32G4xx_HAL_Driver/Src/stm32g4xx_hal_gpio.c ****         temp = GPIOx->AFR[position >> 3U];
 116              		.loc 1 222 9 view .LVU39
 117              		.loc 1 222 36 is_stmt 0 view .LVU40
 118 0038 DD08     		lsrs	r5, r3, #3
 119              		.loc 1 222 14 view .LVU41
ARM GAS  /tmp/ccK4dYi5.s 			page 7


 120 003a 0835     		adds	r5, r5, #8
 121 003c 50F82540 		ldr	r4, [r0, r5, lsl #2]
 122              	.LVL10:
 223:Drivers/STM32G4xx_HAL_Driver/Src/stm32g4xx_hal_gpio.c ****         temp &= ~(0xFU << ((position & 0x07U) * 4U));
 123              		.loc 1 223 9 is_stmt 1 view .LVU42
 124              		.loc 1 223 38 is_stmt 0 view .LVU43
 125 0040 03F0070C 		and	ip, r3, #7
 126              		.loc 1 223 47 view .LVU44
 127 0044 4FEA8C0C 		lsl	ip, ip, #2
 128              		.loc 1 223 24 view .LVU45
 129 0048 4FF00F0E 		mov	lr, #15
 130 004c 0EFA0CFE 		lsl	lr, lr, ip
 131              		.loc 1 223 14 view .LVU46
 132 0050 24EA0E0E 		bic	lr, r4, lr
 133              	.LVL11:
 224:Drivers/STM32G4xx_HAL_Driver/Src/stm32g4xx_hal_gpio.c ****         temp |= ((GPIO_Init->Alternate) << ((position & 0x07U) * 4U));
 134              		.loc 1 224 9 is_stmt 1 view .LVU47
 135              		.loc 1 224 28 is_stmt 0 view .LVU48
 136 0054 0C69     		ldr	r4, [r1, #16]
 137              		.loc 1 224 41 view .LVU49
 138 0056 04FA0CF4 		lsl	r4, r4, ip
 139              		.loc 1 224 14 view .LVU50
 140 005a 44EA0E04 		orr	r4, r4, lr
 141              	.LVL12:
 225:Drivers/STM32G4xx_HAL_Driver/Src/stm32g4xx_hal_gpio.c ****         GPIOx->AFR[position >> 3U] = temp;
 142              		.loc 1 225 9 is_stmt 1 view .LVU51
 143              		.loc 1 225 36 is_stmt 0 view .LVU52
 144 005e 40F82540 		str	r4, [r0, r5, lsl #2]
 145 0062 62E0     		b	.L7
 146              	.LVL13:
 147              	.L25:
 226:Drivers/STM32G4xx_HAL_Driver/Src/stm32g4xx_hal_gpio.c ****       }
 227:Drivers/STM32G4xx_HAL_Driver/Src/stm32g4xx_hal_gpio.c **** 
 228:Drivers/STM32G4xx_HAL_Driver/Src/stm32g4xx_hal_gpio.c ****       /* Configure IO Direction mode (Input, Output, Alternate or Analog) */
 229:Drivers/STM32G4xx_HAL_Driver/Src/stm32g4xx_hal_gpio.c ****       temp = GPIOx->MODER;
 230:Drivers/STM32G4xx_HAL_Driver/Src/stm32g4xx_hal_gpio.c ****       temp &= ~(GPIO_MODER_MODE0 << (position * 2U));
 231:Drivers/STM32G4xx_HAL_Driver/Src/stm32g4xx_hal_gpio.c ****       temp |= ((GPIO_Init->Mode & GPIO_MODE) << (position * 2U));
 232:Drivers/STM32G4xx_HAL_Driver/Src/stm32g4xx_hal_gpio.c ****       GPIOx->MODER = temp;
 233:Drivers/STM32G4xx_HAL_Driver/Src/stm32g4xx_hal_gpio.c **** 
 234:Drivers/STM32G4xx_HAL_Driver/Src/stm32g4xx_hal_gpio.c ****       /*--------------------- EXTI Mode Configuration ------------------------*/
 235:Drivers/STM32G4xx_HAL_Driver/Src/stm32g4xx_hal_gpio.c ****       /* Configure the External Interrupt or event for the current IO */
 236:Drivers/STM32G4xx_HAL_Driver/Src/stm32g4xx_hal_gpio.c ****       if ((GPIO_Init->Mode & EXTI_MODE) != 0x00u)
 237:Drivers/STM32G4xx_HAL_Driver/Src/stm32g4xx_hal_gpio.c ****       {
 238:Drivers/STM32G4xx_HAL_Driver/Src/stm32g4xx_hal_gpio.c ****         /* Enable SYSCFG Clock */
 239:Drivers/STM32G4xx_HAL_Driver/Src/stm32g4xx_hal_gpio.c ****         __HAL_RCC_SYSCFG_CLK_ENABLE();
 240:Drivers/STM32G4xx_HAL_Driver/Src/stm32g4xx_hal_gpio.c **** 
 241:Drivers/STM32G4xx_HAL_Driver/Src/stm32g4xx_hal_gpio.c ****         temp = SYSCFG->EXTICR[position >> 2U];
 242:Drivers/STM32G4xx_HAL_Driver/Src/stm32g4xx_hal_gpio.c ****         temp &= ~(0x0FUL << (4U * (position & 0x03U)));
 243:Drivers/STM32G4xx_HAL_Driver/Src/stm32g4xx_hal_gpio.c ****         temp |= (GPIO_GET_INDEX(GPIOx) << (4U * (position & 0x03U)));
 148              		.loc 1 243 18 discriminator 11 view .LVU53
 149 0064 0524     		movs	r4, #5
 150 0066 00E0     		b	.L8
 151              	.L14:
 152              		.loc 1 243 18 discriminator 2 view .LVU54
 153 0068 0024     		movs	r4, #0
 154              	.L8:
 155              		.loc 1 243 40 discriminator 24 view .LVU55
ARM GAS  /tmp/ccK4dYi5.s 			page 8


 156 006a 04FA0EF4 		lsl	r4, r4, lr
 157              		.loc 1 243 14 discriminator 24 view .LVU56
 158 006e 2C43     		orrs	r4, r4, r5
 159              	.LVL14:
 244:Drivers/STM32G4xx_HAL_Driver/Src/stm32g4xx_hal_gpio.c ****         SYSCFG->EXTICR[position >> 2U] = temp;
 160              		.loc 1 244 9 is_stmt 1 view .LVU57
 161              		.loc 1 244 40 is_stmt 0 view .LVU58
 162 0070 0CF1020C 		add	ip, ip, #2
 163 0074 564D     		ldr	r5, .L26
 164 0076 45F82C40 		str	r4, [r5, ip, lsl #2]
 245:Drivers/STM32G4xx_HAL_Driver/Src/stm32g4xx_hal_gpio.c **** 
 246:Drivers/STM32G4xx_HAL_Driver/Src/stm32g4xx_hal_gpio.c ****         /* Clear Rising Falling edge configuration */
 247:Drivers/STM32G4xx_HAL_Driver/Src/stm32g4xx_hal_gpio.c ****         temp = EXTI->RTSR1;
 165              		.loc 1 247 9 is_stmt 1 view .LVU59
 166              		.loc 1 247 14 is_stmt 0 view .LVU60
 167 007a 564C     		ldr	r4, .L26+4
 168              	.LVL15:
 169              		.loc 1 247 14 view .LVU61
 170 007c A568     		ldr	r5, [r4, #8]
 171              	.LVL16:
 248:Drivers/STM32G4xx_HAL_Driver/Src/stm32g4xx_hal_gpio.c ****         temp &= ~(iocurrent);
 172              		.loc 1 248 9 is_stmt 1 view .LVU62
 173              		.loc 1 248 17 is_stmt 0 view .LVU63
 174 007e D443     		mvns	r4, r2
 175              		.loc 1 248 14 view .LVU64
 176 0080 25EA0206 		bic	r6, r5, r2
 177              	.LVL17:
 249:Drivers/STM32G4xx_HAL_Driver/Src/stm32g4xx_hal_gpio.c ****         if ((GPIO_Init->Mode & TRIGGER_RISING) != 0x00U)
 178              		.loc 1 249 9 is_stmt 1 view .LVU65
 179              		.loc 1 249 12 is_stmt 0 view .LVU66
 180 0084 4F68     		ldr	r7, [r1, #4]
 181 0086 17F4801F 		tst	r7, #1048576
 182 008a 01D0     		beq	.L9
 250:Drivers/STM32G4xx_HAL_Driver/Src/stm32g4xx_hal_gpio.c ****         {
 251:Drivers/STM32G4xx_HAL_Driver/Src/stm32g4xx_hal_gpio.c ****           temp |= iocurrent;
 183              		.loc 1 251 11 is_stmt 1 view .LVU67
 184              		.loc 1 251 16 is_stmt 0 view .LVU68
 185 008c 42EA0506 		orr	r6, r2, r5
 186              	.LVL18:
 187              	.L9:
 252:Drivers/STM32G4xx_HAL_Driver/Src/stm32g4xx_hal_gpio.c ****         }
 253:Drivers/STM32G4xx_HAL_Driver/Src/stm32g4xx_hal_gpio.c ****         EXTI->RTSR1 = temp;
 188              		.loc 1 253 9 is_stmt 1 view .LVU69
 189              		.loc 1 253 21 is_stmt 0 view .LVU70
 190 0090 504D     		ldr	r5, .L26+4
 191 0092 AE60     		str	r6, [r5, #8]
 254:Drivers/STM32G4xx_HAL_Driver/Src/stm32g4xx_hal_gpio.c **** 
 255:Drivers/STM32G4xx_HAL_Driver/Src/stm32g4xx_hal_gpio.c ****         temp = EXTI->FTSR1;
 192              		.loc 1 255 9 is_stmt 1 view .LVU71
 193              		.loc 1 255 14 is_stmt 0 view .LVU72
 194 0094 ED68     		ldr	r5, [r5, #12]
 195              	.LVL19:
 256:Drivers/STM32G4xx_HAL_Driver/Src/stm32g4xx_hal_gpio.c ****         temp &= ~(iocurrent);
 196              		.loc 1 256 9 is_stmt 1 view .LVU73
 197              		.loc 1 256 14 is_stmt 0 view .LVU74
 198 0096 04EA0506 		and	r6, r4, r5
 199              	.LVL20:
ARM GAS  /tmp/ccK4dYi5.s 			page 9


 257:Drivers/STM32G4xx_HAL_Driver/Src/stm32g4xx_hal_gpio.c ****         if ((GPIO_Init->Mode & TRIGGER_FALLING) != 0x00U)
 200              		.loc 1 257 9 is_stmt 1 view .LVU75
 201              		.loc 1 257 12 is_stmt 0 view .LVU76
 202 009a 4F68     		ldr	r7, [r1, #4]
 203 009c 17F4001F 		tst	r7, #2097152
 204 00a0 01D0     		beq	.L10
 258:Drivers/STM32G4xx_HAL_Driver/Src/stm32g4xx_hal_gpio.c ****         {
 259:Drivers/STM32G4xx_HAL_Driver/Src/stm32g4xx_hal_gpio.c ****           temp |= iocurrent;
 205              		.loc 1 259 11 is_stmt 1 view .LVU77
 206              		.loc 1 259 16 is_stmt 0 view .LVU78
 207 00a2 42EA0506 		orr	r6, r2, r5
 208              	.LVL21:
 209              	.L10:
 260:Drivers/STM32G4xx_HAL_Driver/Src/stm32g4xx_hal_gpio.c ****         }
 261:Drivers/STM32G4xx_HAL_Driver/Src/stm32g4xx_hal_gpio.c ****         EXTI->FTSR1 = temp;
 210              		.loc 1 261 9 is_stmt 1 view .LVU79
 211              		.loc 1 261 21 is_stmt 0 view .LVU80
 212 00a6 4B4D     		ldr	r5, .L26+4
 213 00a8 EE60     		str	r6, [r5, #12]
 262:Drivers/STM32G4xx_HAL_Driver/Src/stm32g4xx_hal_gpio.c **** 
 263:Drivers/STM32G4xx_HAL_Driver/Src/stm32g4xx_hal_gpio.c ****         temp = EXTI->EMR1;
 214              		.loc 1 263 9 is_stmt 1 view .LVU81
 215              		.loc 1 263 14 is_stmt 0 view .LVU82
 216 00aa 6D68     		ldr	r5, [r5, #4]
 217              	.LVL22:
 264:Drivers/STM32G4xx_HAL_Driver/Src/stm32g4xx_hal_gpio.c ****         temp &= ~(iocurrent);
 218              		.loc 1 264 9 is_stmt 1 view .LVU83
 219              		.loc 1 264 14 is_stmt 0 view .LVU84
 220 00ac 04EA0506 		and	r6, r4, r5
 221              	.LVL23:
 265:Drivers/STM32G4xx_HAL_Driver/Src/stm32g4xx_hal_gpio.c ****         if ((GPIO_Init->Mode & EXTI_EVT) != 0x00U)
 222              		.loc 1 265 9 is_stmt 1 view .LVU85
 223              		.loc 1 265 12 is_stmt 0 view .LVU86
 224 00b0 4F68     		ldr	r7, [r1, #4]
 225 00b2 17F4003F 		tst	r7, #131072
 226 00b6 01D0     		beq	.L11
 266:Drivers/STM32G4xx_HAL_Driver/Src/stm32g4xx_hal_gpio.c ****         {
 267:Drivers/STM32G4xx_HAL_Driver/Src/stm32g4xx_hal_gpio.c ****           temp |= iocurrent;
 227              		.loc 1 267 11 is_stmt 1 view .LVU87
 228              		.loc 1 267 16 is_stmt 0 view .LVU88
 229 00b8 42EA0506 		orr	r6, r2, r5
 230              	.LVL24:
 231              	.L11:
 268:Drivers/STM32G4xx_HAL_Driver/Src/stm32g4xx_hal_gpio.c ****         }
 269:Drivers/STM32G4xx_HAL_Driver/Src/stm32g4xx_hal_gpio.c ****         EXTI->EMR1 = temp;
 232              		.loc 1 269 9 is_stmt 1 view .LVU89
 233              		.loc 1 269 20 is_stmt 0 view .LVU90
 234 00bc 454D     		ldr	r5, .L26+4
 235 00be 6E60     		str	r6, [r5, #4]
 270:Drivers/STM32G4xx_HAL_Driver/Src/stm32g4xx_hal_gpio.c **** 
 271:Drivers/STM32G4xx_HAL_Driver/Src/stm32g4xx_hal_gpio.c ****         /* Clear EXTI line configuration */
 272:Drivers/STM32G4xx_HAL_Driver/Src/stm32g4xx_hal_gpio.c ****         temp = EXTI->IMR1;
 236              		.loc 1 272 9 is_stmt 1 view .LVU91
 237              		.loc 1 272 14 is_stmt 0 view .LVU92
 238 00c0 2D68     		ldr	r5, [r5]
 239              	.LVL25:
 273:Drivers/STM32G4xx_HAL_Driver/Src/stm32g4xx_hal_gpio.c ****         temp &= ~(iocurrent);
ARM GAS  /tmp/ccK4dYi5.s 			page 10


 240              		.loc 1 273 9 is_stmt 1 view .LVU93
 241              		.loc 1 273 14 is_stmt 0 view .LVU94
 242 00c2 2C40     		ands	r4, r4, r5
 243              	.LVL26:
 274:Drivers/STM32G4xx_HAL_Driver/Src/stm32g4xx_hal_gpio.c ****         if ((GPIO_Init->Mode & EXTI_IT) != 0x00U)
 244              		.loc 1 274 9 is_stmt 1 view .LVU95
 245              		.loc 1 274 23 is_stmt 0 view .LVU96
 246 00c4 4E68     		ldr	r6, [r1, #4]
 247              		.loc 1 274 12 view .LVU97
 248 00c6 16F4803F 		tst	r6, #65536
 249 00ca 01D0     		beq	.L12
 275:Drivers/STM32G4xx_HAL_Driver/Src/stm32g4xx_hal_gpio.c ****         {
 276:Drivers/STM32G4xx_HAL_Driver/Src/stm32g4xx_hal_gpio.c ****           temp |= iocurrent;
 250              		.loc 1 276 11 is_stmt 1 view .LVU98
 251              		.loc 1 276 16 is_stmt 0 view .LVU99
 252 00cc 42EA0504 		orr	r4, r2, r5
 253              	.LVL27:
 254              	.L12:
 277:Drivers/STM32G4xx_HAL_Driver/Src/stm32g4xx_hal_gpio.c ****         }
 278:Drivers/STM32G4xx_HAL_Driver/Src/stm32g4xx_hal_gpio.c ****         EXTI->IMR1 = temp;
 255              		.loc 1 278 9 is_stmt 1 view .LVU100
 256              		.loc 1 278 20 is_stmt 0 view .LVU101
 257 00d0 404A     		ldr	r2, .L26+4
 258              	.LVL28:
 259              		.loc 1 278 20 view .LVU102
 260 00d2 1460     		str	r4, [r2]
 261              	.LVL29:
 262              	.L3:
 279:Drivers/STM32G4xx_HAL_Driver/Src/stm32g4xx_hal_gpio.c ****       }
 280:Drivers/STM32G4xx_HAL_Driver/Src/stm32g4xx_hal_gpio.c ****     }
 281:Drivers/STM32G4xx_HAL_Driver/Src/stm32g4xx_hal_gpio.c **** 
 282:Drivers/STM32G4xx_HAL_Driver/Src/stm32g4xx_hal_gpio.c ****     position++;
 263              		.loc 1 282 5 is_stmt 1 view .LVU103
 264              		.loc 1 282 13 is_stmt 0 view .LVU104
 265 00d4 0133     		adds	r3, r3, #1
 266              	.LVL30:
 267              	.L2:
 174:Drivers/STM32G4xx_HAL_Driver/Src/stm32g4xx_hal_gpio.c ****   {
 268              		.loc 1 174 41 is_stmt 1 view .LVU105
 174:Drivers/STM32G4xx_HAL_Driver/Src/stm32g4xx_hal_gpio.c ****   {
 269              		.loc 1 174 21 is_stmt 0 view .LVU106
 270 00d6 0A68     		ldr	r2, [r1]
 174:Drivers/STM32G4xx_HAL_Driver/Src/stm32g4xx_hal_gpio.c ****   {
 271              		.loc 1 174 41 view .LVU107
 272 00d8 32FA03F4 		lsrs	r4, r2, r3
 273 00dc 76D0     		beq	.L21
 177:Drivers/STM32G4xx_HAL_Driver/Src/stm32g4xx_hal_gpio.c **** 
 274              		.loc 1 177 5 is_stmt 1 view .LVU108
 177:Drivers/STM32G4xx_HAL_Driver/Src/stm32g4xx_hal_gpio.c **** 
 275              		.loc 1 177 41 is_stmt 0 view .LVU109
 276 00de 4FF0010C 		mov	ip, #1
 277 00e2 0CFA03FC 		lsl	ip, ip, r3
 278              	.LVL31:
 179:Drivers/STM32G4xx_HAL_Driver/Src/stm32g4xx_hal_gpio.c ****     {
 279              		.loc 1 179 5 is_stmt 1 view .LVU110
 179:Drivers/STM32G4xx_HAL_Driver/Src/stm32g4xx_hal_gpio.c ****     {
 280              		.loc 1 179 8 is_stmt 0 view .LVU111
ARM GAS  /tmp/ccK4dYi5.s 			page 11


 281 00e6 1CEA0202 		ands	r2, ip, r2
 282              	.LVL32:
 179:Drivers/STM32G4xx_HAL_Driver/Src/stm32g4xx_hal_gpio.c ****     {
 283              		.loc 1 179 8 view .LVU112
 284 00ea F3D0     		beq	.L3
 183:Drivers/STM32G4xx_HAL_Driver/Src/stm32g4xx_hal_gpio.c ****          ((GPIO_Init->Mode & GPIO_MODE) == MODE_AF))
 285              		.loc 1 183 7 is_stmt 1 view .LVU113
 183:Drivers/STM32G4xx_HAL_Driver/Src/stm32g4xx_hal_gpio.c ****          ((GPIO_Init->Mode & GPIO_MODE) == MODE_AF))
 286              		.loc 1 183 21 is_stmt 0 view .LVU114
 287 00ec 4C68     		ldr	r4, [r1, #4]
 183:Drivers/STM32G4xx_HAL_Driver/Src/stm32g4xx_hal_gpio.c ****          ((GPIO_Init->Mode & GPIO_MODE) == MODE_AF))
 288              		.loc 1 183 28 view .LVU115
 289 00ee 04F00304 		and	r4, r4, #3
 183:Drivers/STM32G4xx_HAL_Driver/Src/stm32g4xx_hal_gpio.c ****          ((GPIO_Init->Mode & GPIO_MODE) == MODE_AF))
 290              		.loc 1 183 57 view .LVU116
 291 00f2 013C     		subs	r4, r4, #1
 183:Drivers/STM32G4xx_HAL_Driver/Src/stm32g4xx_hal_gpio.c ****          ((GPIO_Init->Mode & GPIO_MODE) == MODE_AF))
 292              		.loc 1 183 9 view .LVU117
 293 00f4 012C     		cmp	r4, #1
 294 00f6 87D9     		bls	.L22
 295              	.L4:
 201:Drivers/STM32G4xx_HAL_Driver/Src/stm32g4xx_hal_gpio.c ****           (((GPIO_Init->Mode & GPIO_MODE) == MODE_ANALOG) && (GPIO_Init->Pull != GPIO_PULLUP)))
 296              		.loc 1 201 7 is_stmt 1 view .LVU118
 201:Drivers/STM32G4xx_HAL_Driver/Src/stm32g4xx_hal_gpio.c ****           (((GPIO_Init->Mode & GPIO_MODE) == MODE_ANALOG) && (GPIO_Init->Pull != GPIO_PULLUP)))
 297              		.loc 1 201 22 is_stmt 0 view .LVU119
 298 00f8 4C68     		ldr	r4, [r1, #4]
 201:Drivers/STM32G4xx_HAL_Driver/Src/stm32g4xx_hal_gpio.c ****           (((GPIO_Init->Mode & GPIO_MODE) == MODE_ANALOG) && (GPIO_Init->Pull != GPIO_PULLUP)))
 299              		.loc 1 201 29 view .LVU120
 300 00fa 04F00304 		and	r4, r4, #3
 201:Drivers/STM32G4xx_HAL_Driver/Src/stm32g4xx_hal_gpio.c ****           (((GPIO_Init->Mode & GPIO_MODE) == MODE_ANALOG) && (GPIO_Init->Pull != GPIO_PULLUP)))
 301              		.loc 1 201 10 view .LVU121
 302 00fe 032C     		cmp	r4, #3
 303 0100 96D0     		beq	.L23
 304              	.L5:
 205:Drivers/STM32G4xx_HAL_Driver/Src/stm32g4xx_hal_gpio.c **** 
 305              		.loc 1 205 9 is_stmt 1 view .LVU122
 208:Drivers/STM32G4xx_HAL_Driver/Src/stm32g4xx_hal_gpio.c ****         temp &= ~(GPIO_PUPDR_PUPD0 << (position * 2U));
 306              		.loc 1 208 9 view .LVU123
 208:Drivers/STM32G4xx_HAL_Driver/Src/stm32g4xx_hal_gpio.c ****         temp &= ~(GPIO_PUPDR_PUPD0 << (position * 2U));
 307              		.loc 1 208 14 is_stmt 0 view .LVU124
 308 0102 C468     		ldr	r4, [r0, #12]
 309              	.LVL33:
 209:Drivers/STM32G4xx_HAL_Driver/Src/stm32g4xx_hal_gpio.c ****         temp |= ((GPIO_Init->Pull) << (position * 2U));
 310              		.loc 1 209 9 is_stmt 1 view .LVU125
 209:Drivers/STM32G4xx_HAL_Driver/Src/stm32g4xx_hal_gpio.c ****         temp |= ((GPIO_Init->Pull) << (position * 2U));
 311              		.loc 1 209 49 is_stmt 0 view .LVU126
 312 0104 4FEA430E 		lsl	lr, r3, #1
 209:Drivers/STM32G4xx_HAL_Driver/Src/stm32g4xx_hal_gpio.c ****         temp |= ((GPIO_Init->Pull) << (position * 2U));
 313              		.loc 1 209 36 view .LVU127
 314 0108 4FF0030C 		mov	ip, #3
 315 010c 0CFA0EFC 		lsl	ip, ip, lr
 209:Drivers/STM32G4xx_HAL_Driver/Src/stm32g4xx_hal_gpio.c ****         temp |= ((GPIO_Init->Pull) << (position * 2U));
 316              		.loc 1 209 14 view .LVU128
 317 0110 24EA0C0C 		bic	ip, r4, ip
 318              	.LVL34:
 210:Drivers/STM32G4xx_HAL_Driver/Src/stm32g4xx_hal_gpio.c ****         GPIOx->PUPDR = temp;
 319              		.loc 1 210 9 is_stmt 1 view .LVU129
ARM GAS  /tmp/ccK4dYi5.s 			page 12


 210:Drivers/STM32G4xx_HAL_Driver/Src/stm32g4xx_hal_gpio.c ****         GPIOx->PUPDR = temp;
 320              		.loc 1 210 28 is_stmt 0 view .LVU130
 321 0114 8C68     		ldr	r4, [r1, #8]
 210:Drivers/STM32G4xx_HAL_Driver/Src/stm32g4xx_hal_gpio.c ****         GPIOx->PUPDR = temp;
 322              		.loc 1 210 36 view .LVU131
 323 0116 04FA0EF4 		lsl	r4, r4, lr
 210:Drivers/STM32G4xx_HAL_Driver/Src/stm32g4xx_hal_gpio.c ****         GPIOx->PUPDR = temp;
 324              		.loc 1 210 14 view .LVU132
 325 011a 44EA0C04 		orr	r4, r4, ip
 326              	.LVL35:
 211:Drivers/STM32G4xx_HAL_Driver/Src/stm32g4xx_hal_gpio.c ****       }
 327              		.loc 1 211 9 is_stmt 1 view .LVU133
 211:Drivers/STM32G4xx_HAL_Driver/Src/stm32g4xx_hal_gpio.c ****       }
 328              		.loc 1 211 22 is_stmt 0 view .LVU134
 329 011e C460     		str	r4, [r0, #12]
 330              	.LVL36:
 331              	.L6:
 215:Drivers/STM32G4xx_HAL_Driver/Src/stm32g4xx_hal_gpio.c ****       {
 332              		.loc 1 215 7 is_stmt 1 view .LVU135
 215:Drivers/STM32G4xx_HAL_Driver/Src/stm32g4xx_hal_gpio.c ****       {
 333              		.loc 1 215 21 is_stmt 0 view .LVU136
 334 0120 4C68     		ldr	r4, [r1, #4]
 215:Drivers/STM32G4xx_HAL_Driver/Src/stm32g4xx_hal_gpio.c ****       {
 335              		.loc 1 215 28 view .LVU137
 336 0122 04F00304 		and	r4, r4, #3
 215:Drivers/STM32G4xx_HAL_Driver/Src/stm32g4xx_hal_gpio.c ****       {
 337              		.loc 1 215 10 view .LVU138
 338 0126 022C     		cmp	r4, #2
 339 0128 86D0     		beq	.L24
 340              	.L7:
 229:Drivers/STM32G4xx_HAL_Driver/Src/stm32g4xx_hal_gpio.c ****       temp &= ~(GPIO_MODER_MODE0 << (position * 2U));
 341              		.loc 1 229 7 is_stmt 1 view .LVU139
 229:Drivers/STM32G4xx_HAL_Driver/Src/stm32g4xx_hal_gpio.c ****       temp &= ~(GPIO_MODER_MODE0 << (position * 2U));
 342              		.loc 1 229 12 is_stmt 0 view .LVU140
 343 012a 0468     		ldr	r4, [r0]
 344              	.LVL37:
 230:Drivers/STM32G4xx_HAL_Driver/Src/stm32g4xx_hal_gpio.c ****       temp |= ((GPIO_Init->Mode & GPIO_MODE) << (position * 2U));
 345              		.loc 1 230 7 is_stmt 1 view .LVU141
 230:Drivers/STM32G4xx_HAL_Driver/Src/stm32g4xx_hal_gpio.c ****       temp |= ((GPIO_Init->Mode & GPIO_MODE) << (position * 2U));
 346              		.loc 1 230 47 is_stmt 0 view .LVU142
 347 012c 4FEA430E 		lsl	lr, r3, #1
 230:Drivers/STM32G4xx_HAL_Driver/Src/stm32g4xx_hal_gpio.c ****       temp |= ((GPIO_Init->Mode & GPIO_MODE) << (position * 2U));
 348              		.loc 1 230 34 view .LVU143
 349 0130 4FF0030C 		mov	ip, #3
 350 0134 0CFA0EFC 		lsl	ip, ip, lr
 230:Drivers/STM32G4xx_HAL_Driver/Src/stm32g4xx_hal_gpio.c ****       temp |= ((GPIO_Init->Mode & GPIO_MODE) << (position * 2U));
 351              		.loc 1 230 12 view .LVU144
 352 0138 24EA0C0C 		bic	ip, r4, ip
 353              	.LVL38:
 231:Drivers/STM32G4xx_HAL_Driver/Src/stm32g4xx_hal_gpio.c ****       GPIOx->MODER = temp;
 354              		.loc 1 231 7 is_stmt 1 view .LVU145
 231:Drivers/STM32G4xx_HAL_Driver/Src/stm32g4xx_hal_gpio.c ****       GPIOx->MODER = temp;
 355              		.loc 1 231 26 is_stmt 0 view .LVU146
 356 013c 4C68     		ldr	r4, [r1, #4]
 231:Drivers/STM32G4xx_HAL_Driver/Src/stm32g4xx_hal_gpio.c ****       GPIOx->MODER = temp;
 357              		.loc 1 231 33 view .LVU147
 358 013e 04F00304 		and	r4, r4, #3
ARM GAS  /tmp/ccK4dYi5.s 			page 13


 231:Drivers/STM32G4xx_HAL_Driver/Src/stm32g4xx_hal_gpio.c ****       GPIOx->MODER = temp;
 359              		.loc 1 231 46 view .LVU148
 360 0142 04FA0EF4 		lsl	r4, r4, lr
 231:Drivers/STM32G4xx_HAL_Driver/Src/stm32g4xx_hal_gpio.c ****       GPIOx->MODER = temp;
 361              		.loc 1 231 12 view .LVU149
 362 0146 44EA0C04 		orr	r4, r4, ip
 363              	.LVL39:
 232:Drivers/STM32G4xx_HAL_Driver/Src/stm32g4xx_hal_gpio.c **** 
 364              		.loc 1 232 7 is_stmt 1 view .LVU150
 232:Drivers/STM32G4xx_HAL_Driver/Src/stm32g4xx_hal_gpio.c **** 
 365              		.loc 1 232 20 is_stmt 0 view .LVU151
 366 014a 0460     		str	r4, [r0]
 236:Drivers/STM32G4xx_HAL_Driver/Src/stm32g4xx_hal_gpio.c ****       {
 367              		.loc 1 236 7 is_stmt 1 view .LVU152
 236:Drivers/STM32G4xx_HAL_Driver/Src/stm32g4xx_hal_gpio.c ****       {
 368              		.loc 1 236 21 is_stmt 0 view .LVU153
 369 014c 4C68     		ldr	r4, [r1, #4]
 370              	.LVL40:
 236:Drivers/STM32G4xx_HAL_Driver/Src/stm32g4xx_hal_gpio.c ****       {
 371              		.loc 1 236 10 view .LVU154
 372 014e 14F4403F 		tst	r4, #196608
 373 0152 BFD0     		beq	.L3
 239:Drivers/STM32G4xx_HAL_Driver/Src/stm32g4xx_hal_gpio.c **** 
 374              		.loc 1 239 9 is_stmt 1 view .LVU155
 375              	.LBB2:
 239:Drivers/STM32G4xx_HAL_Driver/Src/stm32g4xx_hal_gpio.c **** 
 376              		.loc 1 239 9 view .LVU156
 239:Drivers/STM32G4xx_HAL_Driver/Src/stm32g4xx_hal_gpio.c **** 
 377              		.loc 1 239 9 view .LVU157
 378 0154 204C     		ldr	r4, .L26+8
 379 0156 256E     		ldr	r5, [r4, #96]
 380 0158 45F00105 		orr	r5, r5, #1
 381 015c 2566     		str	r5, [r4, #96]
 382              	.LVL41:
 239:Drivers/STM32G4xx_HAL_Driver/Src/stm32g4xx_hal_gpio.c **** 
 383              		.loc 1 239 9 view .LVU158
 384 015e 246E     		ldr	r4, [r4, #96]
 385 0160 04F00104 		and	r4, r4, #1
 386 0164 0194     		str	r4, [sp, #4]
 239:Drivers/STM32G4xx_HAL_Driver/Src/stm32g4xx_hal_gpio.c **** 
 387              		.loc 1 239 9 view .LVU159
 388 0166 019C     		ldr	r4, [sp, #4]
 389              	.LBE2:
 239:Drivers/STM32G4xx_HAL_Driver/Src/stm32g4xx_hal_gpio.c **** 
 390              		.loc 1 239 9 view .LVU160
 241:Drivers/STM32G4xx_HAL_Driver/Src/stm32g4xx_hal_gpio.c ****         temp &= ~(0x0FUL << (4U * (position & 0x03U)));
 391              		.loc 1 241 9 view .LVU161
 241:Drivers/STM32G4xx_HAL_Driver/Src/stm32g4xx_hal_gpio.c ****         temp &= ~(0x0FUL << (4U * (position & 0x03U)));
 392              		.loc 1 241 40 is_stmt 0 view .LVU162
 393 0168 4FEA930C 		lsr	ip, r3, #2
 241:Drivers/STM32G4xx_HAL_Driver/Src/stm32g4xx_hal_gpio.c ****         temp &= ~(0x0FUL << (4U * (position & 0x03U)));
 394              		.loc 1 241 14 view .LVU163
 395 016c 0CF10205 		add	r5, ip, #2
 396 0170 174C     		ldr	r4, .L26
 397 0172 54F82550 		ldr	r5, [r4, r5, lsl #2]
 398              	.LVL42:
 242:Drivers/STM32G4xx_HAL_Driver/Src/stm32g4xx_hal_gpio.c ****         temp |= (GPIO_GET_INDEX(GPIOx) << (4U * (position & 0x03U)));
ARM GAS  /tmp/ccK4dYi5.s 			page 14


 399              		.loc 1 242 9 is_stmt 1 view .LVU164
 242:Drivers/STM32G4xx_HAL_Driver/Src/stm32g4xx_hal_gpio.c ****         temp |= (GPIO_GET_INDEX(GPIOx) << (4U * (position & 0x03U)));
 400              		.loc 1 242 45 is_stmt 0 view .LVU165
 401 0176 03F0030E 		and	lr, r3, #3
 242:Drivers/STM32G4xx_HAL_Driver/Src/stm32g4xx_hal_gpio.c ****         temp |= (GPIO_GET_INDEX(GPIOx) << (4U * (position & 0x03U)));
 402              		.loc 1 242 33 view .LVU166
 403 017a 4FEA8E0E 		lsl	lr, lr, #2
 242:Drivers/STM32G4xx_HAL_Driver/Src/stm32g4xx_hal_gpio.c ****         temp |= (GPIO_GET_INDEX(GPIOx) << (4U * (position & 0x03U)));
 404              		.loc 1 242 26 view .LVU167
 405 017e 0F24     		movs	r4, #15
 406 0180 04FA0EF4 		lsl	r4, r4, lr
 242:Drivers/STM32G4xx_HAL_Driver/Src/stm32g4xx_hal_gpio.c ****         temp |= (GPIO_GET_INDEX(GPIOx) << (4U * (position & 0x03U)));
 407              		.loc 1 242 14 view .LVU168
 408 0184 25EA0405 		bic	r5, r5, r4
 409              	.LVL43:
 243:Drivers/STM32G4xx_HAL_Driver/Src/stm32g4xx_hal_gpio.c ****         SYSCFG->EXTICR[position >> 2U] = temp;
 410              		.loc 1 243 9 is_stmt 1 view .LVU169
 243:Drivers/STM32G4xx_HAL_Driver/Src/stm32g4xx_hal_gpio.c ****         SYSCFG->EXTICR[position >> 2U] = temp;
 411              		.loc 1 243 18 is_stmt 0 view .LVU170
 412 0188 B0F1904F 		cmp	r0, #1207959552
 413 018c 3FF46CAF 		beq	.L14
 243:Drivers/STM32G4xx_HAL_Driver/Src/stm32g4xx_hal_gpio.c ****         SYSCFG->EXTICR[position >> 2U] = temp;
 414              		.loc 1 243 18 discriminator 1 view .LVU171
 415 0190 124C     		ldr	r4, .L26+12
 416 0192 A042     		cmp	r0, r4
 417 0194 12D0     		beq	.L15
 243:Drivers/STM32G4xx_HAL_Driver/Src/stm32g4xx_hal_gpio.c ****         SYSCFG->EXTICR[position >> 2U] = temp;
 418              		.loc 1 243 18 discriminator 3 view .LVU172
 419 0196 04F58064 		add	r4, r4, #1024
 420 019a A042     		cmp	r0, r4
 421 019c 10D0     		beq	.L16
 243:Drivers/STM32G4xx_HAL_Driver/Src/stm32g4xx_hal_gpio.c ****         SYSCFG->EXTICR[position >> 2U] = temp;
 422              		.loc 1 243 18 discriminator 5 view .LVU173
 423 019e 04F58064 		add	r4, r4, #1024
 424 01a2 A042     		cmp	r0, r4
 425 01a4 0ED0     		beq	.L17
 243:Drivers/STM32G4xx_HAL_Driver/Src/stm32g4xx_hal_gpio.c ****         SYSCFG->EXTICR[position >> 2U] = temp;
 426              		.loc 1 243 18 discriminator 7 view .LVU174
 427 01a6 04F58064 		add	r4, r4, #1024
 428 01aa A042     		cmp	r0, r4
 429 01ac 0CD0     		beq	.L18
 243:Drivers/STM32G4xx_HAL_Driver/Src/stm32g4xx_hal_gpio.c ****         SYSCFG->EXTICR[position >> 2U] = temp;
 430              		.loc 1 243 18 discriminator 9 view .LVU175
 431 01ae 04F58064 		add	r4, r4, #1024
 432 01b2 A042     		cmp	r0, r4
 433 01b4 3FF456AF 		beq	.L25
 243:Drivers/STM32G4xx_HAL_Driver/Src/stm32g4xx_hal_gpio.c ****         SYSCFG->EXTICR[position >> 2U] = temp;
 434              		.loc 1 243 18 discriminator 12 view .LVU176
 435 01b8 0624     		movs	r4, #6
 436 01ba 56E7     		b	.L8
 437              	.L15:
 243:Drivers/STM32G4xx_HAL_Driver/Src/stm32g4xx_hal_gpio.c ****         SYSCFG->EXTICR[position >> 2U] = temp;
 438              		.loc 1 243 18 discriminator 4 view .LVU177
 439 01bc 0124     		movs	r4, #1
 440 01be 54E7     		b	.L8
 441              	.L16:
 243:Drivers/STM32G4xx_HAL_Driver/Src/stm32g4xx_hal_gpio.c ****         SYSCFG->EXTICR[position >> 2U] = temp;
ARM GAS  /tmp/ccK4dYi5.s 			page 15


 442              		.loc 1 243 18 discriminator 6 view .LVU178
 443 01c0 0224     		movs	r4, #2
 444 01c2 52E7     		b	.L8
 445              	.L17:
 243:Drivers/STM32G4xx_HAL_Driver/Src/stm32g4xx_hal_gpio.c ****         SYSCFG->EXTICR[position >> 2U] = temp;
 446              		.loc 1 243 18 discriminator 8 view .LVU179
 447 01c4 0324     		movs	r4, #3
 448 01c6 50E7     		b	.L8
 449              	.L18:
 243:Drivers/STM32G4xx_HAL_Driver/Src/stm32g4xx_hal_gpio.c ****         SYSCFG->EXTICR[position >> 2U] = temp;
 450              		.loc 1 243 18 discriminator 10 view .LVU180
 451 01c8 0424     		movs	r4, #4
 452 01ca 4EE7     		b	.L8
 453              	.LVL44:
 454              	.L21:
 283:Drivers/STM32G4xx_HAL_Driver/Src/stm32g4xx_hal_gpio.c ****   }
 284:Drivers/STM32G4xx_HAL_Driver/Src/stm32g4xx_hal_gpio.c **** }
 455              		.loc 1 284 1 view .LVU181
 456 01cc 03B0     		add	sp, sp, #12
 457              		.cfi_def_cfa_offset 20
 458              		@ sp needed
 459 01ce F0BD     		pop	{r4, r5, r6, r7, pc}
 460              	.L27:
 461              		.align	2
 462              	.L26:
 463 01d0 00000140 		.word	1073807360
 464 01d4 00040140 		.word	1073808384
 465 01d8 00100240 		.word	1073876992
 466 01dc 00040048 		.word	1207960576
 467              		.cfi_endproc
 468              	.LFE329:
 470              		.section	.text.HAL_GPIO_DeInit,"ax",%progbits
 471              		.align	1
 472              		.global	HAL_GPIO_DeInit
 473              		.syntax unified
 474              		.thumb
 475              		.thumb_func
 477              	HAL_GPIO_DeInit:
 478              	.LVL45:
 479              	.LFB330:
 285:Drivers/STM32G4xx_HAL_Driver/Src/stm32g4xx_hal_gpio.c **** 
 286:Drivers/STM32G4xx_HAL_Driver/Src/stm32g4xx_hal_gpio.c **** /**
 287:Drivers/STM32G4xx_HAL_Driver/Src/stm32g4xx_hal_gpio.c ****   * @brief  De-initialize the GPIOx peripheral registers to their default reset values.
 288:Drivers/STM32G4xx_HAL_Driver/Src/stm32g4xx_hal_gpio.c ****   * @param  GPIOx where x can be (A..G) to select the GPIO peripheral for STM32G4xx family
 289:Drivers/STM32G4xx_HAL_Driver/Src/stm32g4xx_hal_gpio.c ****   * @param  GPIO_Pin specifies the port bit to be written.
 290:Drivers/STM32G4xx_HAL_Driver/Src/stm32g4xx_hal_gpio.c ****   *         This parameter can be any combination of GPIO_PIN_x where x can be (0..15).
 291:Drivers/STM32G4xx_HAL_Driver/Src/stm32g4xx_hal_gpio.c ****   * @retval None
 292:Drivers/STM32G4xx_HAL_Driver/Src/stm32g4xx_hal_gpio.c ****   */
 293:Drivers/STM32G4xx_HAL_Driver/Src/stm32g4xx_hal_gpio.c **** void HAL_GPIO_DeInit(GPIO_TypeDef  *GPIOx, uint32_t GPIO_Pin)
 294:Drivers/STM32G4xx_HAL_Driver/Src/stm32g4xx_hal_gpio.c **** {
 480              		.loc 1 294 1 is_stmt 1 view -0
 481              		.cfi_startproc
 482              		@ args = 0, pretend = 0, frame = 0
 483              		@ frame_needed = 0, uses_anonymous_args = 0
 295:Drivers/STM32G4xx_HAL_Driver/Src/stm32g4xx_hal_gpio.c ****   uint32_t position = 0x00U;
 484              		.loc 1 295 3 view .LVU183
 296:Drivers/STM32G4xx_HAL_Driver/Src/stm32g4xx_hal_gpio.c ****   uint32_t iocurrent;
ARM GAS  /tmp/ccK4dYi5.s 			page 16


 485              		.loc 1 296 3 view .LVU184
 297:Drivers/STM32G4xx_HAL_Driver/Src/stm32g4xx_hal_gpio.c ****   uint32_t tmp;
 486              		.loc 1 297 3 view .LVU185
 298:Drivers/STM32G4xx_HAL_Driver/Src/stm32g4xx_hal_gpio.c **** 
 299:Drivers/STM32G4xx_HAL_Driver/Src/stm32g4xx_hal_gpio.c ****   /* Check the parameters */
 300:Drivers/STM32G4xx_HAL_Driver/Src/stm32g4xx_hal_gpio.c ****   assert_param(IS_GPIO_ALL_INSTANCE(GPIOx));
 487              		.loc 1 300 3 view .LVU186
 301:Drivers/STM32G4xx_HAL_Driver/Src/stm32g4xx_hal_gpio.c ****   assert_param(IS_GPIO_PIN(GPIO_Pin));
 488              		.loc 1 301 3 view .LVU187
 302:Drivers/STM32G4xx_HAL_Driver/Src/stm32g4xx_hal_gpio.c **** 
 303:Drivers/STM32G4xx_HAL_Driver/Src/stm32g4xx_hal_gpio.c ****   /* Configure the port pins */
 304:Drivers/STM32G4xx_HAL_Driver/Src/stm32g4xx_hal_gpio.c ****   while ((GPIO_Pin >> position) != 0U)
 489              		.loc 1 304 3 view .LVU188
 295:Drivers/STM32G4xx_HAL_Driver/Src/stm32g4xx_hal_gpio.c ****   uint32_t iocurrent;
 490              		.loc 1 295 12 is_stmt 0 view .LVU189
 491 0000 0023     		movs	r3, #0
 492              	.LVL46:
 493              		.loc 1 304 33 is_stmt 1 view .LVU190
 494 0002 31FA03F2 		lsrs	r2, r1, r3
 495 0006 00F08180 		beq	.L43
 294:Drivers/STM32G4xx_HAL_Driver/Src/stm32g4xx_hal_gpio.c ****   uint32_t position = 0x00U;
 496              		.loc 1 294 1 is_stmt 0 view .LVU191
 497 000a F0B5     		push	{r4, r5, r6, r7, lr}
 498              		.cfi_def_cfa_offset 20
 499              		.cfi_offset 4, -20
 500              		.cfi_offset 5, -16
 501              		.cfi_offset 6, -12
 502              		.cfi_offset 7, -8
 503              		.cfi_offset 14, -4
 504 000c 2EE0     		b	.L33
 505              	.LVL47:
 506              	.L46:
 305:Drivers/STM32G4xx_HAL_Driver/Src/stm32g4xx_hal_gpio.c ****   {
 306:Drivers/STM32G4xx_HAL_Driver/Src/stm32g4xx_hal_gpio.c ****     /* Get current io position */
 307:Drivers/STM32G4xx_HAL_Driver/Src/stm32g4xx_hal_gpio.c ****     iocurrent = (GPIO_Pin) & (1UL << position);
 308:Drivers/STM32G4xx_HAL_Driver/Src/stm32g4xx_hal_gpio.c **** 
 309:Drivers/STM32G4xx_HAL_Driver/Src/stm32g4xx_hal_gpio.c ****     if (iocurrent != 0x00u)
 310:Drivers/STM32G4xx_HAL_Driver/Src/stm32g4xx_hal_gpio.c ****     {
 311:Drivers/STM32G4xx_HAL_Driver/Src/stm32g4xx_hal_gpio.c ****       /*------------------------- EXTI Mode Configuration --------------------*/
 312:Drivers/STM32G4xx_HAL_Driver/Src/stm32g4xx_hal_gpio.c ****       /* Clear the External Interrupt or Event for the current IO */
 313:Drivers/STM32G4xx_HAL_Driver/Src/stm32g4xx_hal_gpio.c **** 
 314:Drivers/STM32G4xx_HAL_Driver/Src/stm32g4xx_hal_gpio.c ****       tmp = SYSCFG->EXTICR[position >> 2U];
 315:Drivers/STM32G4xx_HAL_Driver/Src/stm32g4xx_hal_gpio.c ****       tmp &= (0x0FUL << (4U * (position & 0x03U)));
 316:Drivers/STM32G4xx_HAL_Driver/Src/stm32g4xx_hal_gpio.c ****       if (tmp == (GPIO_GET_INDEX(GPIOx) << (4U * (position & 0x03U))))
 507              		.loc 1 316 19 discriminator 11 view .LVU192
 508 000e 0525     		movs	r5, #5
 509 0010 00E0     		b	.L31
 510              	.L34:
 511              		.loc 1 316 19 discriminator 2 view .LVU193
 512 0012 0025     		movs	r5, #0
 513              	.L31:
 514              		.loc 1 316 41 discriminator 24 view .LVU194
 515 0014 05FA0CF5 		lsl	r5, r5, ip
 516              		.loc 1 316 10 discriminator 24 view .LVU195
 517 0018 A542     		cmp	r5, r4
 518 001a 5BD0     		beq	.L44
 519              	.LVL48:
ARM GAS  /tmp/ccK4dYi5.s 			page 17


 520              	.L32:
 317:Drivers/STM32G4xx_HAL_Driver/Src/stm32g4xx_hal_gpio.c ****       {
 318:Drivers/STM32G4xx_HAL_Driver/Src/stm32g4xx_hal_gpio.c ****         /* Clear EXTI line configuration */
 319:Drivers/STM32G4xx_HAL_Driver/Src/stm32g4xx_hal_gpio.c ****         EXTI->IMR1 &= ~(iocurrent);
 320:Drivers/STM32G4xx_HAL_Driver/Src/stm32g4xx_hal_gpio.c ****         EXTI->EMR1 &= ~(iocurrent);
 321:Drivers/STM32G4xx_HAL_Driver/Src/stm32g4xx_hal_gpio.c **** 
 322:Drivers/STM32G4xx_HAL_Driver/Src/stm32g4xx_hal_gpio.c ****         /* Clear Rising Falling edge configuration */
 323:Drivers/STM32G4xx_HAL_Driver/Src/stm32g4xx_hal_gpio.c ****         EXTI->FTSR1 &= ~(iocurrent);
 324:Drivers/STM32G4xx_HAL_Driver/Src/stm32g4xx_hal_gpio.c ****         EXTI->RTSR1 &= ~(iocurrent);
 325:Drivers/STM32G4xx_HAL_Driver/Src/stm32g4xx_hal_gpio.c **** 
 326:Drivers/STM32G4xx_HAL_Driver/Src/stm32g4xx_hal_gpio.c ****         tmp = 0x0FUL << (4U * (position & 0x03U));
 327:Drivers/STM32G4xx_HAL_Driver/Src/stm32g4xx_hal_gpio.c ****         SYSCFG->EXTICR[position >> 2U] &= ~tmp;
 328:Drivers/STM32G4xx_HAL_Driver/Src/stm32g4xx_hal_gpio.c ****       }
 329:Drivers/STM32G4xx_HAL_Driver/Src/stm32g4xx_hal_gpio.c **** 
 330:Drivers/STM32G4xx_HAL_Driver/Src/stm32g4xx_hal_gpio.c ****       /*------------------------- GPIO Mode Configuration --------------------*/
 331:Drivers/STM32G4xx_HAL_Driver/Src/stm32g4xx_hal_gpio.c ****       /* Configure IO in Analog Mode */
 332:Drivers/STM32G4xx_HAL_Driver/Src/stm32g4xx_hal_gpio.c ****       GPIOx->MODER |= (GPIO_MODER_MODE0 << (position * 2u));
 521              		.loc 1 332 7 is_stmt 1 view .LVU196
 522              		.loc 1 332 12 is_stmt 0 view .LVU197
 523 001c 0468     		ldr	r4, [r0]
 524              		.loc 1 332 54 view .LVU198
 525 001e 5D00     		lsls	r5, r3, #1
 526              		.loc 1 332 41 view .LVU199
 527 0020 4FF0030C 		mov	ip, #3
 528 0024 0CFA05FC 		lsl	ip, ip, r5
 529              		.loc 1 332 20 view .LVU200
 530 0028 44EA0C04 		orr	r4, r4, ip
 531 002c 0460     		str	r4, [r0]
 333:Drivers/STM32G4xx_HAL_Driver/Src/stm32g4xx_hal_gpio.c **** 
 334:Drivers/STM32G4xx_HAL_Driver/Src/stm32g4xx_hal_gpio.c ****       /* Configure the default Alternate Function in current IO */
 335:Drivers/STM32G4xx_HAL_Driver/Src/stm32g4xx_hal_gpio.c ****       GPIOx->AFR[position >> 3u] &= ~(0xFu << ((position & 0x07u) * 4u));
 532              		.loc 1 335 7 is_stmt 1 view .LVU201
 533              		.loc 1 335 17 is_stmt 0 view .LVU202
 534 002e 4FEAD30E 		lsr	lr, r3, #3
 535 0032 0EF1080E 		add	lr, lr, #8
 536 0036 50F82E40 		ldr	r4, [r0, lr, lsl #2]
 537              		.loc 1 335 58 view .LVU203
 538 003a 03F00706 		and	r6, r3, #7
 539              		.loc 1 335 67 view .LVU204
 540 003e B600     		lsls	r6, r6, #2
 541              		.loc 1 335 44 view .LVU205
 542 0040 0F25     		movs	r5, #15
 543 0042 B540     		lsls	r5, r5, r6
 544              		.loc 1 335 34 view .LVU206
 545 0044 24EA0504 		bic	r4, r4, r5
 546 0048 40F82E40 		str	r4, [r0, lr, lsl #2]
 336:Drivers/STM32G4xx_HAL_Driver/Src/stm32g4xx_hal_gpio.c **** 
 337:Drivers/STM32G4xx_HAL_Driver/Src/stm32g4xx_hal_gpio.c ****       /* Deactivate the Pull-up and Pull-down resistor for the current IO */
 338:Drivers/STM32G4xx_HAL_Driver/Src/stm32g4xx_hal_gpio.c ****       GPIOx->PUPDR &= ~(GPIO_PUPDR_PUPD0 << (position * 2u));
 547              		.loc 1 338 7 is_stmt 1 view .LVU207
 548              		.loc 1 338 12 is_stmt 0 view .LVU208
 549 004c C468     		ldr	r4, [r0, #12]
 550              		.loc 1 338 20 view .LVU209
 551 004e 24EA0C04 		bic	r4, r4, ip
 552 0052 C460     		str	r4, [r0, #12]
 339:Drivers/STM32G4xx_HAL_Driver/Src/stm32g4xx_hal_gpio.c **** 
 340:Drivers/STM32G4xx_HAL_Driver/Src/stm32g4xx_hal_gpio.c ****       /* Configure the default value IO Output Type */
ARM GAS  /tmp/ccK4dYi5.s 			page 18


 341:Drivers/STM32G4xx_HAL_Driver/Src/stm32g4xx_hal_gpio.c ****       GPIOx->OTYPER  &= ~(GPIO_OTYPER_OT0 << position);
 553              		.loc 1 341 7 is_stmt 1 view .LVU210
 554              		.loc 1 341 12 is_stmt 0 view .LVU211
 555 0054 4468     		ldr	r4, [r0, #4]
 556              		.loc 1 341 22 view .LVU212
 557 0056 24EA0202 		bic	r2, r4, r2
 558              	.LVL49:
 559              		.loc 1 341 22 view .LVU213
 560 005a 4260     		str	r2, [r0, #4]
 342:Drivers/STM32G4xx_HAL_Driver/Src/stm32g4xx_hal_gpio.c **** 
 343:Drivers/STM32G4xx_HAL_Driver/Src/stm32g4xx_hal_gpio.c ****       /* Configure the default value for IO Speed */
 344:Drivers/STM32G4xx_HAL_Driver/Src/stm32g4xx_hal_gpio.c ****       GPIOx->OSPEEDR &= ~(GPIO_OSPEEDR_OSPEED0 << (position * 2u));
 561              		.loc 1 344 7 is_stmt 1 view .LVU214
 562              		.loc 1 344 12 is_stmt 0 view .LVU215
 563 005c 8268     		ldr	r2, [r0, #8]
 564              		.loc 1 344 22 view .LVU216
 565 005e 22EA0C02 		bic	r2, r2, ip
 566 0062 8260     		str	r2, [r0, #8]
 567              	.L30:
 345:Drivers/STM32G4xx_HAL_Driver/Src/stm32g4xx_hal_gpio.c ****     }
 346:Drivers/STM32G4xx_HAL_Driver/Src/stm32g4xx_hal_gpio.c **** 
 347:Drivers/STM32G4xx_HAL_Driver/Src/stm32g4xx_hal_gpio.c ****     position++;
 568              		.loc 1 347 5 is_stmt 1 view .LVU217
 569              		.loc 1 347 13 is_stmt 0 view .LVU218
 570 0064 0133     		adds	r3, r3, #1
 571              	.LVL50:
 304:Drivers/STM32G4xx_HAL_Driver/Src/stm32g4xx_hal_gpio.c ****   {
 572              		.loc 1 304 33 is_stmt 1 view .LVU219
 573 0066 31FA03F2 		lsrs	r2, r1, r3
 574 006a 4ED0     		beq	.L45
 575              	.LVL51:
 576              	.L33:
 307:Drivers/STM32G4xx_HAL_Driver/Src/stm32g4xx_hal_gpio.c **** 
 577              		.loc 1 307 5 view .LVU220
 307:Drivers/STM32G4xx_HAL_Driver/Src/stm32g4xx_hal_gpio.c **** 
 578              		.loc 1 307 35 is_stmt 0 view .LVU221
 579 006c 0122     		movs	r2, #1
 580 006e 9A40     		lsls	r2, r2, r3
 581              	.LVL52:
 309:Drivers/STM32G4xx_HAL_Driver/Src/stm32g4xx_hal_gpio.c ****     {
 582              		.loc 1 309 5 is_stmt 1 view .LVU222
 309:Drivers/STM32G4xx_HAL_Driver/Src/stm32g4xx_hal_gpio.c ****     {
 583              		.loc 1 309 8 is_stmt 0 view .LVU223
 584 0070 12EA0107 		ands	r7, r2, r1
 585              	.LVL53:
 309:Drivers/STM32G4xx_HAL_Driver/Src/stm32g4xx_hal_gpio.c ****     {
 586              		.loc 1 309 8 view .LVU224
 587 0074 F6D0     		beq	.L30
 314:Drivers/STM32G4xx_HAL_Driver/Src/stm32g4xx_hal_gpio.c ****       tmp &= (0x0FUL << (4U * (position & 0x03U)));
 588              		.loc 1 314 7 is_stmt 1 view .LVU225
 314:Drivers/STM32G4xx_HAL_Driver/Src/stm32g4xx_hal_gpio.c ****       tmp &= (0x0FUL << (4U * (position & 0x03U)));
 589              		.loc 1 314 37 is_stmt 0 view .LVU226
 590 0076 4FEA930E 		lsr	lr, r3, #2
 314:Drivers/STM32G4xx_HAL_Driver/Src/stm32g4xx_hal_gpio.c ****       tmp &= (0x0FUL << (4U * (position & 0x03U)));
 591              		.loc 1 314 11 view .LVU227
 592 007a 0EF10205 		add	r5, lr, #2
 593 007e 244C     		ldr	r4, .L47
ARM GAS  /tmp/ccK4dYi5.s 			page 19


 594 0080 54F82540 		ldr	r4, [r4, r5, lsl #2]
 595              	.LVL54:
 315:Drivers/STM32G4xx_HAL_Driver/Src/stm32g4xx_hal_gpio.c ****       if (tmp == (GPIO_GET_INDEX(GPIOx) << (4U * (position & 0x03U))))
 596              		.loc 1 315 7 is_stmt 1 view .LVU228
 315:Drivers/STM32G4xx_HAL_Driver/Src/stm32g4xx_hal_gpio.c ****       if (tmp == (GPIO_GET_INDEX(GPIOx) << (4U * (position & 0x03U))))
 597              		.loc 1 315 41 is_stmt 0 view .LVU229
 598 0084 03F0030C 		and	ip, r3, #3
 315:Drivers/STM32G4xx_HAL_Driver/Src/stm32g4xx_hal_gpio.c ****       if (tmp == (GPIO_GET_INDEX(GPIOx) << (4U * (position & 0x03U))))
 599              		.loc 1 315 29 view .LVU230
 600 0088 4FEA8C0C 		lsl	ip, ip, #2
 315:Drivers/STM32G4xx_HAL_Driver/Src/stm32g4xx_hal_gpio.c ****       if (tmp == (GPIO_GET_INDEX(GPIOx) << (4U * (position & 0x03U))))
 601              		.loc 1 315 22 view .LVU231
 602 008c 0F25     		movs	r5, #15
 603 008e 05FA0CF6 		lsl	r6, r5, ip
 315:Drivers/STM32G4xx_HAL_Driver/Src/stm32g4xx_hal_gpio.c ****       if (tmp == (GPIO_GET_INDEX(GPIOx) << (4U * (position & 0x03U))))
 604              		.loc 1 315 11 view .LVU232
 605 0092 3440     		ands	r4, r4, r6
 606              	.LVL55:
 316:Drivers/STM32G4xx_HAL_Driver/Src/stm32g4xx_hal_gpio.c ****       {
 607              		.loc 1 316 7 is_stmt 1 view .LVU233
 316:Drivers/STM32G4xx_HAL_Driver/Src/stm32g4xx_hal_gpio.c ****       {
 608              		.loc 1 316 19 is_stmt 0 view .LVU234
 609 0094 B0F1904F 		cmp	r0, #1207959552
 610 0098 BBD0     		beq	.L34
 316:Drivers/STM32G4xx_HAL_Driver/Src/stm32g4xx_hal_gpio.c ****       {
 611              		.loc 1 316 19 discriminator 1 view .LVU235
 612 009a 1E4D     		ldr	r5, .L47+4
 613 009c A842     		cmp	r0, r5
 614 009e 11D0     		beq	.L35
 316:Drivers/STM32G4xx_HAL_Driver/Src/stm32g4xx_hal_gpio.c ****       {
 615              		.loc 1 316 19 discriminator 3 view .LVU236
 616 00a0 05F58065 		add	r5, r5, #1024
 617 00a4 A842     		cmp	r0, r5
 618 00a6 0FD0     		beq	.L36
 316:Drivers/STM32G4xx_HAL_Driver/Src/stm32g4xx_hal_gpio.c ****       {
 619              		.loc 1 316 19 discriminator 5 view .LVU237
 620 00a8 05F58065 		add	r5, r5, #1024
 621 00ac A842     		cmp	r0, r5
 622 00ae 0DD0     		beq	.L37
 316:Drivers/STM32G4xx_HAL_Driver/Src/stm32g4xx_hal_gpio.c ****       {
 623              		.loc 1 316 19 discriminator 7 view .LVU238
 624 00b0 05F58065 		add	r5, r5, #1024
 625 00b4 A842     		cmp	r0, r5
 626 00b6 0BD0     		beq	.L38
 316:Drivers/STM32G4xx_HAL_Driver/Src/stm32g4xx_hal_gpio.c ****       {
 627              		.loc 1 316 19 discriminator 9 view .LVU239
 628 00b8 05F58065 		add	r5, r5, #1024
 629 00bc A842     		cmp	r0, r5
 630 00be A6D0     		beq	.L46
 316:Drivers/STM32G4xx_HAL_Driver/Src/stm32g4xx_hal_gpio.c ****       {
 631              		.loc 1 316 19 discriminator 12 view .LVU240
 632 00c0 0625     		movs	r5, #6
 633 00c2 A7E7     		b	.L31
 634              	.L35:
 316:Drivers/STM32G4xx_HAL_Driver/Src/stm32g4xx_hal_gpio.c ****       {
 635              		.loc 1 316 19 discriminator 4 view .LVU241
 636 00c4 0125     		movs	r5, #1
ARM GAS  /tmp/ccK4dYi5.s 			page 20


 637 00c6 A5E7     		b	.L31
 638              	.L36:
 316:Drivers/STM32G4xx_HAL_Driver/Src/stm32g4xx_hal_gpio.c ****       {
 639              		.loc 1 316 19 discriminator 6 view .LVU242
 640 00c8 0225     		movs	r5, #2
 641 00ca A3E7     		b	.L31
 642              	.L37:
 316:Drivers/STM32G4xx_HAL_Driver/Src/stm32g4xx_hal_gpio.c ****       {
 643              		.loc 1 316 19 discriminator 8 view .LVU243
 644 00cc 0325     		movs	r5, #3
 645 00ce A1E7     		b	.L31
 646              	.L38:
 316:Drivers/STM32G4xx_HAL_Driver/Src/stm32g4xx_hal_gpio.c ****       {
 647              		.loc 1 316 19 discriminator 10 view .LVU244
 648 00d0 0425     		movs	r5, #4
 649 00d2 9FE7     		b	.L31
 650              	.L44:
 319:Drivers/STM32G4xx_HAL_Driver/Src/stm32g4xx_hal_gpio.c ****         EXTI->EMR1 &= ~(iocurrent);
 651              		.loc 1 319 9 is_stmt 1 view .LVU245
 319:Drivers/STM32G4xx_HAL_Driver/Src/stm32g4xx_hal_gpio.c ****         EXTI->EMR1 &= ~(iocurrent);
 652              		.loc 1 319 13 is_stmt 0 view .LVU246
 653 00d4 104C     		ldr	r4, .L47+8
 654              	.LVL56:
 319:Drivers/STM32G4xx_HAL_Driver/Src/stm32g4xx_hal_gpio.c ****         EXTI->EMR1 &= ~(iocurrent);
 655              		.loc 1 319 13 view .LVU247
 656 00d6 2568     		ldr	r5, [r4]
 319:Drivers/STM32G4xx_HAL_Driver/Src/stm32g4xx_hal_gpio.c ****         EXTI->EMR1 &= ~(iocurrent);
 657              		.loc 1 319 20 view .LVU248
 658 00d8 25EA0705 		bic	r5, r5, r7
 659 00dc 2560     		str	r5, [r4]
 320:Drivers/STM32G4xx_HAL_Driver/Src/stm32g4xx_hal_gpio.c **** 
 660              		.loc 1 320 9 is_stmt 1 view .LVU249
 320:Drivers/STM32G4xx_HAL_Driver/Src/stm32g4xx_hal_gpio.c **** 
 661              		.loc 1 320 13 is_stmt 0 view .LVU250
 662 00de 6568     		ldr	r5, [r4, #4]
 320:Drivers/STM32G4xx_HAL_Driver/Src/stm32g4xx_hal_gpio.c **** 
 663              		.loc 1 320 20 view .LVU251
 664 00e0 25EA0705 		bic	r5, r5, r7
 665 00e4 6560     		str	r5, [r4, #4]
 323:Drivers/STM32G4xx_HAL_Driver/Src/stm32g4xx_hal_gpio.c ****         EXTI->RTSR1 &= ~(iocurrent);
 666              		.loc 1 323 9 is_stmt 1 view .LVU252
 323:Drivers/STM32G4xx_HAL_Driver/Src/stm32g4xx_hal_gpio.c ****         EXTI->RTSR1 &= ~(iocurrent);
 667              		.loc 1 323 13 is_stmt 0 view .LVU253
 668 00e6 E568     		ldr	r5, [r4, #12]
 323:Drivers/STM32G4xx_HAL_Driver/Src/stm32g4xx_hal_gpio.c ****         EXTI->RTSR1 &= ~(iocurrent);
 669              		.loc 1 323 21 view .LVU254
 670 00e8 25EA0705 		bic	r5, r5, r7
 671 00ec E560     		str	r5, [r4, #12]
 324:Drivers/STM32G4xx_HAL_Driver/Src/stm32g4xx_hal_gpio.c **** 
 672              		.loc 1 324 9 is_stmt 1 view .LVU255
 324:Drivers/STM32G4xx_HAL_Driver/Src/stm32g4xx_hal_gpio.c **** 
 673              		.loc 1 324 13 is_stmt 0 view .LVU256
 674 00ee A568     		ldr	r5, [r4, #8]
 324:Drivers/STM32G4xx_HAL_Driver/Src/stm32g4xx_hal_gpio.c **** 
 675              		.loc 1 324 21 view .LVU257
 676 00f0 25EA0705 		bic	r5, r5, r7
 677 00f4 A560     		str	r5, [r4, #8]
ARM GAS  /tmp/ccK4dYi5.s 			page 21


 326:Drivers/STM32G4xx_HAL_Driver/Src/stm32g4xx_hal_gpio.c ****         SYSCFG->EXTICR[position >> 2U] &= ~tmp;
 678              		.loc 1 326 9 is_stmt 1 view .LVU258
 679              	.LVL57:
 327:Drivers/STM32G4xx_HAL_Driver/Src/stm32g4xx_hal_gpio.c ****       }
 680              		.loc 1 327 9 view .LVU259
 327:Drivers/STM32G4xx_HAL_Driver/Src/stm32g4xx_hal_gpio.c ****       }
 681              		.loc 1 327 23 is_stmt 0 view .LVU260
 682 00f6 064F     		ldr	r7, .L47
 683              	.LVL58:
 327:Drivers/STM32G4xx_HAL_Driver/Src/stm32g4xx_hal_gpio.c ****       }
 684              		.loc 1 327 23 view .LVU261
 685 00f8 0EF10204 		add	r4, lr, #2
 686 00fc 57F82450 		ldr	r5, [r7, r4, lsl #2]
 327:Drivers/STM32G4xx_HAL_Driver/Src/stm32g4xx_hal_gpio.c ****       }
 687              		.loc 1 327 40 view .LVU262
 688 0100 25EA0605 		bic	r5, r5, r6
 689 0104 47F82450 		str	r5, [r7, r4, lsl #2]
 690 0108 88E7     		b	.L32
 691              	.LVL59:
 692              	.L45:
 348:Drivers/STM32G4xx_HAL_Driver/Src/stm32g4xx_hal_gpio.c ****   }
 349:Drivers/STM32G4xx_HAL_Driver/Src/stm32g4xx_hal_gpio.c **** }
 693              		.loc 1 349 1 view .LVU263
 694 010a F0BD     		pop	{r4, r5, r6, r7, pc}
 695              	.LVL60:
 696              	.L43:
 697              		.cfi_def_cfa_offset 0
 698              		.cfi_restore 4
 699              		.cfi_restore 5
 700              		.cfi_restore 6
 701              		.cfi_restore 7
 702              		.cfi_restore 14
 703              		.loc 1 349 1 view .LVU264
 704 010c 7047     		bx	lr
 705              	.L48:
 706 010e 00BF     		.align	2
 707              	.L47:
 708 0110 00000140 		.word	1073807360
 709 0114 00040048 		.word	1207960576
 710 0118 00040140 		.word	1073808384
 711              		.cfi_endproc
 712              	.LFE330:
 714              		.section	.text.HAL_GPIO_ReadPin,"ax",%progbits
 715              		.align	1
 716              		.global	HAL_GPIO_ReadPin
 717              		.syntax unified
 718              		.thumb
 719              		.thumb_func
 721              	HAL_GPIO_ReadPin:
 722              	.LVL61:
 723              	.LFB331:
 350:Drivers/STM32G4xx_HAL_Driver/Src/stm32g4xx_hal_gpio.c **** 
 351:Drivers/STM32G4xx_HAL_Driver/Src/stm32g4xx_hal_gpio.c **** /**
 352:Drivers/STM32G4xx_HAL_Driver/Src/stm32g4xx_hal_gpio.c ****   * @}
 353:Drivers/STM32G4xx_HAL_Driver/Src/stm32g4xx_hal_gpio.c ****   */
 354:Drivers/STM32G4xx_HAL_Driver/Src/stm32g4xx_hal_gpio.c **** 
 355:Drivers/STM32G4xx_HAL_Driver/Src/stm32g4xx_hal_gpio.c **** /** @addtogroup GPIO_Exported_Functions_Group2
ARM GAS  /tmp/ccK4dYi5.s 			page 22


 356:Drivers/STM32G4xx_HAL_Driver/Src/stm32g4xx_hal_gpio.c ****   *  @brief GPIO Read, Write, Toggle, Lock and EXTI management functions.
 357:Drivers/STM32G4xx_HAL_Driver/Src/stm32g4xx_hal_gpio.c ****   *
 358:Drivers/STM32G4xx_HAL_Driver/Src/stm32g4xx_hal_gpio.c **** @verbatim
 359:Drivers/STM32G4xx_HAL_Driver/Src/stm32g4xx_hal_gpio.c ****  ===============================================================================
 360:Drivers/STM32G4xx_HAL_Driver/Src/stm32g4xx_hal_gpio.c ****                        ##### IO operation functions #####
 361:Drivers/STM32G4xx_HAL_Driver/Src/stm32g4xx_hal_gpio.c ****  ===============================================================================
 362:Drivers/STM32G4xx_HAL_Driver/Src/stm32g4xx_hal_gpio.c **** 
 363:Drivers/STM32G4xx_HAL_Driver/Src/stm32g4xx_hal_gpio.c **** @endverbatim
 364:Drivers/STM32G4xx_HAL_Driver/Src/stm32g4xx_hal_gpio.c ****   * @{
 365:Drivers/STM32G4xx_HAL_Driver/Src/stm32g4xx_hal_gpio.c ****   */
 366:Drivers/STM32G4xx_HAL_Driver/Src/stm32g4xx_hal_gpio.c **** 
 367:Drivers/STM32G4xx_HAL_Driver/Src/stm32g4xx_hal_gpio.c **** /**
 368:Drivers/STM32G4xx_HAL_Driver/Src/stm32g4xx_hal_gpio.c ****   * @brief  Read the specified input port pin.
 369:Drivers/STM32G4xx_HAL_Driver/Src/stm32g4xx_hal_gpio.c ****   * @param  GPIOx where x can be (A..G) to select the GPIO peripheral for STM32G4xx family
 370:Drivers/STM32G4xx_HAL_Driver/Src/stm32g4xx_hal_gpio.c ****   * @param  GPIO_Pin specifies the port bit to read.
 371:Drivers/STM32G4xx_HAL_Driver/Src/stm32g4xx_hal_gpio.c ****   *         This parameter can be any combination of GPIO_PIN_x where x can be (0..15).
 372:Drivers/STM32G4xx_HAL_Driver/Src/stm32g4xx_hal_gpio.c ****   * @retval The input port pin value.
 373:Drivers/STM32G4xx_HAL_Driver/Src/stm32g4xx_hal_gpio.c ****   */
 374:Drivers/STM32G4xx_HAL_Driver/Src/stm32g4xx_hal_gpio.c **** GPIO_PinState HAL_GPIO_ReadPin(GPIO_TypeDef const *GPIOx, uint16_t GPIO_Pin)
 375:Drivers/STM32G4xx_HAL_Driver/Src/stm32g4xx_hal_gpio.c **** {
 724              		.loc 1 375 1 is_stmt 1 view -0
 725              		.cfi_startproc
 726              		@ args = 0, pretend = 0, frame = 0
 727              		@ frame_needed = 0, uses_anonymous_args = 0
 728              		@ link register save eliminated.
 376:Drivers/STM32G4xx_HAL_Driver/Src/stm32g4xx_hal_gpio.c ****   GPIO_PinState bitstatus;
 729              		.loc 1 376 3 view .LVU266
 377:Drivers/STM32G4xx_HAL_Driver/Src/stm32g4xx_hal_gpio.c **** 
 378:Drivers/STM32G4xx_HAL_Driver/Src/stm32g4xx_hal_gpio.c ****   /* Check the parameters */
 379:Drivers/STM32G4xx_HAL_Driver/Src/stm32g4xx_hal_gpio.c ****   assert_param(IS_GPIO_PIN(GPIO_Pin));
 730              		.loc 1 379 3 view .LVU267
 380:Drivers/STM32G4xx_HAL_Driver/Src/stm32g4xx_hal_gpio.c **** 
 381:Drivers/STM32G4xx_HAL_Driver/Src/stm32g4xx_hal_gpio.c ****   if ((GPIOx->IDR & GPIO_Pin) != 0x00U)
 731              		.loc 1 381 3 view .LVU268
 732              		.loc 1 381 13 is_stmt 0 view .LVU269
 733 0000 0369     		ldr	r3, [r0, #16]
 734              		.loc 1 381 6 view .LVU270
 735 0002 1942     		tst	r1, r3
 736 0004 01D0     		beq	.L51
 382:Drivers/STM32G4xx_HAL_Driver/Src/stm32g4xx_hal_gpio.c ****   {
 383:Drivers/STM32G4xx_HAL_Driver/Src/stm32g4xx_hal_gpio.c ****     bitstatus = GPIO_PIN_SET;
 737              		.loc 1 383 15 view .LVU271
 738 0006 0120     		movs	r0, #1
 739              	.LVL62:
 740              		.loc 1 383 15 view .LVU272
 741 0008 7047     		bx	lr
 742              	.LVL63:
 743              	.L51:
 384:Drivers/STM32G4xx_HAL_Driver/Src/stm32g4xx_hal_gpio.c ****   }
 385:Drivers/STM32G4xx_HAL_Driver/Src/stm32g4xx_hal_gpio.c ****   else
 386:Drivers/STM32G4xx_HAL_Driver/Src/stm32g4xx_hal_gpio.c ****   {
 387:Drivers/STM32G4xx_HAL_Driver/Src/stm32g4xx_hal_gpio.c ****     bitstatus = GPIO_PIN_RESET;
 744              		.loc 1 387 15 view .LVU273
 745 000a 0020     		movs	r0, #0
 746              	.LVL64:
 388:Drivers/STM32G4xx_HAL_Driver/Src/stm32g4xx_hal_gpio.c ****   }
 389:Drivers/STM32G4xx_HAL_Driver/Src/stm32g4xx_hal_gpio.c ****   return bitstatus;
ARM GAS  /tmp/ccK4dYi5.s 			page 23


 747              		.loc 1 389 3 is_stmt 1 view .LVU274
 390:Drivers/STM32G4xx_HAL_Driver/Src/stm32g4xx_hal_gpio.c **** }
 748              		.loc 1 390 1 is_stmt 0 view .LVU275
 749 000c 7047     		bx	lr
 750              		.cfi_endproc
 751              	.LFE331:
 753              		.section	.text.HAL_GPIO_WritePin,"ax",%progbits
 754              		.align	1
 755              		.global	HAL_GPIO_WritePin
 756              		.syntax unified
 757              		.thumb
 758              		.thumb_func
 760              	HAL_GPIO_WritePin:
 761              	.LVL65:
 762              	.LFB332:
 391:Drivers/STM32G4xx_HAL_Driver/Src/stm32g4xx_hal_gpio.c **** 
 392:Drivers/STM32G4xx_HAL_Driver/Src/stm32g4xx_hal_gpio.c **** /**
 393:Drivers/STM32G4xx_HAL_Driver/Src/stm32g4xx_hal_gpio.c ****   * @brief  Set or clear the selected data port bit.
 394:Drivers/STM32G4xx_HAL_Driver/Src/stm32g4xx_hal_gpio.c ****   *
 395:Drivers/STM32G4xx_HAL_Driver/Src/stm32g4xx_hal_gpio.c ****   * @note   This function uses GPIOx_BSRR and GPIOx_BRR registers to allow atomic read/modify
 396:Drivers/STM32G4xx_HAL_Driver/Src/stm32g4xx_hal_gpio.c ****   *         accesses. In this way, there is no risk of an IRQ occurring between
 397:Drivers/STM32G4xx_HAL_Driver/Src/stm32g4xx_hal_gpio.c ****   *         the read and the modify access.
 398:Drivers/STM32G4xx_HAL_Driver/Src/stm32g4xx_hal_gpio.c ****   *
 399:Drivers/STM32G4xx_HAL_Driver/Src/stm32g4xx_hal_gpio.c ****   * @param  GPIOx where x can be (A..G) to select the GPIO peripheral for STM32G4xx family
 400:Drivers/STM32G4xx_HAL_Driver/Src/stm32g4xx_hal_gpio.c ****   * @param  GPIO_Pin specifies the port bit to be written.
 401:Drivers/STM32G4xx_HAL_Driver/Src/stm32g4xx_hal_gpio.c ****   *         This parameter can be any combination of GPIO_PIN_x where x can be (0..15).
 402:Drivers/STM32G4xx_HAL_Driver/Src/stm32g4xx_hal_gpio.c ****   * @param  PinState specifies the value to be written to the selected bit.
 403:Drivers/STM32G4xx_HAL_Driver/Src/stm32g4xx_hal_gpio.c ****   *         This parameter can be one of the GPIO_PinState enum values:
 404:Drivers/STM32G4xx_HAL_Driver/Src/stm32g4xx_hal_gpio.c ****   *            @arg GPIO_PIN_RESET: to clear the port pin
 405:Drivers/STM32G4xx_HAL_Driver/Src/stm32g4xx_hal_gpio.c ****   *            @arg GPIO_PIN_SET: to set the port pin
 406:Drivers/STM32G4xx_HAL_Driver/Src/stm32g4xx_hal_gpio.c ****   * @retval None
 407:Drivers/STM32G4xx_HAL_Driver/Src/stm32g4xx_hal_gpio.c ****   */
 408:Drivers/STM32G4xx_HAL_Driver/Src/stm32g4xx_hal_gpio.c **** void HAL_GPIO_WritePin(GPIO_TypeDef *GPIOx, uint16_t GPIO_Pin, GPIO_PinState PinState)
 409:Drivers/STM32G4xx_HAL_Driver/Src/stm32g4xx_hal_gpio.c **** {
 763              		.loc 1 409 1 is_stmt 1 view -0
 764              		.cfi_startproc
 765              		@ args = 0, pretend = 0, frame = 0
 766              		@ frame_needed = 0, uses_anonymous_args = 0
 767              		@ link register save eliminated.
 410:Drivers/STM32G4xx_HAL_Driver/Src/stm32g4xx_hal_gpio.c ****   /* Check the parameters */
 411:Drivers/STM32G4xx_HAL_Driver/Src/stm32g4xx_hal_gpio.c ****   assert_param(IS_GPIO_PIN(GPIO_Pin));
 768              		.loc 1 411 3 view .LVU277
 412:Drivers/STM32G4xx_HAL_Driver/Src/stm32g4xx_hal_gpio.c ****   assert_param(IS_GPIO_PIN_ACTION(PinState));
 769              		.loc 1 412 3 view .LVU278
 413:Drivers/STM32G4xx_HAL_Driver/Src/stm32g4xx_hal_gpio.c **** 
 414:Drivers/STM32G4xx_HAL_Driver/Src/stm32g4xx_hal_gpio.c ****   if (PinState != GPIO_PIN_RESET)
 770              		.loc 1 414 3 view .LVU279
 771              		.loc 1 414 6 is_stmt 0 view .LVU280
 772 0000 0AB1     		cbz	r2, .L53
 415:Drivers/STM32G4xx_HAL_Driver/Src/stm32g4xx_hal_gpio.c ****   {
 416:Drivers/STM32G4xx_HAL_Driver/Src/stm32g4xx_hal_gpio.c ****     GPIOx->BSRR = (uint32_t)GPIO_Pin;
 773              		.loc 1 416 5 is_stmt 1 view .LVU281
 774              		.loc 1 416 17 is_stmt 0 view .LVU282
 775 0002 8161     		str	r1, [r0, #24]
 776 0004 7047     		bx	lr
 777              	.L53:
 417:Drivers/STM32G4xx_HAL_Driver/Src/stm32g4xx_hal_gpio.c ****   }
ARM GAS  /tmp/ccK4dYi5.s 			page 24


 418:Drivers/STM32G4xx_HAL_Driver/Src/stm32g4xx_hal_gpio.c ****   else
 419:Drivers/STM32G4xx_HAL_Driver/Src/stm32g4xx_hal_gpio.c ****   {
 420:Drivers/STM32G4xx_HAL_Driver/Src/stm32g4xx_hal_gpio.c ****     GPIOx->BRR = (uint32_t)GPIO_Pin;
 778              		.loc 1 420 5 is_stmt 1 view .LVU283
 779              		.loc 1 420 16 is_stmt 0 view .LVU284
 780 0006 8162     		str	r1, [r0, #40]
 421:Drivers/STM32G4xx_HAL_Driver/Src/stm32g4xx_hal_gpio.c ****   }
 422:Drivers/STM32G4xx_HAL_Driver/Src/stm32g4xx_hal_gpio.c **** }
 781              		.loc 1 422 1 view .LVU285
 782 0008 7047     		bx	lr
 783              		.cfi_endproc
 784              	.LFE332:
 786              		.section	.text.HAL_GPIO_TogglePin,"ax",%progbits
 787              		.align	1
 788              		.global	HAL_GPIO_TogglePin
 789              		.syntax unified
 790              		.thumb
 791              		.thumb_func
 793              	HAL_GPIO_TogglePin:
 794              	.LVL66:
 795              	.LFB333:
 423:Drivers/STM32G4xx_HAL_Driver/Src/stm32g4xx_hal_gpio.c **** 
 424:Drivers/STM32G4xx_HAL_Driver/Src/stm32g4xx_hal_gpio.c **** /**
 425:Drivers/STM32G4xx_HAL_Driver/Src/stm32g4xx_hal_gpio.c ****   * @brief  Toggle the specified GPIO pin.
 426:Drivers/STM32G4xx_HAL_Driver/Src/stm32g4xx_hal_gpio.c ****   * @param  GPIOx where x can be (A..G) to select the GPIO peripheral for STM32G4xx family
 427:Drivers/STM32G4xx_HAL_Driver/Src/stm32g4xx_hal_gpio.c ****   * @param  GPIO_Pin specifies the pin to be toggled.
 428:Drivers/STM32G4xx_HAL_Driver/Src/stm32g4xx_hal_gpio.c ****   *         This parameter can be any combination of GPIO_PIN_x where x can be (0..15).
 429:Drivers/STM32G4xx_HAL_Driver/Src/stm32g4xx_hal_gpio.c ****   * @retval None
 430:Drivers/STM32G4xx_HAL_Driver/Src/stm32g4xx_hal_gpio.c ****   */
 431:Drivers/STM32G4xx_HAL_Driver/Src/stm32g4xx_hal_gpio.c **** void HAL_GPIO_TogglePin(GPIO_TypeDef *GPIOx, uint16_t GPIO_Pin)
 432:Drivers/STM32G4xx_HAL_Driver/Src/stm32g4xx_hal_gpio.c **** {
 796              		.loc 1 432 1 is_stmt 1 view -0
 797              		.cfi_startproc
 798              		@ args = 0, pretend = 0, frame = 0
 799              		@ frame_needed = 0, uses_anonymous_args = 0
 800              		@ link register save eliminated.
 433:Drivers/STM32G4xx_HAL_Driver/Src/stm32g4xx_hal_gpio.c ****   uint32_t odr;
 801              		.loc 1 433 3 view .LVU287
 434:Drivers/STM32G4xx_HAL_Driver/Src/stm32g4xx_hal_gpio.c **** 
 435:Drivers/STM32G4xx_HAL_Driver/Src/stm32g4xx_hal_gpio.c ****   /* Check the parameters */
 436:Drivers/STM32G4xx_HAL_Driver/Src/stm32g4xx_hal_gpio.c ****   assert_param(IS_GPIO_PIN(GPIO_Pin));
 802              		.loc 1 436 3 view .LVU288
 437:Drivers/STM32G4xx_HAL_Driver/Src/stm32g4xx_hal_gpio.c **** 
 438:Drivers/STM32G4xx_HAL_Driver/Src/stm32g4xx_hal_gpio.c ****   /* get current Output Data Register value */
 439:Drivers/STM32G4xx_HAL_Driver/Src/stm32g4xx_hal_gpio.c ****   odr = GPIOx->ODR;
 803              		.loc 1 439 3 view .LVU289
 804              		.loc 1 439 7 is_stmt 0 view .LVU290
 805 0000 4369     		ldr	r3, [r0, #20]
 806              	.LVL67:
 440:Drivers/STM32G4xx_HAL_Driver/Src/stm32g4xx_hal_gpio.c **** 
 441:Drivers/STM32G4xx_HAL_Driver/Src/stm32g4xx_hal_gpio.c ****   /* Set selected pins that were at low level, and reset ones that were high */
 442:Drivers/STM32G4xx_HAL_Driver/Src/stm32g4xx_hal_gpio.c ****   GPIOx->BSRR = ((odr & GPIO_Pin) << GPIO_NUMBER) | (~odr & GPIO_Pin);
 807              		.loc 1 442 3 is_stmt 1 view .LVU291
 808              		.loc 1 442 23 is_stmt 0 view .LVU292
 809 0002 01EA0302 		and	r2, r1, r3
 810              		.loc 1 442 59 view .LVU293
 811 0006 21EA0301 		bic	r1, r1, r3
ARM GAS  /tmp/ccK4dYi5.s 			page 25


 812              	.LVL68:
 813              		.loc 1 442 51 view .LVU294
 814 000a 41EA0241 		orr	r1, r1, r2, lsl #16
 815              		.loc 1 442 15 view .LVU295
 816 000e 8161     		str	r1, [r0, #24]
 443:Drivers/STM32G4xx_HAL_Driver/Src/stm32g4xx_hal_gpio.c **** }
 817              		.loc 1 443 1 view .LVU296
 818 0010 7047     		bx	lr
 819              		.cfi_endproc
 820              	.LFE333:
 822              		.section	.text.HAL_GPIO_LockPin,"ax",%progbits
 823              		.align	1
 824              		.global	HAL_GPIO_LockPin
 825              		.syntax unified
 826              		.thumb
 827              		.thumb_func
 829              	HAL_GPIO_LockPin:
 830              	.LVL69:
 831              	.LFB334:
 444:Drivers/STM32G4xx_HAL_Driver/Src/stm32g4xx_hal_gpio.c **** 
 445:Drivers/STM32G4xx_HAL_Driver/Src/stm32g4xx_hal_gpio.c **** /**
 446:Drivers/STM32G4xx_HAL_Driver/Src/stm32g4xx_hal_gpio.c ****   * @brief  Lock GPIO Pins configuration registers.
 447:Drivers/STM32G4xx_HAL_Driver/Src/stm32g4xx_hal_gpio.c ****   * @note   The locked registers are GPIOx_MODER, GPIOx_OTYPER, GPIOx_OSPEEDR,
 448:Drivers/STM32G4xx_HAL_Driver/Src/stm32g4xx_hal_gpio.c ****   *         GPIOx_PUPDR, GPIOx_AFRL and GPIOx_AFRH.
 449:Drivers/STM32G4xx_HAL_Driver/Src/stm32g4xx_hal_gpio.c ****   * @note   The configuration of the locked GPIO pins can no longer be modified
 450:Drivers/STM32G4xx_HAL_Driver/Src/stm32g4xx_hal_gpio.c ****   *         until the next reset.
 451:Drivers/STM32G4xx_HAL_Driver/Src/stm32g4xx_hal_gpio.c ****   * @param  GPIOx where x can be (A..G) to select the GPIO peripheral for STM32G4xx family
 452:Drivers/STM32G4xx_HAL_Driver/Src/stm32g4xx_hal_gpio.c ****   * @param  GPIO_Pin specifies the port bits to be locked.
 453:Drivers/STM32G4xx_HAL_Driver/Src/stm32g4xx_hal_gpio.c ****   *         This parameter can be any combination of GPIO_PIN_x where x can be (0..15).
 454:Drivers/STM32G4xx_HAL_Driver/Src/stm32g4xx_hal_gpio.c ****   * @retval None
 455:Drivers/STM32G4xx_HAL_Driver/Src/stm32g4xx_hal_gpio.c ****   */
 456:Drivers/STM32G4xx_HAL_Driver/Src/stm32g4xx_hal_gpio.c **** HAL_StatusTypeDef HAL_GPIO_LockPin(GPIO_TypeDef *GPIOx, uint16_t GPIO_Pin)
 457:Drivers/STM32G4xx_HAL_Driver/Src/stm32g4xx_hal_gpio.c **** {
 832              		.loc 1 457 1 is_stmt 1 view -0
 833              		.cfi_startproc
 834              		@ args = 0, pretend = 0, frame = 8
 835              		@ frame_needed = 0, uses_anonymous_args = 0
 836              		@ link register save eliminated.
 837              		.loc 1 457 1 is_stmt 0 view .LVU298
 838 0000 82B0     		sub	sp, sp, #8
 839              		.cfi_def_cfa_offset 8
 458:Drivers/STM32G4xx_HAL_Driver/Src/stm32g4xx_hal_gpio.c ****   __IO uint32_t tmp = GPIO_LCKR_LCKK;
 840              		.loc 1 458 3 is_stmt 1 view .LVU299
 841              		.loc 1 458 17 is_stmt 0 view .LVU300
 842 0002 4FF48033 		mov	r3, #65536
 843 0006 0193     		str	r3, [sp, #4]
 459:Drivers/STM32G4xx_HAL_Driver/Src/stm32g4xx_hal_gpio.c **** 
 460:Drivers/STM32G4xx_HAL_Driver/Src/stm32g4xx_hal_gpio.c ****   /* Check the parameters */
 461:Drivers/STM32G4xx_HAL_Driver/Src/stm32g4xx_hal_gpio.c ****   assert_param(IS_GPIO_LOCK_INSTANCE(GPIOx));
 844              		.loc 1 461 3 is_stmt 1 view .LVU301
 462:Drivers/STM32G4xx_HAL_Driver/Src/stm32g4xx_hal_gpio.c ****   assert_param(IS_GPIO_PIN(GPIO_Pin));
 845              		.loc 1 462 3 view .LVU302
 463:Drivers/STM32G4xx_HAL_Driver/Src/stm32g4xx_hal_gpio.c **** 
 464:Drivers/STM32G4xx_HAL_Driver/Src/stm32g4xx_hal_gpio.c ****   /* Apply lock key write sequence */
 465:Drivers/STM32G4xx_HAL_Driver/Src/stm32g4xx_hal_gpio.c ****   tmp |= GPIO_Pin;
 846              		.loc 1 465 3 view .LVU303
 847              		.loc 1 465 7 is_stmt 0 view .LVU304
ARM GAS  /tmp/ccK4dYi5.s 			page 26


 848 0008 019B     		ldr	r3, [sp, #4]
 849 000a 0B43     		orrs	r3, r3, r1
 850 000c 0193     		str	r3, [sp, #4]
 466:Drivers/STM32G4xx_HAL_Driver/Src/stm32g4xx_hal_gpio.c ****   /* Set LCKx bit(s): LCKK='1' + LCK[15-0] */
 467:Drivers/STM32G4xx_HAL_Driver/Src/stm32g4xx_hal_gpio.c ****   GPIOx->LCKR = tmp;
 851              		.loc 1 467 3 is_stmt 1 view .LVU305
 852              		.loc 1 467 15 is_stmt 0 view .LVU306
 853 000e 019B     		ldr	r3, [sp, #4]
 854 0010 C361     		str	r3, [r0, #28]
 468:Drivers/STM32G4xx_HAL_Driver/Src/stm32g4xx_hal_gpio.c ****   /* Reset LCKx bit(s): LCKK='0' + LCK[15-0] */
 469:Drivers/STM32G4xx_HAL_Driver/Src/stm32g4xx_hal_gpio.c ****   GPIOx->LCKR = GPIO_Pin;
 855              		.loc 1 469 3 is_stmt 1 view .LVU307
 856              		.loc 1 469 15 is_stmt 0 view .LVU308
 857 0012 C161     		str	r1, [r0, #28]
 470:Drivers/STM32G4xx_HAL_Driver/Src/stm32g4xx_hal_gpio.c ****   /* Set LCKx bit(s): LCKK='1' + LCK[15-0] */
 471:Drivers/STM32G4xx_HAL_Driver/Src/stm32g4xx_hal_gpio.c ****   GPIOx->LCKR = tmp;
 858              		.loc 1 471 3 is_stmt 1 view .LVU309
 859              		.loc 1 471 15 is_stmt 0 view .LVU310
 860 0014 019B     		ldr	r3, [sp, #4]
 861 0016 C361     		str	r3, [r0, #28]
 472:Drivers/STM32G4xx_HAL_Driver/Src/stm32g4xx_hal_gpio.c ****   /* Read LCKK register. This read is mandatory to complete key lock sequence */
 473:Drivers/STM32G4xx_HAL_Driver/Src/stm32g4xx_hal_gpio.c ****   tmp = GPIOx->LCKR;
 862              		.loc 1 473 3 is_stmt 1 view .LVU311
 863              		.loc 1 473 14 is_stmt 0 view .LVU312
 864 0018 C369     		ldr	r3, [r0, #28]
 865              		.loc 1 473 7 view .LVU313
 866 001a 0193     		str	r3, [sp, #4]
 474:Drivers/STM32G4xx_HAL_Driver/Src/stm32g4xx_hal_gpio.c **** 
 475:Drivers/STM32G4xx_HAL_Driver/Src/stm32g4xx_hal_gpio.c ****   /* read again in order to confirm lock is active */
 476:Drivers/STM32G4xx_HAL_Driver/Src/stm32g4xx_hal_gpio.c ****   if ((GPIOx->LCKR & GPIO_LCKR_LCKK) != 0x00u)
 867              		.loc 1 476 3 is_stmt 1 view .LVU314
 868              		.loc 1 476 13 is_stmt 0 view .LVU315
 869 001c C369     		ldr	r3, [r0, #28]
 870              		.loc 1 476 6 view .LVU316
 871 001e 13F4803F 		tst	r3, #65536
 872 0022 02D0     		beq	.L58
 477:Drivers/STM32G4xx_HAL_Driver/Src/stm32g4xx_hal_gpio.c ****   {
 478:Drivers/STM32G4xx_HAL_Driver/Src/stm32g4xx_hal_gpio.c ****     return HAL_OK;
 873              		.loc 1 478 12 view .LVU317
 874 0024 0020     		movs	r0, #0
 875              	.LVL70:
 876              	.L57:
 479:Drivers/STM32G4xx_HAL_Driver/Src/stm32g4xx_hal_gpio.c ****   }
 480:Drivers/STM32G4xx_HAL_Driver/Src/stm32g4xx_hal_gpio.c ****   else
 481:Drivers/STM32G4xx_HAL_Driver/Src/stm32g4xx_hal_gpio.c ****   {
 482:Drivers/STM32G4xx_HAL_Driver/Src/stm32g4xx_hal_gpio.c ****     return HAL_ERROR;
 483:Drivers/STM32G4xx_HAL_Driver/Src/stm32g4xx_hal_gpio.c ****   }
 484:Drivers/STM32G4xx_HAL_Driver/Src/stm32g4xx_hal_gpio.c **** }
 877              		.loc 1 484 1 view .LVU318
 878 0026 02B0     		add	sp, sp, #8
 879              		.cfi_remember_state
 880              		.cfi_def_cfa_offset 0
 881              		@ sp needed
 882 0028 7047     		bx	lr
 883              	.LVL71:
 884              	.L58:
 885              		.cfi_restore_state
ARM GAS  /tmp/ccK4dYi5.s 			page 27


 482:Drivers/STM32G4xx_HAL_Driver/Src/stm32g4xx_hal_gpio.c ****   }
 886              		.loc 1 482 12 view .LVU319
 887 002a 0120     		movs	r0, #1
 888              	.LVL72:
 482:Drivers/STM32G4xx_HAL_Driver/Src/stm32g4xx_hal_gpio.c ****   }
 889              		.loc 1 482 12 view .LVU320
 890 002c FBE7     		b	.L57
 891              		.cfi_endproc
 892              	.LFE334:
 894              		.section	.text.HAL_GPIO_EXTI_Callback,"ax",%progbits
 895              		.align	1
 896              		.weak	HAL_GPIO_EXTI_Callback
 897              		.syntax unified
 898              		.thumb
 899              		.thumb_func
 901              	HAL_GPIO_EXTI_Callback:
 902              	.LVL73:
 903              	.LFB336:
 485:Drivers/STM32G4xx_HAL_Driver/Src/stm32g4xx_hal_gpio.c **** 
 486:Drivers/STM32G4xx_HAL_Driver/Src/stm32g4xx_hal_gpio.c **** /**
 487:Drivers/STM32G4xx_HAL_Driver/Src/stm32g4xx_hal_gpio.c ****   * @brief  Handle EXTI interrupt request.
 488:Drivers/STM32G4xx_HAL_Driver/Src/stm32g4xx_hal_gpio.c ****   * @param  GPIO_Pin Specifies the port pin connected to corresponding EXTI line.
 489:Drivers/STM32G4xx_HAL_Driver/Src/stm32g4xx_hal_gpio.c ****   * @retval None
 490:Drivers/STM32G4xx_HAL_Driver/Src/stm32g4xx_hal_gpio.c ****   */
 491:Drivers/STM32G4xx_HAL_Driver/Src/stm32g4xx_hal_gpio.c **** void HAL_GPIO_EXTI_IRQHandler(uint16_t GPIO_Pin)
 492:Drivers/STM32G4xx_HAL_Driver/Src/stm32g4xx_hal_gpio.c **** {
 493:Drivers/STM32G4xx_HAL_Driver/Src/stm32g4xx_hal_gpio.c ****   /* EXTI line interrupt detected */
 494:Drivers/STM32G4xx_HAL_Driver/Src/stm32g4xx_hal_gpio.c ****   if (__HAL_GPIO_EXTI_GET_IT(GPIO_Pin) != 0x00u)
 495:Drivers/STM32G4xx_HAL_Driver/Src/stm32g4xx_hal_gpio.c ****   {
 496:Drivers/STM32G4xx_HAL_Driver/Src/stm32g4xx_hal_gpio.c ****     __HAL_GPIO_EXTI_CLEAR_IT(GPIO_Pin);
 497:Drivers/STM32G4xx_HAL_Driver/Src/stm32g4xx_hal_gpio.c ****     HAL_GPIO_EXTI_Callback(GPIO_Pin);
 498:Drivers/STM32G4xx_HAL_Driver/Src/stm32g4xx_hal_gpio.c ****   }
 499:Drivers/STM32G4xx_HAL_Driver/Src/stm32g4xx_hal_gpio.c **** }
 500:Drivers/STM32G4xx_HAL_Driver/Src/stm32g4xx_hal_gpio.c **** 
 501:Drivers/STM32G4xx_HAL_Driver/Src/stm32g4xx_hal_gpio.c **** /**
 502:Drivers/STM32G4xx_HAL_Driver/Src/stm32g4xx_hal_gpio.c ****   * @brief  EXTI line detection callback.
 503:Drivers/STM32G4xx_HAL_Driver/Src/stm32g4xx_hal_gpio.c ****   * @param  GPIO_Pin: Specifies the port pin connected to corresponding EXTI line.
 504:Drivers/STM32G4xx_HAL_Driver/Src/stm32g4xx_hal_gpio.c ****   * @retval None
 505:Drivers/STM32G4xx_HAL_Driver/Src/stm32g4xx_hal_gpio.c ****   */
 506:Drivers/STM32G4xx_HAL_Driver/Src/stm32g4xx_hal_gpio.c **** __weak void HAL_GPIO_EXTI_Callback(uint16_t GPIO_Pin)
 507:Drivers/STM32G4xx_HAL_Driver/Src/stm32g4xx_hal_gpio.c **** {
 904              		.loc 1 507 1 is_stmt 1 view -0
 905              		.cfi_startproc
 906              		@ args = 0, pretend = 0, frame = 0
 907              		@ frame_needed = 0, uses_anonymous_args = 0
 908              		@ link register save eliminated.
 508:Drivers/STM32G4xx_HAL_Driver/Src/stm32g4xx_hal_gpio.c ****   /* Prevent unused argument(s) compilation warning */
 509:Drivers/STM32G4xx_HAL_Driver/Src/stm32g4xx_hal_gpio.c ****   UNUSED(GPIO_Pin);
 909              		.loc 1 509 3 view .LVU322
 510:Drivers/STM32G4xx_HAL_Driver/Src/stm32g4xx_hal_gpio.c **** 
 511:Drivers/STM32G4xx_HAL_Driver/Src/stm32g4xx_hal_gpio.c ****   /* NOTE: This function should not be modified, when the callback is needed,
 512:Drivers/STM32G4xx_HAL_Driver/Src/stm32g4xx_hal_gpio.c ****            the HAL_GPIO_EXTI_Callback could be implemented in the user file
 513:Drivers/STM32G4xx_HAL_Driver/Src/stm32g4xx_hal_gpio.c ****    */
 514:Drivers/STM32G4xx_HAL_Driver/Src/stm32g4xx_hal_gpio.c **** }
 910              		.loc 1 514 1 is_stmt 0 view .LVU323
 911 0000 7047     		bx	lr
 912              		.cfi_endproc
ARM GAS  /tmp/ccK4dYi5.s 			page 28


 913              	.LFE336:
 915              		.section	.text.HAL_GPIO_EXTI_IRQHandler,"ax",%progbits
 916              		.align	1
 917              		.global	HAL_GPIO_EXTI_IRQHandler
 918              		.syntax unified
 919              		.thumb
 920              		.thumb_func
 922              	HAL_GPIO_EXTI_IRQHandler:
 923              	.LVL74:
 924              	.LFB335:
 492:Drivers/STM32G4xx_HAL_Driver/Src/stm32g4xx_hal_gpio.c ****   /* EXTI line interrupt detected */
 925              		.loc 1 492 1 is_stmt 1 view -0
 926              		.cfi_startproc
 927              		@ args = 0, pretend = 0, frame = 0
 928              		@ frame_needed = 0, uses_anonymous_args = 0
 492:Drivers/STM32G4xx_HAL_Driver/Src/stm32g4xx_hal_gpio.c ****   /* EXTI line interrupt detected */
 929              		.loc 1 492 1 is_stmt 0 view .LVU325
 930 0000 08B5     		push	{r3, lr}
 931              		.cfi_def_cfa_offset 8
 932              		.cfi_offset 3, -8
 933              		.cfi_offset 14, -4
 494:Drivers/STM32G4xx_HAL_Driver/Src/stm32g4xx_hal_gpio.c ****   {
 934              		.loc 1 494 3 is_stmt 1 view .LVU326
 494:Drivers/STM32G4xx_HAL_Driver/Src/stm32g4xx_hal_gpio.c ****   {
 935              		.loc 1 494 7 is_stmt 0 view .LVU327
 936 0002 054B     		ldr	r3, .L65
 937 0004 5B69     		ldr	r3, [r3, #20]
 494:Drivers/STM32G4xx_HAL_Driver/Src/stm32g4xx_hal_gpio.c ****   {
 938              		.loc 1 494 6 view .LVU328
 939 0006 0342     		tst	r3, r0
 940 0008 00D1     		bne	.L64
 941              	.LVL75:
 942              	.L61:
 499:Drivers/STM32G4xx_HAL_Driver/Src/stm32g4xx_hal_gpio.c **** 
 943              		.loc 1 499 1 view .LVU329
 944 000a 08BD     		pop	{r3, pc}
 945              	.LVL76:
 946              	.L64:
 496:Drivers/STM32G4xx_HAL_Driver/Src/stm32g4xx_hal_gpio.c ****     HAL_GPIO_EXTI_Callback(GPIO_Pin);
 947              		.loc 1 496 5 is_stmt 1 view .LVU330
 948 000c 024B     		ldr	r3, .L65
 949 000e 5861     		str	r0, [r3, #20]
 497:Drivers/STM32G4xx_HAL_Driver/Src/stm32g4xx_hal_gpio.c ****   }
 950              		.loc 1 497 5 view .LVU331
 951 0010 FFF7FEFF 		bl	HAL_GPIO_EXTI_Callback
 952              	.LVL77:
 499:Drivers/STM32G4xx_HAL_Driver/Src/stm32g4xx_hal_gpio.c **** 
 953              		.loc 1 499 1 is_stmt 0 view .LVU332
 954 0014 F9E7     		b	.L61
 955              	.L66:
 956 0016 00BF     		.align	2
 957              	.L65:
 958 0018 00040140 		.word	1073808384
 959              		.cfi_endproc
 960              	.LFE335:
 962              		.text
 963              	.Letext0:
ARM GAS  /tmp/ccK4dYi5.s 			page 29


 964              		.file 2 "/opt/arm-gnu-toolchain-14.2/arm-none-eabi/include/machine/_default_types.h"
 965              		.file 3 "/opt/arm-gnu-toolchain-14.2/arm-none-eabi/include/sys/_stdint.h"
 966              		.file 4 "Drivers/CMSIS/Device/ST/STM32G4xx/Include/stm32g474xx.h"
 967              		.file 5 "Drivers/STM32G4xx_HAL_Driver/Inc/stm32g4xx_hal_def.h"
 968              		.file 6 "Drivers/STM32G4xx_HAL_Driver/Inc/stm32g4xx_hal_gpio.h"
ARM GAS  /tmp/ccK4dYi5.s 			page 30

