ARM GAS  /tmp/ccXaRXaA.s 			page 1


   1              		.cpu cortex-m4
   2              		.arch armv7e-m
   3              		.fpu fpv4-sp-d16
   4              		.eabi_attribute 27, 1
   5              		.eabi_attribute 28, 1
   6              		.eabi_attribute 20, 1
   7              		.eabi_attribute 21, 1
   8              		.eabi_attribute 23, 3
   9              		.eabi_attribute 24, 1
  10              		.eabi_attribute 25, 1
  11              		.eabi_attribute 26, 1
  12              		.eabi_attribute 30, 1
  13              		.eabi_attribute 34, 1
  14              		.eabi_attribute 18, 4
  15              		.file	"stm32g4xx_hal_pcd.c"
  16              		.text
  17              	.Ltext0:
  18              		.cfi_sections	.debug_frame
  19              		.file 1 "Drivers/STM32G4xx_HAL_Driver/Src/stm32g4xx_hal_pcd.c"
  20              		.section	.text.HAL_PCD_EP_DB_Receive,"ax",%progbits
  21              		.align	1
  22              		.syntax unified
  23              		.thumb
  24              		.thumb_func
  26              	HAL_PCD_EP_DB_Receive:
  27              	.LVL0:
  28              	.LFB363:
   1:Drivers/STM32G4xx_HAL_Driver/Src/stm32g4xx_hal_pcd.c **** /**
   2:Drivers/STM32G4xx_HAL_Driver/Src/stm32g4xx_hal_pcd.c ****   ******************************************************************************
   3:Drivers/STM32G4xx_HAL_Driver/Src/stm32g4xx_hal_pcd.c ****   * @file    stm32g4xx_hal_pcd.c
   4:Drivers/STM32G4xx_HAL_Driver/Src/stm32g4xx_hal_pcd.c ****   * @author  MCD Application Team
   5:Drivers/STM32G4xx_HAL_Driver/Src/stm32g4xx_hal_pcd.c ****   * @brief   PCD HAL module driver.
   6:Drivers/STM32G4xx_HAL_Driver/Src/stm32g4xx_hal_pcd.c ****   *          This file provides firmware functions to manage the following
   7:Drivers/STM32G4xx_HAL_Driver/Src/stm32g4xx_hal_pcd.c ****   *          functionalities of the USB Peripheral Controller:
   8:Drivers/STM32G4xx_HAL_Driver/Src/stm32g4xx_hal_pcd.c ****   *           + Initialization and de-initialization functions
   9:Drivers/STM32G4xx_HAL_Driver/Src/stm32g4xx_hal_pcd.c ****   *           + IO operation functions
  10:Drivers/STM32G4xx_HAL_Driver/Src/stm32g4xx_hal_pcd.c ****   *           + Peripheral Control functions
  11:Drivers/STM32G4xx_HAL_Driver/Src/stm32g4xx_hal_pcd.c ****   *           + Peripheral State functions
  12:Drivers/STM32G4xx_HAL_Driver/Src/stm32g4xx_hal_pcd.c ****   *
  13:Drivers/STM32G4xx_HAL_Driver/Src/stm32g4xx_hal_pcd.c ****   ******************************************************************************
  14:Drivers/STM32G4xx_HAL_Driver/Src/stm32g4xx_hal_pcd.c ****   * @attention
  15:Drivers/STM32G4xx_HAL_Driver/Src/stm32g4xx_hal_pcd.c ****   *
  16:Drivers/STM32G4xx_HAL_Driver/Src/stm32g4xx_hal_pcd.c ****   * Copyright (c) 2019 STMicroelectronics.
  17:Drivers/STM32G4xx_HAL_Driver/Src/stm32g4xx_hal_pcd.c ****   * All rights reserved.
  18:Drivers/STM32G4xx_HAL_Driver/Src/stm32g4xx_hal_pcd.c ****   *
  19:Drivers/STM32G4xx_HAL_Driver/Src/stm32g4xx_hal_pcd.c ****   * This software is licensed under terms that can be found in the LICENSE file
  20:Drivers/STM32G4xx_HAL_Driver/Src/stm32g4xx_hal_pcd.c ****   * in the root directory of this software component.
  21:Drivers/STM32G4xx_HAL_Driver/Src/stm32g4xx_hal_pcd.c ****   * If no LICENSE file comes with this software, it is provided AS-IS.
  22:Drivers/STM32G4xx_HAL_Driver/Src/stm32g4xx_hal_pcd.c ****   *
  23:Drivers/STM32G4xx_HAL_Driver/Src/stm32g4xx_hal_pcd.c ****   ******************************************************************************
  24:Drivers/STM32G4xx_HAL_Driver/Src/stm32g4xx_hal_pcd.c ****   @verbatim
  25:Drivers/STM32G4xx_HAL_Driver/Src/stm32g4xx_hal_pcd.c ****   ==============================================================================
  26:Drivers/STM32G4xx_HAL_Driver/Src/stm32g4xx_hal_pcd.c ****                     ##### How to use this driver #####
  27:Drivers/STM32G4xx_HAL_Driver/Src/stm32g4xx_hal_pcd.c ****   ==============================================================================
  28:Drivers/STM32G4xx_HAL_Driver/Src/stm32g4xx_hal_pcd.c ****     [..]
  29:Drivers/STM32G4xx_HAL_Driver/Src/stm32g4xx_hal_pcd.c ****       The PCD HAL driver can be used as follows:
  30:Drivers/STM32G4xx_HAL_Driver/Src/stm32g4xx_hal_pcd.c **** 
ARM GAS  /tmp/ccXaRXaA.s 			page 2


  31:Drivers/STM32G4xx_HAL_Driver/Src/stm32g4xx_hal_pcd.c ****      (#) Declare a PCD_HandleTypeDef handle structure, for example:
  32:Drivers/STM32G4xx_HAL_Driver/Src/stm32g4xx_hal_pcd.c ****          PCD_HandleTypeDef  hpcd;
  33:Drivers/STM32G4xx_HAL_Driver/Src/stm32g4xx_hal_pcd.c **** 
  34:Drivers/STM32G4xx_HAL_Driver/Src/stm32g4xx_hal_pcd.c ****      (#) Fill parameters of Init structure in HCD handle
  35:Drivers/STM32G4xx_HAL_Driver/Src/stm32g4xx_hal_pcd.c **** 
  36:Drivers/STM32G4xx_HAL_Driver/Src/stm32g4xx_hal_pcd.c ****      (#) Call HAL_PCD_Init() API to initialize the PCD peripheral (Core, Device core, ...)
  37:Drivers/STM32G4xx_HAL_Driver/Src/stm32g4xx_hal_pcd.c **** 
  38:Drivers/STM32G4xx_HAL_Driver/Src/stm32g4xx_hal_pcd.c ****      (#) Initialize the PCD low level resources through the HAL_PCD_MspInit() API:
  39:Drivers/STM32G4xx_HAL_Driver/Src/stm32g4xx_hal_pcd.c ****          (##) Enable the PCD/USB Low Level interface clock using
  40:Drivers/STM32G4xx_HAL_Driver/Src/stm32g4xx_hal_pcd.c ****               (+++) __HAL_RCC_USB_CLK_ENABLE(); For USB Device FS peripheral
  41:Drivers/STM32G4xx_HAL_Driver/Src/stm32g4xx_hal_pcd.c **** 
  42:Drivers/STM32G4xx_HAL_Driver/Src/stm32g4xx_hal_pcd.c ****          (##) Initialize the related GPIO clocks
  43:Drivers/STM32G4xx_HAL_Driver/Src/stm32g4xx_hal_pcd.c ****          (##) Configure PCD pin-out
  44:Drivers/STM32G4xx_HAL_Driver/Src/stm32g4xx_hal_pcd.c ****          (##) Configure PCD NVIC interrupt
  45:Drivers/STM32G4xx_HAL_Driver/Src/stm32g4xx_hal_pcd.c **** 
  46:Drivers/STM32G4xx_HAL_Driver/Src/stm32g4xx_hal_pcd.c ****      (#)Associate the Upper USB device stack to the HAL PCD Driver:
  47:Drivers/STM32G4xx_HAL_Driver/Src/stm32g4xx_hal_pcd.c ****          (##) hpcd.pData = pdev;
  48:Drivers/STM32G4xx_HAL_Driver/Src/stm32g4xx_hal_pcd.c **** 
  49:Drivers/STM32G4xx_HAL_Driver/Src/stm32g4xx_hal_pcd.c ****      (#)Enable PCD transmission and reception:
  50:Drivers/STM32G4xx_HAL_Driver/Src/stm32g4xx_hal_pcd.c ****          (##) HAL_PCD_Start();
  51:Drivers/STM32G4xx_HAL_Driver/Src/stm32g4xx_hal_pcd.c **** 
  52:Drivers/STM32G4xx_HAL_Driver/Src/stm32g4xx_hal_pcd.c ****      (#)NOTE: For applications not using double buffer mode, define the symbol
  53:Drivers/STM32G4xx_HAL_Driver/Src/stm32g4xx_hal_pcd.c ****                'USE_USB_DOUBLE_BUFFER' as 0 to reduce the driver's memory footprint.
  54:Drivers/STM32G4xx_HAL_Driver/Src/stm32g4xx_hal_pcd.c **** 
  55:Drivers/STM32G4xx_HAL_Driver/Src/stm32g4xx_hal_pcd.c ****   @endverbatim
  56:Drivers/STM32G4xx_HAL_Driver/Src/stm32g4xx_hal_pcd.c ****   ******************************************************************************
  57:Drivers/STM32G4xx_HAL_Driver/Src/stm32g4xx_hal_pcd.c ****   */
  58:Drivers/STM32G4xx_HAL_Driver/Src/stm32g4xx_hal_pcd.c **** 
  59:Drivers/STM32G4xx_HAL_Driver/Src/stm32g4xx_hal_pcd.c **** /* Includes ------------------------------------------------------------------*/
  60:Drivers/STM32G4xx_HAL_Driver/Src/stm32g4xx_hal_pcd.c **** #include "stm32g4xx_hal.h"
  61:Drivers/STM32G4xx_HAL_Driver/Src/stm32g4xx_hal_pcd.c **** 
  62:Drivers/STM32G4xx_HAL_Driver/Src/stm32g4xx_hal_pcd.c **** /** @addtogroup STM32G4xx_HAL_Driver
  63:Drivers/STM32G4xx_HAL_Driver/Src/stm32g4xx_hal_pcd.c ****   * @{
  64:Drivers/STM32G4xx_HAL_Driver/Src/stm32g4xx_hal_pcd.c ****   */
  65:Drivers/STM32G4xx_HAL_Driver/Src/stm32g4xx_hal_pcd.c **** 
  66:Drivers/STM32G4xx_HAL_Driver/Src/stm32g4xx_hal_pcd.c **** /** @defgroup PCD PCD
  67:Drivers/STM32G4xx_HAL_Driver/Src/stm32g4xx_hal_pcd.c ****   * @brief PCD HAL module driver
  68:Drivers/STM32G4xx_HAL_Driver/Src/stm32g4xx_hal_pcd.c ****   * @{
  69:Drivers/STM32G4xx_HAL_Driver/Src/stm32g4xx_hal_pcd.c ****   */
  70:Drivers/STM32G4xx_HAL_Driver/Src/stm32g4xx_hal_pcd.c **** 
  71:Drivers/STM32G4xx_HAL_Driver/Src/stm32g4xx_hal_pcd.c **** #ifdef HAL_PCD_MODULE_ENABLED
  72:Drivers/STM32G4xx_HAL_Driver/Src/stm32g4xx_hal_pcd.c **** 
  73:Drivers/STM32G4xx_HAL_Driver/Src/stm32g4xx_hal_pcd.c **** #if defined (USB)
  74:Drivers/STM32G4xx_HAL_Driver/Src/stm32g4xx_hal_pcd.c **** 
  75:Drivers/STM32G4xx_HAL_Driver/Src/stm32g4xx_hal_pcd.c **** /* Private types -------------------------------------------------------------*/
  76:Drivers/STM32G4xx_HAL_Driver/Src/stm32g4xx_hal_pcd.c **** /* Private variables ---------------------------------------------------------*/
  77:Drivers/STM32G4xx_HAL_Driver/Src/stm32g4xx_hal_pcd.c **** /* Private constants ---------------------------------------------------------*/
  78:Drivers/STM32G4xx_HAL_Driver/Src/stm32g4xx_hal_pcd.c **** /* Private macros ------------------------------------------------------------*/
  79:Drivers/STM32G4xx_HAL_Driver/Src/stm32g4xx_hal_pcd.c **** /** @defgroup PCD_Private_Macros PCD Private Macros
  80:Drivers/STM32G4xx_HAL_Driver/Src/stm32g4xx_hal_pcd.c ****   * @{
  81:Drivers/STM32G4xx_HAL_Driver/Src/stm32g4xx_hal_pcd.c ****   */
  82:Drivers/STM32G4xx_HAL_Driver/Src/stm32g4xx_hal_pcd.c **** #define PCD_MIN(a, b)  (((a) < (b)) ? (a) : (b))
  83:Drivers/STM32G4xx_HAL_Driver/Src/stm32g4xx_hal_pcd.c **** #define PCD_MAX(a, b)  (((a) > (b)) ? (a) : (b))
  84:Drivers/STM32G4xx_HAL_Driver/Src/stm32g4xx_hal_pcd.c **** /**
  85:Drivers/STM32G4xx_HAL_Driver/Src/stm32g4xx_hal_pcd.c ****   * @}
  86:Drivers/STM32G4xx_HAL_Driver/Src/stm32g4xx_hal_pcd.c ****   */
  87:Drivers/STM32G4xx_HAL_Driver/Src/stm32g4xx_hal_pcd.c **** 
ARM GAS  /tmp/ccXaRXaA.s 			page 3


  88:Drivers/STM32G4xx_HAL_Driver/Src/stm32g4xx_hal_pcd.c **** /* Private functions prototypes ----------------------------------------------*/
  89:Drivers/STM32G4xx_HAL_Driver/Src/stm32g4xx_hal_pcd.c **** /** @defgroup PCD_Private_Functions PCD Private Functions
  90:Drivers/STM32G4xx_HAL_Driver/Src/stm32g4xx_hal_pcd.c ****   * @{
  91:Drivers/STM32G4xx_HAL_Driver/Src/stm32g4xx_hal_pcd.c ****   */
  92:Drivers/STM32G4xx_HAL_Driver/Src/stm32g4xx_hal_pcd.c **** 
  93:Drivers/STM32G4xx_HAL_Driver/Src/stm32g4xx_hal_pcd.c **** static HAL_StatusTypeDef PCD_EP_ISR_Handler(PCD_HandleTypeDef *hpcd);
  94:Drivers/STM32G4xx_HAL_Driver/Src/stm32g4xx_hal_pcd.c **** #if (USE_USB_DOUBLE_BUFFER == 1U)
  95:Drivers/STM32G4xx_HAL_Driver/Src/stm32g4xx_hal_pcd.c **** static HAL_StatusTypeDef HAL_PCD_EP_DB_Transmit(PCD_HandleTypeDef *hpcd, PCD_EPTypeDef *ep, uint16_
  96:Drivers/STM32G4xx_HAL_Driver/Src/stm32g4xx_hal_pcd.c **** static uint16_t HAL_PCD_EP_DB_Receive(PCD_HandleTypeDef *hpcd, PCD_EPTypeDef *ep, uint16_t wEPVal);
  97:Drivers/STM32G4xx_HAL_Driver/Src/stm32g4xx_hal_pcd.c **** #endif /* (USE_USB_DOUBLE_BUFFER == 1U) */
  98:Drivers/STM32G4xx_HAL_Driver/Src/stm32g4xx_hal_pcd.c **** 
  99:Drivers/STM32G4xx_HAL_Driver/Src/stm32g4xx_hal_pcd.c **** /**
 100:Drivers/STM32G4xx_HAL_Driver/Src/stm32g4xx_hal_pcd.c ****   * @}
 101:Drivers/STM32G4xx_HAL_Driver/Src/stm32g4xx_hal_pcd.c ****   */
 102:Drivers/STM32G4xx_HAL_Driver/Src/stm32g4xx_hal_pcd.c **** 
 103:Drivers/STM32G4xx_HAL_Driver/Src/stm32g4xx_hal_pcd.c **** /* Exported functions --------------------------------------------------------*/
 104:Drivers/STM32G4xx_HAL_Driver/Src/stm32g4xx_hal_pcd.c **** /** @defgroup PCD_Exported_Functions PCD Exported Functions
 105:Drivers/STM32G4xx_HAL_Driver/Src/stm32g4xx_hal_pcd.c ****   * @{
 106:Drivers/STM32G4xx_HAL_Driver/Src/stm32g4xx_hal_pcd.c ****   */
 107:Drivers/STM32G4xx_HAL_Driver/Src/stm32g4xx_hal_pcd.c **** 
 108:Drivers/STM32G4xx_HAL_Driver/Src/stm32g4xx_hal_pcd.c **** /** @defgroup PCD_Exported_Functions_Group1 Initialization and de-initialization functions
 109:Drivers/STM32G4xx_HAL_Driver/Src/stm32g4xx_hal_pcd.c ****   *  @brief    Initialization and Configuration functions
 110:Drivers/STM32G4xx_HAL_Driver/Src/stm32g4xx_hal_pcd.c ****   *
 111:Drivers/STM32G4xx_HAL_Driver/Src/stm32g4xx_hal_pcd.c **** @verbatim
 112:Drivers/STM32G4xx_HAL_Driver/Src/stm32g4xx_hal_pcd.c ****  ===============================================================================
 113:Drivers/STM32G4xx_HAL_Driver/Src/stm32g4xx_hal_pcd.c ****             ##### Initialization and de-initialization functions #####
 114:Drivers/STM32G4xx_HAL_Driver/Src/stm32g4xx_hal_pcd.c ****  ===============================================================================
 115:Drivers/STM32G4xx_HAL_Driver/Src/stm32g4xx_hal_pcd.c ****     [..]  This section provides functions allowing to:
 116:Drivers/STM32G4xx_HAL_Driver/Src/stm32g4xx_hal_pcd.c **** 
 117:Drivers/STM32G4xx_HAL_Driver/Src/stm32g4xx_hal_pcd.c **** @endverbatim
 118:Drivers/STM32G4xx_HAL_Driver/Src/stm32g4xx_hal_pcd.c ****   * @{
 119:Drivers/STM32G4xx_HAL_Driver/Src/stm32g4xx_hal_pcd.c ****   */
 120:Drivers/STM32G4xx_HAL_Driver/Src/stm32g4xx_hal_pcd.c **** 
 121:Drivers/STM32G4xx_HAL_Driver/Src/stm32g4xx_hal_pcd.c **** /**
 122:Drivers/STM32G4xx_HAL_Driver/Src/stm32g4xx_hal_pcd.c ****   * @brief  Initializes the PCD according to the specified
 123:Drivers/STM32G4xx_HAL_Driver/Src/stm32g4xx_hal_pcd.c ****   *         parameters in the PCD_InitTypeDef and initialize the associated handle.
 124:Drivers/STM32G4xx_HAL_Driver/Src/stm32g4xx_hal_pcd.c ****   * @param  hpcd PCD handle
 125:Drivers/STM32G4xx_HAL_Driver/Src/stm32g4xx_hal_pcd.c ****   * @retval HAL status
 126:Drivers/STM32G4xx_HAL_Driver/Src/stm32g4xx_hal_pcd.c ****   */
 127:Drivers/STM32G4xx_HAL_Driver/Src/stm32g4xx_hal_pcd.c **** HAL_StatusTypeDef HAL_PCD_Init(PCD_HandleTypeDef *hpcd)
 128:Drivers/STM32G4xx_HAL_Driver/Src/stm32g4xx_hal_pcd.c **** {
 129:Drivers/STM32G4xx_HAL_Driver/Src/stm32g4xx_hal_pcd.c ****   uint8_t i;
 130:Drivers/STM32G4xx_HAL_Driver/Src/stm32g4xx_hal_pcd.c **** 
 131:Drivers/STM32G4xx_HAL_Driver/Src/stm32g4xx_hal_pcd.c ****   /* Check the PCD handle allocation */
 132:Drivers/STM32G4xx_HAL_Driver/Src/stm32g4xx_hal_pcd.c ****   if (hpcd == NULL)
 133:Drivers/STM32G4xx_HAL_Driver/Src/stm32g4xx_hal_pcd.c ****   {
 134:Drivers/STM32G4xx_HAL_Driver/Src/stm32g4xx_hal_pcd.c ****     return HAL_ERROR;
 135:Drivers/STM32G4xx_HAL_Driver/Src/stm32g4xx_hal_pcd.c ****   }
 136:Drivers/STM32G4xx_HAL_Driver/Src/stm32g4xx_hal_pcd.c **** 
 137:Drivers/STM32G4xx_HAL_Driver/Src/stm32g4xx_hal_pcd.c ****   /* Check the parameters */
 138:Drivers/STM32G4xx_HAL_Driver/Src/stm32g4xx_hal_pcd.c ****   assert_param(IS_PCD_ALL_INSTANCE(hpcd->Instance));
 139:Drivers/STM32G4xx_HAL_Driver/Src/stm32g4xx_hal_pcd.c **** 
 140:Drivers/STM32G4xx_HAL_Driver/Src/stm32g4xx_hal_pcd.c ****   if (hpcd->State == HAL_PCD_STATE_RESET)
 141:Drivers/STM32G4xx_HAL_Driver/Src/stm32g4xx_hal_pcd.c ****   {
 142:Drivers/STM32G4xx_HAL_Driver/Src/stm32g4xx_hal_pcd.c ****     /* Allocate lock resource and initialize it */
 143:Drivers/STM32G4xx_HAL_Driver/Src/stm32g4xx_hal_pcd.c ****     hpcd->Lock = HAL_UNLOCKED;
 144:Drivers/STM32G4xx_HAL_Driver/Src/stm32g4xx_hal_pcd.c **** 
ARM GAS  /tmp/ccXaRXaA.s 			page 4


 145:Drivers/STM32G4xx_HAL_Driver/Src/stm32g4xx_hal_pcd.c **** #if (USE_HAL_PCD_REGISTER_CALLBACKS == 1U)
 146:Drivers/STM32G4xx_HAL_Driver/Src/stm32g4xx_hal_pcd.c ****     hpcd->SOFCallback = HAL_PCD_SOFCallback;
 147:Drivers/STM32G4xx_HAL_Driver/Src/stm32g4xx_hal_pcd.c ****     hpcd->SetupStageCallback = HAL_PCD_SetupStageCallback;
 148:Drivers/STM32G4xx_HAL_Driver/Src/stm32g4xx_hal_pcd.c ****     hpcd->ResetCallback = HAL_PCD_ResetCallback;
 149:Drivers/STM32G4xx_HAL_Driver/Src/stm32g4xx_hal_pcd.c ****     hpcd->SuspendCallback = HAL_PCD_SuspendCallback;
 150:Drivers/STM32G4xx_HAL_Driver/Src/stm32g4xx_hal_pcd.c ****     hpcd->ResumeCallback = HAL_PCD_ResumeCallback;
 151:Drivers/STM32G4xx_HAL_Driver/Src/stm32g4xx_hal_pcd.c ****     hpcd->ConnectCallback = HAL_PCD_ConnectCallback;
 152:Drivers/STM32G4xx_HAL_Driver/Src/stm32g4xx_hal_pcd.c ****     hpcd->DisconnectCallback = HAL_PCD_DisconnectCallback;
 153:Drivers/STM32G4xx_HAL_Driver/Src/stm32g4xx_hal_pcd.c ****     hpcd->DataOutStageCallback = HAL_PCD_DataOutStageCallback;
 154:Drivers/STM32G4xx_HAL_Driver/Src/stm32g4xx_hal_pcd.c ****     hpcd->DataInStageCallback = HAL_PCD_DataInStageCallback;
 155:Drivers/STM32G4xx_HAL_Driver/Src/stm32g4xx_hal_pcd.c ****     hpcd->ISOOUTIncompleteCallback = HAL_PCD_ISOOUTIncompleteCallback;
 156:Drivers/STM32G4xx_HAL_Driver/Src/stm32g4xx_hal_pcd.c ****     hpcd->ISOINIncompleteCallback = HAL_PCD_ISOINIncompleteCallback;
 157:Drivers/STM32G4xx_HAL_Driver/Src/stm32g4xx_hal_pcd.c ****     hpcd->LPMCallback = HAL_PCDEx_LPM_Callback;
 158:Drivers/STM32G4xx_HAL_Driver/Src/stm32g4xx_hal_pcd.c ****     hpcd->BCDCallback = HAL_PCDEx_BCD_Callback;
 159:Drivers/STM32G4xx_HAL_Driver/Src/stm32g4xx_hal_pcd.c **** 
 160:Drivers/STM32G4xx_HAL_Driver/Src/stm32g4xx_hal_pcd.c ****     if (hpcd->MspInitCallback == NULL)
 161:Drivers/STM32G4xx_HAL_Driver/Src/stm32g4xx_hal_pcd.c ****     {
 162:Drivers/STM32G4xx_HAL_Driver/Src/stm32g4xx_hal_pcd.c ****       hpcd->MspInitCallback = HAL_PCD_MspInit;
 163:Drivers/STM32G4xx_HAL_Driver/Src/stm32g4xx_hal_pcd.c ****     }
 164:Drivers/STM32G4xx_HAL_Driver/Src/stm32g4xx_hal_pcd.c **** 
 165:Drivers/STM32G4xx_HAL_Driver/Src/stm32g4xx_hal_pcd.c ****     /* Init the low level hardware */
 166:Drivers/STM32G4xx_HAL_Driver/Src/stm32g4xx_hal_pcd.c ****     hpcd->MspInitCallback(hpcd);
 167:Drivers/STM32G4xx_HAL_Driver/Src/stm32g4xx_hal_pcd.c **** #else
 168:Drivers/STM32G4xx_HAL_Driver/Src/stm32g4xx_hal_pcd.c ****     /* Init the low level hardware : GPIO, CLOCK, NVIC... */
 169:Drivers/STM32G4xx_HAL_Driver/Src/stm32g4xx_hal_pcd.c ****     HAL_PCD_MspInit(hpcd);
 170:Drivers/STM32G4xx_HAL_Driver/Src/stm32g4xx_hal_pcd.c **** #endif /* (USE_HAL_PCD_REGISTER_CALLBACKS) */
 171:Drivers/STM32G4xx_HAL_Driver/Src/stm32g4xx_hal_pcd.c ****   }
 172:Drivers/STM32G4xx_HAL_Driver/Src/stm32g4xx_hal_pcd.c **** 
 173:Drivers/STM32G4xx_HAL_Driver/Src/stm32g4xx_hal_pcd.c ****   hpcd->State = HAL_PCD_STATE_BUSY;
 174:Drivers/STM32G4xx_HAL_Driver/Src/stm32g4xx_hal_pcd.c **** 
 175:Drivers/STM32G4xx_HAL_Driver/Src/stm32g4xx_hal_pcd.c ****   /* Disable the Interrupts */
 176:Drivers/STM32G4xx_HAL_Driver/Src/stm32g4xx_hal_pcd.c ****   __HAL_PCD_DISABLE(hpcd);
 177:Drivers/STM32G4xx_HAL_Driver/Src/stm32g4xx_hal_pcd.c **** 
 178:Drivers/STM32G4xx_HAL_Driver/Src/stm32g4xx_hal_pcd.c ****   /* Init endpoints structures */
 179:Drivers/STM32G4xx_HAL_Driver/Src/stm32g4xx_hal_pcd.c ****   for (i = 0U; i < hpcd->Init.dev_endpoints; i++)
 180:Drivers/STM32G4xx_HAL_Driver/Src/stm32g4xx_hal_pcd.c ****   {
 181:Drivers/STM32G4xx_HAL_Driver/Src/stm32g4xx_hal_pcd.c ****     /* Init ep structure */
 182:Drivers/STM32G4xx_HAL_Driver/Src/stm32g4xx_hal_pcd.c ****     hpcd->IN_ep[i].is_in = 1U;
 183:Drivers/STM32G4xx_HAL_Driver/Src/stm32g4xx_hal_pcd.c ****     hpcd->IN_ep[i].num = i;
 184:Drivers/STM32G4xx_HAL_Driver/Src/stm32g4xx_hal_pcd.c ****     /* Control until ep is activated */
 185:Drivers/STM32G4xx_HAL_Driver/Src/stm32g4xx_hal_pcd.c ****     hpcd->IN_ep[i].type = EP_TYPE_CTRL;
 186:Drivers/STM32G4xx_HAL_Driver/Src/stm32g4xx_hal_pcd.c ****     hpcd->IN_ep[i].maxpacket = 0U;
 187:Drivers/STM32G4xx_HAL_Driver/Src/stm32g4xx_hal_pcd.c ****     hpcd->IN_ep[i].xfer_buff = 0U;
 188:Drivers/STM32G4xx_HAL_Driver/Src/stm32g4xx_hal_pcd.c ****     hpcd->IN_ep[i].xfer_len = 0U;
 189:Drivers/STM32G4xx_HAL_Driver/Src/stm32g4xx_hal_pcd.c ****   }
 190:Drivers/STM32G4xx_HAL_Driver/Src/stm32g4xx_hal_pcd.c **** 
 191:Drivers/STM32G4xx_HAL_Driver/Src/stm32g4xx_hal_pcd.c ****   for (i = 0U; i < hpcd->Init.dev_endpoints; i++)
 192:Drivers/STM32G4xx_HAL_Driver/Src/stm32g4xx_hal_pcd.c ****   {
 193:Drivers/STM32G4xx_HAL_Driver/Src/stm32g4xx_hal_pcd.c ****     hpcd->OUT_ep[i].is_in = 0U;
 194:Drivers/STM32G4xx_HAL_Driver/Src/stm32g4xx_hal_pcd.c ****     hpcd->OUT_ep[i].num = i;
 195:Drivers/STM32G4xx_HAL_Driver/Src/stm32g4xx_hal_pcd.c ****     /* Control until ep is activated */
 196:Drivers/STM32G4xx_HAL_Driver/Src/stm32g4xx_hal_pcd.c ****     hpcd->OUT_ep[i].type = EP_TYPE_CTRL;
 197:Drivers/STM32G4xx_HAL_Driver/Src/stm32g4xx_hal_pcd.c ****     hpcd->OUT_ep[i].maxpacket = 0U;
 198:Drivers/STM32G4xx_HAL_Driver/Src/stm32g4xx_hal_pcd.c ****     hpcd->OUT_ep[i].xfer_buff = 0U;
 199:Drivers/STM32G4xx_HAL_Driver/Src/stm32g4xx_hal_pcd.c ****     hpcd->OUT_ep[i].xfer_len = 0U;
 200:Drivers/STM32G4xx_HAL_Driver/Src/stm32g4xx_hal_pcd.c ****   }
 201:Drivers/STM32G4xx_HAL_Driver/Src/stm32g4xx_hal_pcd.c **** 
ARM GAS  /tmp/ccXaRXaA.s 			page 5


 202:Drivers/STM32G4xx_HAL_Driver/Src/stm32g4xx_hal_pcd.c ****   /* Init Device */
 203:Drivers/STM32G4xx_HAL_Driver/Src/stm32g4xx_hal_pcd.c ****   (void)USB_DevInit(hpcd->Instance, hpcd->Init);
 204:Drivers/STM32G4xx_HAL_Driver/Src/stm32g4xx_hal_pcd.c **** 
 205:Drivers/STM32G4xx_HAL_Driver/Src/stm32g4xx_hal_pcd.c ****   hpcd->USB_Address = 0U;
 206:Drivers/STM32G4xx_HAL_Driver/Src/stm32g4xx_hal_pcd.c ****   hpcd->State = HAL_PCD_STATE_READY;
 207:Drivers/STM32G4xx_HAL_Driver/Src/stm32g4xx_hal_pcd.c **** 
 208:Drivers/STM32G4xx_HAL_Driver/Src/stm32g4xx_hal_pcd.c ****   /* Activate LPM */
 209:Drivers/STM32G4xx_HAL_Driver/Src/stm32g4xx_hal_pcd.c ****   if (hpcd->Init.lpm_enable == 1U)
 210:Drivers/STM32G4xx_HAL_Driver/Src/stm32g4xx_hal_pcd.c ****   {
 211:Drivers/STM32G4xx_HAL_Driver/Src/stm32g4xx_hal_pcd.c ****     (void)HAL_PCDEx_ActivateLPM(hpcd);
 212:Drivers/STM32G4xx_HAL_Driver/Src/stm32g4xx_hal_pcd.c ****   }
 213:Drivers/STM32G4xx_HAL_Driver/Src/stm32g4xx_hal_pcd.c **** 
 214:Drivers/STM32G4xx_HAL_Driver/Src/stm32g4xx_hal_pcd.c ****   return HAL_OK;
 215:Drivers/STM32G4xx_HAL_Driver/Src/stm32g4xx_hal_pcd.c **** }
 216:Drivers/STM32G4xx_HAL_Driver/Src/stm32g4xx_hal_pcd.c **** 
 217:Drivers/STM32G4xx_HAL_Driver/Src/stm32g4xx_hal_pcd.c **** /**
 218:Drivers/STM32G4xx_HAL_Driver/Src/stm32g4xx_hal_pcd.c ****   * @brief  DeInitializes the PCD peripheral.
 219:Drivers/STM32G4xx_HAL_Driver/Src/stm32g4xx_hal_pcd.c ****   * @param  hpcd PCD handle
 220:Drivers/STM32G4xx_HAL_Driver/Src/stm32g4xx_hal_pcd.c ****   * @retval HAL status
 221:Drivers/STM32G4xx_HAL_Driver/Src/stm32g4xx_hal_pcd.c ****   */
 222:Drivers/STM32G4xx_HAL_Driver/Src/stm32g4xx_hal_pcd.c **** HAL_StatusTypeDef HAL_PCD_DeInit(PCD_HandleTypeDef *hpcd)
 223:Drivers/STM32G4xx_HAL_Driver/Src/stm32g4xx_hal_pcd.c **** {
 224:Drivers/STM32G4xx_HAL_Driver/Src/stm32g4xx_hal_pcd.c ****   /* Check the PCD handle allocation */
 225:Drivers/STM32G4xx_HAL_Driver/Src/stm32g4xx_hal_pcd.c ****   if (hpcd == NULL)
 226:Drivers/STM32G4xx_HAL_Driver/Src/stm32g4xx_hal_pcd.c ****   {
 227:Drivers/STM32G4xx_HAL_Driver/Src/stm32g4xx_hal_pcd.c ****     return HAL_ERROR;
 228:Drivers/STM32G4xx_HAL_Driver/Src/stm32g4xx_hal_pcd.c ****   }
 229:Drivers/STM32G4xx_HAL_Driver/Src/stm32g4xx_hal_pcd.c **** 
 230:Drivers/STM32G4xx_HAL_Driver/Src/stm32g4xx_hal_pcd.c ****   hpcd->State = HAL_PCD_STATE_BUSY;
 231:Drivers/STM32G4xx_HAL_Driver/Src/stm32g4xx_hal_pcd.c **** 
 232:Drivers/STM32G4xx_HAL_Driver/Src/stm32g4xx_hal_pcd.c ****   /* Stop Device */
 233:Drivers/STM32G4xx_HAL_Driver/Src/stm32g4xx_hal_pcd.c ****   if (USB_StopDevice(hpcd->Instance) != HAL_OK)
 234:Drivers/STM32G4xx_HAL_Driver/Src/stm32g4xx_hal_pcd.c ****   {
 235:Drivers/STM32G4xx_HAL_Driver/Src/stm32g4xx_hal_pcd.c ****     return HAL_ERROR;
 236:Drivers/STM32G4xx_HAL_Driver/Src/stm32g4xx_hal_pcd.c ****   }
 237:Drivers/STM32G4xx_HAL_Driver/Src/stm32g4xx_hal_pcd.c **** 
 238:Drivers/STM32G4xx_HAL_Driver/Src/stm32g4xx_hal_pcd.c **** #if (USE_HAL_PCD_REGISTER_CALLBACKS == 1U)
 239:Drivers/STM32G4xx_HAL_Driver/Src/stm32g4xx_hal_pcd.c ****   if (hpcd->MspDeInitCallback == NULL)
 240:Drivers/STM32G4xx_HAL_Driver/Src/stm32g4xx_hal_pcd.c ****   {
 241:Drivers/STM32G4xx_HAL_Driver/Src/stm32g4xx_hal_pcd.c ****     hpcd->MspDeInitCallback = HAL_PCD_MspDeInit; /* Legacy weak MspDeInit  */
 242:Drivers/STM32G4xx_HAL_Driver/Src/stm32g4xx_hal_pcd.c ****   }
 243:Drivers/STM32G4xx_HAL_Driver/Src/stm32g4xx_hal_pcd.c **** 
 244:Drivers/STM32G4xx_HAL_Driver/Src/stm32g4xx_hal_pcd.c ****   /* DeInit the low level hardware */
 245:Drivers/STM32G4xx_HAL_Driver/Src/stm32g4xx_hal_pcd.c ****   hpcd->MspDeInitCallback(hpcd);
 246:Drivers/STM32G4xx_HAL_Driver/Src/stm32g4xx_hal_pcd.c **** #else
 247:Drivers/STM32G4xx_HAL_Driver/Src/stm32g4xx_hal_pcd.c ****   /* DeInit the low level hardware: CLOCK, NVIC.*/
 248:Drivers/STM32G4xx_HAL_Driver/Src/stm32g4xx_hal_pcd.c ****   HAL_PCD_MspDeInit(hpcd);
 249:Drivers/STM32G4xx_HAL_Driver/Src/stm32g4xx_hal_pcd.c **** #endif /* USE_HAL_PCD_REGISTER_CALLBACKS */
 250:Drivers/STM32G4xx_HAL_Driver/Src/stm32g4xx_hal_pcd.c **** 
 251:Drivers/STM32G4xx_HAL_Driver/Src/stm32g4xx_hal_pcd.c ****   hpcd->State = HAL_PCD_STATE_RESET;
 252:Drivers/STM32G4xx_HAL_Driver/Src/stm32g4xx_hal_pcd.c **** 
 253:Drivers/STM32G4xx_HAL_Driver/Src/stm32g4xx_hal_pcd.c ****   return HAL_OK;
 254:Drivers/STM32G4xx_HAL_Driver/Src/stm32g4xx_hal_pcd.c **** }
 255:Drivers/STM32G4xx_HAL_Driver/Src/stm32g4xx_hal_pcd.c **** 
 256:Drivers/STM32G4xx_HAL_Driver/Src/stm32g4xx_hal_pcd.c **** /**
 257:Drivers/STM32G4xx_HAL_Driver/Src/stm32g4xx_hal_pcd.c ****   * @brief  Initializes the PCD MSP.
 258:Drivers/STM32G4xx_HAL_Driver/Src/stm32g4xx_hal_pcd.c ****   * @param  hpcd PCD handle
ARM GAS  /tmp/ccXaRXaA.s 			page 6


 259:Drivers/STM32G4xx_HAL_Driver/Src/stm32g4xx_hal_pcd.c ****   * @retval None
 260:Drivers/STM32G4xx_HAL_Driver/Src/stm32g4xx_hal_pcd.c ****   */
 261:Drivers/STM32G4xx_HAL_Driver/Src/stm32g4xx_hal_pcd.c **** __weak void HAL_PCD_MspInit(PCD_HandleTypeDef *hpcd)
 262:Drivers/STM32G4xx_HAL_Driver/Src/stm32g4xx_hal_pcd.c **** {
 263:Drivers/STM32G4xx_HAL_Driver/Src/stm32g4xx_hal_pcd.c ****   /* Prevent unused argument(s) compilation warning */
 264:Drivers/STM32G4xx_HAL_Driver/Src/stm32g4xx_hal_pcd.c ****   UNUSED(hpcd);
 265:Drivers/STM32G4xx_HAL_Driver/Src/stm32g4xx_hal_pcd.c **** 
 266:Drivers/STM32G4xx_HAL_Driver/Src/stm32g4xx_hal_pcd.c ****   /* NOTE : This function should not be modified, when the callback is needed,
 267:Drivers/STM32G4xx_HAL_Driver/Src/stm32g4xx_hal_pcd.c ****             the HAL_PCD_MspInit could be implemented in the user file
 268:Drivers/STM32G4xx_HAL_Driver/Src/stm32g4xx_hal_pcd.c ****    */
 269:Drivers/STM32G4xx_HAL_Driver/Src/stm32g4xx_hal_pcd.c **** }
 270:Drivers/STM32G4xx_HAL_Driver/Src/stm32g4xx_hal_pcd.c **** 
 271:Drivers/STM32G4xx_HAL_Driver/Src/stm32g4xx_hal_pcd.c **** /**
 272:Drivers/STM32G4xx_HAL_Driver/Src/stm32g4xx_hal_pcd.c ****   * @brief  DeInitializes PCD MSP.
 273:Drivers/STM32G4xx_HAL_Driver/Src/stm32g4xx_hal_pcd.c ****   * @param  hpcd PCD handle
 274:Drivers/STM32G4xx_HAL_Driver/Src/stm32g4xx_hal_pcd.c ****   * @retval None
 275:Drivers/STM32G4xx_HAL_Driver/Src/stm32g4xx_hal_pcd.c ****   */
 276:Drivers/STM32G4xx_HAL_Driver/Src/stm32g4xx_hal_pcd.c **** __weak void HAL_PCD_MspDeInit(PCD_HandleTypeDef *hpcd)
 277:Drivers/STM32G4xx_HAL_Driver/Src/stm32g4xx_hal_pcd.c **** {
 278:Drivers/STM32G4xx_HAL_Driver/Src/stm32g4xx_hal_pcd.c ****   /* Prevent unused argument(s) compilation warning */
 279:Drivers/STM32G4xx_HAL_Driver/Src/stm32g4xx_hal_pcd.c ****   UNUSED(hpcd);
 280:Drivers/STM32G4xx_HAL_Driver/Src/stm32g4xx_hal_pcd.c **** 
 281:Drivers/STM32G4xx_HAL_Driver/Src/stm32g4xx_hal_pcd.c ****   /* NOTE : This function should not be modified, when the callback is needed,
 282:Drivers/STM32G4xx_HAL_Driver/Src/stm32g4xx_hal_pcd.c ****             the HAL_PCD_MspDeInit could be implemented in the user file
 283:Drivers/STM32G4xx_HAL_Driver/Src/stm32g4xx_hal_pcd.c ****    */
 284:Drivers/STM32G4xx_HAL_Driver/Src/stm32g4xx_hal_pcd.c **** }
 285:Drivers/STM32G4xx_HAL_Driver/Src/stm32g4xx_hal_pcd.c **** 
 286:Drivers/STM32G4xx_HAL_Driver/Src/stm32g4xx_hal_pcd.c **** #if (USE_HAL_PCD_REGISTER_CALLBACKS == 1U)
 287:Drivers/STM32G4xx_HAL_Driver/Src/stm32g4xx_hal_pcd.c **** /**
 288:Drivers/STM32G4xx_HAL_Driver/Src/stm32g4xx_hal_pcd.c ****   * @brief  Register a User USB PCD Callback
 289:Drivers/STM32G4xx_HAL_Driver/Src/stm32g4xx_hal_pcd.c ****   *         To be used instead of the weak predefined callback
 290:Drivers/STM32G4xx_HAL_Driver/Src/stm32g4xx_hal_pcd.c ****   * @param  hpcd USB PCD handle
 291:Drivers/STM32G4xx_HAL_Driver/Src/stm32g4xx_hal_pcd.c ****   * @param  CallbackID ID of the callback to be registered
 292:Drivers/STM32G4xx_HAL_Driver/Src/stm32g4xx_hal_pcd.c ****   *         This parameter can be one of the following values:
 293:Drivers/STM32G4xx_HAL_Driver/Src/stm32g4xx_hal_pcd.c ****   *          @arg @ref HAL_PCD_SOF_CB_ID USB PCD SOF callback ID
 294:Drivers/STM32G4xx_HAL_Driver/Src/stm32g4xx_hal_pcd.c ****   *          @arg @ref HAL_PCD_SETUPSTAGE_CB_ID USB PCD Setup callback ID
 295:Drivers/STM32G4xx_HAL_Driver/Src/stm32g4xx_hal_pcd.c ****   *          @arg @ref HAL_PCD_RESET_CB_ID USB PCD Reset callback ID
 296:Drivers/STM32G4xx_HAL_Driver/Src/stm32g4xx_hal_pcd.c ****   *          @arg @ref HAL_PCD_SUSPEND_CB_ID USB PCD Suspend callback ID
 297:Drivers/STM32G4xx_HAL_Driver/Src/stm32g4xx_hal_pcd.c ****   *          @arg @ref HAL_PCD_RESUME_CB_ID USB PCD Resume callback ID
 298:Drivers/STM32G4xx_HAL_Driver/Src/stm32g4xx_hal_pcd.c ****   *          @arg @ref HAL_PCD_CONNECT_CB_ID USB PCD Connect callback ID
 299:Drivers/STM32G4xx_HAL_Driver/Src/stm32g4xx_hal_pcd.c ****   *          @arg @ref HAL_PCD_DISCONNECT_CB_ID USB PCD Disconnect callback ID
 300:Drivers/STM32G4xx_HAL_Driver/Src/stm32g4xx_hal_pcd.c ****   *          @arg @ref HAL_PCD_MSPINIT_CB_ID MspDeInit callback ID
 301:Drivers/STM32G4xx_HAL_Driver/Src/stm32g4xx_hal_pcd.c ****   *          @arg @ref HAL_PCD_MSPDEINIT_CB_ID MspDeInit callback ID
 302:Drivers/STM32G4xx_HAL_Driver/Src/stm32g4xx_hal_pcd.c ****   * @param  pCallback pointer to the Callback function
 303:Drivers/STM32G4xx_HAL_Driver/Src/stm32g4xx_hal_pcd.c ****   * @retval HAL status
 304:Drivers/STM32G4xx_HAL_Driver/Src/stm32g4xx_hal_pcd.c ****   */
 305:Drivers/STM32G4xx_HAL_Driver/Src/stm32g4xx_hal_pcd.c **** HAL_StatusTypeDef HAL_PCD_RegisterCallback(PCD_HandleTypeDef *hpcd,
 306:Drivers/STM32G4xx_HAL_Driver/Src/stm32g4xx_hal_pcd.c ****                                            HAL_PCD_CallbackIDTypeDef CallbackID,
 307:Drivers/STM32G4xx_HAL_Driver/Src/stm32g4xx_hal_pcd.c ****                                            pPCD_CallbackTypeDef pCallback)
 308:Drivers/STM32G4xx_HAL_Driver/Src/stm32g4xx_hal_pcd.c **** {
 309:Drivers/STM32G4xx_HAL_Driver/Src/stm32g4xx_hal_pcd.c ****   HAL_StatusTypeDef status = HAL_OK;
 310:Drivers/STM32G4xx_HAL_Driver/Src/stm32g4xx_hal_pcd.c **** 
 311:Drivers/STM32G4xx_HAL_Driver/Src/stm32g4xx_hal_pcd.c ****   if (pCallback == NULL)
 312:Drivers/STM32G4xx_HAL_Driver/Src/stm32g4xx_hal_pcd.c ****   {
 313:Drivers/STM32G4xx_HAL_Driver/Src/stm32g4xx_hal_pcd.c ****     /* Update the error code */
 314:Drivers/STM32G4xx_HAL_Driver/Src/stm32g4xx_hal_pcd.c ****     hpcd->ErrorCode |= HAL_PCD_ERROR_INVALID_CALLBACK;
 315:Drivers/STM32G4xx_HAL_Driver/Src/stm32g4xx_hal_pcd.c ****     return HAL_ERROR;
ARM GAS  /tmp/ccXaRXaA.s 			page 7


 316:Drivers/STM32G4xx_HAL_Driver/Src/stm32g4xx_hal_pcd.c ****   }
 317:Drivers/STM32G4xx_HAL_Driver/Src/stm32g4xx_hal_pcd.c **** 
 318:Drivers/STM32G4xx_HAL_Driver/Src/stm32g4xx_hal_pcd.c ****   if (hpcd->State == HAL_PCD_STATE_READY)
 319:Drivers/STM32G4xx_HAL_Driver/Src/stm32g4xx_hal_pcd.c ****   {
 320:Drivers/STM32G4xx_HAL_Driver/Src/stm32g4xx_hal_pcd.c ****     switch (CallbackID)
 321:Drivers/STM32G4xx_HAL_Driver/Src/stm32g4xx_hal_pcd.c ****     {
 322:Drivers/STM32G4xx_HAL_Driver/Src/stm32g4xx_hal_pcd.c ****       case HAL_PCD_SOF_CB_ID :
 323:Drivers/STM32G4xx_HAL_Driver/Src/stm32g4xx_hal_pcd.c ****         hpcd->SOFCallback = pCallback;
 324:Drivers/STM32G4xx_HAL_Driver/Src/stm32g4xx_hal_pcd.c ****         break;
 325:Drivers/STM32G4xx_HAL_Driver/Src/stm32g4xx_hal_pcd.c **** 
 326:Drivers/STM32G4xx_HAL_Driver/Src/stm32g4xx_hal_pcd.c ****       case HAL_PCD_SETUPSTAGE_CB_ID :
 327:Drivers/STM32G4xx_HAL_Driver/Src/stm32g4xx_hal_pcd.c ****         hpcd->SetupStageCallback = pCallback;
 328:Drivers/STM32G4xx_HAL_Driver/Src/stm32g4xx_hal_pcd.c ****         break;
 329:Drivers/STM32G4xx_HAL_Driver/Src/stm32g4xx_hal_pcd.c **** 
 330:Drivers/STM32G4xx_HAL_Driver/Src/stm32g4xx_hal_pcd.c ****       case HAL_PCD_RESET_CB_ID :
 331:Drivers/STM32G4xx_HAL_Driver/Src/stm32g4xx_hal_pcd.c ****         hpcd->ResetCallback = pCallback;
 332:Drivers/STM32G4xx_HAL_Driver/Src/stm32g4xx_hal_pcd.c ****         break;
 333:Drivers/STM32G4xx_HAL_Driver/Src/stm32g4xx_hal_pcd.c **** 
 334:Drivers/STM32G4xx_HAL_Driver/Src/stm32g4xx_hal_pcd.c ****       case HAL_PCD_SUSPEND_CB_ID :
 335:Drivers/STM32G4xx_HAL_Driver/Src/stm32g4xx_hal_pcd.c ****         hpcd->SuspendCallback = pCallback;
 336:Drivers/STM32G4xx_HAL_Driver/Src/stm32g4xx_hal_pcd.c ****         break;
 337:Drivers/STM32G4xx_HAL_Driver/Src/stm32g4xx_hal_pcd.c **** 
 338:Drivers/STM32G4xx_HAL_Driver/Src/stm32g4xx_hal_pcd.c ****       case HAL_PCD_RESUME_CB_ID :
 339:Drivers/STM32G4xx_HAL_Driver/Src/stm32g4xx_hal_pcd.c ****         hpcd->ResumeCallback = pCallback;
 340:Drivers/STM32G4xx_HAL_Driver/Src/stm32g4xx_hal_pcd.c ****         break;
 341:Drivers/STM32G4xx_HAL_Driver/Src/stm32g4xx_hal_pcd.c **** 
 342:Drivers/STM32G4xx_HAL_Driver/Src/stm32g4xx_hal_pcd.c ****       case HAL_PCD_CONNECT_CB_ID :
 343:Drivers/STM32G4xx_HAL_Driver/Src/stm32g4xx_hal_pcd.c ****         hpcd->ConnectCallback = pCallback;
 344:Drivers/STM32G4xx_HAL_Driver/Src/stm32g4xx_hal_pcd.c ****         break;
 345:Drivers/STM32G4xx_HAL_Driver/Src/stm32g4xx_hal_pcd.c **** 
 346:Drivers/STM32G4xx_HAL_Driver/Src/stm32g4xx_hal_pcd.c ****       case HAL_PCD_DISCONNECT_CB_ID :
 347:Drivers/STM32G4xx_HAL_Driver/Src/stm32g4xx_hal_pcd.c ****         hpcd->DisconnectCallback = pCallback;
 348:Drivers/STM32G4xx_HAL_Driver/Src/stm32g4xx_hal_pcd.c ****         break;
 349:Drivers/STM32G4xx_HAL_Driver/Src/stm32g4xx_hal_pcd.c **** 
 350:Drivers/STM32G4xx_HAL_Driver/Src/stm32g4xx_hal_pcd.c ****       case HAL_PCD_MSPINIT_CB_ID :
 351:Drivers/STM32G4xx_HAL_Driver/Src/stm32g4xx_hal_pcd.c ****         hpcd->MspInitCallback = pCallback;
 352:Drivers/STM32G4xx_HAL_Driver/Src/stm32g4xx_hal_pcd.c ****         break;
 353:Drivers/STM32G4xx_HAL_Driver/Src/stm32g4xx_hal_pcd.c **** 
 354:Drivers/STM32G4xx_HAL_Driver/Src/stm32g4xx_hal_pcd.c ****       case HAL_PCD_MSPDEINIT_CB_ID :
 355:Drivers/STM32G4xx_HAL_Driver/Src/stm32g4xx_hal_pcd.c ****         hpcd->MspDeInitCallback = pCallback;
 356:Drivers/STM32G4xx_HAL_Driver/Src/stm32g4xx_hal_pcd.c ****         break;
 357:Drivers/STM32G4xx_HAL_Driver/Src/stm32g4xx_hal_pcd.c **** 
 358:Drivers/STM32G4xx_HAL_Driver/Src/stm32g4xx_hal_pcd.c ****       default :
 359:Drivers/STM32G4xx_HAL_Driver/Src/stm32g4xx_hal_pcd.c ****         /* Update the error code */
 360:Drivers/STM32G4xx_HAL_Driver/Src/stm32g4xx_hal_pcd.c ****         hpcd->ErrorCode |= HAL_PCD_ERROR_INVALID_CALLBACK;
 361:Drivers/STM32G4xx_HAL_Driver/Src/stm32g4xx_hal_pcd.c ****         /* Return error status */
 362:Drivers/STM32G4xx_HAL_Driver/Src/stm32g4xx_hal_pcd.c ****         status =  HAL_ERROR;
 363:Drivers/STM32G4xx_HAL_Driver/Src/stm32g4xx_hal_pcd.c ****         break;
 364:Drivers/STM32G4xx_HAL_Driver/Src/stm32g4xx_hal_pcd.c ****     }
 365:Drivers/STM32G4xx_HAL_Driver/Src/stm32g4xx_hal_pcd.c ****   }
 366:Drivers/STM32G4xx_HAL_Driver/Src/stm32g4xx_hal_pcd.c ****   else if (hpcd->State == HAL_PCD_STATE_RESET)
 367:Drivers/STM32G4xx_HAL_Driver/Src/stm32g4xx_hal_pcd.c ****   {
 368:Drivers/STM32G4xx_HAL_Driver/Src/stm32g4xx_hal_pcd.c ****     switch (CallbackID)
 369:Drivers/STM32G4xx_HAL_Driver/Src/stm32g4xx_hal_pcd.c ****     {
 370:Drivers/STM32G4xx_HAL_Driver/Src/stm32g4xx_hal_pcd.c ****       case HAL_PCD_MSPINIT_CB_ID :
 371:Drivers/STM32G4xx_HAL_Driver/Src/stm32g4xx_hal_pcd.c ****         hpcd->MspInitCallback = pCallback;
 372:Drivers/STM32G4xx_HAL_Driver/Src/stm32g4xx_hal_pcd.c ****         break;
ARM GAS  /tmp/ccXaRXaA.s 			page 8


 373:Drivers/STM32G4xx_HAL_Driver/Src/stm32g4xx_hal_pcd.c **** 
 374:Drivers/STM32G4xx_HAL_Driver/Src/stm32g4xx_hal_pcd.c ****       case HAL_PCD_MSPDEINIT_CB_ID :
 375:Drivers/STM32G4xx_HAL_Driver/Src/stm32g4xx_hal_pcd.c ****         hpcd->MspDeInitCallback = pCallback;
 376:Drivers/STM32G4xx_HAL_Driver/Src/stm32g4xx_hal_pcd.c ****         break;
 377:Drivers/STM32G4xx_HAL_Driver/Src/stm32g4xx_hal_pcd.c **** 
 378:Drivers/STM32G4xx_HAL_Driver/Src/stm32g4xx_hal_pcd.c ****       default :
 379:Drivers/STM32G4xx_HAL_Driver/Src/stm32g4xx_hal_pcd.c ****         /* Update the error code */
 380:Drivers/STM32G4xx_HAL_Driver/Src/stm32g4xx_hal_pcd.c ****         hpcd->ErrorCode |= HAL_PCD_ERROR_INVALID_CALLBACK;
 381:Drivers/STM32G4xx_HAL_Driver/Src/stm32g4xx_hal_pcd.c ****         /* Return error status */
 382:Drivers/STM32G4xx_HAL_Driver/Src/stm32g4xx_hal_pcd.c ****         status =  HAL_ERROR;
 383:Drivers/STM32G4xx_HAL_Driver/Src/stm32g4xx_hal_pcd.c ****         break;
 384:Drivers/STM32G4xx_HAL_Driver/Src/stm32g4xx_hal_pcd.c ****     }
 385:Drivers/STM32G4xx_HAL_Driver/Src/stm32g4xx_hal_pcd.c ****   }
 386:Drivers/STM32G4xx_HAL_Driver/Src/stm32g4xx_hal_pcd.c ****   else
 387:Drivers/STM32G4xx_HAL_Driver/Src/stm32g4xx_hal_pcd.c ****   {
 388:Drivers/STM32G4xx_HAL_Driver/Src/stm32g4xx_hal_pcd.c ****     /* Update the error code */
 389:Drivers/STM32G4xx_HAL_Driver/Src/stm32g4xx_hal_pcd.c ****     hpcd->ErrorCode |= HAL_PCD_ERROR_INVALID_CALLBACK;
 390:Drivers/STM32G4xx_HAL_Driver/Src/stm32g4xx_hal_pcd.c ****     /* Return error status */
 391:Drivers/STM32G4xx_HAL_Driver/Src/stm32g4xx_hal_pcd.c ****     status =  HAL_ERROR;
 392:Drivers/STM32G4xx_HAL_Driver/Src/stm32g4xx_hal_pcd.c ****   }
 393:Drivers/STM32G4xx_HAL_Driver/Src/stm32g4xx_hal_pcd.c **** 
 394:Drivers/STM32G4xx_HAL_Driver/Src/stm32g4xx_hal_pcd.c ****   return status;
 395:Drivers/STM32G4xx_HAL_Driver/Src/stm32g4xx_hal_pcd.c **** }
 396:Drivers/STM32G4xx_HAL_Driver/Src/stm32g4xx_hal_pcd.c **** 
 397:Drivers/STM32G4xx_HAL_Driver/Src/stm32g4xx_hal_pcd.c **** /**
 398:Drivers/STM32G4xx_HAL_Driver/Src/stm32g4xx_hal_pcd.c ****   * @brief  Unregister an USB PCD Callback
 399:Drivers/STM32G4xx_HAL_Driver/Src/stm32g4xx_hal_pcd.c ****   *         USB PCD callback is redirected to the weak predefined callback
 400:Drivers/STM32G4xx_HAL_Driver/Src/stm32g4xx_hal_pcd.c ****   * @param  hpcd USB PCD handle
 401:Drivers/STM32G4xx_HAL_Driver/Src/stm32g4xx_hal_pcd.c ****   * @param  CallbackID ID of the callback to be unregistered
 402:Drivers/STM32G4xx_HAL_Driver/Src/stm32g4xx_hal_pcd.c ****   *         This parameter can be one of the following values:
 403:Drivers/STM32G4xx_HAL_Driver/Src/stm32g4xx_hal_pcd.c ****   *          @arg @ref HAL_PCD_SOF_CB_ID USB PCD SOF callback ID
 404:Drivers/STM32G4xx_HAL_Driver/Src/stm32g4xx_hal_pcd.c ****   *          @arg @ref HAL_PCD_SETUPSTAGE_CB_ID USB PCD Setup callback ID
 405:Drivers/STM32G4xx_HAL_Driver/Src/stm32g4xx_hal_pcd.c ****   *          @arg @ref HAL_PCD_RESET_CB_ID USB PCD Reset callback ID
 406:Drivers/STM32G4xx_HAL_Driver/Src/stm32g4xx_hal_pcd.c ****   *          @arg @ref HAL_PCD_SUSPEND_CB_ID USB PCD Suspend callback ID
 407:Drivers/STM32G4xx_HAL_Driver/Src/stm32g4xx_hal_pcd.c ****   *          @arg @ref HAL_PCD_RESUME_CB_ID USB PCD Resume callback ID
 408:Drivers/STM32G4xx_HAL_Driver/Src/stm32g4xx_hal_pcd.c ****   *          @arg @ref HAL_PCD_CONNECT_CB_ID USB PCD Connect callback ID
 409:Drivers/STM32G4xx_HAL_Driver/Src/stm32g4xx_hal_pcd.c ****   *          @arg @ref HAL_PCD_DISCONNECT_CB_ID USB PCD Disconnect callback ID
 410:Drivers/STM32G4xx_HAL_Driver/Src/stm32g4xx_hal_pcd.c ****   *          @arg @ref HAL_PCD_MSPINIT_CB_ID MspDeInit callback ID
 411:Drivers/STM32G4xx_HAL_Driver/Src/stm32g4xx_hal_pcd.c ****   *          @arg @ref HAL_PCD_MSPDEINIT_CB_ID MspDeInit callback ID
 412:Drivers/STM32G4xx_HAL_Driver/Src/stm32g4xx_hal_pcd.c ****   * @retval HAL status
 413:Drivers/STM32G4xx_HAL_Driver/Src/stm32g4xx_hal_pcd.c ****   */
 414:Drivers/STM32G4xx_HAL_Driver/Src/stm32g4xx_hal_pcd.c **** HAL_StatusTypeDef HAL_PCD_UnRegisterCallback(PCD_HandleTypeDef *hpcd, HAL_PCD_CallbackIDTypeDef Cal
 415:Drivers/STM32G4xx_HAL_Driver/Src/stm32g4xx_hal_pcd.c **** {
 416:Drivers/STM32G4xx_HAL_Driver/Src/stm32g4xx_hal_pcd.c ****   HAL_StatusTypeDef status = HAL_OK;
 417:Drivers/STM32G4xx_HAL_Driver/Src/stm32g4xx_hal_pcd.c **** 
 418:Drivers/STM32G4xx_HAL_Driver/Src/stm32g4xx_hal_pcd.c ****   /* Setup Legacy weak Callbacks  */
 419:Drivers/STM32G4xx_HAL_Driver/Src/stm32g4xx_hal_pcd.c ****   if (hpcd->State == HAL_PCD_STATE_READY)
 420:Drivers/STM32G4xx_HAL_Driver/Src/stm32g4xx_hal_pcd.c ****   {
 421:Drivers/STM32G4xx_HAL_Driver/Src/stm32g4xx_hal_pcd.c ****     switch (CallbackID)
 422:Drivers/STM32G4xx_HAL_Driver/Src/stm32g4xx_hal_pcd.c ****     {
 423:Drivers/STM32G4xx_HAL_Driver/Src/stm32g4xx_hal_pcd.c ****       case HAL_PCD_SOF_CB_ID :
 424:Drivers/STM32G4xx_HAL_Driver/Src/stm32g4xx_hal_pcd.c ****         hpcd->SOFCallback = HAL_PCD_SOFCallback;
 425:Drivers/STM32G4xx_HAL_Driver/Src/stm32g4xx_hal_pcd.c ****         break;
 426:Drivers/STM32G4xx_HAL_Driver/Src/stm32g4xx_hal_pcd.c **** 
 427:Drivers/STM32G4xx_HAL_Driver/Src/stm32g4xx_hal_pcd.c ****       case HAL_PCD_SETUPSTAGE_CB_ID :
 428:Drivers/STM32G4xx_HAL_Driver/Src/stm32g4xx_hal_pcd.c ****         hpcd->SetupStageCallback = HAL_PCD_SetupStageCallback;
 429:Drivers/STM32G4xx_HAL_Driver/Src/stm32g4xx_hal_pcd.c ****         break;
ARM GAS  /tmp/ccXaRXaA.s 			page 9


 430:Drivers/STM32G4xx_HAL_Driver/Src/stm32g4xx_hal_pcd.c **** 
 431:Drivers/STM32G4xx_HAL_Driver/Src/stm32g4xx_hal_pcd.c ****       case HAL_PCD_RESET_CB_ID :
 432:Drivers/STM32G4xx_HAL_Driver/Src/stm32g4xx_hal_pcd.c ****         hpcd->ResetCallback = HAL_PCD_ResetCallback;
 433:Drivers/STM32G4xx_HAL_Driver/Src/stm32g4xx_hal_pcd.c ****         break;
 434:Drivers/STM32G4xx_HAL_Driver/Src/stm32g4xx_hal_pcd.c **** 
 435:Drivers/STM32G4xx_HAL_Driver/Src/stm32g4xx_hal_pcd.c ****       case HAL_PCD_SUSPEND_CB_ID :
 436:Drivers/STM32G4xx_HAL_Driver/Src/stm32g4xx_hal_pcd.c ****         hpcd->SuspendCallback = HAL_PCD_SuspendCallback;
 437:Drivers/STM32G4xx_HAL_Driver/Src/stm32g4xx_hal_pcd.c ****         break;
 438:Drivers/STM32G4xx_HAL_Driver/Src/stm32g4xx_hal_pcd.c **** 
 439:Drivers/STM32G4xx_HAL_Driver/Src/stm32g4xx_hal_pcd.c ****       case HAL_PCD_RESUME_CB_ID :
 440:Drivers/STM32G4xx_HAL_Driver/Src/stm32g4xx_hal_pcd.c ****         hpcd->ResumeCallback = HAL_PCD_ResumeCallback;
 441:Drivers/STM32G4xx_HAL_Driver/Src/stm32g4xx_hal_pcd.c ****         break;
 442:Drivers/STM32G4xx_HAL_Driver/Src/stm32g4xx_hal_pcd.c **** 
 443:Drivers/STM32G4xx_HAL_Driver/Src/stm32g4xx_hal_pcd.c ****       case HAL_PCD_CONNECT_CB_ID :
 444:Drivers/STM32G4xx_HAL_Driver/Src/stm32g4xx_hal_pcd.c ****         hpcd->ConnectCallback = HAL_PCD_ConnectCallback;
 445:Drivers/STM32G4xx_HAL_Driver/Src/stm32g4xx_hal_pcd.c ****         break;
 446:Drivers/STM32G4xx_HAL_Driver/Src/stm32g4xx_hal_pcd.c **** 
 447:Drivers/STM32G4xx_HAL_Driver/Src/stm32g4xx_hal_pcd.c ****       case HAL_PCD_DISCONNECT_CB_ID :
 448:Drivers/STM32G4xx_HAL_Driver/Src/stm32g4xx_hal_pcd.c ****         hpcd->DisconnectCallback = HAL_PCD_DisconnectCallback;
 449:Drivers/STM32G4xx_HAL_Driver/Src/stm32g4xx_hal_pcd.c ****         break;
 450:Drivers/STM32G4xx_HAL_Driver/Src/stm32g4xx_hal_pcd.c **** 
 451:Drivers/STM32G4xx_HAL_Driver/Src/stm32g4xx_hal_pcd.c ****       case HAL_PCD_MSPINIT_CB_ID :
 452:Drivers/STM32G4xx_HAL_Driver/Src/stm32g4xx_hal_pcd.c ****         hpcd->MspInitCallback = HAL_PCD_MspInit;
 453:Drivers/STM32G4xx_HAL_Driver/Src/stm32g4xx_hal_pcd.c ****         break;
 454:Drivers/STM32G4xx_HAL_Driver/Src/stm32g4xx_hal_pcd.c **** 
 455:Drivers/STM32G4xx_HAL_Driver/Src/stm32g4xx_hal_pcd.c ****       case HAL_PCD_MSPDEINIT_CB_ID :
 456:Drivers/STM32G4xx_HAL_Driver/Src/stm32g4xx_hal_pcd.c ****         hpcd->MspDeInitCallback = HAL_PCD_MspDeInit;
 457:Drivers/STM32G4xx_HAL_Driver/Src/stm32g4xx_hal_pcd.c ****         break;
 458:Drivers/STM32G4xx_HAL_Driver/Src/stm32g4xx_hal_pcd.c **** 
 459:Drivers/STM32G4xx_HAL_Driver/Src/stm32g4xx_hal_pcd.c ****       default :
 460:Drivers/STM32G4xx_HAL_Driver/Src/stm32g4xx_hal_pcd.c ****         /* Update the error code */
 461:Drivers/STM32G4xx_HAL_Driver/Src/stm32g4xx_hal_pcd.c ****         hpcd->ErrorCode |= HAL_PCD_ERROR_INVALID_CALLBACK;
 462:Drivers/STM32G4xx_HAL_Driver/Src/stm32g4xx_hal_pcd.c **** 
 463:Drivers/STM32G4xx_HAL_Driver/Src/stm32g4xx_hal_pcd.c ****         /* Return error status */
 464:Drivers/STM32G4xx_HAL_Driver/Src/stm32g4xx_hal_pcd.c ****         status =  HAL_ERROR;
 465:Drivers/STM32G4xx_HAL_Driver/Src/stm32g4xx_hal_pcd.c ****         break;
 466:Drivers/STM32G4xx_HAL_Driver/Src/stm32g4xx_hal_pcd.c ****     }
 467:Drivers/STM32G4xx_HAL_Driver/Src/stm32g4xx_hal_pcd.c ****   }
 468:Drivers/STM32G4xx_HAL_Driver/Src/stm32g4xx_hal_pcd.c ****   else if (hpcd->State == HAL_PCD_STATE_RESET)
 469:Drivers/STM32G4xx_HAL_Driver/Src/stm32g4xx_hal_pcd.c ****   {
 470:Drivers/STM32G4xx_HAL_Driver/Src/stm32g4xx_hal_pcd.c ****     switch (CallbackID)
 471:Drivers/STM32G4xx_HAL_Driver/Src/stm32g4xx_hal_pcd.c ****     {
 472:Drivers/STM32G4xx_HAL_Driver/Src/stm32g4xx_hal_pcd.c ****       case HAL_PCD_MSPINIT_CB_ID :
 473:Drivers/STM32G4xx_HAL_Driver/Src/stm32g4xx_hal_pcd.c ****         hpcd->MspInitCallback = HAL_PCD_MspInit;
 474:Drivers/STM32G4xx_HAL_Driver/Src/stm32g4xx_hal_pcd.c ****         break;
 475:Drivers/STM32G4xx_HAL_Driver/Src/stm32g4xx_hal_pcd.c **** 
 476:Drivers/STM32G4xx_HAL_Driver/Src/stm32g4xx_hal_pcd.c ****       case HAL_PCD_MSPDEINIT_CB_ID :
 477:Drivers/STM32G4xx_HAL_Driver/Src/stm32g4xx_hal_pcd.c ****         hpcd->MspDeInitCallback = HAL_PCD_MspDeInit;
 478:Drivers/STM32G4xx_HAL_Driver/Src/stm32g4xx_hal_pcd.c ****         break;
 479:Drivers/STM32G4xx_HAL_Driver/Src/stm32g4xx_hal_pcd.c **** 
 480:Drivers/STM32G4xx_HAL_Driver/Src/stm32g4xx_hal_pcd.c ****       default :
 481:Drivers/STM32G4xx_HAL_Driver/Src/stm32g4xx_hal_pcd.c ****         /* Update the error code */
 482:Drivers/STM32G4xx_HAL_Driver/Src/stm32g4xx_hal_pcd.c ****         hpcd->ErrorCode |= HAL_PCD_ERROR_INVALID_CALLBACK;
 483:Drivers/STM32G4xx_HAL_Driver/Src/stm32g4xx_hal_pcd.c **** 
 484:Drivers/STM32G4xx_HAL_Driver/Src/stm32g4xx_hal_pcd.c ****         /* Return error status */
 485:Drivers/STM32G4xx_HAL_Driver/Src/stm32g4xx_hal_pcd.c ****         status =  HAL_ERROR;
 486:Drivers/STM32G4xx_HAL_Driver/Src/stm32g4xx_hal_pcd.c ****         break;
ARM GAS  /tmp/ccXaRXaA.s 			page 10


 487:Drivers/STM32G4xx_HAL_Driver/Src/stm32g4xx_hal_pcd.c ****     }
 488:Drivers/STM32G4xx_HAL_Driver/Src/stm32g4xx_hal_pcd.c ****   }
 489:Drivers/STM32G4xx_HAL_Driver/Src/stm32g4xx_hal_pcd.c ****   else
 490:Drivers/STM32G4xx_HAL_Driver/Src/stm32g4xx_hal_pcd.c ****   {
 491:Drivers/STM32G4xx_HAL_Driver/Src/stm32g4xx_hal_pcd.c ****     /* Update the error code */
 492:Drivers/STM32G4xx_HAL_Driver/Src/stm32g4xx_hal_pcd.c ****     hpcd->ErrorCode |= HAL_PCD_ERROR_INVALID_CALLBACK;
 493:Drivers/STM32G4xx_HAL_Driver/Src/stm32g4xx_hal_pcd.c **** 
 494:Drivers/STM32G4xx_HAL_Driver/Src/stm32g4xx_hal_pcd.c ****     /* Return error status */
 495:Drivers/STM32G4xx_HAL_Driver/Src/stm32g4xx_hal_pcd.c ****     status =  HAL_ERROR;
 496:Drivers/STM32G4xx_HAL_Driver/Src/stm32g4xx_hal_pcd.c ****   }
 497:Drivers/STM32G4xx_HAL_Driver/Src/stm32g4xx_hal_pcd.c **** 
 498:Drivers/STM32G4xx_HAL_Driver/Src/stm32g4xx_hal_pcd.c ****   return status;
 499:Drivers/STM32G4xx_HAL_Driver/Src/stm32g4xx_hal_pcd.c **** }
 500:Drivers/STM32G4xx_HAL_Driver/Src/stm32g4xx_hal_pcd.c **** 
 501:Drivers/STM32G4xx_HAL_Driver/Src/stm32g4xx_hal_pcd.c **** /**
 502:Drivers/STM32G4xx_HAL_Driver/Src/stm32g4xx_hal_pcd.c ****   * @brief  Register USB PCD Data OUT Stage Callback
 503:Drivers/STM32G4xx_HAL_Driver/Src/stm32g4xx_hal_pcd.c ****   *         To be used instead of the weak HAL_PCD_DataOutStageCallback() predefined callback
 504:Drivers/STM32G4xx_HAL_Driver/Src/stm32g4xx_hal_pcd.c ****   * @param  hpcd PCD handle
 505:Drivers/STM32G4xx_HAL_Driver/Src/stm32g4xx_hal_pcd.c ****   * @param  pCallback pointer to the USB PCD Data OUT Stage Callback function
 506:Drivers/STM32G4xx_HAL_Driver/Src/stm32g4xx_hal_pcd.c ****   * @retval HAL status
 507:Drivers/STM32G4xx_HAL_Driver/Src/stm32g4xx_hal_pcd.c ****   */
 508:Drivers/STM32G4xx_HAL_Driver/Src/stm32g4xx_hal_pcd.c **** HAL_StatusTypeDef HAL_PCD_RegisterDataOutStageCallback(PCD_HandleTypeDef *hpcd,
 509:Drivers/STM32G4xx_HAL_Driver/Src/stm32g4xx_hal_pcd.c ****                                                        pPCD_DataOutStageCallbackTypeDef pCallback)
 510:Drivers/STM32G4xx_HAL_Driver/Src/stm32g4xx_hal_pcd.c **** {
 511:Drivers/STM32G4xx_HAL_Driver/Src/stm32g4xx_hal_pcd.c ****   HAL_StatusTypeDef status = HAL_OK;
 512:Drivers/STM32G4xx_HAL_Driver/Src/stm32g4xx_hal_pcd.c **** 
 513:Drivers/STM32G4xx_HAL_Driver/Src/stm32g4xx_hal_pcd.c ****   if (pCallback == NULL)
 514:Drivers/STM32G4xx_HAL_Driver/Src/stm32g4xx_hal_pcd.c ****   {
 515:Drivers/STM32G4xx_HAL_Driver/Src/stm32g4xx_hal_pcd.c ****     /* Update the error code */
 516:Drivers/STM32G4xx_HAL_Driver/Src/stm32g4xx_hal_pcd.c ****     hpcd->ErrorCode |= HAL_PCD_ERROR_INVALID_CALLBACK;
 517:Drivers/STM32G4xx_HAL_Driver/Src/stm32g4xx_hal_pcd.c **** 
 518:Drivers/STM32G4xx_HAL_Driver/Src/stm32g4xx_hal_pcd.c ****     return HAL_ERROR;
 519:Drivers/STM32G4xx_HAL_Driver/Src/stm32g4xx_hal_pcd.c ****   }
 520:Drivers/STM32G4xx_HAL_Driver/Src/stm32g4xx_hal_pcd.c **** 
 521:Drivers/STM32G4xx_HAL_Driver/Src/stm32g4xx_hal_pcd.c ****   if (hpcd->State == HAL_PCD_STATE_READY)
 522:Drivers/STM32G4xx_HAL_Driver/Src/stm32g4xx_hal_pcd.c ****   {
 523:Drivers/STM32G4xx_HAL_Driver/Src/stm32g4xx_hal_pcd.c ****     hpcd->DataOutStageCallback = pCallback;
 524:Drivers/STM32G4xx_HAL_Driver/Src/stm32g4xx_hal_pcd.c ****   }
 525:Drivers/STM32G4xx_HAL_Driver/Src/stm32g4xx_hal_pcd.c ****   else
 526:Drivers/STM32G4xx_HAL_Driver/Src/stm32g4xx_hal_pcd.c ****   {
 527:Drivers/STM32G4xx_HAL_Driver/Src/stm32g4xx_hal_pcd.c ****     /* Update the error code */
 528:Drivers/STM32G4xx_HAL_Driver/Src/stm32g4xx_hal_pcd.c ****     hpcd->ErrorCode |= HAL_PCD_ERROR_INVALID_CALLBACK;
 529:Drivers/STM32G4xx_HAL_Driver/Src/stm32g4xx_hal_pcd.c **** 
 530:Drivers/STM32G4xx_HAL_Driver/Src/stm32g4xx_hal_pcd.c ****     /* Return error status */
 531:Drivers/STM32G4xx_HAL_Driver/Src/stm32g4xx_hal_pcd.c ****     status =  HAL_ERROR;
 532:Drivers/STM32G4xx_HAL_Driver/Src/stm32g4xx_hal_pcd.c ****   }
 533:Drivers/STM32G4xx_HAL_Driver/Src/stm32g4xx_hal_pcd.c **** 
 534:Drivers/STM32G4xx_HAL_Driver/Src/stm32g4xx_hal_pcd.c ****   return status;
 535:Drivers/STM32G4xx_HAL_Driver/Src/stm32g4xx_hal_pcd.c **** }
 536:Drivers/STM32G4xx_HAL_Driver/Src/stm32g4xx_hal_pcd.c **** 
 537:Drivers/STM32G4xx_HAL_Driver/Src/stm32g4xx_hal_pcd.c **** /**
 538:Drivers/STM32G4xx_HAL_Driver/Src/stm32g4xx_hal_pcd.c ****   * @brief  Unregister the USB PCD Data OUT Stage Callback
 539:Drivers/STM32G4xx_HAL_Driver/Src/stm32g4xx_hal_pcd.c ****   *         USB PCD Data OUT Stage Callback is redirected to the weak HAL_PCD_DataOutStageCallback(
 540:Drivers/STM32G4xx_HAL_Driver/Src/stm32g4xx_hal_pcd.c ****   * @param  hpcd PCD handle
 541:Drivers/STM32G4xx_HAL_Driver/Src/stm32g4xx_hal_pcd.c ****   * @retval HAL status
 542:Drivers/STM32G4xx_HAL_Driver/Src/stm32g4xx_hal_pcd.c ****   */
 543:Drivers/STM32G4xx_HAL_Driver/Src/stm32g4xx_hal_pcd.c **** HAL_StatusTypeDef HAL_PCD_UnRegisterDataOutStageCallback(PCD_HandleTypeDef *hpcd)
ARM GAS  /tmp/ccXaRXaA.s 			page 11


 544:Drivers/STM32G4xx_HAL_Driver/Src/stm32g4xx_hal_pcd.c **** {
 545:Drivers/STM32G4xx_HAL_Driver/Src/stm32g4xx_hal_pcd.c ****   HAL_StatusTypeDef status = HAL_OK;
 546:Drivers/STM32G4xx_HAL_Driver/Src/stm32g4xx_hal_pcd.c **** 
 547:Drivers/STM32G4xx_HAL_Driver/Src/stm32g4xx_hal_pcd.c ****   if (hpcd->State == HAL_PCD_STATE_READY)
 548:Drivers/STM32G4xx_HAL_Driver/Src/stm32g4xx_hal_pcd.c ****   {
 549:Drivers/STM32G4xx_HAL_Driver/Src/stm32g4xx_hal_pcd.c ****     hpcd->DataOutStageCallback = HAL_PCD_DataOutStageCallback; /* Legacy weak DataOutStageCallback 
 550:Drivers/STM32G4xx_HAL_Driver/Src/stm32g4xx_hal_pcd.c ****   }
 551:Drivers/STM32G4xx_HAL_Driver/Src/stm32g4xx_hal_pcd.c ****   else
 552:Drivers/STM32G4xx_HAL_Driver/Src/stm32g4xx_hal_pcd.c ****   {
 553:Drivers/STM32G4xx_HAL_Driver/Src/stm32g4xx_hal_pcd.c ****     /* Update the error code */
 554:Drivers/STM32G4xx_HAL_Driver/Src/stm32g4xx_hal_pcd.c ****     hpcd->ErrorCode |= HAL_PCD_ERROR_INVALID_CALLBACK;
 555:Drivers/STM32G4xx_HAL_Driver/Src/stm32g4xx_hal_pcd.c **** 
 556:Drivers/STM32G4xx_HAL_Driver/Src/stm32g4xx_hal_pcd.c ****     /* Return error status */
 557:Drivers/STM32G4xx_HAL_Driver/Src/stm32g4xx_hal_pcd.c ****     status =  HAL_ERROR;
 558:Drivers/STM32G4xx_HAL_Driver/Src/stm32g4xx_hal_pcd.c ****   }
 559:Drivers/STM32G4xx_HAL_Driver/Src/stm32g4xx_hal_pcd.c **** 
 560:Drivers/STM32G4xx_HAL_Driver/Src/stm32g4xx_hal_pcd.c ****   return status;
 561:Drivers/STM32G4xx_HAL_Driver/Src/stm32g4xx_hal_pcd.c **** }
 562:Drivers/STM32G4xx_HAL_Driver/Src/stm32g4xx_hal_pcd.c **** 
 563:Drivers/STM32G4xx_HAL_Driver/Src/stm32g4xx_hal_pcd.c **** /**
 564:Drivers/STM32G4xx_HAL_Driver/Src/stm32g4xx_hal_pcd.c ****   * @brief  Register USB PCD Data IN Stage Callback
 565:Drivers/STM32G4xx_HAL_Driver/Src/stm32g4xx_hal_pcd.c ****   *         To be used instead of the weak HAL_PCD_DataInStageCallback() predefined callback
 566:Drivers/STM32G4xx_HAL_Driver/Src/stm32g4xx_hal_pcd.c ****   * @param  hpcd PCD handle
 567:Drivers/STM32G4xx_HAL_Driver/Src/stm32g4xx_hal_pcd.c ****   * @param  pCallback pointer to the USB PCD Data IN Stage Callback function
 568:Drivers/STM32G4xx_HAL_Driver/Src/stm32g4xx_hal_pcd.c ****   * @retval HAL status
 569:Drivers/STM32G4xx_HAL_Driver/Src/stm32g4xx_hal_pcd.c ****   */
 570:Drivers/STM32G4xx_HAL_Driver/Src/stm32g4xx_hal_pcd.c **** HAL_StatusTypeDef HAL_PCD_RegisterDataInStageCallback(PCD_HandleTypeDef *hpcd,
 571:Drivers/STM32G4xx_HAL_Driver/Src/stm32g4xx_hal_pcd.c ****                                                       pPCD_DataInStageCallbackTypeDef pCallback)
 572:Drivers/STM32G4xx_HAL_Driver/Src/stm32g4xx_hal_pcd.c **** {
 573:Drivers/STM32G4xx_HAL_Driver/Src/stm32g4xx_hal_pcd.c ****   HAL_StatusTypeDef status = HAL_OK;
 574:Drivers/STM32G4xx_HAL_Driver/Src/stm32g4xx_hal_pcd.c **** 
 575:Drivers/STM32G4xx_HAL_Driver/Src/stm32g4xx_hal_pcd.c ****   if (pCallback == NULL)
 576:Drivers/STM32G4xx_HAL_Driver/Src/stm32g4xx_hal_pcd.c ****   {
 577:Drivers/STM32G4xx_HAL_Driver/Src/stm32g4xx_hal_pcd.c ****     /* Update the error code */
 578:Drivers/STM32G4xx_HAL_Driver/Src/stm32g4xx_hal_pcd.c ****     hpcd->ErrorCode |= HAL_PCD_ERROR_INVALID_CALLBACK;
 579:Drivers/STM32G4xx_HAL_Driver/Src/stm32g4xx_hal_pcd.c **** 
 580:Drivers/STM32G4xx_HAL_Driver/Src/stm32g4xx_hal_pcd.c ****     return HAL_ERROR;
 581:Drivers/STM32G4xx_HAL_Driver/Src/stm32g4xx_hal_pcd.c ****   }
 582:Drivers/STM32G4xx_HAL_Driver/Src/stm32g4xx_hal_pcd.c **** 
 583:Drivers/STM32G4xx_HAL_Driver/Src/stm32g4xx_hal_pcd.c ****   if (hpcd->State == HAL_PCD_STATE_READY)
 584:Drivers/STM32G4xx_HAL_Driver/Src/stm32g4xx_hal_pcd.c ****   {
 585:Drivers/STM32G4xx_HAL_Driver/Src/stm32g4xx_hal_pcd.c ****     hpcd->DataInStageCallback = pCallback;
 586:Drivers/STM32G4xx_HAL_Driver/Src/stm32g4xx_hal_pcd.c ****   }
 587:Drivers/STM32G4xx_HAL_Driver/Src/stm32g4xx_hal_pcd.c ****   else
 588:Drivers/STM32G4xx_HAL_Driver/Src/stm32g4xx_hal_pcd.c ****   {
 589:Drivers/STM32G4xx_HAL_Driver/Src/stm32g4xx_hal_pcd.c ****     /* Update the error code */
 590:Drivers/STM32G4xx_HAL_Driver/Src/stm32g4xx_hal_pcd.c ****     hpcd->ErrorCode |= HAL_PCD_ERROR_INVALID_CALLBACK;
 591:Drivers/STM32G4xx_HAL_Driver/Src/stm32g4xx_hal_pcd.c **** 
 592:Drivers/STM32G4xx_HAL_Driver/Src/stm32g4xx_hal_pcd.c ****     /* Return error status */
 593:Drivers/STM32G4xx_HAL_Driver/Src/stm32g4xx_hal_pcd.c ****     status =  HAL_ERROR;
 594:Drivers/STM32G4xx_HAL_Driver/Src/stm32g4xx_hal_pcd.c ****   }
 595:Drivers/STM32G4xx_HAL_Driver/Src/stm32g4xx_hal_pcd.c **** 
 596:Drivers/STM32G4xx_HAL_Driver/Src/stm32g4xx_hal_pcd.c ****   return status;
 597:Drivers/STM32G4xx_HAL_Driver/Src/stm32g4xx_hal_pcd.c **** }
 598:Drivers/STM32G4xx_HAL_Driver/Src/stm32g4xx_hal_pcd.c **** 
 599:Drivers/STM32G4xx_HAL_Driver/Src/stm32g4xx_hal_pcd.c **** /**
 600:Drivers/STM32G4xx_HAL_Driver/Src/stm32g4xx_hal_pcd.c ****   * @brief  Unregister the USB PCD Data IN Stage Callback
ARM GAS  /tmp/ccXaRXaA.s 			page 12


 601:Drivers/STM32G4xx_HAL_Driver/Src/stm32g4xx_hal_pcd.c ****   *         USB PCD Data OUT Stage Callback is redirected to the weak HAL_PCD_DataInStageCallback()
 602:Drivers/STM32G4xx_HAL_Driver/Src/stm32g4xx_hal_pcd.c ****   * @param  hpcd PCD handle
 603:Drivers/STM32G4xx_HAL_Driver/Src/stm32g4xx_hal_pcd.c ****   * @retval HAL status
 604:Drivers/STM32G4xx_HAL_Driver/Src/stm32g4xx_hal_pcd.c ****   */
 605:Drivers/STM32G4xx_HAL_Driver/Src/stm32g4xx_hal_pcd.c **** HAL_StatusTypeDef HAL_PCD_UnRegisterDataInStageCallback(PCD_HandleTypeDef *hpcd)
 606:Drivers/STM32G4xx_HAL_Driver/Src/stm32g4xx_hal_pcd.c **** {
 607:Drivers/STM32G4xx_HAL_Driver/Src/stm32g4xx_hal_pcd.c ****   HAL_StatusTypeDef status = HAL_OK;
 608:Drivers/STM32G4xx_HAL_Driver/Src/stm32g4xx_hal_pcd.c **** 
 609:Drivers/STM32G4xx_HAL_Driver/Src/stm32g4xx_hal_pcd.c ****   if (hpcd->State == HAL_PCD_STATE_READY)
 610:Drivers/STM32G4xx_HAL_Driver/Src/stm32g4xx_hal_pcd.c ****   {
 611:Drivers/STM32G4xx_HAL_Driver/Src/stm32g4xx_hal_pcd.c ****     hpcd->DataInStageCallback = HAL_PCD_DataInStageCallback; /* Legacy weak DataInStageCallback  */
 612:Drivers/STM32G4xx_HAL_Driver/Src/stm32g4xx_hal_pcd.c ****   }
 613:Drivers/STM32G4xx_HAL_Driver/Src/stm32g4xx_hal_pcd.c ****   else
 614:Drivers/STM32G4xx_HAL_Driver/Src/stm32g4xx_hal_pcd.c ****   {
 615:Drivers/STM32G4xx_HAL_Driver/Src/stm32g4xx_hal_pcd.c ****     /* Update the error code */
 616:Drivers/STM32G4xx_HAL_Driver/Src/stm32g4xx_hal_pcd.c ****     hpcd->ErrorCode |= HAL_PCD_ERROR_INVALID_CALLBACK;
 617:Drivers/STM32G4xx_HAL_Driver/Src/stm32g4xx_hal_pcd.c **** 
 618:Drivers/STM32G4xx_HAL_Driver/Src/stm32g4xx_hal_pcd.c ****     /* Return error status */
 619:Drivers/STM32G4xx_HAL_Driver/Src/stm32g4xx_hal_pcd.c ****     status =  HAL_ERROR;
 620:Drivers/STM32G4xx_HAL_Driver/Src/stm32g4xx_hal_pcd.c ****   }
 621:Drivers/STM32G4xx_HAL_Driver/Src/stm32g4xx_hal_pcd.c **** 
 622:Drivers/STM32G4xx_HAL_Driver/Src/stm32g4xx_hal_pcd.c ****   return status;
 623:Drivers/STM32G4xx_HAL_Driver/Src/stm32g4xx_hal_pcd.c **** }
 624:Drivers/STM32G4xx_HAL_Driver/Src/stm32g4xx_hal_pcd.c **** 
 625:Drivers/STM32G4xx_HAL_Driver/Src/stm32g4xx_hal_pcd.c **** /**
 626:Drivers/STM32G4xx_HAL_Driver/Src/stm32g4xx_hal_pcd.c ****   * @brief  Register USB PCD Iso OUT incomplete Callback
 627:Drivers/STM32G4xx_HAL_Driver/Src/stm32g4xx_hal_pcd.c ****   *         To be used instead of the weak HAL_PCD_ISOOUTIncompleteCallback() predefined callback
 628:Drivers/STM32G4xx_HAL_Driver/Src/stm32g4xx_hal_pcd.c ****   * @param  hpcd PCD handle
 629:Drivers/STM32G4xx_HAL_Driver/Src/stm32g4xx_hal_pcd.c ****   * @param  pCallback pointer to the USB PCD Iso OUT incomplete Callback function
 630:Drivers/STM32G4xx_HAL_Driver/Src/stm32g4xx_hal_pcd.c ****   * @retval HAL status
 631:Drivers/STM32G4xx_HAL_Driver/Src/stm32g4xx_hal_pcd.c ****   */
 632:Drivers/STM32G4xx_HAL_Driver/Src/stm32g4xx_hal_pcd.c **** HAL_StatusTypeDef HAL_PCD_RegisterIsoOutIncpltCallback(PCD_HandleTypeDef *hpcd,
 633:Drivers/STM32G4xx_HAL_Driver/Src/stm32g4xx_hal_pcd.c ****                                                        pPCD_IsoOutIncpltCallbackTypeDef pCallback)
 634:Drivers/STM32G4xx_HAL_Driver/Src/stm32g4xx_hal_pcd.c **** {
 635:Drivers/STM32G4xx_HAL_Driver/Src/stm32g4xx_hal_pcd.c ****   HAL_StatusTypeDef status = HAL_OK;
 636:Drivers/STM32G4xx_HAL_Driver/Src/stm32g4xx_hal_pcd.c **** 
 637:Drivers/STM32G4xx_HAL_Driver/Src/stm32g4xx_hal_pcd.c ****   if (pCallback == NULL)
 638:Drivers/STM32G4xx_HAL_Driver/Src/stm32g4xx_hal_pcd.c ****   {
 639:Drivers/STM32G4xx_HAL_Driver/Src/stm32g4xx_hal_pcd.c ****     /* Update the error code */
 640:Drivers/STM32G4xx_HAL_Driver/Src/stm32g4xx_hal_pcd.c ****     hpcd->ErrorCode |= HAL_PCD_ERROR_INVALID_CALLBACK;
 641:Drivers/STM32G4xx_HAL_Driver/Src/stm32g4xx_hal_pcd.c **** 
 642:Drivers/STM32G4xx_HAL_Driver/Src/stm32g4xx_hal_pcd.c ****     return HAL_ERROR;
 643:Drivers/STM32G4xx_HAL_Driver/Src/stm32g4xx_hal_pcd.c ****   }
 644:Drivers/STM32G4xx_HAL_Driver/Src/stm32g4xx_hal_pcd.c **** 
 645:Drivers/STM32G4xx_HAL_Driver/Src/stm32g4xx_hal_pcd.c ****   if (hpcd->State == HAL_PCD_STATE_READY)
 646:Drivers/STM32G4xx_HAL_Driver/Src/stm32g4xx_hal_pcd.c ****   {
 647:Drivers/STM32G4xx_HAL_Driver/Src/stm32g4xx_hal_pcd.c ****     hpcd->ISOOUTIncompleteCallback = pCallback;
 648:Drivers/STM32G4xx_HAL_Driver/Src/stm32g4xx_hal_pcd.c ****   }
 649:Drivers/STM32G4xx_HAL_Driver/Src/stm32g4xx_hal_pcd.c ****   else
 650:Drivers/STM32G4xx_HAL_Driver/Src/stm32g4xx_hal_pcd.c ****   {
 651:Drivers/STM32G4xx_HAL_Driver/Src/stm32g4xx_hal_pcd.c ****     /* Update the error code */
 652:Drivers/STM32G4xx_HAL_Driver/Src/stm32g4xx_hal_pcd.c ****     hpcd->ErrorCode |= HAL_PCD_ERROR_INVALID_CALLBACK;
 653:Drivers/STM32G4xx_HAL_Driver/Src/stm32g4xx_hal_pcd.c **** 
 654:Drivers/STM32G4xx_HAL_Driver/Src/stm32g4xx_hal_pcd.c ****     /* Return error status */
 655:Drivers/STM32G4xx_HAL_Driver/Src/stm32g4xx_hal_pcd.c ****     status =  HAL_ERROR;
 656:Drivers/STM32G4xx_HAL_Driver/Src/stm32g4xx_hal_pcd.c ****   }
 657:Drivers/STM32G4xx_HAL_Driver/Src/stm32g4xx_hal_pcd.c **** 
ARM GAS  /tmp/ccXaRXaA.s 			page 13


 658:Drivers/STM32G4xx_HAL_Driver/Src/stm32g4xx_hal_pcd.c ****   return status;
 659:Drivers/STM32G4xx_HAL_Driver/Src/stm32g4xx_hal_pcd.c **** }
 660:Drivers/STM32G4xx_HAL_Driver/Src/stm32g4xx_hal_pcd.c **** 
 661:Drivers/STM32G4xx_HAL_Driver/Src/stm32g4xx_hal_pcd.c **** /**
 662:Drivers/STM32G4xx_HAL_Driver/Src/stm32g4xx_hal_pcd.c ****   * @brief  Unregister the USB PCD Iso OUT incomplete Callback
 663:Drivers/STM32G4xx_HAL_Driver/Src/stm32g4xx_hal_pcd.c ****   *         USB PCD Iso OUT incomplete Callback is redirected
 664:Drivers/STM32G4xx_HAL_Driver/Src/stm32g4xx_hal_pcd.c ****   *         to the weak HAL_PCD_ISOOUTIncompleteCallback() predefined callback
 665:Drivers/STM32G4xx_HAL_Driver/Src/stm32g4xx_hal_pcd.c ****   * @param  hpcd PCD handle
 666:Drivers/STM32G4xx_HAL_Driver/Src/stm32g4xx_hal_pcd.c ****   * @retval HAL status
 667:Drivers/STM32G4xx_HAL_Driver/Src/stm32g4xx_hal_pcd.c ****   */
 668:Drivers/STM32G4xx_HAL_Driver/Src/stm32g4xx_hal_pcd.c **** HAL_StatusTypeDef HAL_PCD_UnRegisterIsoOutIncpltCallback(PCD_HandleTypeDef *hpcd)
 669:Drivers/STM32G4xx_HAL_Driver/Src/stm32g4xx_hal_pcd.c **** {
 670:Drivers/STM32G4xx_HAL_Driver/Src/stm32g4xx_hal_pcd.c ****   HAL_StatusTypeDef status = HAL_OK;
 671:Drivers/STM32G4xx_HAL_Driver/Src/stm32g4xx_hal_pcd.c **** 
 672:Drivers/STM32G4xx_HAL_Driver/Src/stm32g4xx_hal_pcd.c ****   if (hpcd->State == HAL_PCD_STATE_READY)
 673:Drivers/STM32G4xx_HAL_Driver/Src/stm32g4xx_hal_pcd.c ****   {
 674:Drivers/STM32G4xx_HAL_Driver/Src/stm32g4xx_hal_pcd.c ****     hpcd->ISOOUTIncompleteCallback = HAL_PCD_ISOOUTIncompleteCallback; /* Legacy weak ISOOUTIncompl
 675:Drivers/STM32G4xx_HAL_Driver/Src/stm32g4xx_hal_pcd.c ****   }
 676:Drivers/STM32G4xx_HAL_Driver/Src/stm32g4xx_hal_pcd.c ****   else
 677:Drivers/STM32G4xx_HAL_Driver/Src/stm32g4xx_hal_pcd.c ****   {
 678:Drivers/STM32G4xx_HAL_Driver/Src/stm32g4xx_hal_pcd.c ****     /* Update the error code */
 679:Drivers/STM32G4xx_HAL_Driver/Src/stm32g4xx_hal_pcd.c ****     hpcd->ErrorCode |= HAL_PCD_ERROR_INVALID_CALLBACK;
 680:Drivers/STM32G4xx_HAL_Driver/Src/stm32g4xx_hal_pcd.c **** 
 681:Drivers/STM32G4xx_HAL_Driver/Src/stm32g4xx_hal_pcd.c ****     /* Return error status */
 682:Drivers/STM32G4xx_HAL_Driver/Src/stm32g4xx_hal_pcd.c ****     status =  HAL_ERROR;
 683:Drivers/STM32G4xx_HAL_Driver/Src/stm32g4xx_hal_pcd.c ****   }
 684:Drivers/STM32G4xx_HAL_Driver/Src/stm32g4xx_hal_pcd.c **** 
 685:Drivers/STM32G4xx_HAL_Driver/Src/stm32g4xx_hal_pcd.c ****   return status;
 686:Drivers/STM32G4xx_HAL_Driver/Src/stm32g4xx_hal_pcd.c **** }
 687:Drivers/STM32G4xx_HAL_Driver/Src/stm32g4xx_hal_pcd.c **** 
 688:Drivers/STM32G4xx_HAL_Driver/Src/stm32g4xx_hal_pcd.c **** /**
 689:Drivers/STM32G4xx_HAL_Driver/Src/stm32g4xx_hal_pcd.c ****   * @brief  Register USB PCD Iso IN incomplete Callback
 690:Drivers/STM32G4xx_HAL_Driver/Src/stm32g4xx_hal_pcd.c ****   *         To be used instead of the weak HAL_PCD_ISOINIncompleteCallback() predefined callback
 691:Drivers/STM32G4xx_HAL_Driver/Src/stm32g4xx_hal_pcd.c ****   * @param  hpcd PCD handle
 692:Drivers/STM32G4xx_HAL_Driver/Src/stm32g4xx_hal_pcd.c ****   * @param  pCallback pointer to the USB PCD Iso IN incomplete Callback function
 693:Drivers/STM32G4xx_HAL_Driver/Src/stm32g4xx_hal_pcd.c ****   * @retval HAL status
 694:Drivers/STM32G4xx_HAL_Driver/Src/stm32g4xx_hal_pcd.c ****   */
 695:Drivers/STM32G4xx_HAL_Driver/Src/stm32g4xx_hal_pcd.c **** HAL_StatusTypeDef HAL_PCD_RegisterIsoInIncpltCallback(PCD_HandleTypeDef *hpcd,
 696:Drivers/STM32G4xx_HAL_Driver/Src/stm32g4xx_hal_pcd.c ****                                                       pPCD_IsoInIncpltCallbackTypeDef pCallback)
 697:Drivers/STM32G4xx_HAL_Driver/Src/stm32g4xx_hal_pcd.c **** {
 698:Drivers/STM32G4xx_HAL_Driver/Src/stm32g4xx_hal_pcd.c ****   HAL_StatusTypeDef status = HAL_OK;
 699:Drivers/STM32G4xx_HAL_Driver/Src/stm32g4xx_hal_pcd.c **** 
 700:Drivers/STM32G4xx_HAL_Driver/Src/stm32g4xx_hal_pcd.c ****   if (pCallback == NULL)
 701:Drivers/STM32G4xx_HAL_Driver/Src/stm32g4xx_hal_pcd.c ****   {
 702:Drivers/STM32G4xx_HAL_Driver/Src/stm32g4xx_hal_pcd.c ****     /* Update the error code */
 703:Drivers/STM32G4xx_HAL_Driver/Src/stm32g4xx_hal_pcd.c ****     hpcd->ErrorCode |= HAL_PCD_ERROR_INVALID_CALLBACK;
 704:Drivers/STM32G4xx_HAL_Driver/Src/stm32g4xx_hal_pcd.c **** 
 705:Drivers/STM32G4xx_HAL_Driver/Src/stm32g4xx_hal_pcd.c ****     return HAL_ERROR;
 706:Drivers/STM32G4xx_HAL_Driver/Src/stm32g4xx_hal_pcd.c ****   }
 707:Drivers/STM32G4xx_HAL_Driver/Src/stm32g4xx_hal_pcd.c **** 
 708:Drivers/STM32G4xx_HAL_Driver/Src/stm32g4xx_hal_pcd.c ****   if (hpcd->State == HAL_PCD_STATE_READY)
 709:Drivers/STM32G4xx_HAL_Driver/Src/stm32g4xx_hal_pcd.c ****   {
 710:Drivers/STM32G4xx_HAL_Driver/Src/stm32g4xx_hal_pcd.c ****     hpcd->ISOINIncompleteCallback = pCallback;
 711:Drivers/STM32G4xx_HAL_Driver/Src/stm32g4xx_hal_pcd.c ****   }
 712:Drivers/STM32G4xx_HAL_Driver/Src/stm32g4xx_hal_pcd.c ****   else
 713:Drivers/STM32G4xx_HAL_Driver/Src/stm32g4xx_hal_pcd.c ****   {
 714:Drivers/STM32G4xx_HAL_Driver/Src/stm32g4xx_hal_pcd.c ****     /* Update the error code */
ARM GAS  /tmp/ccXaRXaA.s 			page 14


 715:Drivers/STM32G4xx_HAL_Driver/Src/stm32g4xx_hal_pcd.c ****     hpcd->ErrorCode |= HAL_PCD_ERROR_INVALID_CALLBACK;
 716:Drivers/STM32G4xx_HAL_Driver/Src/stm32g4xx_hal_pcd.c **** 
 717:Drivers/STM32G4xx_HAL_Driver/Src/stm32g4xx_hal_pcd.c ****     /* Return error status */
 718:Drivers/STM32G4xx_HAL_Driver/Src/stm32g4xx_hal_pcd.c ****     status =  HAL_ERROR;
 719:Drivers/STM32G4xx_HAL_Driver/Src/stm32g4xx_hal_pcd.c ****   }
 720:Drivers/STM32G4xx_HAL_Driver/Src/stm32g4xx_hal_pcd.c **** 
 721:Drivers/STM32G4xx_HAL_Driver/Src/stm32g4xx_hal_pcd.c ****   return status;
 722:Drivers/STM32G4xx_HAL_Driver/Src/stm32g4xx_hal_pcd.c **** }
 723:Drivers/STM32G4xx_HAL_Driver/Src/stm32g4xx_hal_pcd.c **** 
 724:Drivers/STM32G4xx_HAL_Driver/Src/stm32g4xx_hal_pcd.c **** /**
 725:Drivers/STM32G4xx_HAL_Driver/Src/stm32g4xx_hal_pcd.c ****   * @brief  Unregister the USB PCD Iso IN incomplete Callback
 726:Drivers/STM32G4xx_HAL_Driver/Src/stm32g4xx_hal_pcd.c ****   *         USB PCD Iso IN incomplete Callback is redirected
 727:Drivers/STM32G4xx_HAL_Driver/Src/stm32g4xx_hal_pcd.c ****   *         to the weak HAL_PCD_ISOINIncompleteCallback() predefined callback
 728:Drivers/STM32G4xx_HAL_Driver/Src/stm32g4xx_hal_pcd.c ****   * @param  hpcd PCD handle
 729:Drivers/STM32G4xx_HAL_Driver/Src/stm32g4xx_hal_pcd.c ****   * @retval HAL status
 730:Drivers/STM32G4xx_HAL_Driver/Src/stm32g4xx_hal_pcd.c ****   */
 731:Drivers/STM32G4xx_HAL_Driver/Src/stm32g4xx_hal_pcd.c **** HAL_StatusTypeDef HAL_PCD_UnRegisterIsoInIncpltCallback(PCD_HandleTypeDef *hpcd)
 732:Drivers/STM32G4xx_HAL_Driver/Src/stm32g4xx_hal_pcd.c **** {
 733:Drivers/STM32G4xx_HAL_Driver/Src/stm32g4xx_hal_pcd.c ****   HAL_StatusTypeDef status = HAL_OK;
 734:Drivers/STM32G4xx_HAL_Driver/Src/stm32g4xx_hal_pcd.c **** 
 735:Drivers/STM32G4xx_HAL_Driver/Src/stm32g4xx_hal_pcd.c ****   if (hpcd->State == HAL_PCD_STATE_READY)
 736:Drivers/STM32G4xx_HAL_Driver/Src/stm32g4xx_hal_pcd.c ****   {
 737:Drivers/STM32G4xx_HAL_Driver/Src/stm32g4xx_hal_pcd.c ****     hpcd->ISOINIncompleteCallback = HAL_PCD_ISOINIncompleteCallback; /* Legacy weak ISOINIncomplete
 738:Drivers/STM32G4xx_HAL_Driver/Src/stm32g4xx_hal_pcd.c ****   }
 739:Drivers/STM32G4xx_HAL_Driver/Src/stm32g4xx_hal_pcd.c ****   else
 740:Drivers/STM32G4xx_HAL_Driver/Src/stm32g4xx_hal_pcd.c ****   {
 741:Drivers/STM32G4xx_HAL_Driver/Src/stm32g4xx_hal_pcd.c ****     /* Update the error code */
 742:Drivers/STM32G4xx_HAL_Driver/Src/stm32g4xx_hal_pcd.c ****     hpcd->ErrorCode |= HAL_PCD_ERROR_INVALID_CALLBACK;
 743:Drivers/STM32G4xx_HAL_Driver/Src/stm32g4xx_hal_pcd.c **** 
 744:Drivers/STM32G4xx_HAL_Driver/Src/stm32g4xx_hal_pcd.c ****     /* Return error status */
 745:Drivers/STM32G4xx_HAL_Driver/Src/stm32g4xx_hal_pcd.c ****     status =  HAL_ERROR;
 746:Drivers/STM32G4xx_HAL_Driver/Src/stm32g4xx_hal_pcd.c ****   }
 747:Drivers/STM32G4xx_HAL_Driver/Src/stm32g4xx_hal_pcd.c **** 
 748:Drivers/STM32G4xx_HAL_Driver/Src/stm32g4xx_hal_pcd.c ****    return status;
 749:Drivers/STM32G4xx_HAL_Driver/Src/stm32g4xx_hal_pcd.c **** }
 750:Drivers/STM32G4xx_HAL_Driver/Src/stm32g4xx_hal_pcd.c **** 
 751:Drivers/STM32G4xx_HAL_Driver/Src/stm32g4xx_hal_pcd.c **** /**
 752:Drivers/STM32G4xx_HAL_Driver/Src/stm32g4xx_hal_pcd.c ****   * @brief  Register USB PCD BCD Callback
 753:Drivers/STM32G4xx_HAL_Driver/Src/stm32g4xx_hal_pcd.c ****   *         To be used instead of the weak HAL_PCDEx_BCD_Callback() predefined callback
 754:Drivers/STM32G4xx_HAL_Driver/Src/stm32g4xx_hal_pcd.c ****   * @param  hpcd PCD handle
 755:Drivers/STM32G4xx_HAL_Driver/Src/stm32g4xx_hal_pcd.c ****   * @param  pCallback pointer to the USB PCD BCD Callback function
 756:Drivers/STM32G4xx_HAL_Driver/Src/stm32g4xx_hal_pcd.c ****   * @retval HAL status
 757:Drivers/STM32G4xx_HAL_Driver/Src/stm32g4xx_hal_pcd.c ****   */
 758:Drivers/STM32G4xx_HAL_Driver/Src/stm32g4xx_hal_pcd.c **** HAL_StatusTypeDef HAL_PCD_RegisterBcdCallback(PCD_HandleTypeDef *hpcd, pPCD_BcdCallbackTypeDef pCal
 759:Drivers/STM32G4xx_HAL_Driver/Src/stm32g4xx_hal_pcd.c **** {
 760:Drivers/STM32G4xx_HAL_Driver/Src/stm32g4xx_hal_pcd.c ****   HAL_StatusTypeDef status = HAL_OK;
 761:Drivers/STM32G4xx_HAL_Driver/Src/stm32g4xx_hal_pcd.c **** 
 762:Drivers/STM32G4xx_HAL_Driver/Src/stm32g4xx_hal_pcd.c ****   if (pCallback == NULL)
 763:Drivers/STM32G4xx_HAL_Driver/Src/stm32g4xx_hal_pcd.c ****   {
 764:Drivers/STM32G4xx_HAL_Driver/Src/stm32g4xx_hal_pcd.c ****     /* Update the error code */
 765:Drivers/STM32G4xx_HAL_Driver/Src/stm32g4xx_hal_pcd.c ****     hpcd->ErrorCode |= HAL_PCD_ERROR_INVALID_CALLBACK;
 766:Drivers/STM32G4xx_HAL_Driver/Src/stm32g4xx_hal_pcd.c **** 
 767:Drivers/STM32G4xx_HAL_Driver/Src/stm32g4xx_hal_pcd.c ****     return HAL_ERROR;
 768:Drivers/STM32G4xx_HAL_Driver/Src/stm32g4xx_hal_pcd.c ****   }
 769:Drivers/STM32G4xx_HAL_Driver/Src/stm32g4xx_hal_pcd.c **** 
 770:Drivers/STM32G4xx_HAL_Driver/Src/stm32g4xx_hal_pcd.c ****   if (hpcd->State == HAL_PCD_STATE_READY)
 771:Drivers/STM32G4xx_HAL_Driver/Src/stm32g4xx_hal_pcd.c ****   {
ARM GAS  /tmp/ccXaRXaA.s 			page 15


 772:Drivers/STM32G4xx_HAL_Driver/Src/stm32g4xx_hal_pcd.c ****     hpcd->BCDCallback = pCallback;
 773:Drivers/STM32G4xx_HAL_Driver/Src/stm32g4xx_hal_pcd.c ****   }
 774:Drivers/STM32G4xx_HAL_Driver/Src/stm32g4xx_hal_pcd.c ****   else
 775:Drivers/STM32G4xx_HAL_Driver/Src/stm32g4xx_hal_pcd.c ****   {
 776:Drivers/STM32G4xx_HAL_Driver/Src/stm32g4xx_hal_pcd.c ****     /* Update the error code */
 777:Drivers/STM32G4xx_HAL_Driver/Src/stm32g4xx_hal_pcd.c ****     hpcd->ErrorCode |= HAL_PCD_ERROR_INVALID_CALLBACK;
 778:Drivers/STM32G4xx_HAL_Driver/Src/stm32g4xx_hal_pcd.c **** 
 779:Drivers/STM32G4xx_HAL_Driver/Src/stm32g4xx_hal_pcd.c ****     /* Return error status */
 780:Drivers/STM32G4xx_HAL_Driver/Src/stm32g4xx_hal_pcd.c ****     status =  HAL_ERROR;
 781:Drivers/STM32G4xx_HAL_Driver/Src/stm32g4xx_hal_pcd.c ****   }
 782:Drivers/STM32G4xx_HAL_Driver/Src/stm32g4xx_hal_pcd.c **** 
 783:Drivers/STM32G4xx_HAL_Driver/Src/stm32g4xx_hal_pcd.c ****   return status;
 784:Drivers/STM32G4xx_HAL_Driver/Src/stm32g4xx_hal_pcd.c **** }
 785:Drivers/STM32G4xx_HAL_Driver/Src/stm32g4xx_hal_pcd.c **** 
 786:Drivers/STM32G4xx_HAL_Driver/Src/stm32g4xx_hal_pcd.c **** /**
 787:Drivers/STM32G4xx_HAL_Driver/Src/stm32g4xx_hal_pcd.c ****   * @brief  Unregister the USB PCD BCD Callback
 788:Drivers/STM32G4xx_HAL_Driver/Src/stm32g4xx_hal_pcd.c ****   *         USB BCD Callback is redirected to the weak HAL_PCDEx_BCD_Callback() predefined callback
 789:Drivers/STM32G4xx_HAL_Driver/Src/stm32g4xx_hal_pcd.c ****   * @param  hpcd PCD handle
 790:Drivers/STM32G4xx_HAL_Driver/Src/stm32g4xx_hal_pcd.c ****   * @retval HAL status
 791:Drivers/STM32G4xx_HAL_Driver/Src/stm32g4xx_hal_pcd.c ****   */
 792:Drivers/STM32G4xx_HAL_Driver/Src/stm32g4xx_hal_pcd.c **** HAL_StatusTypeDef HAL_PCD_UnRegisterBcdCallback(PCD_HandleTypeDef *hpcd)
 793:Drivers/STM32G4xx_HAL_Driver/Src/stm32g4xx_hal_pcd.c **** {
 794:Drivers/STM32G4xx_HAL_Driver/Src/stm32g4xx_hal_pcd.c ****   HAL_StatusTypeDef status = HAL_OK;
 795:Drivers/STM32G4xx_HAL_Driver/Src/stm32g4xx_hal_pcd.c **** 
 796:Drivers/STM32G4xx_HAL_Driver/Src/stm32g4xx_hal_pcd.c ****   if (hpcd->State == HAL_PCD_STATE_READY)
 797:Drivers/STM32G4xx_HAL_Driver/Src/stm32g4xx_hal_pcd.c ****   {
 798:Drivers/STM32G4xx_HAL_Driver/Src/stm32g4xx_hal_pcd.c ****     hpcd->BCDCallback = HAL_PCDEx_BCD_Callback; /* Legacy weak HAL_PCDEx_BCD_Callback  */
 799:Drivers/STM32G4xx_HAL_Driver/Src/stm32g4xx_hal_pcd.c ****   }
 800:Drivers/STM32G4xx_HAL_Driver/Src/stm32g4xx_hal_pcd.c ****   else
 801:Drivers/STM32G4xx_HAL_Driver/Src/stm32g4xx_hal_pcd.c ****   {
 802:Drivers/STM32G4xx_HAL_Driver/Src/stm32g4xx_hal_pcd.c ****     /* Update the error code */
 803:Drivers/STM32G4xx_HAL_Driver/Src/stm32g4xx_hal_pcd.c ****     hpcd->ErrorCode |= HAL_PCD_ERROR_INVALID_CALLBACK;
 804:Drivers/STM32G4xx_HAL_Driver/Src/stm32g4xx_hal_pcd.c **** 
 805:Drivers/STM32G4xx_HAL_Driver/Src/stm32g4xx_hal_pcd.c ****     /* Return error status */
 806:Drivers/STM32G4xx_HAL_Driver/Src/stm32g4xx_hal_pcd.c ****     status =  HAL_ERROR;
 807:Drivers/STM32G4xx_HAL_Driver/Src/stm32g4xx_hal_pcd.c ****   }
 808:Drivers/STM32G4xx_HAL_Driver/Src/stm32g4xx_hal_pcd.c **** 
 809:Drivers/STM32G4xx_HAL_Driver/Src/stm32g4xx_hal_pcd.c ****   return status;
 810:Drivers/STM32G4xx_HAL_Driver/Src/stm32g4xx_hal_pcd.c **** }
 811:Drivers/STM32G4xx_HAL_Driver/Src/stm32g4xx_hal_pcd.c **** 
 812:Drivers/STM32G4xx_HAL_Driver/Src/stm32g4xx_hal_pcd.c **** /**
 813:Drivers/STM32G4xx_HAL_Driver/Src/stm32g4xx_hal_pcd.c ****   * @brief  Register USB PCD LPM Callback
 814:Drivers/STM32G4xx_HAL_Driver/Src/stm32g4xx_hal_pcd.c ****   *         To be used instead of the weak HAL_PCDEx_LPM_Callback() predefined callback
 815:Drivers/STM32G4xx_HAL_Driver/Src/stm32g4xx_hal_pcd.c ****   * @param  hpcd PCD handle
 816:Drivers/STM32G4xx_HAL_Driver/Src/stm32g4xx_hal_pcd.c ****   * @param  pCallback pointer to the USB PCD LPM Callback function
 817:Drivers/STM32G4xx_HAL_Driver/Src/stm32g4xx_hal_pcd.c ****   * @retval HAL status
 818:Drivers/STM32G4xx_HAL_Driver/Src/stm32g4xx_hal_pcd.c ****   */
 819:Drivers/STM32G4xx_HAL_Driver/Src/stm32g4xx_hal_pcd.c **** HAL_StatusTypeDef HAL_PCD_RegisterLpmCallback(PCD_HandleTypeDef *hpcd, pPCD_LpmCallbackTypeDef pCal
 820:Drivers/STM32G4xx_HAL_Driver/Src/stm32g4xx_hal_pcd.c **** {
 821:Drivers/STM32G4xx_HAL_Driver/Src/stm32g4xx_hal_pcd.c ****   HAL_StatusTypeDef status = HAL_OK;
 822:Drivers/STM32G4xx_HAL_Driver/Src/stm32g4xx_hal_pcd.c **** 
 823:Drivers/STM32G4xx_HAL_Driver/Src/stm32g4xx_hal_pcd.c ****   if (pCallback == NULL)
 824:Drivers/STM32G4xx_HAL_Driver/Src/stm32g4xx_hal_pcd.c ****   {
 825:Drivers/STM32G4xx_HAL_Driver/Src/stm32g4xx_hal_pcd.c ****     /* Update the error code */
 826:Drivers/STM32G4xx_HAL_Driver/Src/stm32g4xx_hal_pcd.c ****     hpcd->ErrorCode |= HAL_PCD_ERROR_INVALID_CALLBACK;
 827:Drivers/STM32G4xx_HAL_Driver/Src/stm32g4xx_hal_pcd.c **** 
 828:Drivers/STM32G4xx_HAL_Driver/Src/stm32g4xx_hal_pcd.c ****     return HAL_ERROR;
ARM GAS  /tmp/ccXaRXaA.s 			page 16


 829:Drivers/STM32G4xx_HAL_Driver/Src/stm32g4xx_hal_pcd.c ****   }
 830:Drivers/STM32G4xx_HAL_Driver/Src/stm32g4xx_hal_pcd.c **** 
 831:Drivers/STM32G4xx_HAL_Driver/Src/stm32g4xx_hal_pcd.c ****   if (hpcd->State == HAL_PCD_STATE_READY)
 832:Drivers/STM32G4xx_HAL_Driver/Src/stm32g4xx_hal_pcd.c ****   {
 833:Drivers/STM32G4xx_HAL_Driver/Src/stm32g4xx_hal_pcd.c ****     hpcd->LPMCallback = pCallback;
 834:Drivers/STM32G4xx_HAL_Driver/Src/stm32g4xx_hal_pcd.c ****   }
 835:Drivers/STM32G4xx_HAL_Driver/Src/stm32g4xx_hal_pcd.c ****   else
 836:Drivers/STM32G4xx_HAL_Driver/Src/stm32g4xx_hal_pcd.c ****   {
 837:Drivers/STM32G4xx_HAL_Driver/Src/stm32g4xx_hal_pcd.c ****     /* Update the error code */
 838:Drivers/STM32G4xx_HAL_Driver/Src/stm32g4xx_hal_pcd.c ****     hpcd->ErrorCode |= HAL_PCD_ERROR_INVALID_CALLBACK;
 839:Drivers/STM32G4xx_HAL_Driver/Src/stm32g4xx_hal_pcd.c **** 
 840:Drivers/STM32G4xx_HAL_Driver/Src/stm32g4xx_hal_pcd.c ****     /* Return error status */
 841:Drivers/STM32G4xx_HAL_Driver/Src/stm32g4xx_hal_pcd.c ****     status =  HAL_ERROR;
 842:Drivers/STM32G4xx_HAL_Driver/Src/stm32g4xx_hal_pcd.c ****   }
 843:Drivers/STM32G4xx_HAL_Driver/Src/stm32g4xx_hal_pcd.c **** 
 844:Drivers/STM32G4xx_HAL_Driver/Src/stm32g4xx_hal_pcd.c ****   return status;
 845:Drivers/STM32G4xx_HAL_Driver/Src/stm32g4xx_hal_pcd.c **** }
 846:Drivers/STM32G4xx_HAL_Driver/Src/stm32g4xx_hal_pcd.c **** 
 847:Drivers/STM32G4xx_HAL_Driver/Src/stm32g4xx_hal_pcd.c **** /**
 848:Drivers/STM32G4xx_HAL_Driver/Src/stm32g4xx_hal_pcd.c ****   * @brief  Unregister the USB PCD LPM Callback
 849:Drivers/STM32G4xx_HAL_Driver/Src/stm32g4xx_hal_pcd.c ****   *         USB LPM Callback is redirected to the weak HAL_PCDEx_LPM_Callback() predefined callback
 850:Drivers/STM32G4xx_HAL_Driver/Src/stm32g4xx_hal_pcd.c ****   * @param  hpcd PCD handle
 851:Drivers/STM32G4xx_HAL_Driver/Src/stm32g4xx_hal_pcd.c ****   * @retval HAL status
 852:Drivers/STM32G4xx_HAL_Driver/Src/stm32g4xx_hal_pcd.c ****   */
 853:Drivers/STM32G4xx_HAL_Driver/Src/stm32g4xx_hal_pcd.c **** HAL_StatusTypeDef HAL_PCD_UnRegisterLpmCallback(PCD_HandleTypeDef *hpcd)
 854:Drivers/STM32G4xx_HAL_Driver/Src/stm32g4xx_hal_pcd.c **** {
 855:Drivers/STM32G4xx_HAL_Driver/Src/stm32g4xx_hal_pcd.c ****   HAL_StatusTypeDef status = HAL_OK;
 856:Drivers/STM32G4xx_HAL_Driver/Src/stm32g4xx_hal_pcd.c **** 
 857:Drivers/STM32G4xx_HAL_Driver/Src/stm32g4xx_hal_pcd.c ****   if (hpcd->State == HAL_PCD_STATE_READY)
 858:Drivers/STM32G4xx_HAL_Driver/Src/stm32g4xx_hal_pcd.c ****   {
 859:Drivers/STM32G4xx_HAL_Driver/Src/stm32g4xx_hal_pcd.c ****     hpcd->LPMCallback = HAL_PCDEx_LPM_Callback; /* Legacy weak HAL_PCDEx_LPM_Callback  */
 860:Drivers/STM32G4xx_HAL_Driver/Src/stm32g4xx_hal_pcd.c ****   }
 861:Drivers/STM32G4xx_HAL_Driver/Src/stm32g4xx_hal_pcd.c ****   else
 862:Drivers/STM32G4xx_HAL_Driver/Src/stm32g4xx_hal_pcd.c ****   {
 863:Drivers/STM32G4xx_HAL_Driver/Src/stm32g4xx_hal_pcd.c ****     /* Update the error code */
 864:Drivers/STM32G4xx_HAL_Driver/Src/stm32g4xx_hal_pcd.c ****     hpcd->ErrorCode |= HAL_PCD_ERROR_INVALID_CALLBACK;
 865:Drivers/STM32G4xx_HAL_Driver/Src/stm32g4xx_hal_pcd.c **** 
 866:Drivers/STM32G4xx_HAL_Driver/Src/stm32g4xx_hal_pcd.c ****     /* Return error status */
 867:Drivers/STM32G4xx_HAL_Driver/Src/stm32g4xx_hal_pcd.c ****     status =  HAL_ERROR;
 868:Drivers/STM32G4xx_HAL_Driver/Src/stm32g4xx_hal_pcd.c ****   }
 869:Drivers/STM32G4xx_HAL_Driver/Src/stm32g4xx_hal_pcd.c **** 
 870:Drivers/STM32G4xx_HAL_Driver/Src/stm32g4xx_hal_pcd.c ****   return status;
 871:Drivers/STM32G4xx_HAL_Driver/Src/stm32g4xx_hal_pcd.c **** }
 872:Drivers/STM32G4xx_HAL_Driver/Src/stm32g4xx_hal_pcd.c **** #endif /* USE_HAL_PCD_REGISTER_CALLBACKS */
 873:Drivers/STM32G4xx_HAL_Driver/Src/stm32g4xx_hal_pcd.c **** 
 874:Drivers/STM32G4xx_HAL_Driver/Src/stm32g4xx_hal_pcd.c **** /**
 875:Drivers/STM32G4xx_HAL_Driver/Src/stm32g4xx_hal_pcd.c ****   * @}
 876:Drivers/STM32G4xx_HAL_Driver/Src/stm32g4xx_hal_pcd.c ****   */
 877:Drivers/STM32G4xx_HAL_Driver/Src/stm32g4xx_hal_pcd.c **** 
 878:Drivers/STM32G4xx_HAL_Driver/Src/stm32g4xx_hal_pcd.c **** /** @defgroup PCD_Exported_Functions_Group2 Input and Output operation functions
 879:Drivers/STM32G4xx_HAL_Driver/Src/stm32g4xx_hal_pcd.c ****   *  @brief   Data transfers functions
 880:Drivers/STM32G4xx_HAL_Driver/Src/stm32g4xx_hal_pcd.c ****   *
 881:Drivers/STM32G4xx_HAL_Driver/Src/stm32g4xx_hal_pcd.c **** @verbatim
 882:Drivers/STM32G4xx_HAL_Driver/Src/stm32g4xx_hal_pcd.c ****  ===============================================================================
 883:Drivers/STM32G4xx_HAL_Driver/Src/stm32g4xx_hal_pcd.c ****                       ##### IO operation functions #####
 884:Drivers/STM32G4xx_HAL_Driver/Src/stm32g4xx_hal_pcd.c ****  ===============================================================================
 885:Drivers/STM32G4xx_HAL_Driver/Src/stm32g4xx_hal_pcd.c ****     [..]
ARM GAS  /tmp/ccXaRXaA.s 			page 17


 886:Drivers/STM32G4xx_HAL_Driver/Src/stm32g4xx_hal_pcd.c ****     This subsection provides a set of functions allowing to manage the PCD data
 887:Drivers/STM32G4xx_HAL_Driver/Src/stm32g4xx_hal_pcd.c ****     transfers.
 888:Drivers/STM32G4xx_HAL_Driver/Src/stm32g4xx_hal_pcd.c **** 
 889:Drivers/STM32G4xx_HAL_Driver/Src/stm32g4xx_hal_pcd.c **** @endverbatim
 890:Drivers/STM32G4xx_HAL_Driver/Src/stm32g4xx_hal_pcd.c ****   * @{
 891:Drivers/STM32G4xx_HAL_Driver/Src/stm32g4xx_hal_pcd.c ****   */
 892:Drivers/STM32G4xx_HAL_Driver/Src/stm32g4xx_hal_pcd.c **** 
 893:Drivers/STM32G4xx_HAL_Driver/Src/stm32g4xx_hal_pcd.c **** /**
 894:Drivers/STM32G4xx_HAL_Driver/Src/stm32g4xx_hal_pcd.c ****   * @brief  Start the USB device
 895:Drivers/STM32G4xx_HAL_Driver/Src/stm32g4xx_hal_pcd.c ****   * @param  hpcd PCD handle
 896:Drivers/STM32G4xx_HAL_Driver/Src/stm32g4xx_hal_pcd.c ****   * @retval HAL status
 897:Drivers/STM32G4xx_HAL_Driver/Src/stm32g4xx_hal_pcd.c ****   */
 898:Drivers/STM32G4xx_HAL_Driver/Src/stm32g4xx_hal_pcd.c **** HAL_StatusTypeDef HAL_PCD_Start(PCD_HandleTypeDef *hpcd)
 899:Drivers/STM32G4xx_HAL_Driver/Src/stm32g4xx_hal_pcd.c **** {
 900:Drivers/STM32G4xx_HAL_Driver/Src/stm32g4xx_hal_pcd.c ****   __HAL_LOCK(hpcd);
 901:Drivers/STM32G4xx_HAL_Driver/Src/stm32g4xx_hal_pcd.c ****   __HAL_PCD_ENABLE(hpcd);
 902:Drivers/STM32G4xx_HAL_Driver/Src/stm32g4xx_hal_pcd.c ****   (void)USB_DevConnect(hpcd->Instance);
 903:Drivers/STM32G4xx_HAL_Driver/Src/stm32g4xx_hal_pcd.c ****   __HAL_UNLOCK(hpcd);
 904:Drivers/STM32G4xx_HAL_Driver/Src/stm32g4xx_hal_pcd.c **** 
 905:Drivers/STM32G4xx_HAL_Driver/Src/stm32g4xx_hal_pcd.c ****   return HAL_OK;
 906:Drivers/STM32G4xx_HAL_Driver/Src/stm32g4xx_hal_pcd.c **** }
 907:Drivers/STM32G4xx_HAL_Driver/Src/stm32g4xx_hal_pcd.c **** 
 908:Drivers/STM32G4xx_HAL_Driver/Src/stm32g4xx_hal_pcd.c **** /**
 909:Drivers/STM32G4xx_HAL_Driver/Src/stm32g4xx_hal_pcd.c ****   * @brief  Stop the USB device.
 910:Drivers/STM32G4xx_HAL_Driver/Src/stm32g4xx_hal_pcd.c ****   * @param  hpcd PCD handle
 911:Drivers/STM32G4xx_HAL_Driver/Src/stm32g4xx_hal_pcd.c ****   * @retval HAL status
 912:Drivers/STM32G4xx_HAL_Driver/Src/stm32g4xx_hal_pcd.c ****   */
 913:Drivers/STM32G4xx_HAL_Driver/Src/stm32g4xx_hal_pcd.c **** HAL_StatusTypeDef HAL_PCD_Stop(PCD_HandleTypeDef *hpcd)
 914:Drivers/STM32G4xx_HAL_Driver/Src/stm32g4xx_hal_pcd.c **** {
 915:Drivers/STM32G4xx_HAL_Driver/Src/stm32g4xx_hal_pcd.c ****   __HAL_LOCK(hpcd);
 916:Drivers/STM32G4xx_HAL_Driver/Src/stm32g4xx_hal_pcd.c ****   __HAL_PCD_DISABLE(hpcd);
 917:Drivers/STM32G4xx_HAL_Driver/Src/stm32g4xx_hal_pcd.c ****   (void)USB_DevDisconnect(hpcd->Instance);
 918:Drivers/STM32G4xx_HAL_Driver/Src/stm32g4xx_hal_pcd.c ****   __HAL_UNLOCK(hpcd);
 919:Drivers/STM32G4xx_HAL_Driver/Src/stm32g4xx_hal_pcd.c **** 
 920:Drivers/STM32G4xx_HAL_Driver/Src/stm32g4xx_hal_pcd.c ****   return HAL_OK;
 921:Drivers/STM32G4xx_HAL_Driver/Src/stm32g4xx_hal_pcd.c **** }
 922:Drivers/STM32G4xx_HAL_Driver/Src/stm32g4xx_hal_pcd.c **** 
 923:Drivers/STM32G4xx_HAL_Driver/Src/stm32g4xx_hal_pcd.c **** 
 924:Drivers/STM32G4xx_HAL_Driver/Src/stm32g4xx_hal_pcd.c **** /**
 925:Drivers/STM32G4xx_HAL_Driver/Src/stm32g4xx_hal_pcd.c ****   * @brief  This function handles PCD interrupt request.
 926:Drivers/STM32G4xx_HAL_Driver/Src/stm32g4xx_hal_pcd.c ****   * @param  hpcd PCD handle
 927:Drivers/STM32G4xx_HAL_Driver/Src/stm32g4xx_hal_pcd.c ****   * @retval HAL status
 928:Drivers/STM32G4xx_HAL_Driver/Src/stm32g4xx_hal_pcd.c ****   */
 929:Drivers/STM32G4xx_HAL_Driver/Src/stm32g4xx_hal_pcd.c **** void HAL_PCD_IRQHandler(PCD_HandleTypeDef *hpcd)
 930:Drivers/STM32G4xx_HAL_Driver/Src/stm32g4xx_hal_pcd.c **** {
 931:Drivers/STM32G4xx_HAL_Driver/Src/stm32g4xx_hal_pcd.c ****   uint32_t wIstr = USB_ReadInterrupts(hpcd->Instance);
 932:Drivers/STM32G4xx_HAL_Driver/Src/stm32g4xx_hal_pcd.c **** 
 933:Drivers/STM32G4xx_HAL_Driver/Src/stm32g4xx_hal_pcd.c ****   if ((wIstr & USB_ISTR_CTR) == USB_ISTR_CTR)
 934:Drivers/STM32G4xx_HAL_Driver/Src/stm32g4xx_hal_pcd.c ****   {
 935:Drivers/STM32G4xx_HAL_Driver/Src/stm32g4xx_hal_pcd.c ****     /* servicing of the endpoint correct transfer interrupt */
 936:Drivers/STM32G4xx_HAL_Driver/Src/stm32g4xx_hal_pcd.c ****     /* clear of the CTR flag into the sub */
 937:Drivers/STM32G4xx_HAL_Driver/Src/stm32g4xx_hal_pcd.c ****     (void)PCD_EP_ISR_Handler(hpcd);
 938:Drivers/STM32G4xx_HAL_Driver/Src/stm32g4xx_hal_pcd.c **** 
 939:Drivers/STM32G4xx_HAL_Driver/Src/stm32g4xx_hal_pcd.c ****     return;
 940:Drivers/STM32G4xx_HAL_Driver/Src/stm32g4xx_hal_pcd.c ****   }
 941:Drivers/STM32G4xx_HAL_Driver/Src/stm32g4xx_hal_pcd.c **** 
 942:Drivers/STM32G4xx_HAL_Driver/Src/stm32g4xx_hal_pcd.c ****   if ((wIstr & USB_ISTR_RESET) == USB_ISTR_RESET)
ARM GAS  /tmp/ccXaRXaA.s 			page 18


 943:Drivers/STM32G4xx_HAL_Driver/Src/stm32g4xx_hal_pcd.c ****   {
 944:Drivers/STM32G4xx_HAL_Driver/Src/stm32g4xx_hal_pcd.c ****     __HAL_PCD_CLEAR_FLAG(hpcd, USB_ISTR_RESET);
 945:Drivers/STM32G4xx_HAL_Driver/Src/stm32g4xx_hal_pcd.c **** 
 946:Drivers/STM32G4xx_HAL_Driver/Src/stm32g4xx_hal_pcd.c **** #if (USE_HAL_PCD_REGISTER_CALLBACKS == 1U)
 947:Drivers/STM32G4xx_HAL_Driver/Src/stm32g4xx_hal_pcd.c ****     hpcd->ResetCallback(hpcd);
 948:Drivers/STM32G4xx_HAL_Driver/Src/stm32g4xx_hal_pcd.c **** #else
 949:Drivers/STM32G4xx_HAL_Driver/Src/stm32g4xx_hal_pcd.c ****     HAL_PCD_ResetCallback(hpcd);
 950:Drivers/STM32G4xx_HAL_Driver/Src/stm32g4xx_hal_pcd.c **** #endif /* USE_HAL_PCD_REGISTER_CALLBACKS */
 951:Drivers/STM32G4xx_HAL_Driver/Src/stm32g4xx_hal_pcd.c **** 
 952:Drivers/STM32G4xx_HAL_Driver/Src/stm32g4xx_hal_pcd.c ****     (void)HAL_PCD_SetAddress(hpcd, 0U);
 953:Drivers/STM32G4xx_HAL_Driver/Src/stm32g4xx_hal_pcd.c **** 
 954:Drivers/STM32G4xx_HAL_Driver/Src/stm32g4xx_hal_pcd.c ****     return;
 955:Drivers/STM32G4xx_HAL_Driver/Src/stm32g4xx_hal_pcd.c ****   }
 956:Drivers/STM32G4xx_HAL_Driver/Src/stm32g4xx_hal_pcd.c **** 
 957:Drivers/STM32G4xx_HAL_Driver/Src/stm32g4xx_hal_pcd.c ****   if ((wIstr & USB_ISTR_PMAOVR) == USB_ISTR_PMAOVR)
 958:Drivers/STM32G4xx_HAL_Driver/Src/stm32g4xx_hal_pcd.c ****   {
 959:Drivers/STM32G4xx_HAL_Driver/Src/stm32g4xx_hal_pcd.c ****     __HAL_PCD_CLEAR_FLAG(hpcd, USB_ISTR_PMAOVR);
 960:Drivers/STM32G4xx_HAL_Driver/Src/stm32g4xx_hal_pcd.c **** 
 961:Drivers/STM32G4xx_HAL_Driver/Src/stm32g4xx_hal_pcd.c ****     return;
 962:Drivers/STM32G4xx_HAL_Driver/Src/stm32g4xx_hal_pcd.c ****   }
 963:Drivers/STM32G4xx_HAL_Driver/Src/stm32g4xx_hal_pcd.c **** 
 964:Drivers/STM32G4xx_HAL_Driver/Src/stm32g4xx_hal_pcd.c ****   if ((wIstr & USB_ISTR_ERR) == USB_ISTR_ERR)
 965:Drivers/STM32G4xx_HAL_Driver/Src/stm32g4xx_hal_pcd.c ****   {
 966:Drivers/STM32G4xx_HAL_Driver/Src/stm32g4xx_hal_pcd.c ****     __HAL_PCD_CLEAR_FLAG(hpcd, USB_ISTR_ERR);
 967:Drivers/STM32G4xx_HAL_Driver/Src/stm32g4xx_hal_pcd.c **** 
 968:Drivers/STM32G4xx_HAL_Driver/Src/stm32g4xx_hal_pcd.c ****     return;
 969:Drivers/STM32G4xx_HAL_Driver/Src/stm32g4xx_hal_pcd.c ****   }
 970:Drivers/STM32G4xx_HAL_Driver/Src/stm32g4xx_hal_pcd.c **** 
 971:Drivers/STM32G4xx_HAL_Driver/Src/stm32g4xx_hal_pcd.c ****   if ((wIstr & USB_ISTR_WKUP) == USB_ISTR_WKUP)
 972:Drivers/STM32G4xx_HAL_Driver/Src/stm32g4xx_hal_pcd.c ****   {
 973:Drivers/STM32G4xx_HAL_Driver/Src/stm32g4xx_hal_pcd.c ****     hpcd->Instance->CNTR &= (uint16_t) ~(USB_CNTR_LPMODE);
 974:Drivers/STM32G4xx_HAL_Driver/Src/stm32g4xx_hal_pcd.c ****     hpcd->Instance->CNTR &= (uint16_t) ~(USB_CNTR_FSUSP);
 975:Drivers/STM32G4xx_HAL_Driver/Src/stm32g4xx_hal_pcd.c **** 
 976:Drivers/STM32G4xx_HAL_Driver/Src/stm32g4xx_hal_pcd.c ****     if (hpcd->LPM_State == LPM_L1)
 977:Drivers/STM32G4xx_HAL_Driver/Src/stm32g4xx_hal_pcd.c ****     {
 978:Drivers/STM32G4xx_HAL_Driver/Src/stm32g4xx_hal_pcd.c ****       hpcd->LPM_State = LPM_L0;
 979:Drivers/STM32G4xx_HAL_Driver/Src/stm32g4xx_hal_pcd.c **** #if (USE_HAL_PCD_REGISTER_CALLBACKS == 1U)
 980:Drivers/STM32G4xx_HAL_Driver/Src/stm32g4xx_hal_pcd.c ****       hpcd->LPMCallback(hpcd, PCD_LPM_L0_ACTIVE);
 981:Drivers/STM32G4xx_HAL_Driver/Src/stm32g4xx_hal_pcd.c **** #else
 982:Drivers/STM32G4xx_HAL_Driver/Src/stm32g4xx_hal_pcd.c ****       HAL_PCDEx_LPM_Callback(hpcd, PCD_LPM_L0_ACTIVE);
 983:Drivers/STM32G4xx_HAL_Driver/Src/stm32g4xx_hal_pcd.c **** #endif /* USE_HAL_PCD_REGISTER_CALLBACKS */
 984:Drivers/STM32G4xx_HAL_Driver/Src/stm32g4xx_hal_pcd.c ****     }
 985:Drivers/STM32G4xx_HAL_Driver/Src/stm32g4xx_hal_pcd.c **** 
 986:Drivers/STM32G4xx_HAL_Driver/Src/stm32g4xx_hal_pcd.c **** #if (USE_HAL_PCD_REGISTER_CALLBACKS == 1U)
 987:Drivers/STM32G4xx_HAL_Driver/Src/stm32g4xx_hal_pcd.c ****     hpcd->ResumeCallback(hpcd);
 988:Drivers/STM32G4xx_HAL_Driver/Src/stm32g4xx_hal_pcd.c **** #else
 989:Drivers/STM32G4xx_HAL_Driver/Src/stm32g4xx_hal_pcd.c ****     HAL_PCD_ResumeCallback(hpcd);
 990:Drivers/STM32G4xx_HAL_Driver/Src/stm32g4xx_hal_pcd.c **** #endif /* USE_HAL_PCD_REGISTER_CALLBACKS */
 991:Drivers/STM32G4xx_HAL_Driver/Src/stm32g4xx_hal_pcd.c **** 
 992:Drivers/STM32G4xx_HAL_Driver/Src/stm32g4xx_hal_pcd.c ****     __HAL_PCD_CLEAR_FLAG(hpcd, USB_ISTR_WKUP);
 993:Drivers/STM32G4xx_HAL_Driver/Src/stm32g4xx_hal_pcd.c **** 
 994:Drivers/STM32G4xx_HAL_Driver/Src/stm32g4xx_hal_pcd.c ****     return;
 995:Drivers/STM32G4xx_HAL_Driver/Src/stm32g4xx_hal_pcd.c ****   }
 996:Drivers/STM32G4xx_HAL_Driver/Src/stm32g4xx_hal_pcd.c **** 
 997:Drivers/STM32G4xx_HAL_Driver/Src/stm32g4xx_hal_pcd.c ****   if ((wIstr & USB_ISTR_SUSP) == USB_ISTR_SUSP)
 998:Drivers/STM32G4xx_HAL_Driver/Src/stm32g4xx_hal_pcd.c ****   {
 999:Drivers/STM32G4xx_HAL_Driver/Src/stm32g4xx_hal_pcd.c ****     /* Force low-power mode in the macrocell */
ARM GAS  /tmp/ccXaRXaA.s 			page 19


1000:Drivers/STM32G4xx_HAL_Driver/Src/stm32g4xx_hal_pcd.c ****     hpcd->Instance->CNTR |= (uint16_t)USB_CNTR_FSUSP;
1001:Drivers/STM32G4xx_HAL_Driver/Src/stm32g4xx_hal_pcd.c **** 
1002:Drivers/STM32G4xx_HAL_Driver/Src/stm32g4xx_hal_pcd.c ****     /* clear of the ISTR bit must be done after setting of CNTR_FSUSP */
1003:Drivers/STM32G4xx_HAL_Driver/Src/stm32g4xx_hal_pcd.c ****     __HAL_PCD_CLEAR_FLAG(hpcd, USB_ISTR_SUSP);
1004:Drivers/STM32G4xx_HAL_Driver/Src/stm32g4xx_hal_pcd.c **** 
1005:Drivers/STM32G4xx_HAL_Driver/Src/stm32g4xx_hal_pcd.c ****     hpcd->Instance->CNTR |= (uint16_t)USB_CNTR_LPMODE;
1006:Drivers/STM32G4xx_HAL_Driver/Src/stm32g4xx_hal_pcd.c **** 
1007:Drivers/STM32G4xx_HAL_Driver/Src/stm32g4xx_hal_pcd.c **** #if (USE_HAL_PCD_REGISTER_CALLBACKS == 1U)
1008:Drivers/STM32G4xx_HAL_Driver/Src/stm32g4xx_hal_pcd.c ****     hpcd->SuspendCallback(hpcd);
1009:Drivers/STM32G4xx_HAL_Driver/Src/stm32g4xx_hal_pcd.c **** #else
1010:Drivers/STM32G4xx_HAL_Driver/Src/stm32g4xx_hal_pcd.c ****     HAL_PCD_SuspendCallback(hpcd);
1011:Drivers/STM32G4xx_HAL_Driver/Src/stm32g4xx_hal_pcd.c **** #endif /* USE_HAL_PCD_REGISTER_CALLBACKS */
1012:Drivers/STM32G4xx_HAL_Driver/Src/stm32g4xx_hal_pcd.c **** 
1013:Drivers/STM32G4xx_HAL_Driver/Src/stm32g4xx_hal_pcd.c ****     return;
1014:Drivers/STM32G4xx_HAL_Driver/Src/stm32g4xx_hal_pcd.c ****   }
1015:Drivers/STM32G4xx_HAL_Driver/Src/stm32g4xx_hal_pcd.c **** 
1016:Drivers/STM32G4xx_HAL_Driver/Src/stm32g4xx_hal_pcd.c ****   /* Handle LPM Interrupt */
1017:Drivers/STM32G4xx_HAL_Driver/Src/stm32g4xx_hal_pcd.c ****   if ((wIstr & USB_ISTR_L1REQ) == USB_ISTR_L1REQ)
1018:Drivers/STM32G4xx_HAL_Driver/Src/stm32g4xx_hal_pcd.c ****   {
1019:Drivers/STM32G4xx_HAL_Driver/Src/stm32g4xx_hal_pcd.c ****     __HAL_PCD_CLEAR_FLAG(hpcd, USB_ISTR_L1REQ);
1020:Drivers/STM32G4xx_HAL_Driver/Src/stm32g4xx_hal_pcd.c ****     if (hpcd->LPM_State == LPM_L0)
1021:Drivers/STM32G4xx_HAL_Driver/Src/stm32g4xx_hal_pcd.c ****     {
1022:Drivers/STM32G4xx_HAL_Driver/Src/stm32g4xx_hal_pcd.c ****       /* Force suspend and low-power mode before going to L1 state*/
1023:Drivers/STM32G4xx_HAL_Driver/Src/stm32g4xx_hal_pcd.c ****       hpcd->Instance->CNTR |= (uint16_t)USB_CNTR_LPMODE;
1024:Drivers/STM32G4xx_HAL_Driver/Src/stm32g4xx_hal_pcd.c ****       hpcd->Instance->CNTR |= (uint16_t)USB_CNTR_FSUSP;
1025:Drivers/STM32G4xx_HAL_Driver/Src/stm32g4xx_hal_pcd.c **** 
1026:Drivers/STM32G4xx_HAL_Driver/Src/stm32g4xx_hal_pcd.c ****       hpcd->LPM_State = LPM_L1;
1027:Drivers/STM32G4xx_HAL_Driver/Src/stm32g4xx_hal_pcd.c ****       hpcd->BESL = ((uint32_t)hpcd->Instance->LPMCSR & USB_LPMCSR_BESL) >> 2;
1028:Drivers/STM32G4xx_HAL_Driver/Src/stm32g4xx_hal_pcd.c **** #if (USE_HAL_PCD_REGISTER_CALLBACKS == 1U)
1029:Drivers/STM32G4xx_HAL_Driver/Src/stm32g4xx_hal_pcd.c ****       hpcd->LPMCallback(hpcd, PCD_LPM_L1_ACTIVE);
1030:Drivers/STM32G4xx_HAL_Driver/Src/stm32g4xx_hal_pcd.c **** #else
1031:Drivers/STM32G4xx_HAL_Driver/Src/stm32g4xx_hal_pcd.c ****       HAL_PCDEx_LPM_Callback(hpcd, PCD_LPM_L1_ACTIVE);
1032:Drivers/STM32G4xx_HAL_Driver/Src/stm32g4xx_hal_pcd.c **** #endif /* USE_HAL_PCD_REGISTER_CALLBACKS */
1033:Drivers/STM32G4xx_HAL_Driver/Src/stm32g4xx_hal_pcd.c ****     }
1034:Drivers/STM32G4xx_HAL_Driver/Src/stm32g4xx_hal_pcd.c ****     else
1035:Drivers/STM32G4xx_HAL_Driver/Src/stm32g4xx_hal_pcd.c ****     {
1036:Drivers/STM32G4xx_HAL_Driver/Src/stm32g4xx_hal_pcd.c **** #if (USE_HAL_PCD_REGISTER_CALLBACKS == 1U)
1037:Drivers/STM32G4xx_HAL_Driver/Src/stm32g4xx_hal_pcd.c ****       hpcd->SuspendCallback(hpcd);
1038:Drivers/STM32G4xx_HAL_Driver/Src/stm32g4xx_hal_pcd.c **** #else
1039:Drivers/STM32G4xx_HAL_Driver/Src/stm32g4xx_hal_pcd.c ****       HAL_PCD_SuspendCallback(hpcd);
1040:Drivers/STM32G4xx_HAL_Driver/Src/stm32g4xx_hal_pcd.c **** #endif /* USE_HAL_PCD_REGISTER_CALLBACKS */
1041:Drivers/STM32G4xx_HAL_Driver/Src/stm32g4xx_hal_pcd.c ****     }
1042:Drivers/STM32G4xx_HAL_Driver/Src/stm32g4xx_hal_pcd.c **** 
1043:Drivers/STM32G4xx_HAL_Driver/Src/stm32g4xx_hal_pcd.c ****     return;
1044:Drivers/STM32G4xx_HAL_Driver/Src/stm32g4xx_hal_pcd.c ****   }
1045:Drivers/STM32G4xx_HAL_Driver/Src/stm32g4xx_hal_pcd.c **** 
1046:Drivers/STM32G4xx_HAL_Driver/Src/stm32g4xx_hal_pcd.c ****   if ((wIstr & USB_ISTR_SOF) == USB_ISTR_SOF)
1047:Drivers/STM32G4xx_HAL_Driver/Src/stm32g4xx_hal_pcd.c ****   {
1048:Drivers/STM32G4xx_HAL_Driver/Src/stm32g4xx_hal_pcd.c ****     __HAL_PCD_CLEAR_FLAG(hpcd, USB_ISTR_SOF);
1049:Drivers/STM32G4xx_HAL_Driver/Src/stm32g4xx_hal_pcd.c **** 
1050:Drivers/STM32G4xx_HAL_Driver/Src/stm32g4xx_hal_pcd.c **** #if (USE_HAL_PCD_REGISTER_CALLBACKS == 1U)
1051:Drivers/STM32G4xx_HAL_Driver/Src/stm32g4xx_hal_pcd.c ****     hpcd->SOFCallback(hpcd);
1052:Drivers/STM32G4xx_HAL_Driver/Src/stm32g4xx_hal_pcd.c **** #else
1053:Drivers/STM32G4xx_HAL_Driver/Src/stm32g4xx_hal_pcd.c ****     HAL_PCD_SOFCallback(hpcd);
1054:Drivers/STM32G4xx_HAL_Driver/Src/stm32g4xx_hal_pcd.c **** #endif /* USE_HAL_PCD_REGISTER_CALLBACKS */
1055:Drivers/STM32G4xx_HAL_Driver/Src/stm32g4xx_hal_pcd.c **** 
1056:Drivers/STM32G4xx_HAL_Driver/Src/stm32g4xx_hal_pcd.c ****     return;
ARM GAS  /tmp/ccXaRXaA.s 			page 20


1057:Drivers/STM32G4xx_HAL_Driver/Src/stm32g4xx_hal_pcd.c ****   }
1058:Drivers/STM32G4xx_HAL_Driver/Src/stm32g4xx_hal_pcd.c **** 
1059:Drivers/STM32G4xx_HAL_Driver/Src/stm32g4xx_hal_pcd.c ****   if ((wIstr & USB_ISTR_ESOF) == USB_ISTR_ESOF)
1060:Drivers/STM32G4xx_HAL_Driver/Src/stm32g4xx_hal_pcd.c ****   {
1061:Drivers/STM32G4xx_HAL_Driver/Src/stm32g4xx_hal_pcd.c ****     /* clear ESOF flag in ISTR */
1062:Drivers/STM32G4xx_HAL_Driver/Src/stm32g4xx_hal_pcd.c ****     __HAL_PCD_CLEAR_FLAG(hpcd, USB_ISTR_ESOF);
1063:Drivers/STM32G4xx_HAL_Driver/Src/stm32g4xx_hal_pcd.c **** 
1064:Drivers/STM32G4xx_HAL_Driver/Src/stm32g4xx_hal_pcd.c ****     return;
1065:Drivers/STM32G4xx_HAL_Driver/Src/stm32g4xx_hal_pcd.c ****   }
1066:Drivers/STM32G4xx_HAL_Driver/Src/stm32g4xx_hal_pcd.c **** }
1067:Drivers/STM32G4xx_HAL_Driver/Src/stm32g4xx_hal_pcd.c **** 
1068:Drivers/STM32G4xx_HAL_Driver/Src/stm32g4xx_hal_pcd.c **** 
1069:Drivers/STM32G4xx_HAL_Driver/Src/stm32g4xx_hal_pcd.c **** /**
1070:Drivers/STM32G4xx_HAL_Driver/Src/stm32g4xx_hal_pcd.c ****   * @brief  Data OUT stage callback.
1071:Drivers/STM32G4xx_HAL_Driver/Src/stm32g4xx_hal_pcd.c ****   * @param  hpcd PCD handle
1072:Drivers/STM32G4xx_HAL_Driver/Src/stm32g4xx_hal_pcd.c ****   * @param  epnum endpoint number
1073:Drivers/STM32G4xx_HAL_Driver/Src/stm32g4xx_hal_pcd.c ****   * @retval None
1074:Drivers/STM32G4xx_HAL_Driver/Src/stm32g4xx_hal_pcd.c ****   */
1075:Drivers/STM32G4xx_HAL_Driver/Src/stm32g4xx_hal_pcd.c **** __weak void HAL_PCD_DataOutStageCallback(PCD_HandleTypeDef *hpcd, uint8_t epnum)
1076:Drivers/STM32G4xx_HAL_Driver/Src/stm32g4xx_hal_pcd.c **** {
1077:Drivers/STM32G4xx_HAL_Driver/Src/stm32g4xx_hal_pcd.c ****   /* Prevent unused argument(s) compilation warning */
1078:Drivers/STM32G4xx_HAL_Driver/Src/stm32g4xx_hal_pcd.c ****   UNUSED(hpcd);
1079:Drivers/STM32G4xx_HAL_Driver/Src/stm32g4xx_hal_pcd.c ****   UNUSED(epnum);
1080:Drivers/STM32G4xx_HAL_Driver/Src/stm32g4xx_hal_pcd.c **** 
1081:Drivers/STM32G4xx_HAL_Driver/Src/stm32g4xx_hal_pcd.c ****   /* NOTE : This function should not be modified, when the callback is needed,
1082:Drivers/STM32G4xx_HAL_Driver/Src/stm32g4xx_hal_pcd.c ****             the HAL_PCD_DataOutStageCallback could be implemented in the user file
1083:Drivers/STM32G4xx_HAL_Driver/Src/stm32g4xx_hal_pcd.c ****    */
1084:Drivers/STM32G4xx_HAL_Driver/Src/stm32g4xx_hal_pcd.c **** }
1085:Drivers/STM32G4xx_HAL_Driver/Src/stm32g4xx_hal_pcd.c **** 
1086:Drivers/STM32G4xx_HAL_Driver/Src/stm32g4xx_hal_pcd.c **** /**
1087:Drivers/STM32G4xx_HAL_Driver/Src/stm32g4xx_hal_pcd.c ****   * @brief  Data IN stage callback
1088:Drivers/STM32G4xx_HAL_Driver/Src/stm32g4xx_hal_pcd.c ****   * @param  hpcd PCD handle
1089:Drivers/STM32G4xx_HAL_Driver/Src/stm32g4xx_hal_pcd.c ****   * @param  epnum endpoint number
1090:Drivers/STM32G4xx_HAL_Driver/Src/stm32g4xx_hal_pcd.c ****   * @retval None
1091:Drivers/STM32G4xx_HAL_Driver/Src/stm32g4xx_hal_pcd.c ****   */
1092:Drivers/STM32G4xx_HAL_Driver/Src/stm32g4xx_hal_pcd.c **** __weak void HAL_PCD_DataInStageCallback(PCD_HandleTypeDef *hpcd, uint8_t epnum)
1093:Drivers/STM32G4xx_HAL_Driver/Src/stm32g4xx_hal_pcd.c **** {
1094:Drivers/STM32G4xx_HAL_Driver/Src/stm32g4xx_hal_pcd.c ****   /* Prevent unused argument(s) compilation warning */
1095:Drivers/STM32G4xx_HAL_Driver/Src/stm32g4xx_hal_pcd.c ****   UNUSED(hpcd);
1096:Drivers/STM32G4xx_HAL_Driver/Src/stm32g4xx_hal_pcd.c ****   UNUSED(epnum);
1097:Drivers/STM32G4xx_HAL_Driver/Src/stm32g4xx_hal_pcd.c **** 
1098:Drivers/STM32G4xx_HAL_Driver/Src/stm32g4xx_hal_pcd.c ****   /* NOTE : This function should not be modified, when the callback is needed,
1099:Drivers/STM32G4xx_HAL_Driver/Src/stm32g4xx_hal_pcd.c ****             the HAL_PCD_DataInStageCallback could be implemented in the user file
1100:Drivers/STM32G4xx_HAL_Driver/Src/stm32g4xx_hal_pcd.c ****    */
1101:Drivers/STM32G4xx_HAL_Driver/Src/stm32g4xx_hal_pcd.c **** }
1102:Drivers/STM32G4xx_HAL_Driver/Src/stm32g4xx_hal_pcd.c **** /**
1103:Drivers/STM32G4xx_HAL_Driver/Src/stm32g4xx_hal_pcd.c ****   * @brief  Setup stage callback
1104:Drivers/STM32G4xx_HAL_Driver/Src/stm32g4xx_hal_pcd.c ****   * @param  hpcd PCD handle
1105:Drivers/STM32G4xx_HAL_Driver/Src/stm32g4xx_hal_pcd.c ****   * @retval None
1106:Drivers/STM32G4xx_HAL_Driver/Src/stm32g4xx_hal_pcd.c ****   */
1107:Drivers/STM32G4xx_HAL_Driver/Src/stm32g4xx_hal_pcd.c **** __weak void HAL_PCD_SetupStageCallback(PCD_HandleTypeDef *hpcd)
1108:Drivers/STM32G4xx_HAL_Driver/Src/stm32g4xx_hal_pcd.c **** {
1109:Drivers/STM32G4xx_HAL_Driver/Src/stm32g4xx_hal_pcd.c ****   /* Prevent unused argument(s) compilation warning */
1110:Drivers/STM32G4xx_HAL_Driver/Src/stm32g4xx_hal_pcd.c ****   UNUSED(hpcd);
1111:Drivers/STM32G4xx_HAL_Driver/Src/stm32g4xx_hal_pcd.c **** 
1112:Drivers/STM32G4xx_HAL_Driver/Src/stm32g4xx_hal_pcd.c ****   /* NOTE : This function should not be modified, when the callback is needed,
1113:Drivers/STM32G4xx_HAL_Driver/Src/stm32g4xx_hal_pcd.c ****             the HAL_PCD_SetupStageCallback could be implemented in the user file
ARM GAS  /tmp/ccXaRXaA.s 			page 21


1114:Drivers/STM32G4xx_HAL_Driver/Src/stm32g4xx_hal_pcd.c ****    */
1115:Drivers/STM32G4xx_HAL_Driver/Src/stm32g4xx_hal_pcd.c **** }
1116:Drivers/STM32G4xx_HAL_Driver/Src/stm32g4xx_hal_pcd.c **** 
1117:Drivers/STM32G4xx_HAL_Driver/Src/stm32g4xx_hal_pcd.c **** /**
1118:Drivers/STM32G4xx_HAL_Driver/Src/stm32g4xx_hal_pcd.c ****   * @brief  USB Start Of Frame callback.
1119:Drivers/STM32G4xx_HAL_Driver/Src/stm32g4xx_hal_pcd.c ****   * @param  hpcd PCD handle
1120:Drivers/STM32G4xx_HAL_Driver/Src/stm32g4xx_hal_pcd.c ****   * @retval None
1121:Drivers/STM32G4xx_HAL_Driver/Src/stm32g4xx_hal_pcd.c ****   */
1122:Drivers/STM32G4xx_HAL_Driver/Src/stm32g4xx_hal_pcd.c **** __weak void HAL_PCD_SOFCallback(PCD_HandleTypeDef *hpcd)
1123:Drivers/STM32G4xx_HAL_Driver/Src/stm32g4xx_hal_pcd.c **** {
1124:Drivers/STM32G4xx_HAL_Driver/Src/stm32g4xx_hal_pcd.c ****   /* Prevent unused argument(s) compilation warning */
1125:Drivers/STM32G4xx_HAL_Driver/Src/stm32g4xx_hal_pcd.c ****   UNUSED(hpcd);
1126:Drivers/STM32G4xx_HAL_Driver/Src/stm32g4xx_hal_pcd.c **** 
1127:Drivers/STM32G4xx_HAL_Driver/Src/stm32g4xx_hal_pcd.c ****   /* NOTE : This function should not be modified, when the callback is needed,
1128:Drivers/STM32G4xx_HAL_Driver/Src/stm32g4xx_hal_pcd.c ****             the HAL_PCD_SOFCallback could be implemented in the user file
1129:Drivers/STM32G4xx_HAL_Driver/Src/stm32g4xx_hal_pcd.c ****    */
1130:Drivers/STM32G4xx_HAL_Driver/Src/stm32g4xx_hal_pcd.c **** }
1131:Drivers/STM32G4xx_HAL_Driver/Src/stm32g4xx_hal_pcd.c **** 
1132:Drivers/STM32G4xx_HAL_Driver/Src/stm32g4xx_hal_pcd.c **** /**
1133:Drivers/STM32G4xx_HAL_Driver/Src/stm32g4xx_hal_pcd.c ****   * @brief  USB Reset callback.
1134:Drivers/STM32G4xx_HAL_Driver/Src/stm32g4xx_hal_pcd.c ****   * @param  hpcd PCD handle
1135:Drivers/STM32G4xx_HAL_Driver/Src/stm32g4xx_hal_pcd.c ****   * @retval None
1136:Drivers/STM32G4xx_HAL_Driver/Src/stm32g4xx_hal_pcd.c ****   */
1137:Drivers/STM32G4xx_HAL_Driver/Src/stm32g4xx_hal_pcd.c **** __weak void HAL_PCD_ResetCallback(PCD_HandleTypeDef *hpcd)
1138:Drivers/STM32G4xx_HAL_Driver/Src/stm32g4xx_hal_pcd.c **** {
1139:Drivers/STM32G4xx_HAL_Driver/Src/stm32g4xx_hal_pcd.c ****   /* Prevent unused argument(s) compilation warning */
1140:Drivers/STM32G4xx_HAL_Driver/Src/stm32g4xx_hal_pcd.c ****   UNUSED(hpcd);
1141:Drivers/STM32G4xx_HAL_Driver/Src/stm32g4xx_hal_pcd.c **** 
1142:Drivers/STM32G4xx_HAL_Driver/Src/stm32g4xx_hal_pcd.c ****   /* NOTE : This function should not be modified, when the callback is needed,
1143:Drivers/STM32G4xx_HAL_Driver/Src/stm32g4xx_hal_pcd.c ****             the HAL_PCD_ResetCallback could be implemented in the user file
1144:Drivers/STM32G4xx_HAL_Driver/Src/stm32g4xx_hal_pcd.c ****    */
1145:Drivers/STM32G4xx_HAL_Driver/Src/stm32g4xx_hal_pcd.c **** }
1146:Drivers/STM32G4xx_HAL_Driver/Src/stm32g4xx_hal_pcd.c **** 
1147:Drivers/STM32G4xx_HAL_Driver/Src/stm32g4xx_hal_pcd.c **** /**
1148:Drivers/STM32G4xx_HAL_Driver/Src/stm32g4xx_hal_pcd.c ****   * @brief  Suspend event callback.
1149:Drivers/STM32G4xx_HAL_Driver/Src/stm32g4xx_hal_pcd.c ****   * @param  hpcd PCD handle
1150:Drivers/STM32G4xx_HAL_Driver/Src/stm32g4xx_hal_pcd.c ****   * @retval None
1151:Drivers/STM32G4xx_HAL_Driver/Src/stm32g4xx_hal_pcd.c ****   */
1152:Drivers/STM32G4xx_HAL_Driver/Src/stm32g4xx_hal_pcd.c **** __weak void HAL_PCD_SuspendCallback(PCD_HandleTypeDef *hpcd)
1153:Drivers/STM32G4xx_HAL_Driver/Src/stm32g4xx_hal_pcd.c **** {
1154:Drivers/STM32G4xx_HAL_Driver/Src/stm32g4xx_hal_pcd.c ****   /* Prevent unused argument(s) compilation warning */
1155:Drivers/STM32G4xx_HAL_Driver/Src/stm32g4xx_hal_pcd.c ****   UNUSED(hpcd);
1156:Drivers/STM32G4xx_HAL_Driver/Src/stm32g4xx_hal_pcd.c **** 
1157:Drivers/STM32G4xx_HAL_Driver/Src/stm32g4xx_hal_pcd.c ****   /* NOTE : This function should not be modified, when the callback is needed,
1158:Drivers/STM32G4xx_HAL_Driver/Src/stm32g4xx_hal_pcd.c ****             the HAL_PCD_SuspendCallback could be implemented in the user file
1159:Drivers/STM32G4xx_HAL_Driver/Src/stm32g4xx_hal_pcd.c ****    */
1160:Drivers/STM32G4xx_HAL_Driver/Src/stm32g4xx_hal_pcd.c **** }
1161:Drivers/STM32G4xx_HAL_Driver/Src/stm32g4xx_hal_pcd.c **** 
1162:Drivers/STM32G4xx_HAL_Driver/Src/stm32g4xx_hal_pcd.c **** /**
1163:Drivers/STM32G4xx_HAL_Driver/Src/stm32g4xx_hal_pcd.c ****   * @brief  Resume event callback.
1164:Drivers/STM32G4xx_HAL_Driver/Src/stm32g4xx_hal_pcd.c ****   * @param  hpcd PCD handle
1165:Drivers/STM32G4xx_HAL_Driver/Src/stm32g4xx_hal_pcd.c ****   * @retval None
1166:Drivers/STM32G4xx_HAL_Driver/Src/stm32g4xx_hal_pcd.c ****   */
1167:Drivers/STM32G4xx_HAL_Driver/Src/stm32g4xx_hal_pcd.c **** __weak void HAL_PCD_ResumeCallback(PCD_HandleTypeDef *hpcd)
1168:Drivers/STM32G4xx_HAL_Driver/Src/stm32g4xx_hal_pcd.c **** {
1169:Drivers/STM32G4xx_HAL_Driver/Src/stm32g4xx_hal_pcd.c ****   /* Prevent unused argument(s) compilation warning */
1170:Drivers/STM32G4xx_HAL_Driver/Src/stm32g4xx_hal_pcd.c ****   UNUSED(hpcd);
ARM GAS  /tmp/ccXaRXaA.s 			page 22


1171:Drivers/STM32G4xx_HAL_Driver/Src/stm32g4xx_hal_pcd.c **** 
1172:Drivers/STM32G4xx_HAL_Driver/Src/stm32g4xx_hal_pcd.c ****   /* NOTE : This function should not be modified, when the callback is needed,
1173:Drivers/STM32G4xx_HAL_Driver/Src/stm32g4xx_hal_pcd.c ****             the HAL_PCD_ResumeCallback could be implemented in the user file
1174:Drivers/STM32G4xx_HAL_Driver/Src/stm32g4xx_hal_pcd.c ****    */
1175:Drivers/STM32G4xx_HAL_Driver/Src/stm32g4xx_hal_pcd.c **** }
1176:Drivers/STM32G4xx_HAL_Driver/Src/stm32g4xx_hal_pcd.c **** 
1177:Drivers/STM32G4xx_HAL_Driver/Src/stm32g4xx_hal_pcd.c **** /**
1178:Drivers/STM32G4xx_HAL_Driver/Src/stm32g4xx_hal_pcd.c ****   * @brief  Incomplete ISO OUT callback.
1179:Drivers/STM32G4xx_HAL_Driver/Src/stm32g4xx_hal_pcd.c ****   * @param  hpcd PCD handle
1180:Drivers/STM32G4xx_HAL_Driver/Src/stm32g4xx_hal_pcd.c ****   * @param  epnum endpoint number
1181:Drivers/STM32G4xx_HAL_Driver/Src/stm32g4xx_hal_pcd.c ****   * @retval None
1182:Drivers/STM32G4xx_HAL_Driver/Src/stm32g4xx_hal_pcd.c ****   */
1183:Drivers/STM32G4xx_HAL_Driver/Src/stm32g4xx_hal_pcd.c **** __weak void HAL_PCD_ISOOUTIncompleteCallback(PCD_HandleTypeDef *hpcd, uint8_t epnum)
1184:Drivers/STM32G4xx_HAL_Driver/Src/stm32g4xx_hal_pcd.c **** {
1185:Drivers/STM32G4xx_HAL_Driver/Src/stm32g4xx_hal_pcd.c ****   /* Prevent unused argument(s) compilation warning */
1186:Drivers/STM32G4xx_HAL_Driver/Src/stm32g4xx_hal_pcd.c ****   UNUSED(hpcd);
1187:Drivers/STM32G4xx_HAL_Driver/Src/stm32g4xx_hal_pcd.c ****   UNUSED(epnum);
1188:Drivers/STM32G4xx_HAL_Driver/Src/stm32g4xx_hal_pcd.c **** 
1189:Drivers/STM32G4xx_HAL_Driver/Src/stm32g4xx_hal_pcd.c ****   /* NOTE : This function should not be modified, when the callback is needed,
1190:Drivers/STM32G4xx_HAL_Driver/Src/stm32g4xx_hal_pcd.c ****             the HAL_PCD_ISOOUTIncompleteCallback could be implemented in the user file
1191:Drivers/STM32G4xx_HAL_Driver/Src/stm32g4xx_hal_pcd.c ****    */
1192:Drivers/STM32G4xx_HAL_Driver/Src/stm32g4xx_hal_pcd.c **** }
1193:Drivers/STM32G4xx_HAL_Driver/Src/stm32g4xx_hal_pcd.c **** 
1194:Drivers/STM32G4xx_HAL_Driver/Src/stm32g4xx_hal_pcd.c **** /**
1195:Drivers/STM32G4xx_HAL_Driver/Src/stm32g4xx_hal_pcd.c ****   * @brief  Incomplete ISO IN callback.
1196:Drivers/STM32G4xx_HAL_Driver/Src/stm32g4xx_hal_pcd.c ****   * @param  hpcd PCD handle
1197:Drivers/STM32G4xx_HAL_Driver/Src/stm32g4xx_hal_pcd.c ****   * @param  epnum endpoint number
1198:Drivers/STM32G4xx_HAL_Driver/Src/stm32g4xx_hal_pcd.c ****   * @retval None
1199:Drivers/STM32G4xx_HAL_Driver/Src/stm32g4xx_hal_pcd.c ****   */
1200:Drivers/STM32G4xx_HAL_Driver/Src/stm32g4xx_hal_pcd.c **** __weak void HAL_PCD_ISOINIncompleteCallback(PCD_HandleTypeDef *hpcd, uint8_t epnum)
1201:Drivers/STM32G4xx_HAL_Driver/Src/stm32g4xx_hal_pcd.c **** {
1202:Drivers/STM32G4xx_HAL_Driver/Src/stm32g4xx_hal_pcd.c ****   /* Prevent unused argument(s) compilation warning */
1203:Drivers/STM32G4xx_HAL_Driver/Src/stm32g4xx_hal_pcd.c ****   UNUSED(hpcd);
1204:Drivers/STM32G4xx_HAL_Driver/Src/stm32g4xx_hal_pcd.c ****   UNUSED(epnum);
1205:Drivers/STM32G4xx_HAL_Driver/Src/stm32g4xx_hal_pcd.c **** 
1206:Drivers/STM32G4xx_HAL_Driver/Src/stm32g4xx_hal_pcd.c ****   /* NOTE : This function should not be modified, when the callback is needed,
1207:Drivers/STM32G4xx_HAL_Driver/Src/stm32g4xx_hal_pcd.c ****             the HAL_PCD_ISOINIncompleteCallback could be implemented in the user file
1208:Drivers/STM32G4xx_HAL_Driver/Src/stm32g4xx_hal_pcd.c ****    */
1209:Drivers/STM32G4xx_HAL_Driver/Src/stm32g4xx_hal_pcd.c **** }
1210:Drivers/STM32G4xx_HAL_Driver/Src/stm32g4xx_hal_pcd.c **** 
1211:Drivers/STM32G4xx_HAL_Driver/Src/stm32g4xx_hal_pcd.c **** /**
1212:Drivers/STM32G4xx_HAL_Driver/Src/stm32g4xx_hal_pcd.c ****   * @brief  Connection event callback.
1213:Drivers/STM32G4xx_HAL_Driver/Src/stm32g4xx_hal_pcd.c ****   * @param  hpcd PCD handle
1214:Drivers/STM32G4xx_HAL_Driver/Src/stm32g4xx_hal_pcd.c ****   * @retval None
1215:Drivers/STM32G4xx_HAL_Driver/Src/stm32g4xx_hal_pcd.c ****   */
1216:Drivers/STM32G4xx_HAL_Driver/Src/stm32g4xx_hal_pcd.c **** __weak void HAL_PCD_ConnectCallback(PCD_HandleTypeDef *hpcd)
1217:Drivers/STM32G4xx_HAL_Driver/Src/stm32g4xx_hal_pcd.c **** {
1218:Drivers/STM32G4xx_HAL_Driver/Src/stm32g4xx_hal_pcd.c ****   /* Prevent unused argument(s) compilation warning */
1219:Drivers/STM32G4xx_HAL_Driver/Src/stm32g4xx_hal_pcd.c ****   UNUSED(hpcd);
1220:Drivers/STM32G4xx_HAL_Driver/Src/stm32g4xx_hal_pcd.c **** 
1221:Drivers/STM32G4xx_HAL_Driver/Src/stm32g4xx_hal_pcd.c ****   /* NOTE : This function should not be modified, when the callback is needed,
1222:Drivers/STM32G4xx_HAL_Driver/Src/stm32g4xx_hal_pcd.c ****             the HAL_PCD_ConnectCallback could be implemented in the user file
1223:Drivers/STM32G4xx_HAL_Driver/Src/stm32g4xx_hal_pcd.c ****    */
1224:Drivers/STM32G4xx_HAL_Driver/Src/stm32g4xx_hal_pcd.c **** }
1225:Drivers/STM32G4xx_HAL_Driver/Src/stm32g4xx_hal_pcd.c **** 
1226:Drivers/STM32G4xx_HAL_Driver/Src/stm32g4xx_hal_pcd.c **** /**
1227:Drivers/STM32G4xx_HAL_Driver/Src/stm32g4xx_hal_pcd.c ****   * @brief  Disconnection event callback.
ARM GAS  /tmp/ccXaRXaA.s 			page 23


1228:Drivers/STM32G4xx_HAL_Driver/Src/stm32g4xx_hal_pcd.c ****   * @param  hpcd PCD handle
1229:Drivers/STM32G4xx_HAL_Driver/Src/stm32g4xx_hal_pcd.c ****   * @retval None
1230:Drivers/STM32G4xx_HAL_Driver/Src/stm32g4xx_hal_pcd.c ****   */
1231:Drivers/STM32G4xx_HAL_Driver/Src/stm32g4xx_hal_pcd.c **** __weak void HAL_PCD_DisconnectCallback(PCD_HandleTypeDef *hpcd)
1232:Drivers/STM32G4xx_HAL_Driver/Src/stm32g4xx_hal_pcd.c **** {
1233:Drivers/STM32G4xx_HAL_Driver/Src/stm32g4xx_hal_pcd.c ****   /* Prevent unused argument(s) compilation warning */
1234:Drivers/STM32G4xx_HAL_Driver/Src/stm32g4xx_hal_pcd.c ****   UNUSED(hpcd);
1235:Drivers/STM32G4xx_HAL_Driver/Src/stm32g4xx_hal_pcd.c **** 
1236:Drivers/STM32G4xx_HAL_Driver/Src/stm32g4xx_hal_pcd.c ****   /* NOTE : This function should not be modified, when the callback is needed,
1237:Drivers/STM32G4xx_HAL_Driver/Src/stm32g4xx_hal_pcd.c ****             the HAL_PCD_DisconnectCallback could be implemented in the user file
1238:Drivers/STM32G4xx_HAL_Driver/Src/stm32g4xx_hal_pcd.c ****    */
1239:Drivers/STM32G4xx_HAL_Driver/Src/stm32g4xx_hal_pcd.c **** }
1240:Drivers/STM32G4xx_HAL_Driver/Src/stm32g4xx_hal_pcd.c **** 
1241:Drivers/STM32G4xx_HAL_Driver/Src/stm32g4xx_hal_pcd.c **** /**
1242:Drivers/STM32G4xx_HAL_Driver/Src/stm32g4xx_hal_pcd.c ****   * @}
1243:Drivers/STM32G4xx_HAL_Driver/Src/stm32g4xx_hal_pcd.c ****   */
1244:Drivers/STM32G4xx_HAL_Driver/Src/stm32g4xx_hal_pcd.c **** 
1245:Drivers/STM32G4xx_HAL_Driver/Src/stm32g4xx_hal_pcd.c **** /** @defgroup PCD_Exported_Functions_Group3 Peripheral Control functions
1246:Drivers/STM32G4xx_HAL_Driver/Src/stm32g4xx_hal_pcd.c ****   *  @brief   management functions
1247:Drivers/STM32G4xx_HAL_Driver/Src/stm32g4xx_hal_pcd.c ****   *
1248:Drivers/STM32G4xx_HAL_Driver/Src/stm32g4xx_hal_pcd.c **** @verbatim
1249:Drivers/STM32G4xx_HAL_Driver/Src/stm32g4xx_hal_pcd.c ****  ===============================================================================
1250:Drivers/STM32G4xx_HAL_Driver/Src/stm32g4xx_hal_pcd.c ****                       ##### Peripheral Control functions #####
1251:Drivers/STM32G4xx_HAL_Driver/Src/stm32g4xx_hal_pcd.c ****  ===============================================================================
1252:Drivers/STM32G4xx_HAL_Driver/Src/stm32g4xx_hal_pcd.c ****     [..]
1253:Drivers/STM32G4xx_HAL_Driver/Src/stm32g4xx_hal_pcd.c ****     This subsection provides a set of functions allowing to control the PCD data
1254:Drivers/STM32G4xx_HAL_Driver/Src/stm32g4xx_hal_pcd.c ****     transfers.
1255:Drivers/STM32G4xx_HAL_Driver/Src/stm32g4xx_hal_pcd.c **** 
1256:Drivers/STM32G4xx_HAL_Driver/Src/stm32g4xx_hal_pcd.c **** @endverbatim
1257:Drivers/STM32G4xx_HAL_Driver/Src/stm32g4xx_hal_pcd.c ****   * @{
1258:Drivers/STM32G4xx_HAL_Driver/Src/stm32g4xx_hal_pcd.c ****   */
1259:Drivers/STM32G4xx_HAL_Driver/Src/stm32g4xx_hal_pcd.c **** 
1260:Drivers/STM32G4xx_HAL_Driver/Src/stm32g4xx_hal_pcd.c **** /**
1261:Drivers/STM32G4xx_HAL_Driver/Src/stm32g4xx_hal_pcd.c ****   * @brief  Connect the USB device
1262:Drivers/STM32G4xx_HAL_Driver/Src/stm32g4xx_hal_pcd.c ****   * @param  hpcd PCD handle
1263:Drivers/STM32G4xx_HAL_Driver/Src/stm32g4xx_hal_pcd.c ****   * @retval HAL status
1264:Drivers/STM32G4xx_HAL_Driver/Src/stm32g4xx_hal_pcd.c ****   */
1265:Drivers/STM32G4xx_HAL_Driver/Src/stm32g4xx_hal_pcd.c **** HAL_StatusTypeDef HAL_PCD_DevConnect(PCD_HandleTypeDef *hpcd)
1266:Drivers/STM32G4xx_HAL_Driver/Src/stm32g4xx_hal_pcd.c **** {
1267:Drivers/STM32G4xx_HAL_Driver/Src/stm32g4xx_hal_pcd.c ****   __HAL_LOCK(hpcd);
1268:Drivers/STM32G4xx_HAL_Driver/Src/stm32g4xx_hal_pcd.c ****   (void)USB_DevConnect(hpcd->Instance);
1269:Drivers/STM32G4xx_HAL_Driver/Src/stm32g4xx_hal_pcd.c ****   __HAL_UNLOCK(hpcd);
1270:Drivers/STM32G4xx_HAL_Driver/Src/stm32g4xx_hal_pcd.c **** 
1271:Drivers/STM32G4xx_HAL_Driver/Src/stm32g4xx_hal_pcd.c ****   return HAL_OK;
1272:Drivers/STM32G4xx_HAL_Driver/Src/stm32g4xx_hal_pcd.c **** }
1273:Drivers/STM32G4xx_HAL_Driver/Src/stm32g4xx_hal_pcd.c **** 
1274:Drivers/STM32G4xx_HAL_Driver/Src/stm32g4xx_hal_pcd.c **** /**
1275:Drivers/STM32G4xx_HAL_Driver/Src/stm32g4xx_hal_pcd.c ****   * @brief  Disconnect the USB device.
1276:Drivers/STM32G4xx_HAL_Driver/Src/stm32g4xx_hal_pcd.c ****   * @param  hpcd PCD handle
1277:Drivers/STM32G4xx_HAL_Driver/Src/stm32g4xx_hal_pcd.c ****   * @retval HAL status
1278:Drivers/STM32G4xx_HAL_Driver/Src/stm32g4xx_hal_pcd.c ****   */
1279:Drivers/STM32G4xx_HAL_Driver/Src/stm32g4xx_hal_pcd.c **** HAL_StatusTypeDef HAL_PCD_DevDisconnect(PCD_HandleTypeDef *hpcd)
1280:Drivers/STM32G4xx_HAL_Driver/Src/stm32g4xx_hal_pcd.c **** {
1281:Drivers/STM32G4xx_HAL_Driver/Src/stm32g4xx_hal_pcd.c ****   __HAL_LOCK(hpcd);
1282:Drivers/STM32G4xx_HAL_Driver/Src/stm32g4xx_hal_pcd.c ****   (void)USB_DevDisconnect(hpcd->Instance);
1283:Drivers/STM32G4xx_HAL_Driver/Src/stm32g4xx_hal_pcd.c ****   __HAL_UNLOCK(hpcd);
1284:Drivers/STM32G4xx_HAL_Driver/Src/stm32g4xx_hal_pcd.c **** 
ARM GAS  /tmp/ccXaRXaA.s 			page 24


1285:Drivers/STM32G4xx_HAL_Driver/Src/stm32g4xx_hal_pcd.c ****   return HAL_OK;
1286:Drivers/STM32G4xx_HAL_Driver/Src/stm32g4xx_hal_pcd.c **** }
1287:Drivers/STM32G4xx_HAL_Driver/Src/stm32g4xx_hal_pcd.c **** 
1288:Drivers/STM32G4xx_HAL_Driver/Src/stm32g4xx_hal_pcd.c **** /**
1289:Drivers/STM32G4xx_HAL_Driver/Src/stm32g4xx_hal_pcd.c ****   * @brief  Set the USB Device address.
1290:Drivers/STM32G4xx_HAL_Driver/Src/stm32g4xx_hal_pcd.c ****   * @param  hpcd PCD handle
1291:Drivers/STM32G4xx_HAL_Driver/Src/stm32g4xx_hal_pcd.c ****   * @param  address new device address
1292:Drivers/STM32G4xx_HAL_Driver/Src/stm32g4xx_hal_pcd.c ****   * @retval HAL status
1293:Drivers/STM32G4xx_HAL_Driver/Src/stm32g4xx_hal_pcd.c ****   */
1294:Drivers/STM32G4xx_HAL_Driver/Src/stm32g4xx_hal_pcd.c **** HAL_StatusTypeDef HAL_PCD_SetAddress(PCD_HandleTypeDef *hpcd, uint8_t address)
1295:Drivers/STM32G4xx_HAL_Driver/Src/stm32g4xx_hal_pcd.c **** {
1296:Drivers/STM32G4xx_HAL_Driver/Src/stm32g4xx_hal_pcd.c ****   __HAL_LOCK(hpcd);
1297:Drivers/STM32G4xx_HAL_Driver/Src/stm32g4xx_hal_pcd.c ****   hpcd->USB_Address = address;
1298:Drivers/STM32G4xx_HAL_Driver/Src/stm32g4xx_hal_pcd.c ****   (void)USB_SetDevAddress(hpcd->Instance, address);
1299:Drivers/STM32G4xx_HAL_Driver/Src/stm32g4xx_hal_pcd.c ****   __HAL_UNLOCK(hpcd);
1300:Drivers/STM32G4xx_HAL_Driver/Src/stm32g4xx_hal_pcd.c **** 
1301:Drivers/STM32G4xx_HAL_Driver/Src/stm32g4xx_hal_pcd.c ****   return HAL_OK;
1302:Drivers/STM32G4xx_HAL_Driver/Src/stm32g4xx_hal_pcd.c **** }
1303:Drivers/STM32G4xx_HAL_Driver/Src/stm32g4xx_hal_pcd.c **** /**
1304:Drivers/STM32G4xx_HAL_Driver/Src/stm32g4xx_hal_pcd.c ****   * @brief  Open and configure an endpoint.
1305:Drivers/STM32G4xx_HAL_Driver/Src/stm32g4xx_hal_pcd.c ****   * @param  hpcd PCD handle
1306:Drivers/STM32G4xx_HAL_Driver/Src/stm32g4xx_hal_pcd.c ****   * @param  ep_addr endpoint address
1307:Drivers/STM32G4xx_HAL_Driver/Src/stm32g4xx_hal_pcd.c ****   * @param  ep_mps endpoint max packet size
1308:Drivers/STM32G4xx_HAL_Driver/Src/stm32g4xx_hal_pcd.c ****   * @param  ep_type endpoint type
1309:Drivers/STM32G4xx_HAL_Driver/Src/stm32g4xx_hal_pcd.c ****   * @retval HAL status
1310:Drivers/STM32G4xx_HAL_Driver/Src/stm32g4xx_hal_pcd.c ****   */
1311:Drivers/STM32G4xx_HAL_Driver/Src/stm32g4xx_hal_pcd.c **** HAL_StatusTypeDef HAL_PCD_EP_Open(PCD_HandleTypeDef *hpcd, uint8_t ep_addr,
1312:Drivers/STM32G4xx_HAL_Driver/Src/stm32g4xx_hal_pcd.c ****                                   uint16_t ep_mps, uint8_t ep_type)
1313:Drivers/STM32G4xx_HAL_Driver/Src/stm32g4xx_hal_pcd.c **** {
1314:Drivers/STM32G4xx_HAL_Driver/Src/stm32g4xx_hal_pcd.c ****   HAL_StatusTypeDef ret = HAL_OK;
1315:Drivers/STM32G4xx_HAL_Driver/Src/stm32g4xx_hal_pcd.c ****   PCD_EPTypeDef *ep;
1316:Drivers/STM32G4xx_HAL_Driver/Src/stm32g4xx_hal_pcd.c **** 
1317:Drivers/STM32G4xx_HAL_Driver/Src/stm32g4xx_hal_pcd.c ****   if ((ep_addr & 0x80U) == 0x80U)
1318:Drivers/STM32G4xx_HAL_Driver/Src/stm32g4xx_hal_pcd.c ****   {
1319:Drivers/STM32G4xx_HAL_Driver/Src/stm32g4xx_hal_pcd.c ****     ep = &hpcd->IN_ep[ep_addr & EP_ADDR_MSK];
1320:Drivers/STM32G4xx_HAL_Driver/Src/stm32g4xx_hal_pcd.c ****     ep->is_in = 1U;
1321:Drivers/STM32G4xx_HAL_Driver/Src/stm32g4xx_hal_pcd.c ****   }
1322:Drivers/STM32G4xx_HAL_Driver/Src/stm32g4xx_hal_pcd.c ****   else
1323:Drivers/STM32G4xx_HAL_Driver/Src/stm32g4xx_hal_pcd.c ****   {
1324:Drivers/STM32G4xx_HAL_Driver/Src/stm32g4xx_hal_pcd.c ****     ep = &hpcd->OUT_ep[ep_addr & EP_ADDR_MSK];
1325:Drivers/STM32G4xx_HAL_Driver/Src/stm32g4xx_hal_pcd.c ****     ep->is_in = 0U;
1326:Drivers/STM32G4xx_HAL_Driver/Src/stm32g4xx_hal_pcd.c ****   }
1327:Drivers/STM32G4xx_HAL_Driver/Src/stm32g4xx_hal_pcd.c **** 
1328:Drivers/STM32G4xx_HAL_Driver/Src/stm32g4xx_hal_pcd.c ****   ep->num = ep_addr & EP_ADDR_MSK;
1329:Drivers/STM32G4xx_HAL_Driver/Src/stm32g4xx_hal_pcd.c ****   ep->maxpacket = (uint32_t)ep_mps & 0x7FFU;
1330:Drivers/STM32G4xx_HAL_Driver/Src/stm32g4xx_hal_pcd.c ****   ep->type = ep_type;
1331:Drivers/STM32G4xx_HAL_Driver/Src/stm32g4xx_hal_pcd.c **** 
1332:Drivers/STM32G4xx_HAL_Driver/Src/stm32g4xx_hal_pcd.c ****   /* Set initial data PID. */
1333:Drivers/STM32G4xx_HAL_Driver/Src/stm32g4xx_hal_pcd.c ****   if (ep_type == EP_TYPE_BULK)
1334:Drivers/STM32G4xx_HAL_Driver/Src/stm32g4xx_hal_pcd.c ****   {
1335:Drivers/STM32G4xx_HAL_Driver/Src/stm32g4xx_hal_pcd.c ****     ep->data_pid_start = 0U;
1336:Drivers/STM32G4xx_HAL_Driver/Src/stm32g4xx_hal_pcd.c ****   }
1337:Drivers/STM32G4xx_HAL_Driver/Src/stm32g4xx_hal_pcd.c **** 
1338:Drivers/STM32G4xx_HAL_Driver/Src/stm32g4xx_hal_pcd.c ****   __HAL_LOCK(hpcd);
1339:Drivers/STM32G4xx_HAL_Driver/Src/stm32g4xx_hal_pcd.c ****   (void)USB_ActivateEndpoint(hpcd->Instance, ep);
1340:Drivers/STM32G4xx_HAL_Driver/Src/stm32g4xx_hal_pcd.c ****   __HAL_UNLOCK(hpcd);
1341:Drivers/STM32G4xx_HAL_Driver/Src/stm32g4xx_hal_pcd.c **** 
ARM GAS  /tmp/ccXaRXaA.s 			page 25


1342:Drivers/STM32G4xx_HAL_Driver/Src/stm32g4xx_hal_pcd.c ****   return ret;
1343:Drivers/STM32G4xx_HAL_Driver/Src/stm32g4xx_hal_pcd.c **** }
1344:Drivers/STM32G4xx_HAL_Driver/Src/stm32g4xx_hal_pcd.c **** 
1345:Drivers/STM32G4xx_HAL_Driver/Src/stm32g4xx_hal_pcd.c **** /**
1346:Drivers/STM32G4xx_HAL_Driver/Src/stm32g4xx_hal_pcd.c ****   * @brief  Deactivate an endpoint.
1347:Drivers/STM32G4xx_HAL_Driver/Src/stm32g4xx_hal_pcd.c ****   * @param  hpcd PCD handle
1348:Drivers/STM32G4xx_HAL_Driver/Src/stm32g4xx_hal_pcd.c ****   * @param  ep_addr endpoint address
1349:Drivers/STM32G4xx_HAL_Driver/Src/stm32g4xx_hal_pcd.c ****   * @retval HAL status
1350:Drivers/STM32G4xx_HAL_Driver/Src/stm32g4xx_hal_pcd.c ****   */
1351:Drivers/STM32G4xx_HAL_Driver/Src/stm32g4xx_hal_pcd.c **** HAL_StatusTypeDef HAL_PCD_EP_Close(PCD_HandleTypeDef *hpcd, uint8_t ep_addr)
1352:Drivers/STM32G4xx_HAL_Driver/Src/stm32g4xx_hal_pcd.c **** {
1353:Drivers/STM32G4xx_HAL_Driver/Src/stm32g4xx_hal_pcd.c ****   PCD_EPTypeDef *ep;
1354:Drivers/STM32G4xx_HAL_Driver/Src/stm32g4xx_hal_pcd.c **** 
1355:Drivers/STM32G4xx_HAL_Driver/Src/stm32g4xx_hal_pcd.c ****   if ((ep_addr & 0x80U) == 0x80U)
1356:Drivers/STM32G4xx_HAL_Driver/Src/stm32g4xx_hal_pcd.c ****   {
1357:Drivers/STM32G4xx_HAL_Driver/Src/stm32g4xx_hal_pcd.c ****     ep = &hpcd->IN_ep[ep_addr & EP_ADDR_MSK];
1358:Drivers/STM32G4xx_HAL_Driver/Src/stm32g4xx_hal_pcd.c ****     ep->is_in = 1U;
1359:Drivers/STM32G4xx_HAL_Driver/Src/stm32g4xx_hal_pcd.c ****   }
1360:Drivers/STM32G4xx_HAL_Driver/Src/stm32g4xx_hal_pcd.c ****   else
1361:Drivers/STM32G4xx_HAL_Driver/Src/stm32g4xx_hal_pcd.c ****   {
1362:Drivers/STM32G4xx_HAL_Driver/Src/stm32g4xx_hal_pcd.c ****     ep = &hpcd->OUT_ep[ep_addr & EP_ADDR_MSK];
1363:Drivers/STM32G4xx_HAL_Driver/Src/stm32g4xx_hal_pcd.c ****     ep->is_in = 0U;
1364:Drivers/STM32G4xx_HAL_Driver/Src/stm32g4xx_hal_pcd.c ****   }
1365:Drivers/STM32G4xx_HAL_Driver/Src/stm32g4xx_hal_pcd.c ****   ep->num = ep_addr & EP_ADDR_MSK;
1366:Drivers/STM32G4xx_HAL_Driver/Src/stm32g4xx_hal_pcd.c **** 
1367:Drivers/STM32G4xx_HAL_Driver/Src/stm32g4xx_hal_pcd.c ****   __HAL_LOCK(hpcd);
1368:Drivers/STM32G4xx_HAL_Driver/Src/stm32g4xx_hal_pcd.c ****   (void)USB_DeactivateEndpoint(hpcd->Instance, ep);
1369:Drivers/STM32G4xx_HAL_Driver/Src/stm32g4xx_hal_pcd.c ****   __HAL_UNLOCK(hpcd);
1370:Drivers/STM32G4xx_HAL_Driver/Src/stm32g4xx_hal_pcd.c ****   return HAL_OK;
1371:Drivers/STM32G4xx_HAL_Driver/Src/stm32g4xx_hal_pcd.c **** }
1372:Drivers/STM32G4xx_HAL_Driver/Src/stm32g4xx_hal_pcd.c **** 
1373:Drivers/STM32G4xx_HAL_Driver/Src/stm32g4xx_hal_pcd.c **** 
1374:Drivers/STM32G4xx_HAL_Driver/Src/stm32g4xx_hal_pcd.c **** /**
1375:Drivers/STM32G4xx_HAL_Driver/Src/stm32g4xx_hal_pcd.c ****   * @brief  Receive an amount of data.
1376:Drivers/STM32G4xx_HAL_Driver/Src/stm32g4xx_hal_pcd.c ****   * @param  hpcd PCD handle
1377:Drivers/STM32G4xx_HAL_Driver/Src/stm32g4xx_hal_pcd.c ****   * @param  ep_addr endpoint address
1378:Drivers/STM32G4xx_HAL_Driver/Src/stm32g4xx_hal_pcd.c ****   * @param  pBuf pointer to the reception buffer
1379:Drivers/STM32G4xx_HAL_Driver/Src/stm32g4xx_hal_pcd.c ****   * @param  len amount of data to be received
1380:Drivers/STM32G4xx_HAL_Driver/Src/stm32g4xx_hal_pcd.c ****   * @retval HAL status
1381:Drivers/STM32G4xx_HAL_Driver/Src/stm32g4xx_hal_pcd.c ****   */
1382:Drivers/STM32G4xx_HAL_Driver/Src/stm32g4xx_hal_pcd.c **** HAL_StatusTypeDef HAL_PCD_EP_Receive(PCD_HandleTypeDef *hpcd, uint8_t ep_addr, uint8_t *pBuf, uint3
1383:Drivers/STM32G4xx_HAL_Driver/Src/stm32g4xx_hal_pcd.c **** {
1384:Drivers/STM32G4xx_HAL_Driver/Src/stm32g4xx_hal_pcd.c ****   PCD_EPTypeDef *ep;
1385:Drivers/STM32G4xx_HAL_Driver/Src/stm32g4xx_hal_pcd.c **** 
1386:Drivers/STM32G4xx_HAL_Driver/Src/stm32g4xx_hal_pcd.c ****   ep = &hpcd->OUT_ep[ep_addr & EP_ADDR_MSK];
1387:Drivers/STM32G4xx_HAL_Driver/Src/stm32g4xx_hal_pcd.c **** 
1388:Drivers/STM32G4xx_HAL_Driver/Src/stm32g4xx_hal_pcd.c ****   /*setup and start the Xfer */
1389:Drivers/STM32G4xx_HAL_Driver/Src/stm32g4xx_hal_pcd.c ****   ep->xfer_buff = pBuf;
1390:Drivers/STM32G4xx_HAL_Driver/Src/stm32g4xx_hal_pcd.c ****   ep->xfer_len = len;
1391:Drivers/STM32G4xx_HAL_Driver/Src/stm32g4xx_hal_pcd.c ****   ep->xfer_count = 0U;
1392:Drivers/STM32G4xx_HAL_Driver/Src/stm32g4xx_hal_pcd.c ****   ep->is_in = 0U;
1393:Drivers/STM32G4xx_HAL_Driver/Src/stm32g4xx_hal_pcd.c ****   ep->num = ep_addr & EP_ADDR_MSK;
1394:Drivers/STM32G4xx_HAL_Driver/Src/stm32g4xx_hal_pcd.c **** 
1395:Drivers/STM32G4xx_HAL_Driver/Src/stm32g4xx_hal_pcd.c ****   (void)USB_EPStartXfer(hpcd->Instance, ep);
1396:Drivers/STM32G4xx_HAL_Driver/Src/stm32g4xx_hal_pcd.c **** 
1397:Drivers/STM32G4xx_HAL_Driver/Src/stm32g4xx_hal_pcd.c ****   return HAL_OK;
1398:Drivers/STM32G4xx_HAL_Driver/Src/stm32g4xx_hal_pcd.c **** }
ARM GAS  /tmp/ccXaRXaA.s 			page 26


1399:Drivers/STM32G4xx_HAL_Driver/Src/stm32g4xx_hal_pcd.c **** 
1400:Drivers/STM32G4xx_HAL_Driver/Src/stm32g4xx_hal_pcd.c **** /**
1401:Drivers/STM32G4xx_HAL_Driver/Src/stm32g4xx_hal_pcd.c ****   * @brief  Get Received Data Size
1402:Drivers/STM32G4xx_HAL_Driver/Src/stm32g4xx_hal_pcd.c ****   * @param  hpcd PCD handle
1403:Drivers/STM32G4xx_HAL_Driver/Src/stm32g4xx_hal_pcd.c ****   * @param  ep_addr endpoint address
1404:Drivers/STM32G4xx_HAL_Driver/Src/stm32g4xx_hal_pcd.c ****   * @retval Data Size
1405:Drivers/STM32G4xx_HAL_Driver/Src/stm32g4xx_hal_pcd.c ****   */
1406:Drivers/STM32G4xx_HAL_Driver/Src/stm32g4xx_hal_pcd.c **** uint32_t HAL_PCD_EP_GetRxCount(PCD_HandleTypeDef const *hpcd, uint8_t ep_addr)
1407:Drivers/STM32G4xx_HAL_Driver/Src/stm32g4xx_hal_pcd.c **** {
1408:Drivers/STM32G4xx_HAL_Driver/Src/stm32g4xx_hal_pcd.c ****   return hpcd->OUT_ep[ep_addr & EP_ADDR_MSK].xfer_count;
1409:Drivers/STM32G4xx_HAL_Driver/Src/stm32g4xx_hal_pcd.c **** }
1410:Drivers/STM32G4xx_HAL_Driver/Src/stm32g4xx_hal_pcd.c **** /**
1411:Drivers/STM32G4xx_HAL_Driver/Src/stm32g4xx_hal_pcd.c ****   * @brief  Send an amount of data
1412:Drivers/STM32G4xx_HAL_Driver/Src/stm32g4xx_hal_pcd.c ****   * @param  hpcd PCD handle
1413:Drivers/STM32G4xx_HAL_Driver/Src/stm32g4xx_hal_pcd.c ****   * @param  ep_addr endpoint address
1414:Drivers/STM32G4xx_HAL_Driver/Src/stm32g4xx_hal_pcd.c ****   * @param  pBuf pointer to the transmission buffer
1415:Drivers/STM32G4xx_HAL_Driver/Src/stm32g4xx_hal_pcd.c ****   * @param  len amount of data to be sent
1416:Drivers/STM32G4xx_HAL_Driver/Src/stm32g4xx_hal_pcd.c ****   * @retval HAL status
1417:Drivers/STM32G4xx_HAL_Driver/Src/stm32g4xx_hal_pcd.c ****   */
1418:Drivers/STM32G4xx_HAL_Driver/Src/stm32g4xx_hal_pcd.c **** HAL_StatusTypeDef HAL_PCD_EP_Transmit(PCD_HandleTypeDef *hpcd, uint8_t ep_addr, uint8_t *pBuf, uint
1419:Drivers/STM32G4xx_HAL_Driver/Src/stm32g4xx_hal_pcd.c **** {
1420:Drivers/STM32G4xx_HAL_Driver/Src/stm32g4xx_hal_pcd.c ****   PCD_EPTypeDef *ep;
1421:Drivers/STM32G4xx_HAL_Driver/Src/stm32g4xx_hal_pcd.c **** 
1422:Drivers/STM32G4xx_HAL_Driver/Src/stm32g4xx_hal_pcd.c ****   ep = &hpcd->IN_ep[ep_addr & EP_ADDR_MSK];
1423:Drivers/STM32G4xx_HAL_Driver/Src/stm32g4xx_hal_pcd.c **** 
1424:Drivers/STM32G4xx_HAL_Driver/Src/stm32g4xx_hal_pcd.c ****   /*setup and start the Xfer */
1425:Drivers/STM32G4xx_HAL_Driver/Src/stm32g4xx_hal_pcd.c ****   ep->xfer_buff = pBuf;
1426:Drivers/STM32G4xx_HAL_Driver/Src/stm32g4xx_hal_pcd.c ****   ep->xfer_len = len;
1427:Drivers/STM32G4xx_HAL_Driver/Src/stm32g4xx_hal_pcd.c ****   ep->xfer_fill_db = 1U;
1428:Drivers/STM32G4xx_HAL_Driver/Src/stm32g4xx_hal_pcd.c ****   ep->xfer_len_db = len;
1429:Drivers/STM32G4xx_HAL_Driver/Src/stm32g4xx_hal_pcd.c ****   ep->xfer_count = 0U;
1430:Drivers/STM32G4xx_HAL_Driver/Src/stm32g4xx_hal_pcd.c ****   ep->is_in = 1U;
1431:Drivers/STM32G4xx_HAL_Driver/Src/stm32g4xx_hal_pcd.c ****   ep->num = ep_addr & EP_ADDR_MSK;
1432:Drivers/STM32G4xx_HAL_Driver/Src/stm32g4xx_hal_pcd.c **** 
1433:Drivers/STM32G4xx_HAL_Driver/Src/stm32g4xx_hal_pcd.c ****   (void)USB_EPStartXfer(hpcd->Instance, ep);
1434:Drivers/STM32G4xx_HAL_Driver/Src/stm32g4xx_hal_pcd.c **** 
1435:Drivers/STM32G4xx_HAL_Driver/Src/stm32g4xx_hal_pcd.c ****   return HAL_OK;
1436:Drivers/STM32G4xx_HAL_Driver/Src/stm32g4xx_hal_pcd.c **** }
1437:Drivers/STM32G4xx_HAL_Driver/Src/stm32g4xx_hal_pcd.c **** 
1438:Drivers/STM32G4xx_HAL_Driver/Src/stm32g4xx_hal_pcd.c **** /**
1439:Drivers/STM32G4xx_HAL_Driver/Src/stm32g4xx_hal_pcd.c ****   * @brief  Set a STALL condition over an endpoint
1440:Drivers/STM32G4xx_HAL_Driver/Src/stm32g4xx_hal_pcd.c ****   * @param  hpcd PCD handle
1441:Drivers/STM32G4xx_HAL_Driver/Src/stm32g4xx_hal_pcd.c ****   * @param  ep_addr endpoint address
1442:Drivers/STM32G4xx_HAL_Driver/Src/stm32g4xx_hal_pcd.c ****   * @retval HAL status
1443:Drivers/STM32G4xx_HAL_Driver/Src/stm32g4xx_hal_pcd.c ****   */
1444:Drivers/STM32G4xx_HAL_Driver/Src/stm32g4xx_hal_pcd.c **** HAL_StatusTypeDef HAL_PCD_EP_SetStall(PCD_HandleTypeDef *hpcd, uint8_t ep_addr)
1445:Drivers/STM32G4xx_HAL_Driver/Src/stm32g4xx_hal_pcd.c **** {
1446:Drivers/STM32G4xx_HAL_Driver/Src/stm32g4xx_hal_pcd.c ****   PCD_EPTypeDef *ep;
1447:Drivers/STM32G4xx_HAL_Driver/Src/stm32g4xx_hal_pcd.c **** 
1448:Drivers/STM32G4xx_HAL_Driver/Src/stm32g4xx_hal_pcd.c ****   if (((uint32_t)ep_addr & EP_ADDR_MSK) > hpcd->Init.dev_endpoints)
1449:Drivers/STM32G4xx_HAL_Driver/Src/stm32g4xx_hal_pcd.c ****   {
1450:Drivers/STM32G4xx_HAL_Driver/Src/stm32g4xx_hal_pcd.c ****     return HAL_ERROR;
1451:Drivers/STM32G4xx_HAL_Driver/Src/stm32g4xx_hal_pcd.c ****   }
1452:Drivers/STM32G4xx_HAL_Driver/Src/stm32g4xx_hal_pcd.c **** 
1453:Drivers/STM32G4xx_HAL_Driver/Src/stm32g4xx_hal_pcd.c ****   if ((0x80U & ep_addr) == 0x80U)
1454:Drivers/STM32G4xx_HAL_Driver/Src/stm32g4xx_hal_pcd.c ****   {
1455:Drivers/STM32G4xx_HAL_Driver/Src/stm32g4xx_hal_pcd.c ****     ep = &hpcd->IN_ep[ep_addr & EP_ADDR_MSK];
ARM GAS  /tmp/ccXaRXaA.s 			page 27


1456:Drivers/STM32G4xx_HAL_Driver/Src/stm32g4xx_hal_pcd.c ****     ep->is_in = 1U;
1457:Drivers/STM32G4xx_HAL_Driver/Src/stm32g4xx_hal_pcd.c ****   }
1458:Drivers/STM32G4xx_HAL_Driver/Src/stm32g4xx_hal_pcd.c ****   else
1459:Drivers/STM32G4xx_HAL_Driver/Src/stm32g4xx_hal_pcd.c ****   {
1460:Drivers/STM32G4xx_HAL_Driver/Src/stm32g4xx_hal_pcd.c ****     ep = &hpcd->OUT_ep[ep_addr];
1461:Drivers/STM32G4xx_HAL_Driver/Src/stm32g4xx_hal_pcd.c ****     ep->is_in = 0U;
1462:Drivers/STM32G4xx_HAL_Driver/Src/stm32g4xx_hal_pcd.c ****   }
1463:Drivers/STM32G4xx_HAL_Driver/Src/stm32g4xx_hal_pcd.c **** 
1464:Drivers/STM32G4xx_HAL_Driver/Src/stm32g4xx_hal_pcd.c ****   ep->is_stall = 1U;
1465:Drivers/STM32G4xx_HAL_Driver/Src/stm32g4xx_hal_pcd.c ****   ep->num = ep_addr & EP_ADDR_MSK;
1466:Drivers/STM32G4xx_HAL_Driver/Src/stm32g4xx_hal_pcd.c **** 
1467:Drivers/STM32G4xx_HAL_Driver/Src/stm32g4xx_hal_pcd.c ****   __HAL_LOCK(hpcd);
1468:Drivers/STM32G4xx_HAL_Driver/Src/stm32g4xx_hal_pcd.c **** 
1469:Drivers/STM32G4xx_HAL_Driver/Src/stm32g4xx_hal_pcd.c ****   (void)USB_EPSetStall(hpcd->Instance, ep);
1470:Drivers/STM32G4xx_HAL_Driver/Src/stm32g4xx_hal_pcd.c **** 
1471:Drivers/STM32G4xx_HAL_Driver/Src/stm32g4xx_hal_pcd.c ****   __HAL_UNLOCK(hpcd);
1472:Drivers/STM32G4xx_HAL_Driver/Src/stm32g4xx_hal_pcd.c **** 
1473:Drivers/STM32G4xx_HAL_Driver/Src/stm32g4xx_hal_pcd.c ****   return HAL_OK;
1474:Drivers/STM32G4xx_HAL_Driver/Src/stm32g4xx_hal_pcd.c **** }
1475:Drivers/STM32G4xx_HAL_Driver/Src/stm32g4xx_hal_pcd.c **** 
1476:Drivers/STM32G4xx_HAL_Driver/Src/stm32g4xx_hal_pcd.c **** /**
1477:Drivers/STM32G4xx_HAL_Driver/Src/stm32g4xx_hal_pcd.c ****   * @brief  Clear a STALL condition over in an endpoint
1478:Drivers/STM32G4xx_HAL_Driver/Src/stm32g4xx_hal_pcd.c ****   * @param  hpcd PCD handle
1479:Drivers/STM32G4xx_HAL_Driver/Src/stm32g4xx_hal_pcd.c ****   * @param  ep_addr endpoint address
1480:Drivers/STM32G4xx_HAL_Driver/Src/stm32g4xx_hal_pcd.c ****   * @retval HAL status
1481:Drivers/STM32G4xx_HAL_Driver/Src/stm32g4xx_hal_pcd.c ****   */
1482:Drivers/STM32G4xx_HAL_Driver/Src/stm32g4xx_hal_pcd.c **** HAL_StatusTypeDef HAL_PCD_EP_ClrStall(PCD_HandleTypeDef *hpcd, uint8_t ep_addr)
1483:Drivers/STM32G4xx_HAL_Driver/Src/stm32g4xx_hal_pcd.c **** {
1484:Drivers/STM32G4xx_HAL_Driver/Src/stm32g4xx_hal_pcd.c ****   PCD_EPTypeDef *ep;
1485:Drivers/STM32G4xx_HAL_Driver/Src/stm32g4xx_hal_pcd.c **** 
1486:Drivers/STM32G4xx_HAL_Driver/Src/stm32g4xx_hal_pcd.c ****   if (((uint32_t)ep_addr & 0x0FU) > hpcd->Init.dev_endpoints)
1487:Drivers/STM32G4xx_HAL_Driver/Src/stm32g4xx_hal_pcd.c ****   {
1488:Drivers/STM32G4xx_HAL_Driver/Src/stm32g4xx_hal_pcd.c ****     return HAL_ERROR;
1489:Drivers/STM32G4xx_HAL_Driver/Src/stm32g4xx_hal_pcd.c ****   }
1490:Drivers/STM32G4xx_HAL_Driver/Src/stm32g4xx_hal_pcd.c **** 
1491:Drivers/STM32G4xx_HAL_Driver/Src/stm32g4xx_hal_pcd.c ****   if ((0x80U & ep_addr) == 0x80U)
1492:Drivers/STM32G4xx_HAL_Driver/Src/stm32g4xx_hal_pcd.c ****   {
1493:Drivers/STM32G4xx_HAL_Driver/Src/stm32g4xx_hal_pcd.c ****     ep = &hpcd->IN_ep[ep_addr & EP_ADDR_MSK];
1494:Drivers/STM32G4xx_HAL_Driver/Src/stm32g4xx_hal_pcd.c ****     ep->is_in = 1U;
1495:Drivers/STM32G4xx_HAL_Driver/Src/stm32g4xx_hal_pcd.c ****   }
1496:Drivers/STM32G4xx_HAL_Driver/Src/stm32g4xx_hal_pcd.c ****   else
1497:Drivers/STM32G4xx_HAL_Driver/Src/stm32g4xx_hal_pcd.c ****   {
1498:Drivers/STM32G4xx_HAL_Driver/Src/stm32g4xx_hal_pcd.c ****     ep = &hpcd->OUT_ep[ep_addr & EP_ADDR_MSK];
1499:Drivers/STM32G4xx_HAL_Driver/Src/stm32g4xx_hal_pcd.c ****     ep->is_in = 0U;
1500:Drivers/STM32G4xx_HAL_Driver/Src/stm32g4xx_hal_pcd.c ****   }
1501:Drivers/STM32G4xx_HAL_Driver/Src/stm32g4xx_hal_pcd.c **** 
1502:Drivers/STM32G4xx_HAL_Driver/Src/stm32g4xx_hal_pcd.c ****   ep->is_stall = 0U;
1503:Drivers/STM32G4xx_HAL_Driver/Src/stm32g4xx_hal_pcd.c ****   ep->num = ep_addr & EP_ADDR_MSK;
1504:Drivers/STM32G4xx_HAL_Driver/Src/stm32g4xx_hal_pcd.c **** 
1505:Drivers/STM32G4xx_HAL_Driver/Src/stm32g4xx_hal_pcd.c ****   __HAL_LOCK(hpcd);
1506:Drivers/STM32G4xx_HAL_Driver/Src/stm32g4xx_hal_pcd.c ****   (void)USB_EPClearStall(hpcd->Instance, ep);
1507:Drivers/STM32G4xx_HAL_Driver/Src/stm32g4xx_hal_pcd.c ****   __HAL_UNLOCK(hpcd);
1508:Drivers/STM32G4xx_HAL_Driver/Src/stm32g4xx_hal_pcd.c **** 
1509:Drivers/STM32G4xx_HAL_Driver/Src/stm32g4xx_hal_pcd.c ****   return HAL_OK;
1510:Drivers/STM32G4xx_HAL_Driver/Src/stm32g4xx_hal_pcd.c **** }
1511:Drivers/STM32G4xx_HAL_Driver/Src/stm32g4xx_hal_pcd.c **** 
1512:Drivers/STM32G4xx_HAL_Driver/Src/stm32g4xx_hal_pcd.c **** /**
ARM GAS  /tmp/ccXaRXaA.s 			page 28


1513:Drivers/STM32G4xx_HAL_Driver/Src/stm32g4xx_hal_pcd.c ****    * @brief  Abort an USB EP transaction.
1514:Drivers/STM32G4xx_HAL_Driver/Src/stm32g4xx_hal_pcd.c ****    * @param  hpcd PCD handle
1515:Drivers/STM32G4xx_HAL_Driver/Src/stm32g4xx_hal_pcd.c ****    * @param  ep_addr endpoint address
1516:Drivers/STM32G4xx_HAL_Driver/Src/stm32g4xx_hal_pcd.c ****    * @retval HAL status
1517:Drivers/STM32G4xx_HAL_Driver/Src/stm32g4xx_hal_pcd.c ****    */
1518:Drivers/STM32G4xx_HAL_Driver/Src/stm32g4xx_hal_pcd.c **** HAL_StatusTypeDef HAL_PCD_EP_Abort(PCD_HandleTypeDef *hpcd, uint8_t ep_addr)
1519:Drivers/STM32G4xx_HAL_Driver/Src/stm32g4xx_hal_pcd.c **** {
1520:Drivers/STM32G4xx_HAL_Driver/Src/stm32g4xx_hal_pcd.c ****   HAL_StatusTypeDef ret;
1521:Drivers/STM32G4xx_HAL_Driver/Src/stm32g4xx_hal_pcd.c ****   PCD_EPTypeDef *ep;
1522:Drivers/STM32G4xx_HAL_Driver/Src/stm32g4xx_hal_pcd.c **** 
1523:Drivers/STM32G4xx_HAL_Driver/Src/stm32g4xx_hal_pcd.c ****   if ((0x80U & ep_addr) == 0x80U)
1524:Drivers/STM32G4xx_HAL_Driver/Src/stm32g4xx_hal_pcd.c ****   {
1525:Drivers/STM32G4xx_HAL_Driver/Src/stm32g4xx_hal_pcd.c ****     ep = &hpcd->IN_ep[ep_addr & EP_ADDR_MSK];
1526:Drivers/STM32G4xx_HAL_Driver/Src/stm32g4xx_hal_pcd.c ****   }
1527:Drivers/STM32G4xx_HAL_Driver/Src/stm32g4xx_hal_pcd.c ****   else
1528:Drivers/STM32G4xx_HAL_Driver/Src/stm32g4xx_hal_pcd.c ****   {
1529:Drivers/STM32G4xx_HAL_Driver/Src/stm32g4xx_hal_pcd.c ****     ep = &hpcd->OUT_ep[ep_addr & EP_ADDR_MSK];
1530:Drivers/STM32G4xx_HAL_Driver/Src/stm32g4xx_hal_pcd.c ****   }
1531:Drivers/STM32G4xx_HAL_Driver/Src/stm32g4xx_hal_pcd.c **** 
1532:Drivers/STM32G4xx_HAL_Driver/Src/stm32g4xx_hal_pcd.c ****   /* Stop Xfer */
1533:Drivers/STM32G4xx_HAL_Driver/Src/stm32g4xx_hal_pcd.c ****   ret = USB_EPStopXfer(hpcd->Instance, ep);
1534:Drivers/STM32G4xx_HAL_Driver/Src/stm32g4xx_hal_pcd.c **** 
1535:Drivers/STM32G4xx_HAL_Driver/Src/stm32g4xx_hal_pcd.c ****   return ret;
1536:Drivers/STM32G4xx_HAL_Driver/Src/stm32g4xx_hal_pcd.c **** }
1537:Drivers/STM32G4xx_HAL_Driver/Src/stm32g4xx_hal_pcd.c **** 
1538:Drivers/STM32G4xx_HAL_Driver/Src/stm32g4xx_hal_pcd.c **** /**
1539:Drivers/STM32G4xx_HAL_Driver/Src/stm32g4xx_hal_pcd.c ****   * @brief  Flush an endpoint
1540:Drivers/STM32G4xx_HAL_Driver/Src/stm32g4xx_hal_pcd.c ****   * @param  hpcd PCD handle
1541:Drivers/STM32G4xx_HAL_Driver/Src/stm32g4xx_hal_pcd.c ****   * @param  ep_addr endpoint address
1542:Drivers/STM32G4xx_HAL_Driver/Src/stm32g4xx_hal_pcd.c ****   * @retval HAL status
1543:Drivers/STM32G4xx_HAL_Driver/Src/stm32g4xx_hal_pcd.c ****   */
1544:Drivers/STM32G4xx_HAL_Driver/Src/stm32g4xx_hal_pcd.c **** HAL_StatusTypeDef HAL_PCD_EP_Flush(PCD_HandleTypeDef *hpcd, uint8_t ep_addr)
1545:Drivers/STM32G4xx_HAL_Driver/Src/stm32g4xx_hal_pcd.c **** {
1546:Drivers/STM32G4xx_HAL_Driver/Src/stm32g4xx_hal_pcd.c ****   __HAL_LOCK(hpcd);
1547:Drivers/STM32G4xx_HAL_Driver/Src/stm32g4xx_hal_pcd.c **** 
1548:Drivers/STM32G4xx_HAL_Driver/Src/stm32g4xx_hal_pcd.c ****   if ((ep_addr & 0x80U) == 0x80U)
1549:Drivers/STM32G4xx_HAL_Driver/Src/stm32g4xx_hal_pcd.c ****   {
1550:Drivers/STM32G4xx_HAL_Driver/Src/stm32g4xx_hal_pcd.c ****     (void)USB_FlushTxFifo(hpcd->Instance, (uint32_t)ep_addr & EP_ADDR_MSK);
1551:Drivers/STM32G4xx_HAL_Driver/Src/stm32g4xx_hal_pcd.c ****   }
1552:Drivers/STM32G4xx_HAL_Driver/Src/stm32g4xx_hal_pcd.c ****   else
1553:Drivers/STM32G4xx_HAL_Driver/Src/stm32g4xx_hal_pcd.c ****   {
1554:Drivers/STM32G4xx_HAL_Driver/Src/stm32g4xx_hal_pcd.c ****     (void)USB_FlushRxFifo(hpcd->Instance);
1555:Drivers/STM32G4xx_HAL_Driver/Src/stm32g4xx_hal_pcd.c ****   }
1556:Drivers/STM32G4xx_HAL_Driver/Src/stm32g4xx_hal_pcd.c **** 
1557:Drivers/STM32G4xx_HAL_Driver/Src/stm32g4xx_hal_pcd.c ****   __HAL_UNLOCK(hpcd);
1558:Drivers/STM32G4xx_HAL_Driver/Src/stm32g4xx_hal_pcd.c **** 
1559:Drivers/STM32G4xx_HAL_Driver/Src/stm32g4xx_hal_pcd.c ****   return HAL_OK;
1560:Drivers/STM32G4xx_HAL_Driver/Src/stm32g4xx_hal_pcd.c **** }
1561:Drivers/STM32G4xx_HAL_Driver/Src/stm32g4xx_hal_pcd.c **** 
1562:Drivers/STM32G4xx_HAL_Driver/Src/stm32g4xx_hal_pcd.c **** /**
1563:Drivers/STM32G4xx_HAL_Driver/Src/stm32g4xx_hal_pcd.c ****   * @brief  Activate remote wakeup signalling
1564:Drivers/STM32G4xx_HAL_Driver/Src/stm32g4xx_hal_pcd.c ****   * @param  hpcd PCD handle
1565:Drivers/STM32G4xx_HAL_Driver/Src/stm32g4xx_hal_pcd.c ****   * @retval HAL status
1566:Drivers/STM32G4xx_HAL_Driver/Src/stm32g4xx_hal_pcd.c ****   */
1567:Drivers/STM32G4xx_HAL_Driver/Src/stm32g4xx_hal_pcd.c **** HAL_StatusTypeDef HAL_PCD_ActivateRemoteWakeup(PCD_HandleTypeDef *hpcd)
1568:Drivers/STM32G4xx_HAL_Driver/Src/stm32g4xx_hal_pcd.c **** {
1569:Drivers/STM32G4xx_HAL_Driver/Src/stm32g4xx_hal_pcd.c ****   return (USB_ActivateRemoteWakeup(hpcd->Instance));
ARM GAS  /tmp/ccXaRXaA.s 			page 29


1570:Drivers/STM32G4xx_HAL_Driver/Src/stm32g4xx_hal_pcd.c **** }
1571:Drivers/STM32G4xx_HAL_Driver/Src/stm32g4xx_hal_pcd.c **** 
1572:Drivers/STM32G4xx_HAL_Driver/Src/stm32g4xx_hal_pcd.c **** /**
1573:Drivers/STM32G4xx_HAL_Driver/Src/stm32g4xx_hal_pcd.c ****   * @brief  De-activate remote wakeup signalling.
1574:Drivers/STM32G4xx_HAL_Driver/Src/stm32g4xx_hal_pcd.c ****   * @param  hpcd PCD handle
1575:Drivers/STM32G4xx_HAL_Driver/Src/stm32g4xx_hal_pcd.c ****   * @retval HAL status
1576:Drivers/STM32G4xx_HAL_Driver/Src/stm32g4xx_hal_pcd.c ****   */
1577:Drivers/STM32G4xx_HAL_Driver/Src/stm32g4xx_hal_pcd.c **** HAL_StatusTypeDef HAL_PCD_DeActivateRemoteWakeup(PCD_HandleTypeDef *hpcd)
1578:Drivers/STM32G4xx_HAL_Driver/Src/stm32g4xx_hal_pcd.c **** {
1579:Drivers/STM32G4xx_HAL_Driver/Src/stm32g4xx_hal_pcd.c ****   return (USB_DeActivateRemoteWakeup(hpcd->Instance));
1580:Drivers/STM32G4xx_HAL_Driver/Src/stm32g4xx_hal_pcd.c **** }
1581:Drivers/STM32G4xx_HAL_Driver/Src/stm32g4xx_hal_pcd.c **** 
1582:Drivers/STM32G4xx_HAL_Driver/Src/stm32g4xx_hal_pcd.c **** /**
1583:Drivers/STM32G4xx_HAL_Driver/Src/stm32g4xx_hal_pcd.c ****   * @}
1584:Drivers/STM32G4xx_HAL_Driver/Src/stm32g4xx_hal_pcd.c ****   */
1585:Drivers/STM32G4xx_HAL_Driver/Src/stm32g4xx_hal_pcd.c **** 
1586:Drivers/STM32G4xx_HAL_Driver/Src/stm32g4xx_hal_pcd.c **** /** @defgroup PCD_Exported_Functions_Group4 Peripheral State functions
1587:Drivers/STM32G4xx_HAL_Driver/Src/stm32g4xx_hal_pcd.c ****   *  @brief   Peripheral State functions
1588:Drivers/STM32G4xx_HAL_Driver/Src/stm32g4xx_hal_pcd.c ****   *
1589:Drivers/STM32G4xx_HAL_Driver/Src/stm32g4xx_hal_pcd.c **** @verbatim
1590:Drivers/STM32G4xx_HAL_Driver/Src/stm32g4xx_hal_pcd.c ****  ===============================================================================
1591:Drivers/STM32G4xx_HAL_Driver/Src/stm32g4xx_hal_pcd.c ****                       ##### Peripheral State functions #####
1592:Drivers/STM32G4xx_HAL_Driver/Src/stm32g4xx_hal_pcd.c ****  ===============================================================================
1593:Drivers/STM32G4xx_HAL_Driver/Src/stm32g4xx_hal_pcd.c ****     [..]
1594:Drivers/STM32G4xx_HAL_Driver/Src/stm32g4xx_hal_pcd.c ****     This subsection permits to get in run-time the status of the peripheral
1595:Drivers/STM32G4xx_HAL_Driver/Src/stm32g4xx_hal_pcd.c ****     and the data flow.
1596:Drivers/STM32G4xx_HAL_Driver/Src/stm32g4xx_hal_pcd.c **** 
1597:Drivers/STM32G4xx_HAL_Driver/Src/stm32g4xx_hal_pcd.c **** @endverbatim
1598:Drivers/STM32G4xx_HAL_Driver/Src/stm32g4xx_hal_pcd.c ****   * @{
1599:Drivers/STM32G4xx_HAL_Driver/Src/stm32g4xx_hal_pcd.c ****   */
1600:Drivers/STM32G4xx_HAL_Driver/Src/stm32g4xx_hal_pcd.c **** 
1601:Drivers/STM32G4xx_HAL_Driver/Src/stm32g4xx_hal_pcd.c **** /**
1602:Drivers/STM32G4xx_HAL_Driver/Src/stm32g4xx_hal_pcd.c ****   * @brief  Return the PCD handle state.
1603:Drivers/STM32G4xx_HAL_Driver/Src/stm32g4xx_hal_pcd.c ****   * @param  hpcd PCD handle
1604:Drivers/STM32G4xx_HAL_Driver/Src/stm32g4xx_hal_pcd.c ****   * @retval HAL state
1605:Drivers/STM32G4xx_HAL_Driver/Src/stm32g4xx_hal_pcd.c ****   */
1606:Drivers/STM32G4xx_HAL_Driver/Src/stm32g4xx_hal_pcd.c **** PCD_StateTypeDef HAL_PCD_GetState(PCD_HandleTypeDef const *hpcd)
1607:Drivers/STM32G4xx_HAL_Driver/Src/stm32g4xx_hal_pcd.c **** {
1608:Drivers/STM32G4xx_HAL_Driver/Src/stm32g4xx_hal_pcd.c ****   return hpcd->State;
1609:Drivers/STM32G4xx_HAL_Driver/Src/stm32g4xx_hal_pcd.c **** }
1610:Drivers/STM32G4xx_HAL_Driver/Src/stm32g4xx_hal_pcd.c **** 
1611:Drivers/STM32G4xx_HAL_Driver/Src/stm32g4xx_hal_pcd.c **** /**
1612:Drivers/STM32G4xx_HAL_Driver/Src/stm32g4xx_hal_pcd.c ****   * @}
1613:Drivers/STM32G4xx_HAL_Driver/Src/stm32g4xx_hal_pcd.c ****   */
1614:Drivers/STM32G4xx_HAL_Driver/Src/stm32g4xx_hal_pcd.c **** 
1615:Drivers/STM32G4xx_HAL_Driver/Src/stm32g4xx_hal_pcd.c **** /**
1616:Drivers/STM32G4xx_HAL_Driver/Src/stm32g4xx_hal_pcd.c ****   * @}
1617:Drivers/STM32G4xx_HAL_Driver/Src/stm32g4xx_hal_pcd.c ****   */
1618:Drivers/STM32G4xx_HAL_Driver/Src/stm32g4xx_hal_pcd.c **** 
1619:Drivers/STM32G4xx_HAL_Driver/Src/stm32g4xx_hal_pcd.c **** /* Private functions ---------------------------------------------------------*/
1620:Drivers/STM32G4xx_HAL_Driver/Src/stm32g4xx_hal_pcd.c **** /** @addtogroup PCD_Private_Functions
1621:Drivers/STM32G4xx_HAL_Driver/Src/stm32g4xx_hal_pcd.c ****   * @{
1622:Drivers/STM32G4xx_HAL_Driver/Src/stm32g4xx_hal_pcd.c ****   */
1623:Drivers/STM32G4xx_HAL_Driver/Src/stm32g4xx_hal_pcd.c **** 
1624:Drivers/STM32G4xx_HAL_Driver/Src/stm32g4xx_hal_pcd.c **** 
1625:Drivers/STM32G4xx_HAL_Driver/Src/stm32g4xx_hal_pcd.c **** /**
1626:Drivers/STM32G4xx_HAL_Driver/Src/stm32g4xx_hal_pcd.c ****   * @brief  This function handles PCD Endpoint interrupt request.
ARM GAS  /tmp/ccXaRXaA.s 			page 30


1627:Drivers/STM32G4xx_HAL_Driver/Src/stm32g4xx_hal_pcd.c ****   * @param  hpcd PCD handle
1628:Drivers/STM32G4xx_HAL_Driver/Src/stm32g4xx_hal_pcd.c ****   * @retval HAL status
1629:Drivers/STM32G4xx_HAL_Driver/Src/stm32g4xx_hal_pcd.c ****   */
1630:Drivers/STM32G4xx_HAL_Driver/Src/stm32g4xx_hal_pcd.c **** static HAL_StatusTypeDef PCD_EP_ISR_Handler(PCD_HandleTypeDef *hpcd)
1631:Drivers/STM32G4xx_HAL_Driver/Src/stm32g4xx_hal_pcd.c **** {
1632:Drivers/STM32G4xx_HAL_Driver/Src/stm32g4xx_hal_pcd.c ****   PCD_EPTypeDef *ep;
1633:Drivers/STM32G4xx_HAL_Driver/Src/stm32g4xx_hal_pcd.c ****   uint16_t count;
1634:Drivers/STM32G4xx_HAL_Driver/Src/stm32g4xx_hal_pcd.c ****   uint16_t wIstr;
1635:Drivers/STM32G4xx_HAL_Driver/Src/stm32g4xx_hal_pcd.c ****   uint16_t wEPVal;
1636:Drivers/STM32G4xx_HAL_Driver/Src/stm32g4xx_hal_pcd.c ****   uint16_t TxPctSize;
1637:Drivers/STM32G4xx_HAL_Driver/Src/stm32g4xx_hal_pcd.c ****   uint8_t epindex;
1638:Drivers/STM32G4xx_HAL_Driver/Src/stm32g4xx_hal_pcd.c **** 
1639:Drivers/STM32G4xx_HAL_Driver/Src/stm32g4xx_hal_pcd.c **** #if (USE_USB_DOUBLE_BUFFER != 1U)
1640:Drivers/STM32G4xx_HAL_Driver/Src/stm32g4xx_hal_pcd.c ****   count = 0U;
1641:Drivers/STM32G4xx_HAL_Driver/Src/stm32g4xx_hal_pcd.c **** #endif /* USE_USB_DOUBLE_BUFFER */
1642:Drivers/STM32G4xx_HAL_Driver/Src/stm32g4xx_hal_pcd.c **** 
1643:Drivers/STM32G4xx_HAL_Driver/Src/stm32g4xx_hal_pcd.c ****   /* stay in loop while pending interrupts */
1644:Drivers/STM32G4xx_HAL_Driver/Src/stm32g4xx_hal_pcd.c ****   while ((hpcd->Instance->ISTR & USB_ISTR_CTR) != 0U)
1645:Drivers/STM32G4xx_HAL_Driver/Src/stm32g4xx_hal_pcd.c ****   {
1646:Drivers/STM32G4xx_HAL_Driver/Src/stm32g4xx_hal_pcd.c ****     wIstr = hpcd->Instance->ISTR;
1647:Drivers/STM32G4xx_HAL_Driver/Src/stm32g4xx_hal_pcd.c **** 
1648:Drivers/STM32G4xx_HAL_Driver/Src/stm32g4xx_hal_pcd.c ****     /* extract highest priority endpoint number */
1649:Drivers/STM32G4xx_HAL_Driver/Src/stm32g4xx_hal_pcd.c ****     epindex = (uint8_t)(wIstr & USB_ISTR_EP_ID);
1650:Drivers/STM32G4xx_HAL_Driver/Src/stm32g4xx_hal_pcd.c **** 
1651:Drivers/STM32G4xx_HAL_Driver/Src/stm32g4xx_hal_pcd.c ****     if (epindex >= 8U)
1652:Drivers/STM32G4xx_HAL_Driver/Src/stm32g4xx_hal_pcd.c ****     {
1653:Drivers/STM32G4xx_HAL_Driver/Src/stm32g4xx_hal_pcd.c ****       return HAL_ERROR;
1654:Drivers/STM32G4xx_HAL_Driver/Src/stm32g4xx_hal_pcd.c ****     }
1655:Drivers/STM32G4xx_HAL_Driver/Src/stm32g4xx_hal_pcd.c **** 
1656:Drivers/STM32G4xx_HAL_Driver/Src/stm32g4xx_hal_pcd.c ****     if (epindex == 0U)
1657:Drivers/STM32G4xx_HAL_Driver/Src/stm32g4xx_hal_pcd.c ****     {
1658:Drivers/STM32G4xx_HAL_Driver/Src/stm32g4xx_hal_pcd.c ****       /* Decode and service control endpoint interrupt */
1659:Drivers/STM32G4xx_HAL_Driver/Src/stm32g4xx_hal_pcd.c **** 
1660:Drivers/STM32G4xx_HAL_Driver/Src/stm32g4xx_hal_pcd.c ****       /* DIR bit = origin of the interrupt */
1661:Drivers/STM32G4xx_HAL_Driver/Src/stm32g4xx_hal_pcd.c ****       if ((wIstr & USB_ISTR_DIR) == 0U)
1662:Drivers/STM32G4xx_HAL_Driver/Src/stm32g4xx_hal_pcd.c ****       {
1663:Drivers/STM32G4xx_HAL_Driver/Src/stm32g4xx_hal_pcd.c ****         /* DIR = 0 */
1664:Drivers/STM32G4xx_HAL_Driver/Src/stm32g4xx_hal_pcd.c **** 
1665:Drivers/STM32G4xx_HAL_Driver/Src/stm32g4xx_hal_pcd.c ****         /* DIR = 0 => IN  int */
1666:Drivers/STM32G4xx_HAL_Driver/Src/stm32g4xx_hal_pcd.c ****         /* DIR = 0 implies that (EP_CTR_TX = 1) always */
1667:Drivers/STM32G4xx_HAL_Driver/Src/stm32g4xx_hal_pcd.c ****         PCD_CLEAR_TX_EP_CTR(hpcd->Instance, PCD_ENDP0);
1668:Drivers/STM32G4xx_HAL_Driver/Src/stm32g4xx_hal_pcd.c ****         ep = &hpcd->IN_ep[0];
1669:Drivers/STM32G4xx_HAL_Driver/Src/stm32g4xx_hal_pcd.c **** 
1670:Drivers/STM32G4xx_HAL_Driver/Src/stm32g4xx_hal_pcd.c ****         ep->xfer_count = PCD_GET_EP_TX_CNT(hpcd->Instance, ep->num);
1671:Drivers/STM32G4xx_HAL_Driver/Src/stm32g4xx_hal_pcd.c ****         ep->xfer_buff += ep->xfer_count;
1672:Drivers/STM32G4xx_HAL_Driver/Src/stm32g4xx_hal_pcd.c **** 
1673:Drivers/STM32G4xx_HAL_Driver/Src/stm32g4xx_hal_pcd.c ****         /* TX COMPLETE */
1674:Drivers/STM32G4xx_HAL_Driver/Src/stm32g4xx_hal_pcd.c **** #if (USE_HAL_PCD_REGISTER_CALLBACKS == 1U)
1675:Drivers/STM32G4xx_HAL_Driver/Src/stm32g4xx_hal_pcd.c ****         hpcd->DataInStageCallback(hpcd, 0U);
1676:Drivers/STM32G4xx_HAL_Driver/Src/stm32g4xx_hal_pcd.c **** #else
1677:Drivers/STM32G4xx_HAL_Driver/Src/stm32g4xx_hal_pcd.c ****         HAL_PCD_DataInStageCallback(hpcd, 0U);
1678:Drivers/STM32G4xx_HAL_Driver/Src/stm32g4xx_hal_pcd.c **** #endif /* USE_HAL_PCD_REGISTER_CALLBACKS */
1679:Drivers/STM32G4xx_HAL_Driver/Src/stm32g4xx_hal_pcd.c **** 
1680:Drivers/STM32G4xx_HAL_Driver/Src/stm32g4xx_hal_pcd.c ****         if ((hpcd->USB_Address > 0U) && (ep->xfer_len == 0U))
1681:Drivers/STM32G4xx_HAL_Driver/Src/stm32g4xx_hal_pcd.c ****         {
1682:Drivers/STM32G4xx_HAL_Driver/Src/stm32g4xx_hal_pcd.c ****           hpcd->Instance->DADDR = ((uint16_t)hpcd->USB_Address | USB_DADDR_EF);
1683:Drivers/STM32G4xx_HAL_Driver/Src/stm32g4xx_hal_pcd.c ****           hpcd->USB_Address = 0U;
ARM GAS  /tmp/ccXaRXaA.s 			page 31


1684:Drivers/STM32G4xx_HAL_Driver/Src/stm32g4xx_hal_pcd.c ****         }
1685:Drivers/STM32G4xx_HAL_Driver/Src/stm32g4xx_hal_pcd.c ****       }
1686:Drivers/STM32G4xx_HAL_Driver/Src/stm32g4xx_hal_pcd.c ****       else
1687:Drivers/STM32G4xx_HAL_Driver/Src/stm32g4xx_hal_pcd.c ****       {
1688:Drivers/STM32G4xx_HAL_Driver/Src/stm32g4xx_hal_pcd.c ****         /* DIR = 1 */
1689:Drivers/STM32G4xx_HAL_Driver/Src/stm32g4xx_hal_pcd.c **** 
1690:Drivers/STM32G4xx_HAL_Driver/Src/stm32g4xx_hal_pcd.c ****         /* DIR = 1 & CTR_RX => SETUP or OUT int */
1691:Drivers/STM32G4xx_HAL_Driver/Src/stm32g4xx_hal_pcd.c ****         /* DIR = 1 & (CTR_TX | CTR_RX) => 2 int pending */
1692:Drivers/STM32G4xx_HAL_Driver/Src/stm32g4xx_hal_pcd.c ****         ep = &hpcd->OUT_ep[0];
1693:Drivers/STM32G4xx_HAL_Driver/Src/stm32g4xx_hal_pcd.c ****         wEPVal = PCD_GET_ENDPOINT(hpcd->Instance, PCD_ENDP0);
1694:Drivers/STM32G4xx_HAL_Driver/Src/stm32g4xx_hal_pcd.c **** 
1695:Drivers/STM32G4xx_HAL_Driver/Src/stm32g4xx_hal_pcd.c ****         if ((wEPVal & USB_EP_SETUP) != 0U)
1696:Drivers/STM32G4xx_HAL_Driver/Src/stm32g4xx_hal_pcd.c ****         {
1697:Drivers/STM32G4xx_HAL_Driver/Src/stm32g4xx_hal_pcd.c ****           /* Get SETUP Packet */
1698:Drivers/STM32G4xx_HAL_Driver/Src/stm32g4xx_hal_pcd.c ****           ep->xfer_count = PCD_GET_EP_RX_CNT(hpcd->Instance, ep->num);
1699:Drivers/STM32G4xx_HAL_Driver/Src/stm32g4xx_hal_pcd.c **** 
1700:Drivers/STM32G4xx_HAL_Driver/Src/stm32g4xx_hal_pcd.c ****           if (ep->xfer_count != 8U)
1701:Drivers/STM32G4xx_HAL_Driver/Src/stm32g4xx_hal_pcd.c ****           {
1702:Drivers/STM32G4xx_HAL_Driver/Src/stm32g4xx_hal_pcd.c ****             /* Set Stall condition for EP0 IN/OUT */
1703:Drivers/STM32G4xx_HAL_Driver/Src/stm32g4xx_hal_pcd.c ****             PCD_SET_EP_RX_STATUS(hpcd->Instance, PCD_ENDP0, USB_EP_RX_STALL);
1704:Drivers/STM32G4xx_HAL_Driver/Src/stm32g4xx_hal_pcd.c ****             PCD_SET_EP_TX_STATUS(hpcd->Instance, PCD_ENDP0, USB_EP_TX_STALL);
1705:Drivers/STM32G4xx_HAL_Driver/Src/stm32g4xx_hal_pcd.c **** 
1706:Drivers/STM32G4xx_HAL_Driver/Src/stm32g4xx_hal_pcd.c ****             /* SETUP bit kept frozen while CTR_RX = 1 */
1707:Drivers/STM32G4xx_HAL_Driver/Src/stm32g4xx_hal_pcd.c ****             PCD_CLEAR_RX_EP_CTR(hpcd->Instance, PCD_ENDP0);
1708:Drivers/STM32G4xx_HAL_Driver/Src/stm32g4xx_hal_pcd.c **** 
1709:Drivers/STM32G4xx_HAL_Driver/Src/stm32g4xx_hal_pcd.c ****             return HAL_OK;
1710:Drivers/STM32G4xx_HAL_Driver/Src/stm32g4xx_hal_pcd.c ****           }
1711:Drivers/STM32G4xx_HAL_Driver/Src/stm32g4xx_hal_pcd.c **** 
1712:Drivers/STM32G4xx_HAL_Driver/Src/stm32g4xx_hal_pcd.c ****           USB_ReadPMA(hpcd->Instance, (uint8_t *)hpcd->Setup,
1713:Drivers/STM32G4xx_HAL_Driver/Src/stm32g4xx_hal_pcd.c ****                       ep->pmaadress, (uint16_t)ep->xfer_count);
1714:Drivers/STM32G4xx_HAL_Driver/Src/stm32g4xx_hal_pcd.c **** 
1715:Drivers/STM32G4xx_HAL_Driver/Src/stm32g4xx_hal_pcd.c ****           /* SETUP bit kept frozen while CTR_RX = 1 */
1716:Drivers/STM32G4xx_HAL_Driver/Src/stm32g4xx_hal_pcd.c ****           PCD_CLEAR_RX_EP_CTR(hpcd->Instance, PCD_ENDP0);
1717:Drivers/STM32G4xx_HAL_Driver/Src/stm32g4xx_hal_pcd.c **** 
1718:Drivers/STM32G4xx_HAL_Driver/Src/stm32g4xx_hal_pcd.c ****           /* Process SETUP Packet*/
1719:Drivers/STM32G4xx_HAL_Driver/Src/stm32g4xx_hal_pcd.c **** #if (USE_HAL_PCD_REGISTER_CALLBACKS == 1U)
1720:Drivers/STM32G4xx_HAL_Driver/Src/stm32g4xx_hal_pcd.c ****           hpcd->SetupStageCallback(hpcd);
1721:Drivers/STM32G4xx_HAL_Driver/Src/stm32g4xx_hal_pcd.c **** #else
1722:Drivers/STM32G4xx_HAL_Driver/Src/stm32g4xx_hal_pcd.c ****           HAL_PCD_SetupStageCallback(hpcd);
1723:Drivers/STM32G4xx_HAL_Driver/Src/stm32g4xx_hal_pcd.c **** #endif /* USE_HAL_PCD_REGISTER_CALLBACKS */
1724:Drivers/STM32G4xx_HAL_Driver/Src/stm32g4xx_hal_pcd.c ****         }
1725:Drivers/STM32G4xx_HAL_Driver/Src/stm32g4xx_hal_pcd.c ****         else if ((wEPVal & USB_EP_CTR_RX) != 0U)
1726:Drivers/STM32G4xx_HAL_Driver/Src/stm32g4xx_hal_pcd.c ****         {
1727:Drivers/STM32G4xx_HAL_Driver/Src/stm32g4xx_hal_pcd.c ****           PCD_CLEAR_RX_EP_CTR(hpcd->Instance, PCD_ENDP0);
1728:Drivers/STM32G4xx_HAL_Driver/Src/stm32g4xx_hal_pcd.c **** 
1729:Drivers/STM32G4xx_HAL_Driver/Src/stm32g4xx_hal_pcd.c ****           /* Get Control Data OUT Packet */
1730:Drivers/STM32G4xx_HAL_Driver/Src/stm32g4xx_hal_pcd.c ****           ep->xfer_count = PCD_GET_EP_RX_CNT(hpcd->Instance, ep->num);
1731:Drivers/STM32G4xx_HAL_Driver/Src/stm32g4xx_hal_pcd.c **** 
1732:Drivers/STM32G4xx_HAL_Driver/Src/stm32g4xx_hal_pcd.c ****           if (ep->xfer_count == 0U)
1733:Drivers/STM32G4xx_HAL_Driver/Src/stm32g4xx_hal_pcd.c ****           {
1734:Drivers/STM32G4xx_HAL_Driver/Src/stm32g4xx_hal_pcd.c ****             /* Status phase re-arm for next setup */
1735:Drivers/STM32G4xx_HAL_Driver/Src/stm32g4xx_hal_pcd.c ****             PCD_SET_EP_RX_STATUS(hpcd->Instance, PCD_ENDP0, USB_EP_RX_VALID);
1736:Drivers/STM32G4xx_HAL_Driver/Src/stm32g4xx_hal_pcd.c ****           }
1737:Drivers/STM32G4xx_HAL_Driver/Src/stm32g4xx_hal_pcd.c ****           else
1738:Drivers/STM32G4xx_HAL_Driver/Src/stm32g4xx_hal_pcd.c ****           {
1739:Drivers/STM32G4xx_HAL_Driver/Src/stm32g4xx_hal_pcd.c ****             if (ep->xfer_buff != 0U)
1740:Drivers/STM32G4xx_HAL_Driver/Src/stm32g4xx_hal_pcd.c ****             {
ARM GAS  /tmp/ccXaRXaA.s 			page 32


1741:Drivers/STM32G4xx_HAL_Driver/Src/stm32g4xx_hal_pcd.c ****               USB_ReadPMA(hpcd->Instance, ep->xfer_buff,
1742:Drivers/STM32G4xx_HAL_Driver/Src/stm32g4xx_hal_pcd.c ****                           ep->pmaadress, (uint16_t)ep->xfer_count);  /* max 64bytes */
1743:Drivers/STM32G4xx_HAL_Driver/Src/stm32g4xx_hal_pcd.c **** 
1744:Drivers/STM32G4xx_HAL_Driver/Src/stm32g4xx_hal_pcd.c ****               ep->xfer_buff += ep->xfer_count;
1745:Drivers/STM32G4xx_HAL_Driver/Src/stm32g4xx_hal_pcd.c **** 
1746:Drivers/STM32G4xx_HAL_Driver/Src/stm32g4xx_hal_pcd.c ****               /* Process Control Data OUT Packet */
1747:Drivers/STM32G4xx_HAL_Driver/Src/stm32g4xx_hal_pcd.c **** #if (USE_HAL_PCD_REGISTER_CALLBACKS == 1U)
1748:Drivers/STM32G4xx_HAL_Driver/Src/stm32g4xx_hal_pcd.c ****               hpcd->DataOutStageCallback(hpcd, 0U);
1749:Drivers/STM32G4xx_HAL_Driver/Src/stm32g4xx_hal_pcd.c **** #else
1750:Drivers/STM32G4xx_HAL_Driver/Src/stm32g4xx_hal_pcd.c ****               HAL_PCD_DataOutStageCallback(hpcd, 0U);
1751:Drivers/STM32G4xx_HAL_Driver/Src/stm32g4xx_hal_pcd.c **** #endif /* USE_HAL_PCD_REGISTER_CALLBACKS */
1752:Drivers/STM32G4xx_HAL_Driver/Src/stm32g4xx_hal_pcd.c ****             }
1753:Drivers/STM32G4xx_HAL_Driver/Src/stm32g4xx_hal_pcd.c ****           }
1754:Drivers/STM32G4xx_HAL_Driver/Src/stm32g4xx_hal_pcd.c ****         }
1755:Drivers/STM32G4xx_HAL_Driver/Src/stm32g4xx_hal_pcd.c ****       }
1756:Drivers/STM32G4xx_HAL_Driver/Src/stm32g4xx_hal_pcd.c ****     }
1757:Drivers/STM32G4xx_HAL_Driver/Src/stm32g4xx_hal_pcd.c ****     else
1758:Drivers/STM32G4xx_HAL_Driver/Src/stm32g4xx_hal_pcd.c ****     {
1759:Drivers/STM32G4xx_HAL_Driver/Src/stm32g4xx_hal_pcd.c ****       /* Decode and service non control endpoints interrupt */
1760:Drivers/STM32G4xx_HAL_Driver/Src/stm32g4xx_hal_pcd.c ****       /* process related endpoint register */
1761:Drivers/STM32G4xx_HAL_Driver/Src/stm32g4xx_hal_pcd.c ****       wEPVal = PCD_GET_ENDPOINT(hpcd->Instance, epindex);
1762:Drivers/STM32G4xx_HAL_Driver/Src/stm32g4xx_hal_pcd.c **** 
1763:Drivers/STM32G4xx_HAL_Driver/Src/stm32g4xx_hal_pcd.c ****       if ((wEPVal & USB_EP_CTR_RX) != 0U)
1764:Drivers/STM32G4xx_HAL_Driver/Src/stm32g4xx_hal_pcd.c ****       {
1765:Drivers/STM32G4xx_HAL_Driver/Src/stm32g4xx_hal_pcd.c ****         /* clear int flag */
1766:Drivers/STM32G4xx_HAL_Driver/Src/stm32g4xx_hal_pcd.c ****         PCD_CLEAR_RX_EP_CTR(hpcd->Instance, epindex);
1767:Drivers/STM32G4xx_HAL_Driver/Src/stm32g4xx_hal_pcd.c ****         ep = &hpcd->OUT_ep[epindex];
1768:Drivers/STM32G4xx_HAL_Driver/Src/stm32g4xx_hal_pcd.c **** 
1769:Drivers/STM32G4xx_HAL_Driver/Src/stm32g4xx_hal_pcd.c ****         /* OUT Single Buffering */
1770:Drivers/STM32G4xx_HAL_Driver/Src/stm32g4xx_hal_pcd.c ****         if (ep->doublebuffer == 0U)
1771:Drivers/STM32G4xx_HAL_Driver/Src/stm32g4xx_hal_pcd.c ****         {
1772:Drivers/STM32G4xx_HAL_Driver/Src/stm32g4xx_hal_pcd.c ****           count = (uint16_t)PCD_GET_EP_RX_CNT(hpcd->Instance, ep->num);
1773:Drivers/STM32G4xx_HAL_Driver/Src/stm32g4xx_hal_pcd.c **** 
1774:Drivers/STM32G4xx_HAL_Driver/Src/stm32g4xx_hal_pcd.c ****           if (count != 0U)
1775:Drivers/STM32G4xx_HAL_Driver/Src/stm32g4xx_hal_pcd.c ****           {
1776:Drivers/STM32G4xx_HAL_Driver/Src/stm32g4xx_hal_pcd.c ****             USB_ReadPMA(hpcd->Instance, ep->xfer_buff, ep->pmaadress, count);
1777:Drivers/STM32G4xx_HAL_Driver/Src/stm32g4xx_hal_pcd.c ****           }
1778:Drivers/STM32G4xx_HAL_Driver/Src/stm32g4xx_hal_pcd.c ****         }
1779:Drivers/STM32G4xx_HAL_Driver/Src/stm32g4xx_hal_pcd.c **** #if (USE_USB_DOUBLE_BUFFER == 1U)
1780:Drivers/STM32G4xx_HAL_Driver/Src/stm32g4xx_hal_pcd.c ****         else
1781:Drivers/STM32G4xx_HAL_Driver/Src/stm32g4xx_hal_pcd.c ****         {
1782:Drivers/STM32G4xx_HAL_Driver/Src/stm32g4xx_hal_pcd.c ****           /* manage double buffer bulk out */
1783:Drivers/STM32G4xx_HAL_Driver/Src/stm32g4xx_hal_pcd.c ****           if (ep->type == EP_TYPE_BULK)
1784:Drivers/STM32G4xx_HAL_Driver/Src/stm32g4xx_hal_pcd.c ****           {
1785:Drivers/STM32G4xx_HAL_Driver/Src/stm32g4xx_hal_pcd.c ****             count = HAL_PCD_EP_DB_Receive(hpcd, ep, wEPVal);
1786:Drivers/STM32G4xx_HAL_Driver/Src/stm32g4xx_hal_pcd.c ****           }
1787:Drivers/STM32G4xx_HAL_Driver/Src/stm32g4xx_hal_pcd.c ****           else /* manage double buffer iso out */
1788:Drivers/STM32G4xx_HAL_Driver/Src/stm32g4xx_hal_pcd.c ****           {
1789:Drivers/STM32G4xx_HAL_Driver/Src/stm32g4xx_hal_pcd.c ****             /* free EP OUT Buffer */
1790:Drivers/STM32G4xx_HAL_Driver/Src/stm32g4xx_hal_pcd.c ****             PCD_FREE_USER_BUFFER(hpcd->Instance, ep->num, 0U);
1791:Drivers/STM32G4xx_HAL_Driver/Src/stm32g4xx_hal_pcd.c **** 
1792:Drivers/STM32G4xx_HAL_Driver/Src/stm32g4xx_hal_pcd.c ****             if ((PCD_GET_ENDPOINT(hpcd->Instance, ep->num) & USB_EP_DTOG_RX) != 0U)
1793:Drivers/STM32G4xx_HAL_Driver/Src/stm32g4xx_hal_pcd.c ****             {
1794:Drivers/STM32G4xx_HAL_Driver/Src/stm32g4xx_hal_pcd.c ****               /* read from endpoint BUF0Addr buffer */
1795:Drivers/STM32G4xx_HAL_Driver/Src/stm32g4xx_hal_pcd.c ****               count = (uint16_t)PCD_GET_EP_DBUF0_CNT(hpcd->Instance, ep->num);
1796:Drivers/STM32G4xx_HAL_Driver/Src/stm32g4xx_hal_pcd.c **** 
1797:Drivers/STM32G4xx_HAL_Driver/Src/stm32g4xx_hal_pcd.c ****               if (count != 0U)
ARM GAS  /tmp/ccXaRXaA.s 			page 33


1798:Drivers/STM32G4xx_HAL_Driver/Src/stm32g4xx_hal_pcd.c ****               {
1799:Drivers/STM32G4xx_HAL_Driver/Src/stm32g4xx_hal_pcd.c ****                 USB_ReadPMA(hpcd->Instance, ep->xfer_buff, ep->pmaaddr0, count);
1800:Drivers/STM32G4xx_HAL_Driver/Src/stm32g4xx_hal_pcd.c ****               }
1801:Drivers/STM32G4xx_HAL_Driver/Src/stm32g4xx_hal_pcd.c ****             }
1802:Drivers/STM32G4xx_HAL_Driver/Src/stm32g4xx_hal_pcd.c ****             else
1803:Drivers/STM32G4xx_HAL_Driver/Src/stm32g4xx_hal_pcd.c ****             {
1804:Drivers/STM32G4xx_HAL_Driver/Src/stm32g4xx_hal_pcd.c ****               /* read from endpoint BUF1Addr buffer */
1805:Drivers/STM32G4xx_HAL_Driver/Src/stm32g4xx_hal_pcd.c ****               count = (uint16_t)PCD_GET_EP_DBUF1_CNT(hpcd->Instance, ep->num);
1806:Drivers/STM32G4xx_HAL_Driver/Src/stm32g4xx_hal_pcd.c **** 
1807:Drivers/STM32G4xx_HAL_Driver/Src/stm32g4xx_hal_pcd.c ****               if (count != 0U)
1808:Drivers/STM32G4xx_HAL_Driver/Src/stm32g4xx_hal_pcd.c ****               {
1809:Drivers/STM32G4xx_HAL_Driver/Src/stm32g4xx_hal_pcd.c ****                 USB_ReadPMA(hpcd->Instance, ep->xfer_buff, ep->pmaaddr1, count);
1810:Drivers/STM32G4xx_HAL_Driver/Src/stm32g4xx_hal_pcd.c ****               }
1811:Drivers/STM32G4xx_HAL_Driver/Src/stm32g4xx_hal_pcd.c ****             }
1812:Drivers/STM32G4xx_HAL_Driver/Src/stm32g4xx_hal_pcd.c ****           }
1813:Drivers/STM32G4xx_HAL_Driver/Src/stm32g4xx_hal_pcd.c ****         }
1814:Drivers/STM32G4xx_HAL_Driver/Src/stm32g4xx_hal_pcd.c **** #endif /* (USE_USB_DOUBLE_BUFFER == 1U) */
1815:Drivers/STM32G4xx_HAL_Driver/Src/stm32g4xx_hal_pcd.c **** 
1816:Drivers/STM32G4xx_HAL_Driver/Src/stm32g4xx_hal_pcd.c ****         /* multi-packet on the NON control OUT endpoint */
1817:Drivers/STM32G4xx_HAL_Driver/Src/stm32g4xx_hal_pcd.c ****         ep->xfer_count += count;
1818:Drivers/STM32G4xx_HAL_Driver/Src/stm32g4xx_hal_pcd.c **** 
1819:Drivers/STM32G4xx_HAL_Driver/Src/stm32g4xx_hal_pcd.c ****         if ((ep->xfer_len == 0U) || (count < ep->maxpacket))
1820:Drivers/STM32G4xx_HAL_Driver/Src/stm32g4xx_hal_pcd.c ****         {
1821:Drivers/STM32G4xx_HAL_Driver/Src/stm32g4xx_hal_pcd.c ****           /* RX COMPLETE */
1822:Drivers/STM32G4xx_HAL_Driver/Src/stm32g4xx_hal_pcd.c **** #if (USE_HAL_PCD_REGISTER_CALLBACKS == 1U)
1823:Drivers/STM32G4xx_HAL_Driver/Src/stm32g4xx_hal_pcd.c ****           hpcd->DataOutStageCallback(hpcd, ep->num);
1824:Drivers/STM32G4xx_HAL_Driver/Src/stm32g4xx_hal_pcd.c **** #else
1825:Drivers/STM32G4xx_HAL_Driver/Src/stm32g4xx_hal_pcd.c ****           HAL_PCD_DataOutStageCallback(hpcd, ep->num);
1826:Drivers/STM32G4xx_HAL_Driver/Src/stm32g4xx_hal_pcd.c **** #endif /* USE_HAL_PCD_REGISTER_CALLBACKS */
1827:Drivers/STM32G4xx_HAL_Driver/Src/stm32g4xx_hal_pcd.c ****         }
1828:Drivers/STM32G4xx_HAL_Driver/Src/stm32g4xx_hal_pcd.c ****         else
1829:Drivers/STM32G4xx_HAL_Driver/Src/stm32g4xx_hal_pcd.c ****         {
1830:Drivers/STM32G4xx_HAL_Driver/Src/stm32g4xx_hal_pcd.c ****           ep->xfer_buff += count;
1831:Drivers/STM32G4xx_HAL_Driver/Src/stm32g4xx_hal_pcd.c ****           (void)USB_EPStartXfer(hpcd->Instance, ep);
1832:Drivers/STM32G4xx_HAL_Driver/Src/stm32g4xx_hal_pcd.c ****         }
1833:Drivers/STM32G4xx_HAL_Driver/Src/stm32g4xx_hal_pcd.c ****       }
1834:Drivers/STM32G4xx_HAL_Driver/Src/stm32g4xx_hal_pcd.c **** 
1835:Drivers/STM32G4xx_HAL_Driver/Src/stm32g4xx_hal_pcd.c ****       if ((wEPVal & USB_EP_CTR_TX) != 0U)
1836:Drivers/STM32G4xx_HAL_Driver/Src/stm32g4xx_hal_pcd.c ****       {
1837:Drivers/STM32G4xx_HAL_Driver/Src/stm32g4xx_hal_pcd.c ****         ep = &hpcd->IN_ep[epindex];
1838:Drivers/STM32G4xx_HAL_Driver/Src/stm32g4xx_hal_pcd.c **** 
1839:Drivers/STM32G4xx_HAL_Driver/Src/stm32g4xx_hal_pcd.c ****         /* clear int flag */
1840:Drivers/STM32G4xx_HAL_Driver/Src/stm32g4xx_hal_pcd.c ****         PCD_CLEAR_TX_EP_CTR(hpcd->Instance, epindex);
1841:Drivers/STM32G4xx_HAL_Driver/Src/stm32g4xx_hal_pcd.c **** 
1842:Drivers/STM32G4xx_HAL_Driver/Src/stm32g4xx_hal_pcd.c ****         if (ep->type == EP_TYPE_ISOC)
1843:Drivers/STM32G4xx_HAL_Driver/Src/stm32g4xx_hal_pcd.c ****         {
1844:Drivers/STM32G4xx_HAL_Driver/Src/stm32g4xx_hal_pcd.c ****           ep->xfer_len = 0U;
1845:Drivers/STM32G4xx_HAL_Driver/Src/stm32g4xx_hal_pcd.c **** 
1846:Drivers/STM32G4xx_HAL_Driver/Src/stm32g4xx_hal_pcd.c **** #if (USE_USB_DOUBLE_BUFFER == 1U)
1847:Drivers/STM32G4xx_HAL_Driver/Src/stm32g4xx_hal_pcd.c ****           if (ep->doublebuffer != 0U)
1848:Drivers/STM32G4xx_HAL_Driver/Src/stm32g4xx_hal_pcd.c ****           {
1849:Drivers/STM32G4xx_HAL_Driver/Src/stm32g4xx_hal_pcd.c ****             if ((wEPVal & USB_EP_DTOG_TX) != 0U)
1850:Drivers/STM32G4xx_HAL_Driver/Src/stm32g4xx_hal_pcd.c ****             {
1851:Drivers/STM32G4xx_HAL_Driver/Src/stm32g4xx_hal_pcd.c ****               PCD_SET_EP_DBUF0_CNT(hpcd->Instance, ep->num, ep->is_in, 0U);
1852:Drivers/STM32G4xx_HAL_Driver/Src/stm32g4xx_hal_pcd.c ****             }
1853:Drivers/STM32G4xx_HAL_Driver/Src/stm32g4xx_hal_pcd.c ****             else
1854:Drivers/STM32G4xx_HAL_Driver/Src/stm32g4xx_hal_pcd.c ****             {
ARM GAS  /tmp/ccXaRXaA.s 			page 34


1855:Drivers/STM32G4xx_HAL_Driver/Src/stm32g4xx_hal_pcd.c ****               PCD_SET_EP_DBUF1_CNT(hpcd->Instance, ep->num, ep->is_in, 0U);
1856:Drivers/STM32G4xx_HAL_Driver/Src/stm32g4xx_hal_pcd.c ****             }
1857:Drivers/STM32G4xx_HAL_Driver/Src/stm32g4xx_hal_pcd.c ****           }
1858:Drivers/STM32G4xx_HAL_Driver/Src/stm32g4xx_hal_pcd.c **** #endif /* (USE_USB_DOUBLE_BUFFER == 1U) */
1859:Drivers/STM32G4xx_HAL_Driver/Src/stm32g4xx_hal_pcd.c **** 
1860:Drivers/STM32G4xx_HAL_Driver/Src/stm32g4xx_hal_pcd.c ****           /* TX COMPLETE */
1861:Drivers/STM32G4xx_HAL_Driver/Src/stm32g4xx_hal_pcd.c **** #if (USE_HAL_PCD_REGISTER_CALLBACKS == 1U)
1862:Drivers/STM32G4xx_HAL_Driver/Src/stm32g4xx_hal_pcd.c ****           hpcd->DataInStageCallback(hpcd, ep->num);
1863:Drivers/STM32G4xx_HAL_Driver/Src/stm32g4xx_hal_pcd.c **** #else
1864:Drivers/STM32G4xx_HAL_Driver/Src/stm32g4xx_hal_pcd.c ****           HAL_PCD_DataInStageCallback(hpcd, ep->num);
1865:Drivers/STM32G4xx_HAL_Driver/Src/stm32g4xx_hal_pcd.c **** #endif /* USE_HAL_PCD_REGISTER_CALLBACKS */
1866:Drivers/STM32G4xx_HAL_Driver/Src/stm32g4xx_hal_pcd.c ****         }
1867:Drivers/STM32G4xx_HAL_Driver/Src/stm32g4xx_hal_pcd.c ****         else
1868:Drivers/STM32G4xx_HAL_Driver/Src/stm32g4xx_hal_pcd.c ****         {
1869:Drivers/STM32G4xx_HAL_Driver/Src/stm32g4xx_hal_pcd.c ****           /* Manage Single Buffer Transaction */
1870:Drivers/STM32G4xx_HAL_Driver/Src/stm32g4xx_hal_pcd.c ****           if ((wEPVal & USB_EP_KIND) == 0U)
1871:Drivers/STM32G4xx_HAL_Driver/Src/stm32g4xx_hal_pcd.c ****           {
1872:Drivers/STM32G4xx_HAL_Driver/Src/stm32g4xx_hal_pcd.c ****             /* Multi-packet on the NON control IN endpoint */
1873:Drivers/STM32G4xx_HAL_Driver/Src/stm32g4xx_hal_pcd.c ****             TxPctSize = (uint16_t)PCD_GET_EP_TX_CNT(hpcd->Instance, ep->num);
1874:Drivers/STM32G4xx_HAL_Driver/Src/stm32g4xx_hal_pcd.c **** 
1875:Drivers/STM32G4xx_HAL_Driver/Src/stm32g4xx_hal_pcd.c ****             if (ep->xfer_len > TxPctSize)
1876:Drivers/STM32G4xx_HAL_Driver/Src/stm32g4xx_hal_pcd.c ****             {
1877:Drivers/STM32G4xx_HAL_Driver/Src/stm32g4xx_hal_pcd.c ****               ep->xfer_len -= TxPctSize;
1878:Drivers/STM32G4xx_HAL_Driver/Src/stm32g4xx_hal_pcd.c ****             }
1879:Drivers/STM32G4xx_HAL_Driver/Src/stm32g4xx_hal_pcd.c ****             else
1880:Drivers/STM32G4xx_HAL_Driver/Src/stm32g4xx_hal_pcd.c ****             {
1881:Drivers/STM32G4xx_HAL_Driver/Src/stm32g4xx_hal_pcd.c ****               ep->xfer_len = 0U;
1882:Drivers/STM32G4xx_HAL_Driver/Src/stm32g4xx_hal_pcd.c ****             }
1883:Drivers/STM32G4xx_HAL_Driver/Src/stm32g4xx_hal_pcd.c **** 
1884:Drivers/STM32G4xx_HAL_Driver/Src/stm32g4xx_hal_pcd.c ****             /* Zero Length Packet? */
1885:Drivers/STM32G4xx_HAL_Driver/Src/stm32g4xx_hal_pcd.c ****             if (ep->xfer_len == 0U)
1886:Drivers/STM32G4xx_HAL_Driver/Src/stm32g4xx_hal_pcd.c ****             {
1887:Drivers/STM32G4xx_HAL_Driver/Src/stm32g4xx_hal_pcd.c ****               /* TX COMPLETE */
1888:Drivers/STM32G4xx_HAL_Driver/Src/stm32g4xx_hal_pcd.c **** #if (USE_HAL_PCD_REGISTER_CALLBACKS == 1U)
1889:Drivers/STM32G4xx_HAL_Driver/Src/stm32g4xx_hal_pcd.c ****               hpcd->DataInStageCallback(hpcd, ep->num);
1890:Drivers/STM32G4xx_HAL_Driver/Src/stm32g4xx_hal_pcd.c **** #else
1891:Drivers/STM32G4xx_HAL_Driver/Src/stm32g4xx_hal_pcd.c ****               HAL_PCD_DataInStageCallback(hpcd, ep->num);
1892:Drivers/STM32G4xx_HAL_Driver/Src/stm32g4xx_hal_pcd.c **** #endif /* USE_HAL_PCD_REGISTER_CALLBACKS */
1893:Drivers/STM32G4xx_HAL_Driver/Src/stm32g4xx_hal_pcd.c ****             }
1894:Drivers/STM32G4xx_HAL_Driver/Src/stm32g4xx_hal_pcd.c ****             else
1895:Drivers/STM32G4xx_HAL_Driver/Src/stm32g4xx_hal_pcd.c ****             {
1896:Drivers/STM32G4xx_HAL_Driver/Src/stm32g4xx_hal_pcd.c ****               /* Transfer is not yet Done */
1897:Drivers/STM32G4xx_HAL_Driver/Src/stm32g4xx_hal_pcd.c ****               ep->xfer_buff += TxPctSize;
1898:Drivers/STM32G4xx_HAL_Driver/Src/stm32g4xx_hal_pcd.c ****               ep->xfer_count += TxPctSize;
1899:Drivers/STM32G4xx_HAL_Driver/Src/stm32g4xx_hal_pcd.c ****               (void)USB_EPStartXfer(hpcd->Instance, ep);
1900:Drivers/STM32G4xx_HAL_Driver/Src/stm32g4xx_hal_pcd.c ****             }
1901:Drivers/STM32G4xx_HAL_Driver/Src/stm32g4xx_hal_pcd.c ****           }
1902:Drivers/STM32G4xx_HAL_Driver/Src/stm32g4xx_hal_pcd.c **** #if (USE_USB_DOUBLE_BUFFER == 1U)
1903:Drivers/STM32G4xx_HAL_Driver/Src/stm32g4xx_hal_pcd.c ****           /* Double Buffer bulk IN (bulk transfer Len > Ep_Mps) */
1904:Drivers/STM32G4xx_HAL_Driver/Src/stm32g4xx_hal_pcd.c ****           else
1905:Drivers/STM32G4xx_HAL_Driver/Src/stm32g4xx_hal_pcd.c ****           {
1906:Drivers/STM32G4xx_HAL_Driver/Src/stm32g4xx_hal_pcd.c ****             (void)HAL_PCD_EP_DB_Transmit(hpcd, ep, wEPVal);
1907:Drivers/STM32G4xx_HAL_Driver/Src/stm32g4xx_hal_pcd.c ****           }
1908:Drivers/STM32G4xx_HAL_Driver/Src/stm32g4xx_hal_pcd.c **** #endif /* (USE_USB_DOUBLE_BUFFER == 1U) */
1909:Drivers/STM32G4xx_HAL_Driver/Src/stm32g4xx_hal_pcd.c ****         }
1910:Drivers/STM32G4xx_HAL_Driver/Src/stm32g4xx_hal_pcd.c ****       }
1911:Drivers/STM32G4xx_HAL_Driver/Src/stm32g4xx_hal_pcd.c ****     }
ARM GAS  /tmp/ccXaRXaA.s 			page 35


1912:Drivers/STM32G4xx_HAL_Driver/Src/stm32g4xx_hal_pcd.c ****   }
1913:Drivers/STM32G4xx_HAL_Driver/Src/stm32g4xx_hal_pcd.c **** 
1914:Drivers/STM32G4xx_HAL_Driver/Src/stm32g4xx_hal_pcd.c ****   return HAL_OK;
1915:Drivers/STM32G4xx_HAL_Driver/Src/stm32g4xx_hal_pcd.c **** }
1916:Drivers/STM32G4xx_HAL_Driver/Src/stm32g4xx_hal_pcd.c **** 
1917:Drivers/STM32G4xx_HAL_Driver/Src/stm32g4xx_hal_pcd.c **** 
1918:Drivers/STM32G4xx_HAL_Driver/Src/stm32g4xx_hal_pcd.c **** #if (USE_USB_DOUBLE_BUFFER == 1U)
1919:Drivers/STM32G4xx_HAL_Driver/Src/stm32g4xx_hal_pcd.c **** /**
1920:Drivers/STM32G4xx_HAL_Driver/Src/stm32g4xx_hal_pcd.c ****   * @brief  Manage double buffer bulk out transaction from ISR
1921:Drivers/STM32G4xx_HAL_Driver/Src/stm32g4xx_hal_pcd.c ****   * @param  hpcd PCD handle
1922:Drivers/STM32G4xx_HAL_Driver/Src/stm32g4xx_hal_pcd.c ****   * @param  ep current endpoint handle
1923:Drivers/STM32G4xx_HAL_Driver/Src/stm32g4xx_hal_pcd.c ****   * @param  wEPVal Last snapshot of EPRx register value taken in ISR
1924:Drivers/STM32G4xx_HAL_Driver/Src/stm32g4xx_hal_pcd.c ****   * @retval HAL status
1925:Drivers/STM32G4xx_HAL_Driver/Src/stm32g4xx_hal_pcd.c ****   */
1926:Drivers/STM32G4xx_HAL_Driver/Src/stm32g4xx_hal_pcd.c **** static uint16_t HAL_PCD_EP_DB_Receive(PCD_HandleTypeDef *hpcd,
1927:Drivers/STM32G4xx_HAL_Driver/Src/stm32g4xx_hal_pcd.c ****                                       PCD_EPTypeDef *ep, uint16_t wEPVal)
1928:Drivers/STM32G4xx_HAL_Driver/Src/stm32g4xx_hal_pcd.c **** {
  29              		.loc 1 1928 1 view -0
  30              		.cfi_startproc
  31              		@ args = 0, pretend = 0, frame = 0
  32              		@ frame_needed = 0, uses_anonymous_args = 0
  33              		.loc 1 1928 1 is_stmt 0 view .LVU1
  34 0000 38B5     		push	{r3, r4, r5, lr}
  35              		.cfi_def_cfa_offset 16
  36              		.cfi_offset 3, -16
  37              		.cfi_offset 4, -12
  38              		.cfi_offset 5, -8
  39              		.cfi_offset 14, -4
1929:Drivers/STM32G4xx_HAL_Driver/Src/stm32g4xx_hal_pcd.c ****   uint16_t count;
  40              		.loc 1 1929 3 is_stmt 1 view .LVU2
1930:Drivers/STM32G4xx_HAL_Driver/Src/stm32g4xx_hal_pcd.c **** 
1931:Drivers/STM32G4xx_HAL_Driver/Src/stm32g4xx_hal_pcd.c ****   /* Manage Buffer0 OUT */
1932:Drivers/STM32G4xx_HAL_Driver/Src/stm32g4xx_hal_pcd.c ****   if ((wEPVal & USB_EP_DTOG_RX) != 0U)
  41              		.loc 1 1932 3 view .LVU3
  42              		.loc 1 1932 6 is_stmt 0 view .LVU4
  43 0002 12F4804F 		tst	r2, #16384
  44 0006 43D0     		beq	.L2
1933:Drivers/STM32G4xx_HAL_Driver/Src/stm32g4xx_hal_pcd.c ****   {
1934:Drivers/STM32G4xx_HAL_Driver/Src/stm32g4xx_hal_pcd.c ****     /* Get count of received Data on buffer0 */
1935:Drivers/STM32G4xx_HAL_Driver/Src/stm32g4xx_hal_pcd.c ****     count = (uint16_t)PCD_GET_EP_DBUF0_CNT(hpcd->Instance, ep->num);
  45              		.loc 1 1935 5 is_stmt 1 view .LVU5
  46              		.loc 1 1935 23 is_stmt 0 view .LVU6
  47 0008 0468     		ldr	r4, [r0]
  48 000a B4F85030 		ldrh	r3, [r4, #80]
  49 000e 91F800C0 		ldrb	ip, [r1]	@ zero_extendqisi2
  50 0012 4FEACC0E 		lsl	lr, ip, #3
  51 0016 1EFA83F3 		uxtah	r3, lr, r3
  52 001a 2344     		add	r3, r3, r4
  53 001c B3F80244 		ldrh	r4, [r3, #1026]
  54              		.loc 1 1935 11 view .LVU7
  55 0020 C4F30904 		ubfx	r4, r4, #0, #10
  56              	.LVL1:
1936:Drivers/STM32G4xx_HAL_Driver/Src/stm32g4xx_hal_pcd.c **** 
1937:Drivers/STM32G4xx_HAL_Driver/Src/stm32g4xx_hal_pcd.c ****     if (ep->xfer_len >= count)
  57              		.loc 1 1937 5 is_stmt 1 view .LVU8
  58              		.loc 1 1937 11 is_stmt 0 view .LVU9
  59 0024 8B69     		ldr	r3, [r1, #24]
ARM GAS  /tmp/ccXaRXaA.s 			page 36


  60              		.loc 1 1937 8 view .LVU10
  61 0026 A342     		cmp	r3, r4
  62 0028 28D3     		bcc	.L3
1938:Drivers/STM32G4xx_HAL_Driver/Src/stm32g4xx_hal_pcd.c ****     {
1939:Drivers/STM32G4xx_HAL_Driver/Src/stm32g4xx_hal_pcd.c ****       ep->xfer_len -= count;
  63              		.loc 1 1939 7 is_stmt 1 view .LVU11
  64              		.loc 1 1939 20 is_stmt 0 view .LVU12
  65 002a 1B1B     		subs	r3, r3, r4
  66 002c 8B61     		str	r3, [r1, #24]
  67              	.L4:
1940:Drivers/STM32G4xx_HAL_Driver/Src/stm32g4xx_hal_pcd.c ****     }
1941:Drivers/STM32G4xx_HAL_Driver/Src/stm32g4xx_hal_pcd.c ****     else
1942:Drivers/STM32G4xx_HAL_Driver/Src/stm32g4xx_hal_pcd.c ****     {
1943:Drivers/STM32G4xx_HAL_Driver/Src/stm32g4xx_hal_pcd.c ****       ep->xfer_len = 0U;
1944:Drivers/STM32G4xx_HAL_Driver/Src/stm32g4xx_hal_pcd.c ****     }
1945:Drivers/STM32G4xx_HAL_Driver/Src/stm32g4xx_hal_pcd.c **** 
1946:Drivers/STM32G4xx_HAL_Driver/Src/stm32g4xx_hal_pcd.c ****     if (ep->xfer_len == 0U)
  68              		.loc 1 1946 5 is_stmt 1 view .LVU13
  69              		.loc 1 1946 11 is_stmt 0 view .LVU14
  70 002e 8B69     		ldr	r3, [r1, #24]
  71              		.loc 1 1946 8 view .LVU15
  72 0030 7BB9     		cbnz	r3, .L5
1947:Drivers/STM32G4xx_HAL_Driver/Src/stm32g4xx_hal_pcd.c ****     {
1948:Drivers/STM32G4xx_HAL_Driver/Src/stm32g4xx_hal_pcd.c ****       /* Set NAK to OUT endpoint since double buffer is enabled */
1949:Drivers/STM32G4xx_HAL_Driver/Src/stm32g4xx_hal_pcd.c ****       PCD_SET_EP_RX_STATUS(hpcd->Instance, ep->num, USB_EP_RX_NAK);
  73              		.loc 1 1949 7 is_stmt 1 view .LVU16
  74              	.LBB2:
  75              		.loc 1 1949 7 view .LVU17
  76              		.loc 1 1949 7 view .LVU18
  77 0032 0568     		ldr	r5, [r0]
  78 0034 35F82C30 		ldrh	r3, [r5, ip, lsl #2]
  79 0038 9BB2     		uxth	r3, r3
  80 003a 23F48043 		bic	r3, r3, #16384
  81 003e 23F07003 		bic	r3, r3, #112
  82              	.LVL2:
  83              		.loc 1 1949 7 view .LVU19
  84              		.loc 1 1949 7 discriminator 3 view .LVU20
  85              		.loc 1 1949 7 discriminator 4 view .LVU21
  86 0042 83F40053 		eor	r3, r3, #8192
  87              	.LVL3:
  88              		.loc 1 1949 7 discriminator 6 view .LVU22
  89 0046 43F40043 		orr	r3, r3, #32768
  90              	.LVL4:
  91              		.loc 1 1949 7 is_stmt 0 discriminator 6 view .LVU23
  92 004a 43F08003 		orr	r3, r3, #128
  93 004e 25F82C30 		strh	r3, [r5, ip, lsl #2]	@ movhi
  94              	.LVL5:
  95              	.L5:
  96              		.loc 1 1949 7 discriminator 6 view .LVU24
  97              	.LBE2:
  98              		.loc 1 1949 7 is_stmt 1 discriminator 7 view .LVU25
1950:Drivers/STM32G4xx_HAL_Driver/Src/stm32g4xx_hal_pcd.c ****     }
1951:Drivers/STM32G4xx_HAL_Driver/Src/stm32g4xx_hal_pcd.c **** 
1952:Drivers/STM32G4xx_HAL_Driver/Src/stm32g4xx_hal_pcd.c ****     /* Check if Buffer1 is in blocked state which requires to toggle */
1953:Drivers/STM32G4xx_HAL_Driver/Src/stm32g4xx_hal_pcd.c ****     if ((wEPVal & USB_EP_DTOG_TX) != 0U)
  99              		.loc 1 1953 5 view .LVU26
 100              		.loc 1 1953 8 is_stmt 0 view .LVU27
ARM GAS  /tmp/ccXaRXaA.s 			page 37


 101 0052 12F0400F 		tst	r2, #64
 102 0056 0ED0     		beq	.L6
1954:Drivers/STM32G4xx_HAL_Driver/Src/stm32g4xx_hal_pcd.c ****     {
1955:Drivers/STM32G4xx_HAL_Driver/Src/stm32g4xx_hal_pcd.c ****       PCD_FREE_USER_BUFFER(hpcd->Instance, ep->num, 0U);
 103              		.loc 1 1955 7 is_stmt 1 view .LVU28
 104              		.loc 1 1955 7 view .LVU29
 105              		.loc 1 1955 7 discriminator 1 view .LVU30
 106              	.LBB3:
 107              		.loc 1 1955 7 discriminator 1 view .LVU31
 108              		.loc 1 1955 7 discriminator 1 view .LVU32
 109 0058 0268     		ldr	r2, [r0]
 110              	.LVL6:
 111              		.loc 1 1955 7 is_stmt 0 discriminator 1 view .LVU33
 112 005a 0D78     		ldrb	r5, [r1]	@ zero_extendqisi2
 113 005c 32F82530 		ldrh	r3, [r2, r5, lsl #2]
 114 0060 9BB2     		uxth	r3, r3
 115 0062 23F4E043 		bic	r3, r3, #28672
 116 0066 23F07003 		bic	r3, r3, #112
 117              	.LVL7:
 118              		.loc 1 1955 7 is_stmt 1 view .LVU34
 119              		.loc 1 1955 7 is_stmt 0 discriminator 1 view .LVU35
 120 006a 43F40043 		orr	r3, r3, #32768
 121              	.LVL8:
 122              		.loc 1 1955 7 discriminator 1 view .LVU36
 123 006e 43F0C003 		orr	r3, r3, #192
 124 0072 22F82530 		strh	r3, [r2, r5, lsl #2]	@ movhi
 125              	.LBE3:
 126              		.loc 1 1955 7 is_stmt 1 view .LVU37
 127              	.LVL9:
 128              	.L6:
 129              		.loc 1 1955 7 discriminator 6 view .LVU38
 130              		.loc 1 1955 7 discriminator 6 view .LVU39
1956:Drivers/STM32G4xx_HAL_Driver/Src/stm32g4xx_hal_pcd.c ****     }
1957:Drivers/STM32G4xx_HAL_Driver/Src/stm32g4xx_hal_pcd.c **** 
1958:Drivers/STM32G4xx_HAL_Driver/Src/stm32g4xx_hal_pcd.c ****     if (count != 0U)
 131              		.loc 1 1958 5 view .LVU40
 132              		.loc 1 1958 8 is_stmt 0 view .LVU41
 133 0076 24B9     		cbnz	r4, .L13
 134              	.LVL10:
 135              	.L7:
1959:Drivers/STM32G4xx_HAL_Driver/Src/stm32g4xx_hal_pcd.c ****     {
1960:Drivers/STM32G4xx_HAL_Driver/Src/stm32g4xx_hal_pcd.c ****       USB_ReadPMA(hpcd->Instance, ep->xfer_buff, ep->pmaaddr0, count);
1961:Drivers/STM32G4xx_HAL_Driver/Src/stm32g4xx_hal_pcd.c ****     }
1962:Drivers/STM32G4xx_HAL_Driver/Src/stm32g4xx_hal_pcd.c ****   }
1963:Drivers/STM32G4xx_HAL_Driver/Src/stm32g4xx_hal_pcd.c ****   /* Manage Buffer 1 DTOG_RX=0 */
1964:Drivers/STM32G4xx_HAL_Driver/Src/stm32g4xx_hal_pcd.c ****   else
1965:Drivers/STM32G4xx_HAL_Driver/Src/stm32g4xx_hal_pcd.c ****   {
1966:Drivers/STM32G4xx_HAL_Driver/Src/stm32g4xx_hal_pcd.c ****     /* Get count of received data */
1967:Drivers/STM32G4xx_HAL_Driver/Src/stm32g4xx_hal_pcd.c ****     count = (uint16_t)PCD_GET_EP_DBUF1_CNT(hpcd->Instance, ep->num);
1968:Drivers/STM32G4xx_HAL_Driver/Src/stm32g4xx_hal_pcd.c **** 
1969:Drivers/STM32G4xx_HAL_Driver/Src/stm32g4xx_hal_pcd.c ****     if (ep->xfer_len >= count)
1970:Drivers/STM32G4xx_HAL_Driver/Src/stm32g4xx_hal_pcd.c ****     {
1971:Drivers/STM32G4xx_HAL_Driver/Src/stm32g4xx_hal_pcd.c ****       ep->xfer_len -= count;
1972:Drivers/STM32G4xx_HAL_Driver/Src/stm32g4xx_hal_pcd.c ****     }
1973:Drivers/STM32G4xx_HAL_Driver/Src/stm32g4xx_hal_pcd.c ****     else
1974:Drivers/STM32G4xx_HAL_Driver/Src/stm32g4xx_hal_pcd.c ****     {
1975:Drivers/STM32G4xx_HAL_Driver/Src/stm32g4xx_hal_pcd.c ****       ep->xfer_len = 0U;
ARM GAS  /tmp/ccXaRXaA.s 			page 38


1976:Drivers/STM32G4xx_HAL_Driver/Src/stm32g4xx_hal_pcd.c ****     }
1977:Drivers/STM32G4xx_HAL_Driver/Src/stm32g4xx_hal_pcd.c **** 
1978:Drivers/STM32G4xx_HAL_Driver/Src/stm32g4xx_hal_pcd.c ****     if (ep->xfer_len == 0U)
1979:Drivers/STM32G4xx_HAL_Driver/Src/stm32g4xx_hal_pcd.c ****     {
1980:Drivers/STM32G4xx_HAL_Driver/Src/stm32g4xx_hal_pcd.c ****       /* Set NAK on the current endpoint */
1981:Drivers/STM32G4xx_HAL_Driver/Src/stm32g4xx_hal_pcd.c ****       PCD_SET_EP_RX_STATUS(hpcd->Instance, ep->num, USB_EP_RX_NAK);
1982:Drivers/STM32G4xx_HAL_Driver/Src/stm32g4xx_hal_pcd.c ****     }
1983:Drivers/STM32G4xx_HAL_Driver/Src/stm32g4xx_hal_pcd.c **** 
1984:Drivers/STM32G4xx_HAL_Driver/Src/stm32g4xx_hal_pcd.c ****     /* Need to FreeUser Buffer */
1985:Drivers/STM32G4xx_HAL_Driver/Src/stm32g4xx_hal_pcd.c ****     if ((wEPVal & USB_EP_DTOG_TX) == 0U)
1986:Drivers/STM32G4xx_HAL_Driver/Src/stm32g4xx_hal_pcd.c ****     {
1987:Drivers/STM32G4xx_HAL_Driver/Src/stm32g4xx_hal_pcd.c ****       PCD_FREE_USER_BUFFER(hpcd->Instance, ep->num, 0U);
1988:Drivers/STM32G4xx_HAL_Driver/Src/stm32g4xx_hal_pcd.c ****     }
1989:Drivers/STM32G4xx_HAL_Driver/Src/stm32g4xx_hal_pcd.c **** 
1990:Drivers/STM32G4xx_HAL_Driver/Src/stm32g4xx_hal_pcd.c ****     if (count != 0U)
1991:Drivers/STM32G4xx_HAL_Driver/Src/stm32g4xx_hal_pcd.c ****     {
1992:Drivers/STM32G4xx_HAL_Driver/Src/stm32g4xx_hal_pcd.c ****       USB_ReadPMA(hpcd->Instance, ep->xfer_buff, ep->pmaaddr1, count);
1993:Drivers/STM32G4xx_HAL_Driver/Src/stm32g4xx_hal_pcd.c ****     }
1994:Drivers/STM32G4xx_HAL_Driver/Src/stm32g4xx_hal_pcd.c ****   }
1995:Drivers/STM32G4xx_HAL_Driver/Src/stm32g4xx_hal_pcd.c **** 
1996:Drivers/STM32G4xx_HAL_Driver/Src/stm32g4xx_hal_pcd.c ****   return count;
 136              		.loc 1 1996 3 is_stmt 1 view .LVU42
1997:Drivers/STM32G4xx_HAL_Driver/Src/stm32g4xx_hal_pcd.c **** }
 137              		.loc 1 1997 1 is_stmt 0 view .LVU43
 138 0078 2046     		mov	r0, r4
 139 007a 38BD     		pop	{r3, r4, r5, pc}
 140              	.LVL11:
 141              	.L3:
1943:Drivers/STM32G4xx_HAL_Driver/Src/stm32g4xx_hal_pcd.c ****     }
 142              		.loc 1 1943 7 is_stmt 1 view .LVU44
1943:Drivers/STM32G4xx_HAL_Driver/Src/stm32g4xx_hal_pcd.c ****     }
 143              		.loc 1 1943 20 is_stmt 0 view .LVU45
 144 007c 0023     		movs	r3, #0
 145 007e 8B61     		str	r3, [r1, #24]
 146 0080 D5E7     		b	.L4
 147              	.LVL12:
 148              	.L13:
1960:Drivers/STM32G4xx_HAL_Driver/Src/stm32g4xx_hal_pcd.c ****     }
 149              		.loc 1 1960 7 is_stmt 1 view .LVU46
 150 0082 2346     		mov	r3, r4
 151 0084 0A89     		ldrh	r2, [r1, #8]
 152 0086 4969     		ldr	r1, [r1, #20]
 153              	.LVL13:
1960:Drivers/STM32G4xx_HAL_Driver/Src/stm32g4xx_hal_pcd.c ****     }
 154              		.loc 1 1960 7 is_stmt 0 view .LVU47
 155 0088 0068     		ldr	r0, [r0]
 156              	.LVL14:
1960:Drivers/STM32G4xx_HAL_Driver/Src/stm32g4xx_hal_pcd.c ****     }
 157              		.loc 1 1960 7 view .LVU48
 158 008a FFF7FEFF 		bl	USB_ReadPMA
 159              	.LVL15:
 160 008e F3E7     		b	.L7
 161              	.LVL16:
 162              	.L2:
1967:Drivers/STM32G4xx_HAL_Driver/Src/stm32g4xx_hal_pcd.c **** 
 163              		.loc 1 1967 5 is_stmt 1 view .LVU49
1967:Drivers/STM32G4xx_HAL_Driver/Src/stm32g4xx_hal_pcd.c **** 
ARM GAS  /tmp/ccXaRXaA.s 			page 39


 164              		.loc 1 1967 23 is_stmt 0 view .LVU50
 165 0090 0468     		ldr	r4, [r0]
 166 0092 B4F85030 		ldrh	r3, [r4, #80]
 167 0096 91F800C0 		ldrb	ip, [r1]	@ zero_extendqisi2
 168 009a 4FEACC0E 		lsl	lr, ip, #3
 169 009e 1EFA83F3 		uxtah	r3, lr, r3
 170 00a2 2344     		add	r3, r3, r4
 171 00a4 B3F80644 		ldrh	r4, [r3, #1030]
1967:Drivers/STM32G4xx_HAL_Driver/Src/stm32g4xx_hal_pcd.c **** 
 172              		.loc 1 1967 11 view .LVU51
 173 00a8 C4F30904 		ubfx	r4, r4, #0, #10
 174              	.LVL17:
1969:Drivers/STM32G4xx_HAL_Driver/Src/stm32g4xx_hal_pcd.c ****     {
 175              		.loc 1 1969 5 is_stmt 1 view .LVU52
1969:Drivers/STM32G4xx_HAL_Driver/Src/stm32g4xx_hal_pcd.c ****     {
 176              		.loc 1 1969 11 is_stmt 0 view .LVU53
 177 00ac 8B69     		ldr	r3, [r1, #24]
1969:Drivers/STM32G4xx_HAL_Driver/Src/stm32g4xx_hal_pcd.c ****     {
 178              		.loc 1 1969 8 view .LVU54
 179 00ae A342     		cmp	r3, r4
 180 00b0 2FD3     		bcc	.L8
1971:Drivers/STM32G4xx_HAL_Driver/Src/stm32g4xx_hal_pcd.c ****     }
 181              		.loc 1 1971 7 is_stmt 1 view .LVU55
1971:Drivers/STM32G4xx_HAL_Driver/Src/stm32g4xx_hal_pcd.c ****     }
 182              		.loc 1 1971 20 is_stmt 0 view .LVU56
 183 00b2 1B1B     		subs	r3, r3, r4
 184 00b4 8B61     		str	r3, [r1, #24]
 185              	.L9:
1978:Drivers/STM32G4xx_HAL_Driver/Src/stm32g4xx_hal_pcd.c ****     {
 186              		.loc 1 1978 5 is_stmt 1 view .LVU57
1978:Drivers/STM32G4xx_HAL_Driver/Src/stm32g4xx_hal_pcd.c ****     {
 187              		.loc 1 1978 11 is_stmt 0 view .LVU58
 188 00b6 8B69     		ldr	r3, [r1, #24]
1978:Drivers/STM32G4xx_HAL_Driver/Src/stm32g4xx_hal_pcd.c ****     {
 189              		.loc 1 1978 8 view .LVU59
 190 00b8 7BB9     		cbnz	r3, .L10
1981:Drivers/STM32G4xx_HAL_Driver/Src/stm32g4xx_hal_pcd.c ****     }
 191              		.loc 1 1981 7 is_stmt 1 view .LVU60
 192              	.LBB4:
1981:Drivers/STM32G4xx_HAL_Driver/Src/stm32g4xx_hal_pcd.c ****     }
 193              		.loc 1 1981 7 view .LVU61
1981:Drivers/STM32G4xx_HAL_Driver/Src/stm32g4xx_hal_pcd.c ****     }
 194              		.loc 1 1981 7 view .LVU62
 195 00ba 0568     		ldr	r5, [r0]
 196 00bc 35F82C30 		ldrh	r3, [r5, ip, lsl #2]
 197 00c0 9BB2     		uxth	r3, r3
 198 00c2 23F48043 		bic	r3, r3, #16384
 199 00c6 23F07003 		bic	r3, r3, #112
 200              	.LVL18:
1981:Drivers/STM32G4xx_HAL_Driver/Src/stm32g4xx_hal_pcd.c ****     }
 201              		.loc 1 1981 7 view .LVU63
1981:Drivers/STM32G4xx_HAL_Driver/Src/stm32g4xx_hal_pcd.c ****     }
 202              		.loc 1 1981 7 discriminator 3 view .LVU64
1981:Drivers/STM32G4xx_HAL_Driver/Src/stm32g4xx_hal_pcd.c ****     }
 203              		.loc 1 1981 7 discriminator 4 view .LVU65
 204 00ca 83F40053 		eor	r3, r3, #8192
 205              	.LVL19:
ARM GAS  /tmp/ccXaRXaA.s 			page 40


1981:Drivers/STM32G4xx_HAL_Driver/Src/stm32g4xx_hal_pcd.c ****     }
 206              		.loc 1 1981 7 discriminator 6 view .LVU66
 207 00ce 43F40043 		orr	r3, r3, #32768
 208              	.LVL20:
1981:Drivers/STM32G4xx_HAL_Driver/Src/stm32g4xx_hal_pcd.c ****     }
 209              		.loc 1 1981 7 is_stmt 0 discriminator 6 view .LVU67
 210 00d2 43F08003 		orr	r3, r3, #128
 211 00d6 25F82C30 		strh	r3, [r5, ip, lsl #2]	@ movhi
 212              	.LVL21:
 213              	.L10:
1981:Drivers/STM32G4xx_HAL_Driver/Src/stm32g4xx_hal_pcd.c ****     }
 214              		.loc 1 1981 7 discriminator 6 view .LVU68
 215              	.LBE4:
1981:Drivers/STM32G4xx_HAL_Driver/Src/stm32g4xx_hal_pcd.c ****     }
 216              		.loc 1 1981 7 is_stmt 1 discriminator 7 view .LVU69
1985:Drivers/STM32G4xx_HAL_Driver/Src/stm32g4xx_hal_pcd.c ****     {
 217              		.loc 1 1985 5 view .LVU70
1985:Drivers/STM32G4xx_HAL_Driver/Src/stm32g4xx_hal_pcd.c ****     {
 218              		.loc 1 1985 8 is_stmt 0 view .LVU71
 219 00da 12F0400F 		tst	r2, #64
 220 00de 0FD1     		bne	.L11
1987:Drivers/STM32G4xx_HAL_Driver/Src/stm32g4xx_hal_pcd.c ****     }
 221              		.loc 1 1987 7 is_stmt 1 view .LVU72
1987:Drivers/STM32G4xx_HAL_Driver/Src/stm32g4xx_hal_pcd.c ****     }
 222              		.loc 1 1987 7 view .LVU73
1987:Drivers/STM32G4xx_HAL_Driver/Src/stm32g4xx_hal_pcd.c ****     }
 223              		.loc 1 1987 7 discriminator 1 view .LVU74
 224              	.LBB5:
1987:Drivers/STM32G4xx_HAL_Driver/Src/stm32g4xx_hal_pcd.c ****     }
 225              		.loc 1 1987 7 discriminator 1 view .LVU75
1987:Drivers/STM32G4xx_HAL_Driver/Src/stm32g4xx_hal_pcd.c ****     }
 226              		.loc 1 1987 7 discriminator 1 view .LVU76
 227 00e0 0268     		ldr	r2, [r0]
 228              	.LVL22:
1987:Drivers/STM32G4xx_HAL_Driver/Src/stm32g4xx_hal_pcd.c ****     }
 229              		.loc 1 1987 7 is_stmt 0 discriminator 1 view .LVU77
 230 00e2 91F800C0 		ldrb	ip, [r1]	@ zero_extendqisi2
 231 00e6 32F82C30 		ldrh	r3, [r2, ip, lsl #2]
 232 00ea 9BB2     		uxth	r3, r3
 233 00ec 23F4E043 		bic	r3, r3, #28672
 234 00f0 23F07003 		bic	r3, r3, #112
 235              	.LVL23:
1987:Drivers/STM32G4xx_HAL_Driver/Src/stm32g4xx_hal_pcd.c ****     }
 236              		.loc 1 1987 7 is_stmt 1 view .LVU78
1987:Drivers/STM32G4xx_HAL_Driver/Src/stm32g4xx_hal_pcd.c ****     }
 237              		.loc 1 1987 7 is_stmt 0 discriminator 1 view .LVU79
 238 00f4 43F40043 		orr	r3, r3, #32768
 239              	.LVL24:
1987:Drivers/STM32G4xx_HAL_Driver/Src/stm32g4xx_hal_pcd.c ****     }
 240              		.loc 1 1987 7 discriminator 1 view .LVU80
 241 00f8 43F0C003 		orr	r3, r3, #192
 242 00fc 22F82C30 		strh	r3, [r2, ip, lsl #2]	@ movhi
 243              	.LBE5:
1987:Drivers/STM32G4xx_HAL_Driver/Src/stm32g4xx_hal_pcd.c ****     }
 244              		.loc 1 1987 7 is_stmt 1 view .LVU81
 245              	.LVL25:
 246              	.L11:
ARM GAS  /tmp/ccXaRXaA.s 			page 41


1987:Drivers/STM32G4xx_HAL_Driver/Src/stm32g4xx_hal_pcd.c ****     }
 247              		.loc 1 1987 7 discriminator 6 view .LVU82
1987:Drivers/STM32G4xx_HAL_Driver/Src/stm32g4xx_hal_pcd.c ****     }
 248              		.loc 1 1987 7 discriminator 6 view .LVU83
1990:Drivers/STM32G4xx_HAL_Driver/Src/stm32g4xx_hal_pcd.c ****     {
 249              		.loc 1 1990 5 view .LVU84
1990:Drivers/STM32G4xx_HAL_Driver/Src/stm32g4xx_hal_pcd.c ****     {
 250              		.loc 1 1990 8 is_stmt 0 view .LVU85
 251 0100 002C     		cmp	r4, #0
 252 0102 B9D0     		beq	.L7
1992:Drivers/STM32G4xx_HAL_Driver/Src/stm32g4xx_hal_pcd.c ****     }
 253              		.loc 1 1992 7 is_stmt 1 view .LVU86
 254 0104 2346     		mov	r3, r4
 255 0106 4A89     		ldrh	r2, [r1, #10]
 256 0108 4969     		ldr	r1, [r1, #20]
 257              	.LVL26:
1992:Drivers/STM32G4xx_HAL_Driver/Src/stm32g4xx_hal_pcd.c ****     }
 258              		.loc 1 1992 7 is_stmt 0 view .LVU87
 259 010a 0068     		ldr	r0, [r0]
 260              	.LVL27:
1992:Drivers/STM32G4xx_HAL_Driver/Src/stm32g4xx_hal_pcd.c ****     }
 261              		.loc 1 1992 7 view .LVU88
 262 010c FFF7FEFF 		bl	USB_ReadPMA
 263              	.LVL28:
 264 0110 B2E7     		b	.L7
 265              	.LVL29:
 266              	.L8:
1975:Drivers/STM32G4xx_HAL_Driver/Src/stm32g4xx_hal_pcd.c ****     }
 267              		.loc 1 1975 7 is_stmt 1 view .LVU89
1975:Drivers/STM32G4xx_HAL_Driver/Src/stm32g4xx_hal_pcd.c ****     }
 268              		.loc 1 1975 20 is_stmt 0 view .LVU90
 269 0112 0023     		movs	r3, #0
 270 0114 8B61     		str	r3, [r1, #24]
 271 0116 CEE7     		b	.L9
 272              		.cfi_endproc
 273              	.LFE363:
 275              		.section	.text.HAL_PCD_MspInit,"ax",%progbits
 276              		.align	1
 277              		.weak	HAL_PCD_MspInit
 278              		.syntax unified
 279              		.thumb
 280              		.thumb_func
 282              	HAL_PCD_MspInit:
 283              	.LVL30:
 284              	.LFB331:
 262:Drivers/STM32G4xx_HAL_Driver/Src/stm32g4xx_hal_pcd.c ****   /* Prevent unused argument(s) compilation warning */
 285              		.loc 1 262 1 is_stmt 1 view -0
 286              		.cfi_startproc
 287              		@ args = 0, pretend = 0, frame = 0
 288              		@ frame_needed = 0, uses_anonymous_args = 0
 289              		@ link register save eliminated.
 264:Drivers/STM32G4xx_HAL_Driver/Src/stm32g4xx_hal_pcd.c **** 
 290              		.loc 1 264 3 view .LVU92
 269:Drivers/STM32G4xx_HAL_Driver/Src/stm32g4xx_hal_pcd.c **** 
 291              		.loc 1 269 1 is_stmt 0 view .LVU93
 292 0000 7047     		bx	lr
 293              		.cfi_endproc
ARM GAS  /tmp/ccXaRXaA.s 			page 42


 294              	.LFE331:
 296              		.section	.text.HAL_PCD_Init,"ax",%progbits
 297              		.align	1
 298              		.global	HAL_PCD_Init
 299              		.syntax unified
 300              		.thumb
 301              		.thumb_func
 303              	HAL_PCD_Init:
 304              	.LVL31:
 305              	.LFB329:
 128:Drivers/STM32G4xx_HAL_Driver/Src/stm32g4xx_hal_pcd.c ****   uint8_t i;
 306              		.loc 1 128 1 is_stmt 1 view -0
 307              		.cfi_startproc
 308              		@ args = 0, pretend = 0, frame = 0
 309              		@ frame_needed = 0, uses_anonymous_args = 0
 129:Drivers/STM32G4xx_HAL_Driver/Src/stm32g4xx_hal_pcd.c **** 
 310              		.loc 1 129 3 view .LVU95
 132:Drivers/STM32G4xx_HAL_Driver/Src/stm32g4xx_hal_pcd.c ****   {
 311              		.loc 1 132 3 view .LVU96
 132:Drivers/STM32G4xx_HAL_Driver/Src/stm32g4xx_hal_pcd.c ****   {
 312              		.loc 1 132 6 is_stmt 0 view .LVU97
 313 0000 0028     		cmp	r0, #0
 314 0002 56D0     		beq	.L22
 128:Drivers/STM32G4xx_HAL_Driver/Src/stm32g4xx_hal_pcd.c ****   uint8_t i;
 315              		.loc 1 128 1 view .LVU98
 316 0004 10B5     		push	{r4, lr}
 317              		.cfi_def_cfa_offset 8
 318              		.cfi_offset 4, -8
 319              		.cfi_offset 14, -4
 320 0006 0446     		mov	r4, r0
 138:Drivers/STM32G4xx_HAL_Driver/Src/stm32g4xx_hal_pcd.c **** 
 321              		.loc 1 138 3 is_stmt 1 view .LVU99
 140:Drivers/STM32G4xx_HAL_Driver/Src/stm32g4xx_hal_pcd.c ****   {
 322              		.loc 1 140 3 view .LVU100
 140:Drivers/STM32G4xx_HAL_Driver/Src/stm32g4xx_hal_pcd.c ****   {
 323              		.loc 1 140 11 is_stmt 0 view .LVU101
 324 0008 90F89132 		ldrb	r3, [r0, #657]	@ zero_extendqisi2
 140:Drivers/STM32G4xx_HAL_Driver/Src/stm32g4xx_hal_pcd.c ****   {
 325              		.loc 1 140 6 view .LVU102
 326 000c 3BB1     		cbz	r3, .L28
 327              	.LVL32:
 328              	.L17:
 173:Drivers/STM32G4xx_HAL_Driver/Src/stm32g4xx_hal_pcd.c **** 
 329              		.loc 1 173 3 is_stmt 1 view .LVU103
 173:Drivers/STM32G4xx_HAL_Driver/Src/stm32g4xx_hal_pcd.c **** 
 330              		.loc 1 173 15 is_stmt 0 view .LVU104
 331 000e 0323     		movs	r3, #3
 332 0010 84F89132 		strb	r3, [r4, #657]
 176:Drivers/STM32G4xx_HAL_Driver/Src/stm32g4xx_hal_pcd.c **** 
 333              		.loc 1 176 3 is_stmt 1 view .LVU105
 334 0014 2068     		ldr	r0, [r4]
 335 0016 FFF7FEFF 		bl	USB_DisableGlobalInt
 336              	.LVL33:
 179:Drivers/STM32G4xx_HAL_Driver/Src/stm32g4xx_hal_pcd.c ****   {
 337              		.loc 1 179 3 view .LVU106
 179:Drivers/STM32G4xx_HAL_Driver/Src/stm32g4xx_hal_pcd.c ****   {
 338              		.loc 1 179 10 is_stmt 0 view .LVU107
ARM GAS  /tmp/ccXaRXaA.s 			page 43


 339 001a 0023     		movs	r3, #0
 179:Drivers/STM32G4xx_HAL_Driver/Src/stm32g4xx_hal_pcd.c ****   {
 340              		.loc 1 179 3 view .LVU108
 341 001c 15E0     		b	.L18
 342              	.LVL34:
 343              	.L28:
 143:Drivers/STM32G4xx_HAL_Driver/Src/stm32g4xx_hal_pcd.c **** 
 344              		.loc 1 143 5 is_stmt 1 view .LVU109
 143:Drivers/STM32G4xx_HAL_Driver/Src/stm32g4xx_hal_pcd.c **** 
 345              		.loc 1 143 16 is_stmt 0 view .LVU110
 346 001e 80F89032 		strb	r3, [r0, #656]
 169:Drivers/STM32G4xx_HAL_Driver/Src/stm32g4xx_hal_pcd.c **** #endif /* (USE_HAL_PCD_REGISTER_CALLBACKS) */
 347              		.loc 1 169 5 is_stmt 1 view .LVU111
 348 0022 FFF7FEFF 		bl	HAL_PCD_MspInit
 349              	.LVL35:
 169:Drivers/STM32G4xx_HAL_Driver/Src/stm32g4xx_hal_pcd.c **** #endif /* (USE_HAL_PCD_REGISTER_CALLBACKS) */
 350              		.loc 1 169 5 is_stmt 0 view .LVU112
 351 0026 F2E7     		b	.L17
 352              	.LVL36:
 353              	.L19:
 182:Drivers/STM32G4xx_HAL_Driver/Src/stm32g4xx_hal_pcd.c ****     hpcd->IN_ep[i].num = i;
 354              		.loc 1 182 5 is_stmt 1 view .LVU113
 182:Drivers/STM32G4xx_HAL_Driver/Src/stm32g4xx_hal_pcd.c ****     hpcd->IN_ep[i].num = i;
 355              		.loc 1 182 26 is_stmt 0 view .LVU114
 356 0028 03EB8302 		add	r2, r3, r3, lsl #2
 357 002c 04EBC202 		add	r2, r4, r2, lsl #3
 358 0030 0121     		movs	r1, #1
 359 0032 5174     		strb	r1, [r2, #17]
 183:Drivers/STM32G4xx_HAL_Driver/Src/stm32g4xx_hal_pcd.c ****     /* Control until ep is activated */
 360              		.loc 1 183 5 is_stmt 1 view .LVU115
 183:Drivers/STM32G4xx_HAL_Driver/Src/stm32g4xx_hal_pcd.c ****     /* Control until ep is activated */
 361              		.loc 1 183 24 is_stmt 0 view .LVU116
 362 0034 1374     		strb	r3, [r2, #16]
 185:Drivers/STM32G4xx_HAL_Driver/Src/stm32g4xx_hal_pcd.c ****     hpcd->IN_ep[i].maxpacket = 0U;
 363              		.loc 1 185 5 is_stmt 1 view .LVU117
 185:Drivers/STM32G4xx_HAL_Driver/Src/stm32g4xx_hal_pcd.c ****     hpcd->IN_ep[i].maxpacket = 0U;
 364              		.loc 1 185 25 is_stmt 0 view .LVU118
 365 0036 0021     		movs	r1, #0
 366 0038 D174     		strb	r1, [r2, #19]
 186:Drivers/STM32G4xx_HAL_Driver/Src/stm32g4xx_hal_pcd.c ****     hpcd->IN_ep[i].xfer_buff = 0U;
 367              		.loc 1 186 5 is_stmt 1 view .LVU119
 186:Drivers/STM32G4xx_HAL_Driver/Src/stm32g4xx_hal_pcd.c ****     hpcd->IN_ep[i].xfer_buff = 0U;
 368              		.loc 1 186 30 is_stmt 0 view .LVU120
 369 003a 1162     		str	r1, [r2, #32]
 187:Drivers/STM32G4xx_HAL_Driver/Src/stm32g4xx_hal_pcd.c ****     hpcd->IN_ep[i].xfer_len = 0U;
 370              		.loc 1 187 5 is_stmt 1 view .LVU121
 187:Drivers/STM32G4xx_HAL_Driver/Src/stm32g4xx_hal_pcd.c ****     hpcd->IN_ep[i].xfer_len = 0U;
 371              		.loc 1 187 30 is_stmt 0 view .LVU122
 372 003c 5162     		str	r1, [r2, #36]
 188:Drivers/STM32G4xx_HAL_Driver/Src/stm32g4xx_hal_pcd.c ****   }
 373              		.loc 1 188 5 is_stmt 1 view .LVU123
 188:Drivers/STM32G4xx_HAL_Driver/Src/stm32g4xx_hal_pcd.c ****   }
 374              		.loc 1 188 29 is_stmt 0 view .LVU124
 375 003e 0133     		adds	r3, r3, #1
 376              	.LVL37:
 188:Drivers/STM32G4xx_HAL_Driver/Src/stm32g4xx_hal_pcd.c ****   }
 377              		.loc 1 188 29 view .LVU125
ARM GAS  /tmp/ccXaRXaA.s 			page 44


 378 0040 03EB8302 		add	r2, r3, r3, lsl #2
 379              	.LVL38:
 188:Drivers/STM32G4xx_HAL_Driver/Src/stm32g4xx_hal_pcd.c ****   }
 380              		.loc 1 188 29 view .LVU126
 381 0044 D200     		lsls	r2, r2, #3
 382 0046 A150     		str	r1, [r4, r2]
 383              	.LVL39:
 179:Drivers/STM32G4xx_HAL_Driver/Src/stm32g4xx_hal_pcd.c ****   {
 384              		.loc 1 179 47 is_stmt 1 discriminator 3 view .LVU127
 385 0048 DBB2     		uxtb	r3, r3
 386              	.LVL40:
 387              	.L18:
 179:Drivers/STM32G4xx_HAL_Driver/Src/stm32g4xx_hal_pcd.c ****   {
 388              		.loc 1 179 18 discriminator 1 view .LVU128
 179:Drivers/STM32G4xx_HAL_Driver/Src/stm32g4xx_hal_pcd.c ****   {
 389              		.loc 1 179 30 is_stmt 0 discriminator 1 view .LVU129
 390 004a 2079     		ldrb	r0, [r4, #4]	@ zero_extendqisi2
 179:Drivers/STM32G4xx_HAL_Driver/Src/stm32g4xx_hal_pcd.c ****   {
 391              		.loc 1 179 18 discriminator 1 view .LVU130
 392 004c 9842     		cmp	r0, r3
 393 004e EBD8     		bhi	.L19
 191:Drivers/STM32G4xx_HAL_Driver/Src/stm32g4xx_hal_pcd.c ****   {
 394              		.loc 1 191 10 view .LVU131
 395 0050 0023     		movs	r3, #0
 396              	.LVL41:
 191:Drivers/STM32G4xx_HAL_Driver/Src/stm32g4xx_hal_pcd.c ****   {
 397              		.loc 1 191 10 view .LVU132
 398 0052 16E0     		b	.L20
 399              	.LVL42:
 400              	.L21:
 193:Drivers/STM32G4xx_HAL_Driver/Src/stm32g4xx_hal_pcd.c ****     hpcd->OUT_ep[i].num = i;
 401              		.loc 1 193 5 is_stmt 1 view .LVU133
 193:Drivers/STM32G4xx_HAL_Driver/Src/stm32g4xx_hal_pcd.c ****     hpcd->OUT_ep[i].num = i;
 402              		.loc 1 193 27 is_stmt 0 view .LVU134
 403 0054 03EB8302 		add	r2, r3, r3, lsl #2
 404 0058 04EBC202 		add	r2, r4, r2, lsl #3
 405 005c 0021     		movs	r1, #0
 406 005e 82F85111 		strb	r1, [r2, #337]
 194:Drivers/STM32G4xx_HAL_Driver/Src/stm32g4xx_hal_pcd.c ****     /* Control until ep is activated */
 407              		.loc 1 194 5 is_stmt 1 view .LVU135
 194:Drivers/STM32G4xx_HAL_Driver/Src/stm32g4xx_hal_pcd.c ****     /* Control until ep is activated */
 408              		.loc 1 194 25 is_stmt 0 view .LVU136
 409 0062 82F85031 		strb	r3, [r2, #336]
 196:Drivers/STM32G4xx_HAL_Driver/Src/stm32g4xx_hal_pcd.c ****     hpcd->OUT_ep[i].maxpacket = 0U;
 410              		.loc 1 196 5 is_stmt 1 view .LVU137
 196:Drivers/STM32G4xx_HAL_Driver/Src/stm32g4xx_hal_pcd.c ****     hpcd->OUT_ep[i].maxpacket = 0U;
 411              		.loc 1 196 26 is_stmt 0 view .LVU138
 412 0066 82F85311 		strb	r1, [r2, #339]
 197:Drivers/STM32G4xx_HAL_Driver/Src/stm32g4xx_hal_pcd.c ****     hpcd->OUT_ep[i].xfer_buff = 0U;
 413              		.loc 1 197 5 is_stmt 1 view .LVU139
 197:Drivers/STM32G4xx_HAL_Driver/Src/stm32g4xx_hal_pcd.c ****     hpcd->OUT_ep[i].xfer_buff = 0U;
 414              		.loc 1 197 31 is_stmt 0 view .LVU140
 415 006a C2F86011 		str	r1, [r2, #352]
 198:Drivers/STM32G4xx_HAL_Driver/Src/stm32g4xx_hal_pcd.c ****     hpcd->OUT_ep[i].xfer_len = 0U;
 416              		.loc 1 198 5 is_stmt 1 view .LVU141
 198:Drivers/STM32G4xx_HAL_Driver/Src/stm32g4xx_hal_pcd.c ****     hpcd->OUT_ep[i].xfer_len = 0U;
 417              		.loc 1 198 31 is_stmt 0 view .LVU142
ARM GAS  /tmp/ccXaRXaA.s 			page 45


 418 006e C2F86411 		str	r1, [r2, #356]
 199:Drivers/STM32G4xx_HAL_Driver/Src/stm32g4xx_hal_pcd.c ****   }
 419              		.loc 1 199 5 is_stmt 1 view .LVU143
 199:Drivers/STM32G4xx_HAL_Driver/Src/stm32g4xx_hal_pcd.c ****   }
 420              		.loc 1 199 30 is_stmt 0 view .LVU144
 421 0072 03EB8302 		add	r2, r3, r3, lsl #2
 422 0076 04EBC202 		add	r2, r4, r2, lsl #3
 423 007a C2F86811 		str	r1, [r2, #360]
 191:Drivers/STM32G4xx_HAL_Driver/Src/stm32g4xx_hal_pcd.c ****   {
 424              		.loc 1 191 47 is_stmt 1 discriminator 3 view .LVU145
 425 007e 0133     		adds	r3, r3, #1
 426              	.LVL43:
 191:Drivers/STM32G4xx_HAL_Driver/Src/stm32g4xx_hal_pcd.c ****   {
 427              		.loc 1 191 47 is_stmt 0 discriminator 3 view .LVU146
 428 0080 DBB2     		uxtb	r3, r3
 429              	.LVL44:
 430              	.L20:
 191:Drivers/STM32G4xx_HAL_Driver/Src/stm32g4xx_hal_pcd.c ****   {
 431              		.loc 1 191 18 is_stmt 1 discriminator 1 view .LVU147
 432 0082 9842     		cmp	r0, r3
 433 0084 E6D8     		bhi	.L21
 203:Drivers/STM32G4xx_HAL_Driver/Src/stm32g4xx_hal_pcd.c **** 
 434              		.loc 1 203 3 view .LVU148
 203:Drivers/STM32G4xx_HAL_Driver/Src/stm32g4xx_hal_pcd.c **** 
 435              		.loc 1 203 25 is_stmt 0 view .LVU149
 436 0086 2346     		mov	r3, r4
 437              	.LVL45:
 203:Drivers/STM32G4xx_HAL_Driver/Src/stm32g4xx_hal_pcd.c **** 
 438              		.loc 1 203 25 view .LVU150
 439 0088 53F8040B 		ldr	r0, [r3], #4
 203:Drivers/STM32G4xx_HAL_Driver/Src/stm32g4xx_hal_pcd.c **** 
 440              		.loc 1 203 9 view .LVU151
 441 008c 93E80600 		ldm	r3, {r1, r2}
 442 0090 FFF7FEFF 		bl	USB_DevInit
 443              	.LVL46:
 205:Drivers/STM32G4xx_HAL_Driver/Src/stm32g4xx_hal_pcd.c ****   hpcd->State = HAL_PCD_STATE_READY;
 444              		.loc 1 205 3 is_stmt 1 view .LVU152
 205:Drivers/STM32G4xx_HAL_Driver/Src/stm32g4xx_hal_pcd.c ****   hpcd->State = HAL_PCD_STATE_READY;
 445              		.loc 1 205 21 is_stmt 0 view .LVU153
 446 0094 0023     		movs	r3, #0
 447 0096 2373     		strb	r3, [r4, #12]
 206:Drivers/STM32G4xx_HAL_Driver/Src/stm32g4xx_hal_pcd.c **** 
 448              		.loc 1 206 3 is_stmt 1 view .LVU154
 206:Drivers/STM32G4xx_HAL_Driver/Src/stm32g4xx_hal_pcd.c **** 
 449              		.loc 1 206 15 is_stmt 0 view .LVU155
 450 0098 0123     		movs	r3, #1
 451 009a 84F89132 		strb	r3, [r4, #657]
 209:Drivers/STM32G4xx_HAL_Driver/Src/stm32g4xx_hal_pcd.c ****   {
 452              		.loc 1 209 3 is_stmt 1 view .LVU156
 209:Drivers/STM32G4xx_HAL_Driver/Src/stm32g4xx_hal_pcd.c ****   {
 453              		.loc 1 209 17 is_stmt 0 view .LVU157
 454 009e A37A     		ldrb	r3, [r4, #10]	@ zero_extendqisi2
 209:Drivers/STM32G4xx_HAL_Driver/Src/stm32g4xx_hal_pcd.c ****   {
 455              		.loc 1 209 6 view .LVU158
 456 00a0 012B     		cmp	r3, #1
 457 00a2 01D0     		beq	.L29
 214:Drivers/STM32G4xx_HAL_Driver/Src/stm32g4xx_hal_pcd.c **** }
ARM GAS  /tmp/ccXaRXaA.s 			page 46


 458              		.loc 1 214 10 view .LVU159
 459 00a4 0020     		movs	r0, #0
 460              	.L16:
 215:Drivers/STM32G4xx_HAL_Driver/Src/stm32g4xx_hal_pcd.c **** 
 461              		.loc 1 215 1 view .LVU160
 462 00a6 10BD     		pop	{r4, pc}
 463              	.LVL47:
 464              	.L29:
 211:Drivers/STM32G4xx_HAL_Driver/Src/stm32g4xx_hal_pcd.c ****   }
 465              		.loc 1 211 5 is_stmt 1 view .LVU161
 211:Drivers/STM32G4xx_HAL_Driver/Src/stm32g4xx_hal_pcd.c ****   }
 466              		.loc 1 211 11 is_stmt 0 view .LVU162
 467 00a8 2046     		mov	r0, r4
 468 00aa FFF7FEFF 		bl	HAL_PCDEx_ActivateLPM
 469              	.LVL48:
 214:Drivers/STM32G4xx_HAL_Driver/Src/stm32g4xx_hal_pcd.c **** }
 470              		.loc 1 214 10 view .LVU163
 471 00ae 0020     		movs	r0, #0
 472 00b0 F9E7     		b	.L16
 473              	.LVL49:
 474              	.L22:
 475              		.cfi_def_cfa_offset 0
 476              		.cfi_restore 4
 477              		.cfi_restore 14
 134:Drivers/STM32G4xx_HAL_Driver/Src/stm32g4xx_hal_pcd.c ****   }
 478              		.loc 1 134 12 view .LVU164
 479 00b2 0120     		movs	r0, #1
 480              	.LVL50:
 215:Drivers/STM32G4xx_HAL_Driver/Src/stm32g4xx_hal_pcd.c **** 
 481              		.loc 1 215 1 view .LVU165
 482 00b4 7047     		bx	lr
 483              		.cfi_endproc
 484              	.LFE329:
 486              		.section	.text.HAL_PCD_MspDeInit,"ax",%progbits
 487              		.align	1
 488              		.weak	HAL_PCD_MspDeInit
 489              		.syntax unified
 490              		.thumb
 491              		.thumb_func
 493              	HAL_PCD_MspDeInit:
 494              	.LVL51:
 495              	.LFB332:
 277:Drivers/STM32G4xx_HAL_Driver/Src/stm32g4xx_hal_pcd.c ****   /* Prevent unused argument(s) compilation warning */
 496              		.loc 1 277 1 is_stmt 1 view -0
 497              		.cfi_startproc
 498              		@ args = 0, pretend = 0, frame = 0
 499              		@ frame_needed = 0, uses_anonymous_args = 0
 500              		@ link register save eliminated.
 279:Drivers/STM32G4xx_HAL_Driver/Src/stm32g4xx_hal_pcd.c **** 
 501              		.loc 1 279 3 view .LVU167
 284:Drivers/STM32G4xx_HAL_Driver/Src/stm32g4xx_hal_pcd.c **** 
 502              		.loc 1 284 1 is_stmt 0 view .LVU168
 503 0000 7047     		bx	lr
 504              		.cfi_endproc
 505              	.LFE332:
 507              		.section	.text.HAL_PCD_DeInit,"ax",%progbits
 508              		.align	1
ARM GAS  /tmp/ccXaRXaA.s 			page 47


 509              		.global	HAL_PCD_DeInit
 510              		.syntax unified
 511              		.thumb
 512              		.thumb_func
 514              	HAL_PCD_DeInit:
 515              	.LVL52:
 516              	.LFB330:
 223:Drivers/STM32G4xx_HAL_Driver/Src/stm32g4xx_hal_pcd.c ****   /* Check the PCD handle allocation */
 517              		.loc 1 223 1 is_stmt 1 view -0
 518              		.cfi_startproc
 519              		@ args = 0, pretend = 0, frame = 0
 520              		@ frame_needed = 0, uses_anonymous_args = 0
 223:Drivers/STM32G4xx_HAL_Driver/Src/stm32g4xx_hal_pcd.c ****   /* Check the PCD handle allocation */
 521              		.loc 1 223 1 is_stmt 0 view .LVU170
 522 0000 38B5     		push	{r3, r4, r5, lr}
 523              		.cfi_def_cfa_offset 16
 524              		.cfi_offset 3, -16
 525              		.cfi_offset 4, -12
 526              		.cfi_offset 5, -8
 527              		.cfi_offset 14, -4
 225:Drivers/STM32G4xx_HAL_Driver/Src/stm32g4xx_hal_pcd.c ****   {
 528              		.loc 1 225 3 is_stmt 1 view .LVU171
 225:Drivers/STM32G4xx_HAL_Driver/Src/stm32g4xx_hal_pcd.c ****   {
 529              		.loc 1 225 6 is_stmt 0 view .LVU172
 530 0002 90B1     		cbz	r0, .L33
 531 0004 0446     		mov	r4, r0
 230:Drivers/STM32G4xx_HAL_Driver/Src/stm32g4xx_hal_pcd.c **** 
 532              		.loc 1 230 3 is_stmt 1 view .LVU173
 230:Drivers/STM32G4xx_HAL_Driver/Src/stm32g4xx_hal_pcd.c **** 
 533              		.loc 1 230 15 is_stmt 0 view .LVU174
 534 0006 0323     		movs	r3, #3
 535 0008 80F89132 		strb	r3, [r0, #657]
 233:Drivers/STM32G4xx_HAL_Driver/Src/stm32g4xx_hal_pcd.c ****   {
 536              		.loc 1 233 3 is_stmt 1 view .LVU175
 233:Drivers/STM32G4xx_HAL_Driver/Src/stm32g4xx_hal_pcd.c ****   {
 537              		.loc 1 233 7 is_stmt 0 view .LVU176
 538 000c 0068     		ldr	r0, [r0]
 539              	.LVL53:
 233:Drivers/STM32G4xx_HAL_Driver/Src/stm32g4xx_hal_pcd.c ****   {
 540              		.loc 1 233 7 view .LVU177
 541 000e FFF7FEFF 		bl	USB_StopDevice
 542              	.LVL54:
 233:Drivers/STM32G4xx_HAL_Driver/Src/stm32g4xx_hal_pcd.c ****   {
 543              		.loc 1 233 6 discriminator 1 view .LVU178
 544 0012 0546     		mov	r5, r0
 545 0014 10B1     		cbz	r0, .L36
 235:Drivers/STM32G4xx_HAL_Driver/Src/stm32g4xx_hal_pcd.c ****   }
 546              		.loc 1 235 12 view .LVU179
 547 0016 0125     		movs	r5, #1
 548              	.LVL55:
 549              	.L32:
 254:Drivers/STM32G4xx_HAL_Driver/Src/stm32g4xx_hal_pcd.c **** 
 550              		.loc 1 254 1 view .LVU180
 551 0018 2846     		mov	r0, r5
 552 001a 38BD     		pop	{r3, r4, r5, pc}
 553              	.LVL56:
 554              	.L36:
ARM GAS  /tmp/ccXaRXaA.s 			page 48


 248:Drivers/STM32G4xx_HAL_Driver/Src/stm32g4xx_hal_pcd.c **** #endif /* USE_HAL_PCD_REGISTER_CALLBACKS */
 555              		.loc 1 248 3 is_stmt 1 view .LVU181
 556 001c 2046     		mov	r0, r4
 557 001e FFF7FEFF 		bl	HAL_PCD_MspDeInit
 558              	.LVL57:
 251:Drivers/STM32G4xx_HAL_Driver/Src/stm32g4xx_hal_pcd.c **** 
 559              		.loc 1 251 3 view .LVU182
 251:Drivers/STM32G4xx_HAL_Driver/Src/stm32g4xx_hal_pcd.c **** 
 560              		.loc 1 251 15 is_stmt 0 view .LVU183
 561 0022 0023     		movs	r3, #0
 562 0024 84F89132 		strb	r3, [r4, #657]
 253:Drivers/STM32G4xx_HAL_Driver/Src/stm32g4xx_hal_pcd.c **** }
 563              		.loc 1 253 3 is_stmt 1 view .LVU184
 253:Drivers/STM32G4xx_HAL_Driver/Src/stm32g4xx_hal_pcd.c **** }
 564              		.loc 1 253 10 is_stmt 0 view .LVU185
 565 0028 F6E7     		b	.L32
 566              	.LVL58:
 567              	.L33:
 227:Drivers/STM32G4xx_HAL_Driver/Src/stm32g4xx_hal_pcd.c ****   }
 568              		.loc 1 227 12 view .LVU186
 569 002a 0125     		movs	r5, #1
 570 002c F4E7     		b	.L32
 571              		.cfi_endproc
 572              	.LFE330:
 574              		.section	.text.HAL_PCD_Start,"ax",%progbits
 575              		.align	1
 576              		.global	HAL_PCD_Start
 577              		.syntax unified
 578              		.thumb
 579              		.thumb_func
 581              	HAL_PCD_Start:
 582              	.LVL59:
 583              	.LFB333:
 899:Drivers/STM32G4xx_HAL_Driver/Src/stm32g4xx_hal_pcd.c ****   __HAL_LOCK(hpcd);
 584              		.loc 1 899 1 is_stmt 1 view -0
 585              		.cfi_startproc
 586              		@ args = 0, pretend = 0, frame = 0
 587              		@ frame_needed = 0, uses_anonymous_args = 0
 900:Drivers/STM32G4xx_HAL_Driver/Src/stm32g4xx_hal_pcd.c ****   __HAL_PCD_ENABLE(hpcd);
 588              		.loc 1 900 3 view .LVU188
 900:Drivers/STM32G4xx_HAL_Driver/Src/stm32g4xx_hal_pcd.c ****   __HAL_PCD_ENABLE(hpcd);
 589              		.loc 1 900 3 view .LVU189
 590 0000 90F89032 		ldrb	r3, [r0, #656]	@ zero_extendqisi2
 591 0004 012B     		cmp	r3, #1
 592 0006 0ED0     		beq	.L39
 899:Drivers/STM32G4xx_HAL_Driver/Src/stm32g4xx_hal_pcd.c ****   __HAL_LOCK(hpcd);
 593              		.loc 1 899 1 is_stmt 0 view .LVU190
 594 0008 10B5     		push	{r4, lr}
 595              		.cfi_def_cfa_offset 8
 596              		.cfi_offset 4, -8
 597              		.cfi_offset 14, -4
 598 000a 0446     		mov	r4, r0
 900:Drivers/STM32G4xx_HAL_Driver/Src/stm32g4xx_hal_pcd.c ****   __HAL_PCD_ENABLE(hpcd);
 599              		.loc 1 900 3 is_stmt 1 discriminator 2 view .LVU191
 600 000c 0123     		movs	r3, #1
 601 000e 80F89032 		strb	r3, [r0, #656]
 900:Drivers/STM32G4xx_HAL_Driver/Src/stm32g4xx_hal_pcd.c ****   __HAL_PCD_ENABLE(hpcd);
ARM GAS  /tmp/ccXaRXaA.s 			page 49


 602              		.loc 1 900 3 view .LVU192
 901:Drivers/STM32G4xx_HAL_Driver/Src/stm32g4xx_hal_pcd.c ****   (void)USB_DevConnect(hpcd->Instance);
 603              		.loc 1 901 3 view .LVU193
 604 0012 0068     		ldr	r0, [r0]
 605              	.LVL60:
 901:Drivers/STM32G4xx_HAL_Driver/Src/stm32g4xx_hal_pcd.c ****   (void)USB_DevConnect(hpcd->Instance);
 606              		.loc 1 901 3 is_stmt 0 view .LVU194
 607 0014 FFF7FEFF 		bl	USB_EnableGlobalInt
 608              	.LVL61:
 902:Drivers/STM32G4xx_HAL_Driver/Src/stm32g4xx_hal_pcd.c ****   __HAL_UNLOCK(hpcd);
 609              		.loc 1 902 3 is_stmt 1 view .LVU195
 902:Drivers/STM32G4xx_HAL_Driver/Src/stm32g4xx_hal_pcd.c ****   __HAL_UNLOCK(hpcd);
 610              		.loc 1 902 9 is_stmt 0 view .LVU196
 611 0018 2068     		ldr	r0, [r4]
 612 001a FFF7FEFF 		bl	USB_DevConnect
 613              	.LVL62:
 903:Drivers/STM32G4xx_HAL_Driver/Src/stm32g4xx_hal_pcd.c **** 
 614              		.loc 1 903 3 is_stmt 1 view .LVU197
 903:Drivers/STM32G4xx_HAL_Driver/Src/stm32g4xx_hal_pcd.c **** 
 615              		.loc 1 903 3 view .LVU198
 616 001e 0020     		movs	r0, #0
 617 0020 84F89002 		strb	r0, [r4, #656]
 903:Drivers/STM32G4xx_HAL_Driver/Src/stm32g4xx_hal_pcd.c **** 
 618              		.loc 1 903 3 view .LVU199
 905:Drivers/STM32G4xx_HAL_Driver/Src/stm32g4xx_hal_pcd.c **** }
 619              		.loc 1 905 3 view .LVU200
 906:Drivers/STM32G4xx_HAL_Driver/Src/stm32g4xx_hal_pcd.c **** 
 620              		.loc 1 906 1 is_stmt 0 view .LVU201
 621 0024 10BD     		pop	{r4, pc}
 622              	.LVL63:
 623              	.L39:
 624              		.cfi_def_cfa_offset 0
 625              		.cfi_restore 4
 626              		.cfi_restore 14
 900:Drivers/STM32G4xx_HAL_Driver/Src/stm32g4xx_hal_pcd.c ****   __HAL_PCD_ENABLE(hpcd);
 627              		.loc 1 900 3 discriminator 1 view .LVU202
 628 0026 0220     		movs	r0, #2
 629              	.LVL64:
 906:Drivers/STM32G4xx_HAL_Driver/Src/stm32g4xx_hal_pcd.c **** 
 630              		.loc 1 906 1 view .LVU203
 631 0028 7047     		bx	lr
 632              		.cfi_endproc
 633              	.LFE333:
 635              		.section	.text.HAL_PCD_Stop,"ax",%progbits
 636              		.align	1
 637              		.global	HAL_PCD_Stop
 638              		.syntax unified
 639              		.thumb
 640              		.thumb_func
 642              	HAL_PCD_Stop:
 643              	.LVL65:
 644              	.LFB334:
 914:Drivers/STM32G4xx_HAL_Driver/Src/stm32g4xx_hal_pcd.c ****   __HAL_LOCK(hpcd);
 645              		.loc 1 914 1 is_stmt 1 view -0
 646              		.cfi_startproc
 647              		@ args = 0, pretend = 0, frame = 0
 648              		@ frame_needed = 0, uses_anonymous_args = 0
ARM GAS  /tmp/ccXaRXaA.s 			page 50


 915:Drivers/STM32G4xx_HAL_Driver/Src/stm32g4xx_hal_pcd.c ****   __HAL_PCD_DISABLE(hpcd);
 649              		.loc 1 915 3 view .LVU205
 915:Drivers/STM32G4xx_HAL_Driver/Src/stm32g4xx_hal_pcd.c ****   __HAL_PCD_DISABLE(hpcd);
 650              		.loc 1 915 3 view .LVU206
 651 0000 90F89032 		ldrb	r3, [r0, #656]	@ zero_extendqisi2
 652 0004 012B     		cmp	r3, #1
 653 0006 0ED0     		beq	.L46
 914:Drivers/STM32G4xx_HAL_Driver/Src/stm32g4xx_hal_pcd.c ****   __HAL_LOCK(hpcd);
 654              		.loc 1 914 1 is_stmt 0 view .LVU207
 655 0008 10B5     		push	{r4, lr}
 656              		.cfi_def_cfa_offset 8
 657              		.cfi_offset 4, -8
 658              		.cfi_offset 14, -4
 659 000a 0446     		mov	r4, r0
 915:Drivers/STM32G4xx_HAL_Driver/Src/stm32g4xx_hal_pcd.c ****   __HAL_PCD_DISABLE(hpcd);
 660              		.loc 1 915 3 is_stmt 1 discriminator 2 view .LVU208
 661 000c 0123     		movs	r3, #1
 662 000e 80F89032 		strb	r3, [r0, #656]
 915:Drivers/STM32G4xx_HAL_Driver/Src/stm32g4xx_hal_pcd.c ****   __HAL_PCD_DISABLE(hpcd);
 663              		.loc 1 915 3 view .LVU209
 916:Drivers/STM32G4xx_HAL_Driver/Src/stm32g4xx_hal_pcd.c ****   (void)USB_DevDisconnect(hpcd->Instance);
 664              		.loc 1 916 3 view .LVU210
 665 0012 0068     		ldr	r0, [r0]
 666              	.LVL66:
 916:Drivers/STM32G4xx_HAL_Driver/Src/stm32g4xx_hal_pcd.c ****   (void)USB_DevDisconnect(hpcd->Instance);
 667              		.loc 1 916 3 is_stmt 0 view .LVU211
 668 0014 FFF7FEFF 		bl	USB_DisableGlobalInt
 669              	.LVL67:
 917:Drivers/STM32G4xx_HAL_Driver/Src/stm32g4xx_hal_pcd.c ****   __HAL_UNLOCK(hpcd);
 670              		.loc 1 917 3 is_stmt 1 view .LVU212
 917:Drivers/STM32G4xx_HAL_Driver/Src/stm32g4xx_hal_pcd.c ****   __HAL_UNLOCK(hpcd);
 671              		.loc 1 917 9 is_stmt 0 view .LVU213
 672 0018 2068     		ldr	r0, [r4]
 673 001a FFF7FEFF 		bl	USB_DevDisconnect
 674              	.LVL68:
 918:Drivers/STM32G4xx_HAL_Driver/Src/stm32g4xx_hal_pcd.c **** 
 675              		.loc 1 918 3 is_stmt 1 view .LVU214
 918:Drivers/STM32G4xx_HAL_Driver/Src/stm32g4xx_hal_pcd.c **** 
 676              		.loc 1 918 3 view .LVU215
 677 001e 0020     		movs	r0, #0
 678 0020 84F89002 		strb	r0, [r4, #656]
 918:Drivers/STM32G4xx_HAL_Driver/Src/stm32g4xx_hal_pcd.c **** 
 679              		.loc 1 918 3 view .LVU216
 920:Drivers/STM32G4xx_HAL_Driver/Src/stm32g4xx_hal_pcd.c **** }
 680              		.loc 1 920 3 view .LVU217
 921:Drivers/STM32G4xx_HAL_Driver/Src/stm32g4xx_hal_pcd.c **** 
 681              		.loc 1 921 1 is_stmt 0 view .LVU218
 682 0024 10BD     		pop	{r4, pc}
 683              	.LVL69:
 684              	.L46:
 685              		.cfi_def_cfa_offset 0
 686              		.cfi_restore 4
 687              		.cfi_restore 14
 915:Drivers/STM32G4xx_HAL_Driver/Src/stm32g4xx_hal_pcd.c ****   __HAL_PCD_DISABLE(hpcd);
 688              		.loc 1 915 3 discriminator 1 view .LVU219
 689 0026 0220     		movs	r0, #2
 690              	.LVL70:
ARM GAS  /tmp/ccXaRXaA.s 			page 51


 921:Drivers/STM32G4xx_HAL_Driver/Src/stm32g4xx_hal_pcd.c **** 
 691              		.loc 1 921 1 view .LVU220
 692 0028 7047     		bx	lr
 693              		.cfi_endproc
 694              	.LFE334:
 696              		.section	.text.HAL_PCD_DataOutStageCallback,"ax",%progbits
 697              		.align	1
 698              		.weak	HAL_PCD_DataOutStageCallback
 699              		.syntax unified
 700              		.thumb
 701              		.thumb_func
 703              	HAL_PCD_DataOutStageCallback:
 704              	.LVL71:
 705              	.LFB336:
1076:Drivers/STM32G4xx_HAL_Driver/Src/stm32g4xx_hal_pcd.c ****   /* Prevent unused argument(s) compilation warning */
 706              		.loc 1 1076 1 is_stmt 1 view -0
 707              		.cfi_startproc
 708              		@ args = 0, pretend = 0, frame = 0
 709              		@ frame_needed = 0, uses_anonymous_args = 0
 710              		@ link register save eliminated.
1078:Drivers/STM32G4xx_HAL_Driver/Src/stm32g4xx_hal_pcd.c ****   UNUSED(epnum);
 711              		.loc 1 1078 3 view .LVU222
1079:Drivers/STM32G4xx_HAL_Driver/Src/stm32g4xx_hal_pcd.c **** 
 712              		.loc 1 1079 3 view .LVU223
1084:Drivers/STM32G4xx_HAL_Driver/Src/stm32g4xx_hal_pcd.c **** 
 713              		.loc 1 1084 1 is_stmt 0 view .LVU224
 714 0000 7047     		bx	lr
 715              		.cfi_endproc
 716              	.LFE336:
 718              		.section	.text.HAL_PCD_DataInStageCallback,"ax",%progbits
 719              		.align	1
 720              		.weak	HAL_PCD_DataInStageCallback
 721              		.syntax unified
 722              		.thumb
 723              		.thumb_func
 725              	HAL_PCD_DataInStageCallback:
 726              	.LVL72:
 727              	.LFB337:
1093:Drivers/STM32G4xx_HAL_Driver/Src/stm32g4xx_hal_pcd.c ****   /* Prevent unused argument(s) compilation warning */
 728              		.loc 1 1093 1 is_stmt 1 view -0
 729              		.cfi_startproc
 730              		@ args = 0, pretend = 0, frame = 0
 731              		@ frame_needed = 0, uses_anonymous_args = 0
 732              		@ link register save eliminated.
1095:Drivers/STM32G4xx_HAL_Driver/Src/stm32g4xx_hal_pcd.c ****   UNUSED(epnum);
 733              		.loc 1 1095 3 view .LVU226
1096:Drivers/STM32G4xx_HAL_Driver/Src/stm32g4xx_hal_pcd.c **** 
 734              		.loc 1 1096 3 view .LVU227
1101:Drivers/STM32G4xx_HAL_Driver/Src/stm32g4xx_hal_pcd.c **** /**
 735              		.loc 1 1101 1 is_stmt 0 view .LVU228
 736 0000 7047     		bx	lr
 737              		.cfi_endproc
 738              	.LFE337:
 740              		.section	.text.HAL_PCD_EP_DB_Transmit,"ax",%progbits
 741              		.align	1
 742              		.syntax unified
 743              		.thumb
ARM GAS  /tmp/ccXaRXaA.s 			page 52


 744              		.thumb_func
 746              	HAL_PCD_EP_DB_Transmit:
 747              	.LVL73:
 748              	.LFB364:
1998:Drivers/STM32G4xx_HAL_Driver/Src/stm32g4xx_hal_pcd.c **** 
1999:Drivers/STM32G4xx_HAL_Driver/Src/stm32g4xx_hal_pcd.c **** 
2000:Drivers/STM32G4xx_HAL_Driver/Src/stm32g4xx_hal_pcd.c **** /**
2001:Drivers/STM32G4xx_HAL_Driver/Src/stm32g4xx_hal_pcd.c ****   * @brief  Manage double buffer bulk IN transaction from ISR
2002:Drivers/STM32G4xx_HAL_Driver/Src/stm32g4xx_hal_pcd.c ****   * @param  hpcd PCD handle
2003:Drivers/STM32G4xx_HAL_Driver/Src/stm32g4xx_hal_pcd.c ****   * @param  ep current endpoint handle
2004:Drivers/STM32G4xx_HAL_Driver/Src/stm32g4xx_hal_pcd.c ****   * @param  wEPVal Last snapshot of EPRx register value taken in ISR
2005:Drivers/STM32G4xx_HAL_Driver/Src/stm32g4xx_hal_pcd.c ****   * @retval HAL status
2006:Drivers/STM32G4xx_HAL_Driver/Src/stm32g4xx_hal_pcd.c ****   */
2007:Drivers/STM32G4xx_HAL_Driver/Src/stm32g4xx_hal_pcd.c **** static HAL_StatusTypeDef HAL_PCD_EP_DB_Transmit(PCD_HandleTypeDef *hpcd,
2008:Drivers/STM32G4xx_HAL_Driver/Src/stm32g4xx_hal_pcd.c ****                                                 PCD_EPTypeDef *ep, uint16_t wEPVal)
2009:Drivers/STM32G4xx_HAL_Driver/Src/stm32g4xx_hal_pcd.c **** {
 749              		.loc 1 2009 1 is_stmt 1 view -0
 750              		.cfi_startproc
 751              		@ args = 0, pretend = 0, frame = 0
 752              		@ frame_needed = 0, uses_anonymous_args = 0
 753              		.loc 1 2009 1 is_stmt 0 view .LVU230
 754 0000 70B5     		push	{r4, r5, r6, lr}
 755              		.cfi_def_cfa_offset 16
 756              		.cfi_offset 4, -16
 757              		.cfi_offset 5, -12
 758              		.cfi_offset 6, -8
 759              		.cfi_offset 14, -4
 760 0002 0546     		mov	r5, r0
 761 0004 0C46     		mov	r4, r1
 762 0006 1646     		mov	r6, r2
2010:Drivers/STM32G4xx_HAL_Driver/Src/stm32g4xx_hal_pcd.c ****   uint32_t len;
 763              		.loc 1 2010 3 is_stmt 1 view .LVU231
2011:Drivers/STM32G4xx_HAL_Driver/Src/stm32g4xx_hal_pcd.c ****   uint16_t TxPctSize;
 764              		.loc 1 2011 3 view .LVU232
2012:Drivers/STM32G4xx_HAL_Driver/Src/stm32g4xx_hal_pcd.c **** 
2013:Drivers/STM32G4xx_HAL_Driver/Src/stm32g4xx_hal_pcd.c ****   /* Data Buffer0 ACK received */
2014:Drivers/STM32G4xx_HAL_Driver/Src/stm32g4xx_hal_pcd.c ****   if ((wEPVal & USB_EP_DTOG_TX) != 0U)
 765              		.loc 1 2014 3 view .LVU233
 766              		.loc 1 2014 6 is_stmt 0 view .LVU234
 767 0008 12F0400F 		tst	r2, #64
 768 000c 00F02081 		beq	.L54
2015:Drivers/STM32G4xx_HAL_Driver/Src/stm32g4xx_hal_pcd.c ****   {
2016:Drivers/STM32G4xx_HAL_Driver/Src/stm32g4xx_hal_pcd.c ****     /* multi-packet on the NON control IN endpoint */
2017:Drivers/STM32G4xx_HAL_Driver/Src/stm32g4xx_hal_pcd.c ****     TxPctSize = (uint16_t)PCD_GET_EP_DBUF0_CNT(hpcd->Instance, ep->num);
 769              		.loc 1 2017 5 is_stmt 1 view .LVU235
 770              		.loc 1 2017 27 is_stmt 0 view .LVU236
 771 0010 0268     		ldr	r2, [r0]
 772              	.LVL74:
 773              		.loc 1 2017 27 view .LVU237
 774 0012 B2F85030 		ldrh	r3, [r2, #80]
 775 0016 0978     		ldrb	r1, [r1]	@ zero_extendqisi2
 776              	.LVL75:
 777              		.loc 1 2017 27 view .LVU238
 778 0018 4FEAC10C 		lsl	ip, r1, #3
 779 001c 1CFA83F3 		uxtah	r3, ip, r3
 780 0020 1344     		add	r3, r3, r2
 781 0022 B3F80224 		ldrh	r2, [r3, #1026]
ARM GAS  /tmp/ccXaRXaA.s 			page 53


 782              		.loc 1 2017 15 view .LVU239
 783 0026 C2F30902 		ubfx	r2, r2, #0, #10
 784              	.LVL76:
2018:Drivers/STM32G4xx_HAL_Driver/Src/stm32g4xx_hal_pcd.c **** 
2019:Drivers/STM32G4xx_HAL_Driver/Src/stm32g4xx_hal_pcd.c ****     if (ep->xfer_len > TxPctSize)
 785              		.loc 1 2019 5 is_stmt 1 view .LVU240
 786              		.loc 1 2019 11 is_stmt 0 view .LVU241
 787 002a A369     		ldr	r3, [r4, #24]
 788              		.loc 1 2019 8 view .LVU242
 789 002c 9342     		cmp	r3, r2
 790 002e 2CD9     		bls	.L55
2020:Drivers/STM32G4xx_HAL_Driver/Src/stm32g4xx_hal_pcd.c ****     {
2021:Drivers/STM32G4xx_HAL_Driver/Src/stm32g4xx_hal_pcd.c ****       ep->xfer_len -= TxPctSize;
 791              		.loc 1 2021 7 is_stmt 1 view .LVU243
 792              		.loc 1 2021 20 is_stmt 0 view .LVU244
 793 0030 9B1A     		subs	r3, r3, r2
 794 0032 A361     		str	r3, [r4, #24]
 795              	.L56:
2022:Drivers/STM32G4xx_HAL_Driver/Src/stm32g4xx_hal_pcd.c ****     }
2023:Drivers/STM32G4xx_HAL_Driver/Src/stm32g4xx_hal_pcd.c ****     else
2024:Drivers/STM32G4xx_HAL_Driver/Src/stm32g4xx_hal_pcd.c ****     {
2025:Drivers/STM32G4xx_HAL_Driver/Src/stm32g4xx_hal_pcd.c ****       ep->xfer_len = 0U;
2026:Drivers/STM32G4xx_HAL_Driver/Src/stm32g4xx_hal_pcd.c ****     }
2027:Drivers/STM32G4xx_HAL_Driver/Src/stm32g4xx_hal_pcd.c **** 
2028:Drivers/STM32G4xx_HAL_Driver/Src/stm32g4xx_hal_pcd.c ****     /* Transfer is completed */
2029:Drivers/STM32G4xx_HAL_Driver/Src/stm32g4xx_hal_pcd.c ****     if (ep->xfer_len == 0U)
 796              		.loc 1 2029 5 is_stmt 1 view .LVU245
 797              		.loc 1 2029 11 is_stmt 0 view .LVU246
 798 0034 A069     		ldr	r0, [r4, #24]
 799              	.LVL77:
 800              		.loc 1 2029 8 view .LVU247
 801 0036 58B3     		cbz	r0, .L96
2030:Drivers/STM32G4xx_HAL_Driver/Src/stm32g4xx_hal_pcd.c ****     {
2031:Drivers/STM32G4xx_HAL_Driver/Src/stm32g4xx_hal_pcd.c ****       PCD_SET_EP_DBUF0_CNT(hpcd->Instance, ep->num, ep->is_in, 0U);
2032:Drivers/STM32G4xx_HAL_Driver/Src/stm32g4xx_hal_pcd.c ****       PCD_SET_EP_DBUF1_CNT(hpcd->Instance, ep->num, ep->is_in, 0U);
2033:Drivers/STM32G4xx_HAL_Driver/Src/stm32g4xx_hal_pcd.c **** 
2034:Drivers/STM32G4xx_HAL_Driver/Src/stm32g4xx_hal_pcd.c ****       if (ep->type == EP_TYPE_BULK)
2035:Drivers/STM32G4xx_HAL_Driver/Src/stm32g4xx_hal_pcd.c ****       {
2036:Drivers/STM32G4xx_HAL_Driver/Src/stm32g4xx_hal_pcd.c ****         /* Set Bulk endpoint in NAK state */
2037:Drivers/STM32G4xx_HAL_Driver/Src/stm32g4xx_hal_pcd.c ****         PCD_SET_EP_TX_STATUS(hpcd->Instance, ep->num, USB_EP_TX_NAK);
2038:Drivers/STM32G4xx_HAL_Driver/Src/stm32g4xx_hal_pcd.c ****       }
2039:Drivers/STM32G4xx_HAL_Driver/Src/stm32g4xx_hal_pcd.c **** 
2040:Drivers/STM32G4xx_HAL_Driver/Src/stm32g4xx_hal_pcd.c ****       /* TX COMPLETE */
2041:Drivers/STM32G4xx_HAL_Driver/Src/stm32g4xx_hal_pcd.c **** #if (USE_HAL_PCD_REGISTER_CALLBACKS == 1U)
2042:Drivers/STM32G4xx_HAL_Driver/Src/stm32g4xx_hal_pcd.c ****       hpcd->DataInStageCallback(hpcd, ep->num);
2043:Drivers/STM32G4xx_HAL_Driver/Src/stm32g4xx_hal_pcd.c **** #else
2044:Drivers/STM32G4xx_HAL_Driver/Src/stm32g4xx_hal_pcd.c ****       HAL_PCD_DataInStageCallback(hpcd, ep->num);
2045:Drivers/STM32G4xx_HAL_Driver/Src/stm32g4xx_hal_pcd.c **** #endif /* USE_HAL_PCD_REGISTER_CALLBACKS */
2046:Drivers/STM32G4xx_HAL_Driver/Src/stm32g4xx_hal_pcd.c **** 
2047:Drivers/STM32G4xx_HAL_Driver/Src/stm32g4xx_hal_pcd.c ****       if ((wEPVal & USB_EP_DTOG_RX) != 0U)
2048:Drivers/STM32G4xx_HAL_Driver/Src/stm32g4xx_hal_pcd.c ****       {
2049:Drivers/STM32G4xx_HAL_Driver/Src/stm32g4xx_hal_pcd.c ****         PCD_FREE_USER_BUFFER(hpcd->Instance, ep->num, 1U);
2050:Drivers/STM32G4xx_HAL_Driver/Src/stm32g4xx_hal_pcd.c ****       }
2051:Drivers/STM32G4xx_HAL_Driver/Src/stm32g4xx_hal_pcd.c **** 
2052:Drivers/STM32G4xx_HAL_Driver/Src/stm32g4xx_hal_pcd.c ****       return HAL_OK;
2053:Drivers/STM32G4xx_HAL_Driver/Src/stm32g4xx_hal_pcd.c ****     }
2054:Drivers/STM32G4xx_HAL_Driver/Src/stm32g4xx_hal_pcd.c ****     else /* Transfer is not yet Done */
ARM GAS  /tmp/ccXaRXaA.s 			page 54


2055:Drivers/STM32G4xx_HAL_Driver/Src/stm32g4xx_hal_pcd.c ****     {
2056:Drivers/STM32G4xx_HAL_Driver/Src/stm32g4xx_hal_pcd.c ****       /* Need to Free USB Buffer */
2057:Drivers/STM32G4xx_HAL_Driver/Src/stm32g4xx_hal_pcd.c ****       if ((wEPVal & USB_EP_DTOG_RX) != 0U)
 802              		.loc 1 2057 7 is_stmt 1 view .LVU248
 803              		.loc 1 2057 10 is_stmt 0 view .LVU249
 804 0038 16F4804F 		tst	r6, #16384
 805 003c 0DD0     		beq	.L65
2058:Drivers/STM32G4xx_HAL_Driver/Src/stm32g4xx_hal_pcd.c ****       {
2059:Drivers/STM32G4xx_HAL_Driver/Src/stm32g4xx_hal_pcd.c ****         PCD_FREE_USER_BUFFER(hpcd->Instance, ep->num, 1U);
 806              		.loc 1 2059 9 is_stmt 1 view .LVU250
 807              		.loc 1 2059 9 view .LVU251
 808              		.loc 1 2059 9 discriminator 2 view .LVU252
 809              		.loc 1 2059 9 discriminator 4 view .LVU253
 810              	.LBB6:
 811              		.loc 1 2059 9 discriminator 4 view .LVU254
 812              		.loc 1 2059 9 discriminator 4 view .LVU255
 813 003e 2868     		ldr	r0, [r5]
 814 0040 30F82130 		ldrh	r3, [r0, r1, lsl #2]
 815 0044 9BB2     		uxth	r3, r3
 816 0046 23F4E043 		bic	r3, r3, #28672
 817 004a 23F07003 		bic	r3, r3, #112
 818              	.LVL78:
 819              		.loc 1 2059 9 view .LVU256
 820              		.loc 1 2059 9 is_stmt 0 discriminator 4 view .LVU257
 821 004e 43F44043 		orr	r3, r3, #49152
 822              	.LVL79:
 823              		.loc 1 2059 9 discriminator 4 view .LVU258
 824 0052 43F08003 		orr	r3, r3, #128
 825 0056 20F82130 		strh	r3, [r0, r1, lsl #2]	@ movhi
 826              	.LVL80:
 827              	.L65:
 828              		.loc 1 2059 9 discriminator 4 view .LVU259
 829              	.LBE6:
 830              		.loc 1 2059 9 is_stmt 1 discriminator 6 view .LVU260
 831              		.loc 1 2059 9 discriminator 6 view .LVU261
2060:Drivers/STM32G4xx_HAL_Driver/Src/stm32g4xx_hal_pcd.c ****       }
2061:Drivers/STM32G4xx_HAL_Driver/Src/stm32g4xx_hal_pcd.c **** 
2062:Drivers/STM32G4xx_HAL_Driver/Src/stm32g4xx_hal_pcd.c ****       /* Still there is data to Fill in the next Buffer */
2063:Drivers/STM32G4xx_HAL_Driver/Src/stm32g4xx_hal_pcd.c ****       if (ep->xfer_fill_db == 1U)
 832              		.loc 1 2063 7 view .LVU262
 833              		.loc 1 2063 13 is_stmt 0 view .LVU263
 834 005a 94F82430 		ldrb	r3, [r4, #36]	@ zero_extendqisi2
 835              		.loc 1 2063 10 view .LVU264
 836 005e 012B     		cmp	r3, #1
 837 0060 00F08D80 		beq	.L97
 838              	.LVL81:
 839              	.L66:
2064:Drivers/STM32G4xx_HAL_Driver/Src/stm32g4xx_hal_pcd.c ****       {
2065:Drivers/STM32G4xx_HAL_Driver/Src/stm32g4xx_hal_pcd.c ****         ep->xfer_buff += TxPctSize;
2066:Drivers/STM32G4xx_HAL_Driver/Src/stm32g4xx_hal_pcd.c ****         ep->xfer_count += TxPctSize;
2067:Drivers/STM32G4xx_HAL_Driver/Src/stm32g4xx_hal_pcd.c **** 
2068:Drivers/STM32G4xx_HAL_Driver/Src/stm32g4xx_hal_pcd.c ****         /* Calculate the len of the new buffer to fill */
2069:Drivers/STM32G4xx_HAL_Driver/Src/stm32g4xx_hal_pcd.c ****         if (ep->xfer_len_db >= ep->maxpacket)
2070:Drivers/STM32G4xx_HAL_Driver/Src/stm32g4xx_hal_pcd.c ****         {
2071:Drivers/STM32G4xx_HAL_Driver/Src/stm32g4xx_hal_pcd.c ****           len = ep->maxpacket;
2072:Drivers/STM32G4xx_HAL_Driver/Src/stm32g4xx_hal_pcd.c ****           ep->xfer_len_db -= len;
2073:Drivers/STM32G4xx_HAL_Driver/Src/stm32g4xx_hal_pcd.c ****         }
ARM GAS  /tmp/ccXaRXaA.s 			page 55


2074:Drivers/STM32G4xx_HAL_Driver/Src/stm32g4xx_hal_pcd.c ****         else if (ep->xfer_len_db == 0U)
2075:Drivers/STM32G4xx_HAL_Driver/Src/stm32g4xx_hal_pcd.c ****         {
2076:Drivers/STM32G4xx_HAL_Driver/Src/stm32g4xx_hal_pcd.c ****           len = TxPctSize;
2077:Drivers/STM32G4xx_HAL_Driver/Src/stm32g4xx_hal_pcd.c ****           ep->xfer_fill_db = 0U;
2078:Drivers/STM32G4xx_HAL_Driver/Src/stm32g4xx_hal_pcd.c ****         }
2079:Drivers/STM32G4xx_HAL_Driver/Src/stm32g4xx_hal_pcd.c ****         else
2080:Drivers/STM32G4xx_HAL_Driver/Src/stm32g4xx_hal_pcd.c ****         {
2081:Drivers/STM32G4xx_HAL_Driver/Src/stm32g4xx_hal_pcd.c ****           ep->xfer_fill_db = 0U;
2082:Drivers/STM32G4xx_HAL_Driver/Src/stm32g4xx_hal_pcd.c ****           len = ep->xfer_len_db;
2083:Drivers/STM32G4xx_HAL_Driver/Src/stm32g4xx_hal_pcd.c ****           ep->xfer_len_db = 0U;
2084:Drivers/STM32G4xx_HAL_Driver/Src/stm32g4xx_hal_pcd.c ****         }
2085:Drivers/STM32G4xx_HAL_Driver/Src/stm32g4xx_hal_pcd.c **** 
2086:Drivers/STM32G4xx_HAL_Driver/Src/stm32g4xx_hal_pcd.c ****         /* Write remaining Data to Buffer */
2087:Drivers/STM32G4xx_HAL_Driver/Src/stm32g4xx_hal_pcd.c ****         /* Set the Double buffer counter for pma buffer0 */
2088:Drivers/STM32G4xx_HAL_Driver/Src/stm32g4xx_hal_pcd.c ****         PCD_SET_EP_DBUF0_CNT(hpcd->Instance, ep->num, ep->is_in, len);
2089:Drivers/STM32G4xx_HAL_Driver/Src/stm32g4xx_hal_pcd.c **** 
2090:Drivers/STM32G4xx_HAL_Driver/Src/stm32g4xx_hal_pcd.c ****         /* Copy user buffer to USB PMA */
2091:Drivers/STM32G4xx_HAL_Driver/Src/stm32g4xx_hal_pcd.c ****         USB_WritePMA(hpcd->Instance, ep->xfer_buff,  ep->pmaaddr0, (uint16_t)len);
2092:Drivers/STM32G4xx_HAL_Driver/Src/stm32g4xx_hal_pcd.c ****       }
2093:Drivers/STM32G4xx_HAL_Driver/Src/stm32g4xx_hal_pcd.c ****     }
2094:Drivers/STM32G4xx_HAL_Driver/Src/stm32g4xx_hal_pcd.c ****   }
2095:Drivers/STM32G4xx_HAL_Driver/Src/stm32g4xx_hal_pcd.c ****   else /* Data Buffer1 ACK received */
2096:Drivers/STM32G4xx_HAL_Driver/Src/stm32g4xx_hal_pcd.c ****   {
2097:Drivers/STM32G4xx_HAL_Driver/Src/stm32g4xx_hal_pcd.c ****     /* multi-packet on the NON control IN endpoint */
2098:Drivers/STM32G4xx_HAL_Driver/Src/stm32g4xx_hal_pcd.c ****     TxPctSize = (uint16_t)PCD_GET_EP_DBUF1_CNT(hpcd->Instance, ep->num);
2099:Drivers/STM32G4xx_HAL_Driver/Src/stm32g4xx_hal_pcd.c **** 
2100:Drivers/STM32G4xx_HAL_Driver/Src/stm32g4xx_hal_pcd.c ****     if (ep->xfer_len >= TxPctSize)
2101:Drivers/STM32G4xx_HAL_Driver/Src/stm32g4xx_hal_pcd.c ****     {
2102:Drivers/STM32G4xx_HAL_Driver/Src/stm32g4xx_hal_pcd.c ****       ep->xfer_len -= TxPctSize;
2103:Drivers/STM32G4xx_HAL_Driver/Src/stm32g4xx_hal_pcd.c ****     }
2104:Drivers/STM32G4xx_HAL_Driver/Src/stm32g4xx_hal_pcd.c ****     else
2105:Drivers/STM32G4xx_HAL_Driver/Src/stm32g4xx_hal_pcd.c ****     {
2106:Drivers/STM32G4xx_HAL_Driver/Src/stm32g4xx_hal_pcd.c ****       ep->xfer_len = 0U;
2107:Drivers/STM32G4xx_HAL_Driver/Src/stm32g4xx_hal_pcd.c ****     }
2108:Drivers/STM32G4xx_HAL_Driver/Src/stm32g4xx_hal_pcd.c **** 
2109:Drivers/STM32G4xx_HAL_Driver/Src/stm32g4xx_hal_pcd.c ****     /* Transfer is completed */
2110:Drivers/STM32G4xx_HAL_Driver/Src/stm32g4xx_hal_pcd.c ****     if (ep->xfer_len == 0U)
2111:Drivers/STM32G4xx_HAL_Driver/Src/stm32g4xx_hal_pcd.c ****     {
2112:Drivers/STM32G4xx_HAL_Driver/Src/stm32g4xx_hal_pcd.c ****       PCD_SET_EP_DBUF0_CNT(hpcd->Instance, ep->num, ep->is_in, 0U);
2113:Drivers/STM32G4xx_HAL_Driver/Src/stm32g4xx_hal_pcd.c ****       PCD_SET_EP_DBUF1_CNT(hpcd->Instance, ep->num, ep->is_in, 0U);
2114:Drivers/STM32G4xx_HAL_Driver/Src/stm32g4xx_hal_pcd.c **** 
2115:Drivers/STM32G4xx_HAL_Driver/Src/stm32g4xx_hal_pcd.c ****       if (ep->type == EP_TYPE_BULK)
2116:Drivers/STM32G4xx_HAL_Driver/Src/stm32g4xx_hal_pcd.c ****       {
2117:Drivers/STM32G4xx_HAL_Driver/Src/stm32g4xx_hal_pcd.c ****         /* Set Bulk endpoint in NAK state */
2118:Drivers/STM32G4xx_HAL_Driver/Src/stm32g4xx_hal_pcd.c ****         PCD_SET_EP_TX_STATUS(hpcd->Instance, ep->num, USB_EP_TX_NAK);
2119:Drivers/STM32G4xx_HAL_Driver/Src/stm32g4xx_hal_pcd.c ****       }
2120:Drivers/STM32G4xx_HAL_Driver/Src/stm32g4xx_hal_pcd.c **** 
2121:Drivers/STM32G4xx_HAL_Driver/Src/stm32g4xx_hal_pcd.c ****       /* TX COMPLETE */
2122:Drivers/STM32G4xx_HAL_Driver/Src/stm32g4xx_hal_pcd.c **** #if (USE_HAL_PCD_REGISTER_CALLBACKS == 1U)
2123:Drivers/STM32G4xx_HAL_Driver/Src/stm32g4xx_hal_pcd.c ****       hpcd->DataInStageCallback(hpcd, ep->num);
2124:Drivers/STM32G4xx_HAL_Driver/Src/stm32g4xx_hal_pcd.c **** #else
2125:Drivers/STM32G4xx_HAL_Driver/Src/stm32g4xx_hal_pcd.c ****       HAL_PCD_DataInStageCallback(hpcd, ep->num);
2126:Drivers/STM32G4xx_HAL_Driver/Src/stm32g4xx_hal_pcd.c **** #endif /* USE_HAL_PCD_REGISTER_CALLBACKS */
2127:Drivers/STM32G4xx_HAL_Driver/Src/stm32g4xx_hal_pcd.c **** 
2128:Drivers/STM32G4xx_HAL_Driver/Src/stm32g4xx_hal_pcd.c ****       /* need to Free USB Buff */
2129:Drivers/STM32G4xx_HAL_Driver/Src/stm32g4xx_hal_pcd.c ****       if ((wEPVal & USB_EP_DTOG_RX) == 0U)
2130:Drivers/STM32G4xx_HAL_Driver/Src/stm32g4xx_hal_pcd.c ****       {
ARM GAS  /tmp/ccXaRXaA.s 			page 56


2131:Drivers/STM32G4xx_HAL_Driver/Src/stm32g4xx_hal_pcd.c ****         PCD_FREE_USER_BUFFER(hpcd->Instance, ep->num, 1U);
2132:Drivers/STM32G4xx_HAL_Driver/Src/stm32g4xx_hal_pcd.c ****       }
2133:Drivers/STM32G4xx_HAL_Driver/Src/stm32g4xx_hal_pcd.c **** 
2134:Drivers/STM32G4xx_HAL_Driver/Src/stm32g4xx_hal_pcd.c ****       return HAL_OK;
2135:Drivers/STM32G4xx_HAL_Driver/Src/stm32g4xx_hal_pcd.c ****     }
2136:Drivers/STM32G4xx_HAL_Driver/Src/stm32g4xx_hal_pcd.c ****     else /* Transfer is not yet Done */
2137:Drivers/STM32G4xx_HAL_Driver/Src/stm32g4xx_hal_pcd.c ****     {
2138:Drivers/STM32G4xx_HAL_Driver/Src/stm32g4xx_hal_pcd.c ****       /* Need to Free USB Buffer */
2139:Drivers/STM32G4xx_HAL_Driver/Src/stm32g4xx_hal_pcd.c ****       if ((wEPVal & USB_EP_DTOG_RX) == 0U)
2140:Drivers/STM32G4xx_HAL_Driver/Src/stm32g4xx_hal_pcd.c ****       {
2141:Drivers/STM32G4xx_HAL_Driver/Src/stm32g4xx_hal_pcd.c ****         PCD_FREE_USER_BUFFER(hpcd->Instance, ep->num, 1U);
2142:Drivers/STM32G4xx_HAL_Driver/Src/stm32g4xx_hal_pcd.c ****       }
2143:Drivers/STM32G4xx_HAL_Driver/Src/stm32g4xx_hal_pcd.c **** 
2144:Drivers/STM32G4xx_HAL_Driver/Src/stm32g4xx_hal_pcd.c ****       /* Still there is data to Fill in the next Buffer */
2145:Drivers/STM32G4xx_HAL_Driver/Src/stm32g4xx_hal_pcd.c ****       if (ep->xfer_fill_db == 1U)
2146:Drivers/STM32G4xx_HAL_Driver/Src/stm32g4xx_hal_pcd.c ****       {
2147:Drivers/STM32G4xx_HAL_Driver/Src/stm32g4xx_hal_pcd.c ****         ep->xfer_buff += TxPctSize;
2148:Drivers/STM32G4xx_HAL_Driver/Src/stm32g4xx_hal_pcd.c ****         ep->xfer_count += TxPctSize;
2149:Drivers/STM32G4xx_HAL_Driver/Src/stm32g4xx_hal_pcd.c **** 
2150:Drivers/STM32G4xx_HAL_Driver/Src/stm32g4xx_hal_pcd.c ****         /* Calculate the len of the new buffer to fill */
2151:Drivers/STM32G4xx_HAL_Driver/Src/stm32g4xx_hal_pcd.c ****         if (ep->xfer_len_db >= ep->maxpacket)
2152:Drivers/STM32G4xx_HAL_Driver/Src/stm32g4xx_hal_pcd.c ****         {
2153:Drivers/STM32G4xx_HAL_Driver/Src/stm32g4xx_hal_pcd.c ****           len = ep->maxpacket;
2154:Drivers/STM32G4xx_HAL_Driver/Src/stm32g4xx_hal_pcd.c ****           ep->xfer_len_db -= len;
2155:Drivers/STM32G4xx_HAL_Driver/Src/stm32g4xx_hal_pcd.c ****         }
2156:Drivers/STM32G4xx_HAL_Driver/Src/stm32g4xx_hal_pcd.c ****         else if (ep->xfer_len_db == 0U)
2157:Drivers/STM32G4xx_HAL_Driver/Src/stm32g4xx_hal_pcd.c ****         {
2158:Drivers/STM32G4xx_HAL_Driver/Src/stm32g4xx_hal_pcd.c ****           len = TxPctSize;
2159:Drivers/STM32G4xx_HAL_Driver/Src/stm32g4xx_hal_pcd.c ****           ep->xfer_fill_db = 0U;
2160:Drivers/STM32G4xx_HAL_Driver/Src/stm32g4xx_hal_pcd.c ****         }
2161:Drivers/STM32G4xx_HAL_Driver/Src/stm32g4xx_hal_pcd.c ****         else
2162:Drivers/STM32G4xx_HAL_Driver/Src/stm32g4xx_hal_pcd.c ****         {
2163:Drivers/STM32G4xx_HAL_Driver/Src/stm32g4xx_hal_pcd.c ****           len = ep->xfer_len_db;
2164:Drivers/STM32G4xx_HAL_Driver/Src/stm32g4xx_hal_pcd.c ****           ep->xfer_len_db = 0U;
2165:Drivers/STM32G4xx_HAL_Driver/Src/stm32g4xx_hal_pcd.c ****           ep->xfer_fill_db = 0;
2166:Drivers/STM32G4xx_HAL_Driver/Src/stm32g4xx_hal_pcd.c ****         }
2167:Drivers/STM32G4xx_HAL_Driver/Src/stm32g4xx_hal_pcd.c **** 
2168:Drivers/STM32G4xx_HAL_Driver/Src/stm32g4xx_hal_pcd.c ****         /* Set the Double buffer counter for pma buffer1 */
2169:Drivers/STM32G4xx_HAL_Driver/Src/stm32g4xx_hal_pcd.c ****         PCD_SET_EP_DBUF1_CNT(hpcd->Instance, ep->num, ep->is_in, len);
2170:Drivers/STM32G4xx_HAL_Driver/Src/stm32g4xx_hal_pcd.c **** 
2171:Drivers/STM32G4xx_HAL_Driver/Src/stm32g4xx_hal_pcd.c ****         /* Copy the user buffer to USB PMA */
2172:Drivers/STM32G4xx_HAL_Driver/Src/stm32g4xx_hal_pcd.c ****         USB_WritePMA(hpcd->Instance, ep->xfer_buff,  ep->pmaaddr1, (uint16_t)len);
2173:Drivers/STM32G4xx_HAL_Driver/Src/stm32g4xx_hal_pcd.c ****       }
2174:Drivers/STM32G4xx_HAL_Driver/Src/stm32g4xx_hal_pcd.c ****     }
2175:Drivers/STM32G4xx_HAL_Driver/Src/stm32g4xx_hal_pcd.c ****   }
2176:Drivers/STM32G4xx_HAL_Driver/Src/stm32g4xx_hal_pcd.c **** 
2177:Drivers/STM32G4xx_HAL_Driver/Src/stm32g4xx_hal_pcd.c ****   /* Enable endpoint IN */
2178:Drivers/STM32G4xx_HAL_Driver/Src/stm32g4xx_hal_pcd.c ****   PCD_SET_EP_TX_STATUS(hpcd->Instance, ep->num, USB_EP_TX_VALID);
 840              		.loc 1 2178 3 is_stmt 1 view .LVU265
 841              	.LBB7:
 842              		.loc 1 2178 3 view .LVU266
 843              		.loc 1 2178 3 view .LVU267
 844 0064 2A68     		ldr	r2, [r5]
 845 0066 2178     		ldrb	r1, [r4]	@ zero_extendqisi2
 846 0068 32F82130 		ldrh	r3, [r2, r1, lsl #2]
 847 006c 9BB2     		uxth	r3, r3
 848 006e 23F4E043 		bic	r3, r3, #28672
ARM GAS  /tmp/ccXaRXaA.s 			page 57


 849 0072 23F04003 		bic	r3, r3, #64
 850              	.LVL82:
 851              		.loc 1 2178 3 view .LVU268
 852              		.loc 1 2178 3 discriminator 1 view .LVU269
 853              		.loc 1 2178 3 discriminator 3 view .LVU270
 854              		.loc 1 2178 3 discriminator 4 view .LVU271
 855 0076 83F03003 		eor	r3, r3, #48
 856              	.LVL83:
 857              		.loc 1 2178 3 discriminator 6 view .LVU272
 858 007a 43F40043 		orr	r3, r3, #32768
 859              	.LVL84:
 860              		.loc 1 2178 3 is_stmt 0 discriminator 6 view .LVU273
 861 007e 43F08003 		orr	r3, r3, #128
 862 0082 22F82130 		strh	r3, [r2, r1, lsl #2]	@ movhi
 863              	.LBE7:
 864              		.loc 1 2178 3 is_stmt 1 view .LVU274
2179:Drivers/STM32G4xx_HAL_Driver/Src/stm32g4xx_hal_pcd.c **** 
2180:Drivers/STM32G4xx_HAL_Driver/Src/stm32g4xx_hal_pcd.c ****   return HAL_OK;
 865              		.loc 1 2180 3 view .LVU275
 866              	.LVL85:
 867              	.L64:
2181:Drivers/STM32G4xx_HAL_Driver/Src/stm32g4xx_hal_pcd.c **** }
 868              		.loc 1 2181 1 is_stmt 0 view .LVU276
 869 0086 0020     		movs	r0, #0
 870 0088 70BD     		pop	{r4, r5, r6, pc}
 871              	.LVL86:
 872              	.L55:
2025:Drivers/STM32G4xx_HAL_Driver/Src/stm32g4xx_hal_pcd.c ****     }
 873              		.loc 1 2025 7 is_stmt 1 view .LVU277
2025:Drivers/STM32G4xx_HAL_Driver/Src/stm32g4xx_hal_pcd.c ****     }
 874              		.loc 1 2025 20 is_stmt 0 view .LVU278
 875 008a 0023     		movs	r3, #0
 876 008c A361     		str	r3, [r4, #24]
 877 008e D1E7     		b	.L56
 878              	.LVL87:
 879              	.L96:
2031:Drivers/STM32G4xx_HAL_Driver/Src/stm32g4xx_hal_pcd.c ****       PCD_SET_EP_DBUF1_CNT(hpcd->Instance, ep->num, ep->is_in, 0U);
 880              		.loc 1 2031 7 is_stmt 1 view .LVU279
2031:Drivers/STM32G4xx_HAL_Driver/Src/stm32g4xx_hal_pcd.c ****       PCD_SET_EP_DBUF1_CNT(hpcd->Instance, ep->num, ep->is_in, 0U);
 881              		.loc 1 2031 7 view .LVU280
 882 0090 6378     		ldrb	r3, [r4, #1]	@ zero_extendqisi2
 883 0092 002B     		cmp	r3, #0
 884 0094 48D1     		bne	.L58
2031:Drivers/STM32G4xx_HAL_Driver/Src/stm32g4xx_hal_pcd.c ****       PCD_SET_EP_DBUF1_CNT(hpcd->Instance, ep->num, ep->is_in, 0U);
 885              		.loc 1 2031 7 discriminator 1 view .LVU281
 886              	.LBB8:
2031:Drivers/STM32G4xx_HAL_Driver/Src/stm32g4xx_hal_pcd.c ****       PCD_SET_EP_DBUF1_CNT(hpcd->Instance, ep->num, ep->is_in, 0U);
 887              		.loc 1 2031 7 discriminator 1 view .LVU282
 888 0096 2A68     		ldr	r2, [r5]
 889              	.LVL88:
2031:Drivers/STM32G4xx_HAL_Driver/Src/stm32g4xx_hal_pcd.c ****       PCD_SET_EP_DBUF1_CNT(hpcd->Instance, ep->num, ep->is_in, 0U);
 890              		.loc 1 2031 7 view .LVU283
2031:Drivers/STM32G4xx_HAL_Driver/Src/stm32g4xx_hal_pcd.c ****       PCD_SET_EP_DBUF1_CNT(hpcd->Instance, ep->num, ep->is_in, 0U);
 891              		.loc 1 2031 7 view .LVU284
2031:Drivers/STM32G4xx_HAL_Driver/Src/stm32g4xx_hal_pcd.c ****       PCD_SET_EP_DBUF1_CNT(hpcd->Instance, ep->num, ep->is_in, 0U);
 892              		.loc 1 2031 7 is_stmt 0 discriminator 1 view .LVU285
 893 0098 B2F85030 		ldrh	r3, [r2, #80]
ARM GAS  /tmp/ccXaRXaA.s 			page 58


 894 009c 12FA83F3 		uxtah	r3, r2, r3
 895              	.LVL89:
2031:Drivers/STM32G4xx_HAL_Driver/Src/stm32g4xx_hal_pcd.c ****       PCD_SET_EP_DBUF1_CNT(hpcd->Instance, ep->num, ep->is_in, 0U);
 896              		.loc 1 2031 7 is_stmt 1 view .LVU286
2031:Drivers/STM32G4xx_HAL_Driver/Src/stm32g4xx_hal_pcd.c ****       PCD_SET_EP_DBUF1_CNT(hpcd->Instance, ep->num, ep->is_in, 0U);
 897              		.loc 1 2031 7 is_stmt 0 discriminator 1 view .LVU287
 898 00a0 6344     		add	r3, r3, ip
 899              	.LVL90:
2031:Drivers/STM32G4xx_HAL_Driver/Src/stm32g4xx_hal_pcd.c ****       PCD_SET_EP_DBUF1_CNT(hpcd->Instance, ep->num, ep->is_in, 0U);
 900              		.loc 1 2031 7 is_stmt 1 view .LVU288
 901              	.LBB9:
2031:Drivers/STM32G4xx_HAL_Driver/Src/stm32g4xx_hal_pcd.c ****       PCD_SET_EP_DBUF1_CNT(hpcd->Instance, ep->num, ep->is_in, 0U);
 902              		.loc 1 2031 7 view .LVU289
2031:Drivers/STM32G4xx_HAL_Driver/Src/stm32g4xx_hal_pcd.c ****       PCD_SET_EP_DBUF1_CNT(hpcd->Instance, ep->num, ep->is_in, 0U);
 903              		.loc 1 2031 7 view .LVU290
2031:Drivers/STM32G4xx_HAL_Driver/Src/stm32g4xx_hal_pcd.c ****       PCD_SET_EP_DBUF1_CNT(hpcd->Instance, ep->num, ep->is_in, 0U);
 904              		.loc 1 2031 7 is_stmt 0 discriminator 1 view .LVU291
 905 00a2 B3F80224 		ldrh	r2, [r3, #1026]
 906 00a6 C2F30902 		ubfx	r2, r2, #0, #10
 907 00aa A3F80224 		strh	r2, [r3, #1026]	@ movhi
2031:Drivers/STM32G4xx_HAL_Driver/Src/stm32g4xx_hal_pcd.c ****       PCD_SET_EP_DBUF1_CNT(hpcd->Instance, ep->num, ep->is_in, 0U);
 908              		.loc 1 2031 7 is_stmt 1 view .LVU292
2031:Drivers/STM32G4xx_HAL_Driver/Src/stm32g4xx_hal_pcd.c ****       PCD_SET_EP_DBUF1_CNT(hpcd->Instance, ep->num, ep->is_in, 0U);
 909              		.loc 1 2031 7 discriminator 3 view .LVU293
 910 00ae B3F80224 		ldrh	r2, [r3, #1026]
 911 00b2 6FEA4242 		mvn	r2, r2, lsl #17
 912 00b6 6FEA5242 		mvn	r2, r2, lsr #17
 913 00ba 92B2     		uxth	r2, r2
 914 00bc A3F80224 		strh	r2, [r3, #1026]	@ movhi
2031:Drivers/STM32G4xx_HAL_Driver/Src/stm32g4xx_hal_pcd.c ****       PCD_SET_EP_DBUF1_CNT(hpcd->Instance, ep->num, ep->is_in, 0U);
 915              		.loc 1 2031 7 discriminator 15 view .LVU294
 916              	.LBE9:
2031:Drivers/STM32G4xx_HAL_Driver/Src/stm32g4xx_hal_pcd.c ****       PCD_SET_EP_DBUF1_CNT(hpcd->Instance, ep->num, ep->is_in, 0U);
 917              		.loc 1 2031 7 discriminator 15 view .LVU295
 918              	.LBE8:
2031:Drivers/STM32G4xx_HAL_Driver/Src/stm32g4xx_hal_pcd.c ****       PCD_SET_EP_DBUF1_CNT(hpcd->Instance, ep->num, ep->is_in, 0U);
 919              		.loc 1 2031 7 discriminator 15 view .LVU296
 920              	.LVL91:
 921              	.L59:
2031:Drivers/STM32G4xx_HAL_Driver/Src/stm32g4xx_hal_pcd.c ****       PCD_SET_EP_DBUF1_CNT(hpcd->Instance, ep->num, ep->is_in, 0U);
 922              		.loc 1 2031 7 discriminator 18 view .LVU297
2031:Drivers/STM32G4xx_HAL_Driver/Src/stm32g4xx_hal_pcd.c ****       PCD_SET_EP_DBUF1_CNT(hpcd->Instance, ep->num, ep->is_in, 0U);
 923              		.loc 1 2031 7 discriminator 18 view .LVU298
2032:Drivers/STM32G4xx_HAL_Driver/Src/stm32g4xx_hal_pcd.c **** 
 924              		.loc 1 2032 7 view .LVU299
 925              	.LBB10:
2032:Drivers/STM32G4xx_HAL_Driver/Src/stm32g4xx_hal_pcd.c **** 
 926              		.loc 1 2032 7 view .LVU300
 927 00c0 2A68     		ldr	r2, [r5]
 928              	.LVL92:
2032:Drivers/STM32G4xx_HAL_Driver/Src/stm32g4xx_hal_pcd.c **** 
 929              		.loc 1 2032 7 view .LVU301
2032:Drivers/STM32G4xx_HAL_Driver/Src/stm32g4xx_hal_pcd.c **** 
 930              		.loc 1 2032 7 view .LVU302
 931 00c2 6378     		ldrb	r3, [r4, #1]	@ zero_extendqisi2
 932 00c4 002B     		cmp	r3, #0
 933 00c6 3BD1     		bne	.L60
ARM GAS  /tmp/ccXaRXaA.s 			page 59


2032:Drivers/STM32G4xx_HAL_Driver/Src/stm32g4xx_hal_pcd.c **** 
 934              		.loc 1 2032 7 discriminator 1 view .LVU303
 935              	.LBB11:
2032:Drivers/STM32G4xx_HAL_Driver/Src/stm32g4xx_hal_pcd.c **** 
 936              		.loc 1 2032 7 discriminator 1 view .LVU304
 937              	.LVL93:
2032:Drivers/STM32G4xx_HAL_Driver/Src/stm32g4xx_hal_pcd.c **** 
 938              		.loc 1 2032 7 view .LVU305
2032:Drivers/STM32G4xx_HAL_Driver/Src/stm32g4xx_hal_pcd.c **** 
 939              		.loc 1 2032 7 view .LVU306
2032:Drivers/STM32G4xx_HAL_Driver/Src/stm32g4xx_hal_pcd.c **** 
 940              		.loc 1 2032 7 is_stmt 0 discriminator 1 view .LVU307
 941 00c8 B2F85030 		ldrh	r3, [r2, #80]
 942 00cc 12FA83F3 		uxtah	r3, r2, r3
 943              	.LVL94:
2032:Drivers/STM32G4xx_HAL_Driver/Src/stm32g4xx_hal_pcd.c **** 
 944              		.loc 1 2032 7 is_stmt 1 view .LVU308
2032:Drivers/STM32G4xx_HAL_Driver/Src/stm32g4xx_hal_pcd.c **** 
 945              		.loc 1 2032 7 is_stmt 0 discriminator 1 view .LVU309
 946 00d0 2278     		ldrb	r2, [r4]	@ zero_extendqisi2
 947              	.LVL95:
2032:Drivers/STM32G4xx_HAL_Driver/Src/stm32g4xx_hal_pcd.c **** 
 948              		.loc 1 2032 7 discriminator 1 view .LVU310
 949 00d2 03EBC203 		add	r3, r3, r2, lsl #3
 950              	.LVL96:
2032:Drivers/STM32G4xx_HAL_Driver/Src/stm32g4xx_hal_pcd.c **** 
 951              		.loc 1 2032 7 is_stmt 1 view .LVU311
 952              	.LBB12:
2032:Drivers/STM32G4xx_HAL_Driver/Src/stm32g4xx_hal_pcd.c **** 
 953              		.loc 1 2032 7 view .LVU312
2032:Drivers/STM32G4xx_HAL_Driver/Src/stm32g4xx_hal_pcd.c **** 
 954              		.loc 1 2032 7 view .LVU313
2032:Drivers/STM32G4xx_HAL_Driver/Src/stm32g4xx_hal_pcd.c **** 
 955              		.loc 1 2032 7 is_stmt 0 discriminator 1 view .LVU314
 956 00d6 B3F80624 		ldrh	r2, [r3, #1030]
 957 00da C2F30902 		ubfx	r2, r2, #0, #10
 958 00de A3F80624 		strh	r2, [r3, #1030]	@ movhi
 959              	.LVL97:
2032:Drivers/STM32G4xx_HAL_Driver/Src/stm32g4xx_hal_pcd.c **** 
 960              		.loc 1 2032 7 is_stmt 1 view .LVU315
2032:Drivers/STM32G4xx_HAL_Driver/Src/stm32g4xx_hal_pcd.c **** 
 961              		.loc 1 2032 7 discriminator 3 view .LVU316
 962 00e2 B3F80624 		ldrh	r2, [r3, #1030]
 963 00e6 6FEA4242 		mvn	r2, r2, lsl #17
 964 00ea 6FEA5242 		mvn	r2, r2, lsr #17
 965 00ee 92B2     		uxth	r2, r2
 966 00f0 A3F80624 		strh	r2, [r3, #1030]	@ movhi
2032:Drivers/STM32G4xx_HAL_Driver/Src/stm32g4xx_hal_pcd.c **** 
 967              		.loc 1 2032 7 discriminator 15 view .LVU317
 968              	.LBE12:
2032:Drivers/STM32G4xx_HAL_Driver/Src/stm32g4xx_hal_pcd.c **** 
 969              		.loc 1 2032 7 discriminator 15 view .LVU318
 970              	.LBE11:
2032:Drivers/STM32G4xx_HAL_Driver/Src/stm32g4xx_hal_pcd.c **** 
 971              		.loc 1 2032 7 discriminator 15 view .LVU319
 972              	.LVL98:
 973              	.L61:
ARM GAS  /tmp/ccXaRXaA.s 			page 60


2032:Drivers/STM32G4xx_HAL_Driver/Src/stm32g4xx_hal_pcd.c **** 
 974              		.loc 1 2032 7 is_stmt 0 discriminator 15 view .LVU320
 975              	.LBE10:
2032:Drivers/STM32G4xx_HAL_Driver/Src/stm32g4xx_hal_pcd.c **** 
 976              		.loc 1 2032 7 is_stmt 1 discriminator 18 view .LVU321
2034:Drivers/STM32G4xx_HAL_Driver/Src/stm32g4xx_hal_pcd.c ****       {
 977              		.loc 1 2034 7 view .LVU322
2034:Drivers/STM32G4xx_HAL_Driver/Src/stm32g4xx_hal_pcd.c ****       {
 978              		.loc 1 2034 13 is_stmt 0 view .LVU323
 979 00f4 E378     		ldrb	r3, [r4, #3]	@ zero_extendqisi2
2034:Drivers/STM32G4xx_HAL_Driver/Src/stm32g4xx_hal_pcd.c ****       {
 980              		.loc 1 2034 10 view .LVU324
 981 00f6 022B     		cmp	r3, #2
 982 00f8 2FD0     		beq	.L98
 983              	.L62:
2037:Drivers/STM32G4xx_HAL_Driver/Src/stm32g4xx_hal_pcd.c ****       }
 984              		.loc 1 2037 9 is_stmt 1 discriminator 7 view .LVU325
2044:Drivers/STM32G4xx_HAL_Driver/Src/stm32g4xx_hal_pcd.c **** #endif /* USE_HAL_PCD_REGISTER_CALLBACKS */
 985              		.loc 1 2044 7 view .LVU326
 986 00fa 2178     		ldrb	r1, [r4]	@ zero_extendqisi2
 987 00fc 2846     		mov	r0, r5
 988 00fe FFF7FEFF 		bl	HAL_PCD_DataInStageCallback
 989              	.LVL99:
2047:Drivers/STM32G4xx_HAL_Driver/Src/stm32g4xx_hal_pcd.c ****       {
 990              		.loc 1 2047 7 view .LVU327
2047:Drivers/STM32G4xx_HAL_Driver/Src/stm32g4xx_hal_pcd.c ****       {
 991              		.loc 1 2047 10 is_stmt 0 view .LVU328
 992 0102 16F4804F 		tst	r6, #16384
 993 0106 BED0     		beq	.L64
2049:Drivers/STM32G4xx_HAL_Driver/Src/stm32g4xx_hal_pcd.c ****       }
 994              		.loc 1 2049 9 is_stmt 1 view .LVU329
2049:Drivers/STM32G4xx_HAL_Driver/Src/stm32g4xx_hal_pcd.c ****       }
 995              		.loc 1 2049 9 view .LVU330
2049:Drivers/STM32G4xx_HAL_Driver/Src/stm32g4xx_hal_pcd.c ****       }
 996              		.loc 1 2049 9 discriminator 2 view .LVU331
2049:Drivers/STM32G4xx_HAL_Driver/Src/stm32g4xx_hal_pcd.c ****       }
 997              		.loc 1 2049 9 discriminator 4 view .LVU332
 998              	.LBB13:
2049:Drivers/STM32G4xx_HAL_Driver/Src/stm32g4xx_hal_pcd.c ****       }
 999              		.loc 1 2049 9 discriminator 4 view .LVU333
2049:Drivers/STM32G4xx_HAL_Driver/Src/stm32g4xx_hal_pcd.c ****       }
 1000              		.loc 1 2049 9 discriminator 4 view .LVU334
 1001 0108 2A68     		ldr	r2, [r5]
 1002 010a 2178     		ldrb	r1, [r4]	@ zero_extendqisi2
 1003 010c 32F82130 		ldrh	r3, [r2, r1, lsl #2]
 1004 0110 9BB2     		uxth	r3, r3
 1005 0112 23F4E043 		bic	r3, r3, #28672
 1006 0116 23F07003 		bic	r3, r3, #112
 1007              	.LVL100:
2049:Drivers/STM32G4xx_HAL_Driver/Src/stm32g4xx_hal_pcd.c ****       }
 1008              		.loc 1 2049 9 view .LVU335
2049:Drivers/STM32G4xx_HAL_Driver/Src/stm32g4xx_hal_pcd.c ****       }
 1009              		.loc 1 2049 9 is_stmt 0 discriminator 4 view .LVU336
 1010 011a 43F44043 		orr	r3, r3, #49152
 1011              	.LVL101:
2049:Drivers/STM32G4xx_HAL_Driver/Src/stm32g4xx_hal_pcd.c ****       }
 1012              		.loc 1 2049 9 discriminator 4 view .LVU337
ARM GAS  /tmp/ccXaRXaA.s 			page 61


 1013 011e 43F08003 		orr	r3, r3, #128
 1014 0122 22F82130 		strh	r3, [r2, r1, lsl #2]	@ movhi
 1015              	.LBE13:
2049:Drivers/STM32G4xx_HAL_Driver/Src/stm32g4xx_hal_pcd.c ****       }
 1016              		.loc 1 2049 9 is_stmt 1 discriminator 6 view .LVU338
2049:Drivers/STM32G4xx_HAL_Driver/Src/stm32g4xx_hal_pcd.c ****       }
 1017              		.loc 1 2049 9 discriminator 6 view .LVU339
2052:Drivers/STM32G4xx_HAL_Driver/Src/stm32g4xx_hal_pcd.c ****     }
 1018              		.loc 1 2052 7 view .LVU340
2052:Drivers/STM32G4xx_HAL_Driver/Src/stm32g4xx_hal_pcd.c ****     }
 1019              		.loc 1 2052 14 is_stmt 0 view .LVU341
 1020 0126 AEE7     		b	.L64
 1021              	.LVL102:
 1022              	.L58:
2031:Drivers/STM32G4xx_HAL_Driver/Src/stm32g4xx_hal_pcd.c ****       PCD_SET_EP_DBUF1_CNT(hpcd->Instance, ep->num, ep->is_in, 0U);
 1023              		.loc 1 2031 7 is_stmt 1 discriminator 2 view .LVU342
 1024 0128 012B     		cmp	r3, #1
 1025 012a C9D1     		bne	.L59
2031:Drivers/STM32G4xx_HAL_Driver/Src/stm32g4xx_hal_pcd.c ****       PCD_SET_EP_DBUF1_CNT(hpcd->Instance, ep->num, ep->is_in, 0U);
 1026              		.loc 1 2031 7 discriminator 16 view .LVU343
 1027              	.LBB14:
2031:Drivers/STM32G4xx_HAL_Driver/Src/stm32g4xx_hal_pcd.c ****       PCD_SET_EP_DBUF1_CNT(hpcd->Instance, ep->num, ep->is_in, 0U);
 1028              		.loc 1 2031 7 discriminator 16 view .LVU344
 1029 012c 2A68     		ldr	r2, [r5]
 1030              	.LVL103:
2031:Drivers/STM32G4xx_HAL_Driver/Src/stm32g4xx_hal_pcd.c ****       PCD_SET_EP_DBUF1_CNT(hpcd->Instance, ep->num, ep->is_in, 0U);
 1031              		.loc 1 2031 7 view .LVU345
2031:Drivers/STM32G4xx_HAL_Driver/Src/stm32g4xx_hal_pcd.c ****       PCD_SET_EP_DBUF1_CNT(hpcd->Instance, ep->num, ep->is_in, 0U);
 1032              		.loc 1 2031 7 view .LVU346
2031:Drivers/STM32G4xx_HAL_Driver/Src/stm32g4xx_hal_pcd.c ****       PCD_SET_EP_DBUF1_CNT(hpcd->Instance, ep->num, ep->is_in, 0U);
 1033              		.loc 1 2031 7 is_stmt 0 discriminator 16 view .LVU347
 1034 012e B2F85030 		ldrh	r3, [r2, #80]
 1035 0132 12FA83F3 		uxtah	r3, r2, r3
 1036              	.LVL104:
2031:Drivers/STM32G4xx_HAL_Driver/Src/stm32g4xx_hal_pcd.c ****       PCD_SET_EP_DBUF1_CNT(hpcd->Instance, ep->num, ep->is_in, 0U);
 1037              		.loc 1 2031 7 is_stmt 1 view .LVU348
2031:Drivers/STM32G4xx_HAL_Driver/Src/stm32g4xx_hal_pcd.c ****       PCD_SET_EP_DBUF1_CNT(hpcd->Instance, ep->num, ep->is_in, 0U);
 1038              		.loc 1 2031 7 is_stmt 0 discriminator 16 view .LVU349
 1039 0136 6344     		add	r3, r3, ip
 1040              	.LVL105:
2031:Drivers/STM32G4xx_HAL_Driver/Src/stm32g4xx_hal_pcd.c ****       PCD_SET_EP_DBUF1_CNT(hpcd->Instance, ep->num, ep->is_in, 0U);
 1041              		.loc 1 2031 7 is_stmt 1 view .LVU350
2031:Drivers/STM32G4xx_HAL_Driver/Src/stm32g4xx_hal_pcd.c ****       PCD_SET_EP_DBUF1_CNT(hpcd->Instance, ep->num, ep->is_in, 0U);
 1042              		.loc 1 2031 7 is_stmt 0 discriminator 16 view .LVU351
 1043 0138 0022     		movs	r2, #0
 1044 013a A3F80224 		strh	r2, [r3, #1026]	@ movhi
 1045 013e BFE7     		b	.L59
 1046              	.LVL106:
 1047              	.L60:
2031:Drivers/STM32G4xx_HAL_Driver/Src/stm32g4xx_hal_pcd.c ****       PCD_SET_EP_DBUF1_CNT(hpcd->Instance, ep->num, ep->is_in, 0U);
 1048              		.loc 1 2031 7 discriminator 16 view .LVU352
 1049              	.LBE14:
 1050              	.LBB15:
2032:Drivers/STM32G4xx_HAL_Driver/Src/stm32g4xx_hal_pcd.c **** 
 1051              		.loc 1 2032 7 is_stmt 1 discriminator 2 view .LVU353
 1052 0140 012B     		cmp	r3, #1
 1053 0142 D7D1     		bne	.L61
ARM GAS  /tmp/ccXaRXaA.s 			page 62


2032:Drivers/STM32G4xx_HAL_Driver/Src/stm32g4xx_hal_pcd.c **** 
 1054              		.loc 1 2032 7 discriminator 16 view .LVU354
 1055 0144 B2F85030 		ldrh	r3, [r2, #80]
 1056 0148 12FA83F3 		uxtah	r3, r2, r3
 1057              	.LVL107:
2032:Drivers/STM32G4xx_HAL_Driver/Src/stm32g4xx_hal_pcd.c **** 
 1058              		.loc 1 2032 7 view .LVU355
2032:Drivers/STM32G4xx_HAL_Driver/Src/stm32g4xx_hal_pcd.c **** 
 1059              		.loc 1 2032 7 is_stmt 0 discriminator 16 view .LVU356
 1060 014c 2278     		ldrb	r2, [r4]	@ zero_extendqisi2
 1061 014e 03EBC203 		add	r3, r3, r2, lsl #3
 1062              	.LVL108:
2032:Drivers/STM32G4xx_HAL_Driver/Src/stm32g4xx_hal_pcd.c **** 
 1063              		.loc 1 2032 7 is_stmt 1 view .LVU357
2032:Drivers/STM32G4xx_HAL_Driver/Src/stm32g4xx_hal_pcd.c **** 
 1064              		.loc 1 2032 7 is_stmt 0 discriminator 16 view .LVU358
 1065 0152 0022     		movs	r2, #0
 1066 0154 A3F80624 		strh	r2, [r3, #1030]	@ movhi
 1067 0158 CCE7     		b	.L61
 1068              	.LVL109:
 1069              	.L98:
2032:Drivers/STM32G4xx_HAL_Driver/Src/stm32g4xx_hal_pcd.c **** 
 1070              		.loc 1 2032 7 discriminator 16 view .LVU359
 1071              	.LBE15:
2037:Drivers/STM32G4xx_HAL_Driver/Src/stm32g4xx_hal_pcd.c ****       }
 1072              		.loc 1 2037 9 is_stmt 1 view .LVU360
 1073              	.LBB16:
2037:Drivers/STM32G4xx_HAL_Driver/Src/stm32g4xx_hal_pcd.c ****       }
 1074              		.loc 1 2037 9 view .LVU361
2037:Drivers/STM32G4xx_HAL_Driver/Src/stm32g4xx_hal_pcd.c ****       }
 1075              		.loc 1 2037 9 view .LVU362
 1076 015a 2A68     		ldr	r2, [r5]
 1077 015c 2178     		ldrb	r1, [r4]	@ zero_extendqisi2
 1078 015e 32F82130 		ldrh	r3, [r2, r1, lsl #2]
 1079 0162 9BB2     		uxth	r3, r3
 1080 0164 23F4E043 		bic	r3, r3, #28672
 1081 0168 23F04003 		bic	r3, r3, #64
 1082              	.LVL110:
2037:Drivers/STM32G4xx_HAL_Driver/Src/stm32g4xx_hal_pcd.c ****       }
 1083              		.loc 1 2037 9 view .LVU363
2037:Drivers/STM32G4xx_HAL_Driver/Src/stm32g4xx_hal_pcd.c ****       }
 1084              		.loc 1 2037 9 discriminator 3 view .LVU364
2037:Drivers/STM32G4xx_HAL_Driver/Src/stm32g4xx_hal_pcd.c ****       }
 1085              		.loc 1 2037 9 discriminator 4 view .LVU365
 1086 016c 83F02003 		eor	r3, r3, #32
 1087              	.LVL111:
2037:Drivers/STM32G4xx_HAL_Driver/Src/stm32g4xx_hal_pcd.c ****       }
 1088              		.loc 1 2037 9 discriminator 6 view .LVU366
 1089 0170 43F40043 		orr	r3, r3, #32768
 1090              	.LVL112:
2037:Drivers/STM32G4xx_HAL_Driver/Src/stm32g4xx_hal_pcd.c ****       }
 1091              		.loc 1 2037 9 is_stmt 0 discriminator 6 view .LVU367
 1092 0174 43F08003 		orr	r3, r3, #128
 1093 0178 22F82130 		strh	r3, [r2, r1, lsl #2]	@ movhi
 1094 017c BDE7     		b	.L62
 1095              	.LVL113:
 1096              	.L97:
ARM GAS  /tmp/ccXaRXaA.s 			page 63


2037:Drivers/STM32G4xx_HAL_Driver/Src/stm32g4xx_hal_pcd.c ****       }
 1097              		.loc 1 2037 9 discriminator 6 view .LVU368
 1098              	.LBE16:
2065:Drivers/STM32G4xx_HAL_Driver/Src/stm32g4xx_hal_pcd.c ****         ep->xfer_count += TxPctSize;
 1099              		.loc 1 2065 9 is_stmt 1 view .LVU369
2065:Drivers/STM32G4xx_HAL_Driver/Src/stm32g4xx_hal_pcd.c ****         ep->xfer_count += TxPctSize;
 1100              		.loc 1 2065 11 is_stmt 0 view .LVU370
 1101 017e 6369     		ldr	r3, [r4, #20]
2065:Drivers/STM32G4xx_HAL_Driver/Src/stm32g4xx_hal_pcd.c ****         ep->xfer_count += TxPctSize;
 1102              		.loc 1 2065 23 view .LVU371
 1103 0180 1344     		add	r3, r3, r2
 1104 0182 6361     		str	r3, [r4, #20]
2066:Drivers/STM32G4xx_HAL_Driver/Src/stm32g4xx_hal_pcd.c **** 
 1105              		.loc 1 2066 9 is_stmt 1 view .LVU372
2066:Drivers/STM32G4xx_HAL_Driver/Src/stm32g4xx_hal_pcd.c **** 
 1106              		.loc 1 2066 11 is_stmt 0 view .LVU373
 1107 0184 E369     		ldr	r3, [r4, #28]
2066:Drivers/STM32G4xx_HAL_Driver/Src/stm32g4xx_hal_pcd.c **** 
 1108              		.loc 1 2066 24 view .LVU374
 1109 0186 1344     		add	r3, r3, r2
 1110 0188 E361     		str	r3, [r4, #28]
2069:Drivers/STM32G4xx_HAL_Driver/Src/stm32g4xx_hal_pcd.c ****         {
 1111              		.loc 1 2069 9 is_stmt 1 view .LVU375
2069:Drivers/STM32G4xx_HAL_Driver/Src/stm32g4xx_hal_pcd.c ****         {
 1112              		.loc 1 2069 15 is_stmt 0 view .LVU376
 1113 018a 216A     		ldr	r1, [r4, #32]
2069:Drivers/STM32G4xx_HAL_Driver/Src/stm32g4xx_hal_pcd.c ****         {
 1114              		.loc 1 2069 34 view .LVU377
 1115 018c 2369     		ldr	r3, [r4, #16]
2069:Drivers/STM32G4xx_HAL_Driver/Src/stm32g4xx_hal_pcd.c ****         {
 1116              		.loc 1 2069 12 view .LVU378
 1117 018e 9942     		cmp	r1, r3
 1118 0190 1DD3     		bcc	.L67
2071:Drivers/STM32G4xx_HAL_Driver/Src/stm32g4xx_hal_pcd.c ****           ep->xfer_len_db -= len;
 1119              		.loc 1 2071 11 is_stmt 1 view .LVU379
 1120              	.LVL114:
2072:Drivers/STM32G4xx_HAL_Driver/Src/stm32g4xx_hal_pcd.c ****         }
 1121              		.loc 1 2072 11 view .LVU380
2072:Drivers/STM32G4xx_HAL_Driver/Src/stm32g4xx_hal_pcd.c ****         }
 1122              		.loc 1 2072 27 is_stmt 0 view .LVU381
 1123 0192 C91A     		subs	r1, r1, r3
 1124 0194 2162     		str	r1, [r4, #32]
 1125              	.L68:
2088:Drivers/STM32G4xx_HAL_Driver/Src/stm32g4xx_hal_pcd.c **** 
 1126              		.loc 1 2088 9 is_stmt 1 view .LVU382
2088:Drivers/STM32G4xx_HAL_Driver/Src/stm32g4xx_hal_pcd.c **** 
 1127              		.loc 1 2088 9 view .LVU383
 1128 0196 6278     		ldrb	r2, [r4, #1]	@ zero_extendqisi2
 1129              	.LVL115:
2088:Drivers/STM32G4xx_HAL_Driver/Src/stm32g4xx_hal_pcd.c **** 
 1130              		.loc 1 2088 9 is_stmt 0 view .LVU384
 1131 0198 002A     		cmp	r2, #0
 1132 019a 44D1     		bne	.L70
2088:Drivers/STM32G4xx_HAL_Driver/Src/stm32g4xx_hal_pcd.c **** 
 1133              		.loc 1 2088 9 is_stmt 1 discriminator 1 view .LVU385
 1134              	.LBB17:
2088:Drivers/STM32G4xx_HAL_Driver/Src/stm32g4xx_hal_pcd.c **** 
ARM GAS  /tmp/ccXaRXaA.s 			page 64


 1135              		.loc 1 2088 9 discriminator 1 view .LVU386
 1136 019c 2968     		ldr	r1, [r5]
 1137              	.LVL116:
2088:Drivers/STM32G4xx_HAL_Driver/Src/stm32g4xx_hal_pcd.c **** 
 1138              		.loc 1 2088 9 view .LVU387
2088:Drivers/STM32G4xx_HAL_Driver/Src/stm32g4xx_hal_pcd.c **** 
 1139              		.loc 1 2088 9 view .LVU388
2088:Drivers/STM32G4xx_HAL_Driver/Src/stm32g4xx_hal_pcd.c **** 
 1140              		.loc 1 2088 9 is_stmt 0 discriminator 1 view .LVU389
 1141 019e B1F85020 		ldrh	r2, [r1, #80]
 1142 01a2 11FA82F2 		uxtah	r2, r1, r2
 1143              	.LVL117:
2088:Drivers/STM32G4xx_HAL_Driver/Src/stm32g4xx_hal_pcd.c **** 
 1144              		.loc 1 2088 9 is_stmt 1 view .LVU390
2088:Drivers/STM32G4xx_HAL_Driver/Src/stm32g4xx_hal_pcd.c **** 
 1145              		.loc 1 2088 9 is_stmt 0 discriminator 1 view .LVU391
 1146 01a6 2178     		ldrb	r1, [r4]	@ zero_extendqisi2
 1147 01a8 02EBC102 		add	r2, r2, r1, lsl #3
 1148              	.LVL118:
2088:Drivers/STM32G4xx_HAL_Driver/Src/stm32g4xx_hal_pcd.c **** 
 1149              		.loc 1 2088 9 is_stmt 1 view .LVU392
 1150              	.LBB18:
2088:Drivers/STM32G4xx_HAL_Driver/Src/stm32g4xx_hal_pcd.c **** 
 1151              		.loc 1 2088 9 view .LVU393
2088:Drivers/STM32G4xx_HAL_Driver/Src/stm32g4xx_hal_pcd.c **** 
 1152              		.loc 1 2088 9 view .LVU394
2088:Drivers/STM32G4xx_HAL_Driver/Src/stm32g4xx_hal_pcd.c **** 
 1153              		.loc 1 2088 9 is_stmt 0 discriminator 1 view .LVU395
 1154 01ac B2F80214 		ldrh	r1, [r2, #1026]
 1155 01b0 C1F30901 		ubfx	r1, r1, #0, #10
 1156 01b4 A2F80214 		strh	r1, [r2, #1026]	@ movhi
2088:Drivers/STM32G4xx_HAL_Driver/Src/stm32g4xx_hal_pcd.c **** 
 1157              		.loc 1 2088 9 is_stmt 1 view .LVU396
2088:Drivers/STM32G4xx_HAL_Driver/Src/stm32g4xx_hal_pcd.c **** 
 1158              		.loc 1 2088 9 is_stmt 0 discriminator 1 view .LVU397
 1159 01b8 ABB9     		cbnz	r3, .L71
2088:Drivers/STM32G4xx_HAL_Driver/Src/stm32g4xx_hal_pcd.c **** 
 1160              		.loc 1 2088 9 is_stmt 1 discriminator 3 view .LVU398
 1161 01ba B2F80214 		ldrh	r1, [r2, #1026]
 1162 01be 6FEA4141 		mvn	r1, r1, lsl #17
 1163 01c2 6FEA5141 		mvn	r1, r1, lsr #17
 1164 01c6 89B2     		uxth	r1, r1
 1165 01c8 A2F80214 		strh	r1, [r2, #1026]	@ movhi
 1166 01cc 2DE0     		b	.L72
 1167              	.LVL119:
 1168              	.L67:
2088:Drivers/STM32G4xx_HAL_Driver/Src/stm32g4xx_hal_pcd.c **** 
 1169              		.loc 1 2088 9 is_stmt 0 discriminator 3 view .LVU399
 1170              	.LBE18:
 1171              	.LBE17:
2074:Drivers/STM32G4xx_HAL_Driver/Src/stm32g4xx_hal_pcd.c ****         {
 1172              		.loc 1 2074 14 is_stmt 1 view .LVU400
2074:Drivers/STM32G4xx_HAL_Driver/Src/stm32g4xx_hal_pcd.c ****         {
 1173              		.loc 1 2074 17 is_stmt 0 view .LVU401
 1174 01ce 21B9     		cbnz	r1, .L69
2076:Drivers/STM32G4xx_HAL_Driver/Src/stm32g4xx_hal_pcd.c ****           ep->xfer_fill_db = 0U;
 1175              		.loc 1 2076 11 is_stmt 1 view .LVU402
ARM GAS  /tmp/ccXaRXaA.s 			page 65


 1176              	.LVL120:
2077:Drivers/STM32G4xx_HAL_Driver/Src/stm32g4xx_hal_pcd.c ****         }
 1177              		.loc 1 2077 11 view .LVU403
2077:Drivers/STM32G4xx_HAL_Driver/Src/stm32g4xx_hal_pcd.c ****         }
 1178              		.loc 1 2077 28 is_stmt 0 view .LVU404
 1179 01d0 0023     		movs	r3, #0
 1180 01d2 84F82430 		strb	r3, [r4, #36]
2076:Drivers/STM32G4xx_HAL_Driver/Src/stm32g4xx_hal_pcd.c ****           ep->xfer_fill_db = 0U;
 1181              		.loc 1 2076 15 view .LVU405
 1182 01d6 1346     		mov	r3, r2
 1183 01d8 DDE7     		b	.L68
 1184              	.LVL121:
 1185              	.L69:
2081:Drivers/STM32G4xx_HAL_Driver/Src/stm32g4xx_hal_pcd.c ****           len = ep->xfer_len_db;
 1186              		.loc 1 2081 11 is_stmt 1 view .LVU406
2081:Drivers/STM32G4xx_HAL_Driver/Src/stm32g4xx_hal_pcd.c ****           len = ep->xfer_len_db;
 1187              		.loc 1 2081 28 is_stmt 0 view .LVU407
 1188 01da 0023     		movs	r3, #0
 1189 01dc 84F82430 		strb	r3, [r4, #36]
2082:Drivers/STM32G4xx_HAL_Driver/Src/stm32g4xx_hal_pcd.c ****           ep->xfer_len_db = 0U;
 1190              		.loc 1 2082 11 is_stmt 1 view .LVU408
 1191              	.LVL122:
2083:Drivers/STM32G4xx_HAL_Driver/Src/stm32g4xx_hal_pcd.c ****         }
 1192              		.loc 1 2083 11 view .LVU409
2083:Drivers/STM32G4xx_HAL_Driver/Src/stm32g4xx_hal_pcd.c ****         }
 1193              		.loc 1 2083 27 is_stmt 0 view .LVU410
 1194 01e0 2362     		str	r3, [r4, #32]
2082:Drivers/STM32G4xx_HAL_Driver/Src/stm32g4xx_hal_pcd.c ****           ep->xfer_len_db = 0U;
 1195              		.loc 1 2082 15 view .LVU411
 1196 01e2 0B46     		mov	r3, r1
 1197 01e4 D7E7     		b	.L68
 1198              	.LVL123:
 1199              	.L71:
 1200              	.LBB20:
 1201              	.LBB19:
2088:Drivers/STM32G4xx_HAL_Driver/Src/stm32g4xx_hal_pcd.c **** 
 1202              		.loc 1 2088 9 is_stmt 1 discriminator 4 view .LVU412
 1203 01e6 3E2B     		cmp	r3, #62
 1204 01e8 0DD8     		bhi	.L73
2088:Drivers/STM32G4xx_HAL_Driver/Src/stm32g4xx_hal_pcd.c **** 
 1205              		.loc 1 2088 9 discriminator 6 view .LVU413
2088:Drivers/STM32G4xx_HAL_Driver/Src/stm32g4xx_hal_pcd.c **** 
 1206              		.loc 1 2088 9 discriminator 6 view .LVU414
 1207 01ea 5908     		lsrs	r1, r3, #1
 1208              	.LVL124:
2088:Drivers/STM32G4xx_HAL_Driver/Src/stm32g4xx_hal_pcd.c **** 
 1209              		.loc 1 2088 9 view .LVU415
2088:Drivers/STM32G4xx_HAL_Driver/Src/stm32g4xx_hal_pcd.c **** 
 1210              		.loc 1 2088 9 is_stmt 0 discriminator 6 view .LVU416
 1211 01ec 13F0010F 		tst	r3, #1
 1212 01f0 00D0     		beq	.L74
2088:Drivers/STM32G4xx_HAL_Driver/Src/stm32g4xx_hal_pcd.c **** 
 1213              		.loc 1 2088 9 is_stmt 1 discriminator 8 view .LVU417
 1214 01f2 0131     		adds	r1, r1, #1
 1215              	.LVL125:
 1216              	.L74:
2088:Drivers/STM32G4xx_HAL_Driver/Src/stm32g4xx_hal_pcd.c **** 
ARM GAS  /tmp/ccXaRXaA.s 			page 66


 1217              		.loc 1 2088 9 discriminator 10 view .LVU418
 1218 01f4 B2F80204 		ldrh	r0, [r2, #1026]
 1219 01f8 80B2     		uxth	r0, r0
 1220 01fa 8902     		lsls	r1, r1, #10
 1221              	.LVL126:
2088:Drivers/STM32G4xx_HAL_Driver/Src/stm32g4xx_hal_pcd.c **** 
 1222              		.loc 1 2088 9 is_stmt 0 discriminator 10 view .LVU419
 1223 01fc 89B2     		uxth	r1, r1
 1224 01fe 0143     		orrs	r1, r1, r0
 1225 0200 A2F80214 		strh	r1, [r2, #1026]	@ movhi
2088:Drivers/STM32G4xx_HAL_Driver/Src/stm32g4xx_hal_pcd.c **** 
 1226              		.loc 1 2088 9 is_stmt 1 view .LVU420
 1227 0204 11E0     		b	.L72
 1228              	.LVL127:
 1229              	.L73:
2088:Drivers/STM32G4xx_HAL_Driver/Src/stm32g4xx_hal_pcd.c **** 
 1230              		.loc 1 2088 9 discriminator 7 view .LVU421
2088:Drivers/STM32G4xx_HAL_Driver/Src/stm32g4xx_hal_pcd.c **** 
 1231              		.loc 1 2088 9 discriminator 7 view .LVU422
 1232 0206 5809     		lsrs	r0, r3, #5
 1233              	.LVL128:
2088:Drivers/STM32G4xx_HAL_Driver/Src/stm32g4xx_hal_pcd.c **** 
 1234              		.loc 1 2088 9 view .LVU423
2088:Drivers/STM32G4xx_HAL_Driver/Src/stm32g4xx_hal_pcd.c **** 
 1235              		.loc 1 2088 9 is_stmt 0 discriminator 7 view .LVU424
 1236 0208 13F01F0F 		tst	r3, #31
 1237 020c 00D1     		bne	.L75
2088:Drivers/STM32G4xx_HAL_Driver/Src/stm32g4xx_hal_pcd.c **** 
 1238              		.loc 1 2088 9 is_stmt 1 discriminator 12 view .LVU425
 1239 020e 0138     		subs	r0, r0, #1
 1240              	.LVL129:
 1241              	.L75:
2088:Drivers/STM32G4xx_HAL_Driver/Src/stm32g4xx_hal_pcd.c **** 
 1242              		.loc 1 2088 9 discriminator 14 view .LVU426
 1243 0210 B2F80214 		ldrh	r1, [r2, #1026]
 1244 0214 89B2     		uxth	r1, r1
 1245 0216 8002     		lsls	r0, r0, #10
 1246              	.LVL130:
2088:Drivers/STM32G4xx_HAL_Driver/Src/stm32g4xx_hal_pcd.c **** 
 1247              		.loc 1 2088 9 is_stmt 0 discriminator 14 view .LVU427
 1248 0218 80B2     		uxth	r0, r0
 1249 021a 0143     		orrs	r1, r1, r0
 1250 021c 41F40041 		orr	r1, r1, #32768
 1251 0220 A2F80214 		strh	r1, [r2, #1026]	@ movhi
 1252 0224 01E0     		b	.L72
 1253              	.LVL131:
 1254              	.L70:
2088:Drivers/STM32G4xx_HAL_Driver/Src/stm32g4xx_hal_pcd.c **** 
 1255              		.loc 1 2088 9 discriminator 14 view .LVU428
 1256              	.LBE19:
 1257              	.LBE20:
2088:Drivers/STM32G4xx_HAL_Driver/Src/stm32g4xx_hal_pcd.c **** 
 1258              		.loc 1 2088 9 is_stmt 1 discriminator 2 view .LVU429
 1259 0226 012A     		cmp	r2, #1
 1260 0228 06D0     		beq	.L99
 1261              	.L72:
2088:Drivers/STM32G4xx_HAL_Driver/Src/stm32g4xx_hal_pcd.c **** 
ARM GAS  /tmp/ccXaRXaA.s 			page 67


 1262              		.loc 1 2088 9 discriminator 18 view .LVU430
2088:Drivers/STM32G4xx_HAL_Driver/Src/stm32g4xx_hal_pcd.c **** 
 1263              		.loc 1 2088 9 discriminator 18 view .LVU431
2091:Drivers/STM32G4xx_HAL_Driver/Src/stm32g4xx_hal_pcd.c ****       }
 1264              		.loc 1 2091 9 view .LVU432
 1265 022a 9BB2     		uxth	r3, r3
 1266              	.LVL132:
2091:Drivers/STM32G4xx_HAL_Driver/Src/stm32g4xx_hal_pcd.c ****       }
 1267              		.loc 1 2091 9 is_stmt 0 view .LVU433
 1268 022c 2289     		ldrh	r2, [r4, #8]
 1269 022e 6169     		ldr	r1, [r4, #20]
 1270 0230 2868     		ldr	r0, [r5]
 1271 0232 FFF7FEFF 		bl	USB_WritePMA
 1272              	.LVL133:
 1273 0236 15E7     		b	.L66
 1274              	.LVL134:
 1275              	.L99:
2088:Drivers/STM32G4xx_HAL_Driver/Src/stm32g4xx_hal_pcd.c **** 
 1276              		.loc 1 2088 9 is_stmt 1 discriminator 16 view .LVU434
 1277              	.LBB21:
2088:Drivers/STM32G4xx_HAL_Driver/Src/stm32g4xx_hal_pcd.c **** 
 1278              		.loc 1 2088 9 discriminator 16 view .LVU435
 1279 0238 2968     		ldr	r1, [r5]
 1280              	.LVL135:
2088:Drivers/STM32G4xx_HAL_Driver/Src/stm32g4xx_hal_pcd.c **** 
 1281              		.loc 1 2088 9 view .LVU436
2088:Drivers/STM32G4xx_HAL_Driver/Src/stm32g4xx_hal_pcd.c **** 
 1282              		.loc 1 2088 9 view .LVU437
2088:Drivers/STM32G4xx_HAL_Driver/Src/stm32g4xx_hal_pcd.c **** 
 1283              		.loc 1 2088 9 is_stmt 0 discriminator 16 view .LVU438
 1284 023a B1F85020 		ldrh	r2, [r1, #80]
 1285 023e 11FA82F2 		uxtah	r2, r1, r2
 1286              	.LVL136:
2088:Drivers/STM32G4xx_HAL_Driver/Src/stm32g4xx_hal_pcd.c **** 
 1287              		.loc 1 2088 9 is_stmt 1 view .LVU439
2088:Drivers/STM32G4xx_HAL_Driver/Src/stm32g4xx_hal_pcd.c **** 
 1288              		.loc 1 2088 9 is_stmt 0 discriminator 16 view .LVU440
 1289 0242 2178     		ldrb	r1, [r4]	@ zero_extendqisi2
 1290 0244 02EBC102 		add	r2, r2, r1, lsl #3
 1291              	.LVL137:
2088:Drivers/STM32G4xx_HAL_Driver/Src/stm32g4xx_hal_pcd.c **** 
 1292              		.loc 1 2088 9 is_stmt 1 view .LVU441
2088:Drivers/STM32G4xx_HAL_Driver/Src/stm32g4xx_hal_pcd.c **** 
 1293              		.loc 1 2088 9 is_stmt 0 discriminator 16 view .LVU442
 1294 0248 99B2     		uxth	r1, r3
 1295 024a A2F80214 		strh	r1, [r2, #1026]	@ movhi
 1296 024e ECE7     		b	.L72
 1297              	.LVL138:
 1298              	.L54:
2088:Drivers/STM32G4xx_HAL_Driver/Src/stm32g4xx_hal_pcd.c **** 
 1299              		.loc 1 2088 9 discriminator 16 view .LVU443
 1300              	.LBE21:
2098:Drivers/STM32G4xx_HAL_Driver/Src/stm32g4xx_hal_pcd.c **** 
 1301              		.loc 1 2098 5 is_stmt 1 view .LVU444
2098:Drivers/STM32G4xx_HAL_Driver/Src/stm32g4xx_hal_pcd.c **** 
 1302              		.loc 1 2098 27 is_stmt 0 view .LVU445
 1303 0250 0268     		ldr	r2, [r0]
ARM GAS  /tmp/ccXaRXaA.s 			page 68


 1304              	.LVL139:
2098:Drivers/STM32G4xx_HAL_Driver/Src/stm32g4xx_hal_pcd.c **** 
 1305              		.loc 1 2098 27 view .LVU446
 1306 0252 B2F85030 		ldrh	r3, [r2, #80]
 1307 0256 0978     		ldrb	r1, [r1]	@ zero_extendqisi2
 1308              	.LVL140:
2098:Drivers/STM32G4xx_HAL_Driver/Src/stm32g4xx_hal_pcd.c **** 
 1309              		.loc 1 2098 27 view .LVU447
 1310 0258 C800     		lsls	r0, r1, #3
 1311              	.LVL141:
2098:Drivers/STM32G4xx_HAL_Driver/Src/stm32g4xx_hal_pcd.c **** 
 1312              		.loc 1 2098 27 view .LVU448
 1313 025a 10FA83F3 		uxtah	r3, r0, r3
 1314 025e 1344     		add	r3, r3, r2
 1315 0260 B3F80624 		ldrh	r2, [r3, #1030]
2098:Drivers/STM32G4xx_HAL_Driver/Src/stm32g4xx_hal_pcd.c **** 
 1316              		.loc 1 2098 15 view .LVU449
 1317 0264 C2F30902 		ubfx	r2, r2, #0, #10
 1318              	.LVL142:
2100:Drivers/STM32G4xx_HAL_Driver/Src/stm32g4xx_hal_pcd.c ****     {
 1319              		.loc 1 2100 5 is_stmt 1 view .LVU450
2100:Drivers/STM32G4xx_HAL_Driver/Src/stm32g4xx_hal_pcd.c ****     {
 1320              		.loc 1 2100 11 is_stmt 0 view .LVU451
 1321 0268 A369     		ldr	r3, [r4, #24]
2100:Drivers/STM32G4xx_HAL_Driver/Src/stm32g4xx_hal_pcd.c ****     {
 1322              		.loc 1 2100 8 view .LVU452
 1323 026a 9342     		cmp	r3, r2
 1324 026c 46D3     		bcc	.L76
2102:Drivers/STM32G4xx_HAL_Driver/Src/stm32g4xx_hal_pcd.c ****     }
 1325              		.loc 1 2102 7 is_stmt 1 view .LVU453
2102:Drivers/STM32G4xx_HAL_Driver/Src/stm32g4xx_hal_pcd.c ****     }
 1326              		.loc 1 2102 20 is_stmt 0 view .LVU454
 1327 026e 9B1A     		subs	r3, r3, r2
 1328 0270 A361     		str	r3, [r4, #24]
 1329              	.L77:
2110:Drivers/STM32G4xx_HAL_Driver/Src/stm32g4xx_hal_pcd.c ****     {
 1330              		.loc 1 2110 5 is_stmt 1 view .LVU455
2110:Drivers/STM32G4xx_HAL_Driver/Src/stm32g4xx_hal_pcd.c ****     {
 1331              		.loc 1 2110 11 is_stmt 0 view .LVU456
 1332 0272 A369     		ldr	r3, [r4, #24]
2110:Drivers/STM32G4xx_HAL_Driver/Src/stm32g4xx_hal_pcd.c ****     {
 1333              		.loc 1 2110 8 view .LVU457
 1334 0274 002B     		cmp	r3, #0
 1335 0276 44D0     		beq	.L100
2139:Drivers/STM32G4xx_HAL_Driver/Src/stm32g4xx_hal_pcd.c ****       {
 1336              		.loc 1 2139 7 is_stmt 1 view .LVU458
2139:Drivers/STM32G4xx_HAL_Driver/Src/stm32g4xx_hal_pcd.c ****       {
 1337              		.loc 1 2139 10 is_stmt 0 view .LVU459
 1338 0278 16F4804F 		tst	r6, #16384
 1339 027c 0DD1     		bne	.L85
2141:Drivers/STM32G4xx_HAL_Driver/Src/stm32g4xx_hal_pcd.c ****       }
 1340              		.loc 1 2141 9 is_stmt 1 view .LVU460
2141:Drivers/STM32G4xx_HAL_Driver/Src/stm32g4xx_hal_pcd.c ****       }
 1341              		.loc 1 2141 9 view .LVU461
2141:Drivers/STM32G4xx_HAL_Driver/Src/stm32g4xx_hal_pcd.c ****       }
 1342              		.loc 1 2141 9 discriminator 2 view .LVU462
2141:Drivers/STM32G4xx_HAL_Driver/Src/stm32g4xx_hal_pcd.c ****       }
ARM GAS  /tmp/ccXaRXaA.s 			page 69


 1343              		.loc 1 2141 9 discriminator 4 view .LVU463
 1344              	.LBB22:
2141:Drivers/STM32G4xx_HAL_Driver/Src/stm32g4xx_hal_pcd.c ****       }
 1345              		.loc 1 2141 9 discriminator 4 view .LVU464
2141:Drivers/STM32G4xx_HAL_Driver/Src/stm32g4xx_hal_pcd.c ****       }
 1346              		.loc 1 2141 9 discriminator 4 view .LVU465
 1347 027e 2868     		ldr	r0, [r5]
 1348 0280 30F82130 		ldrh	r3, [r0, r1, lsl #2]
 1349 0284 9BB2     		uxth	r3, r3
 1350 0286 23F4E043 		bic	r3, r3, #28672
 1351 028a 23F07003 		bic	r3, r3, #112
 1352              	.LVL143:
2141:Drivers/STM32G4xx_HAL_Driver/Src/stm32g4xx_hal_pcd.c ****       }
 1353              		.loc 1 2141 9 view .LVU466
2141:Drivers/STM32G4xx_HAL_Driver/Src/stm32g4xx_hal_pcd.c ****       }
 1354              		.loc 1 2141 9 is_stmt 0 discriminator 4 view .LVU467
 1355 028e 43F44043 		orr	r3, r3, #49152
 1356              	.LVL144:
2141:Drivers/STM32G4xx_HAL_Driver/Src/stm32g4xx_hal_pcd.c ****       }
 1357              		.loc 1 2141 9 discriminator 4 view .LVU468
 1358 0292 43F08003 		orr	r3, r3, #128
 1359 0296 20F82130 		strh	r3, [r0, r1, lsl #2]	@ movhi
 1360              	.LVL145:
 1361              	.L85:
2141:Drivers/STM32G4xx_HAL_Driver/Src/stm32g4xx_hal_pcd.c ****       }
 1362              		.loc 1 2141 9 discriminator 4 view .LVU469
 1363              	.LBE22:
2141:Drivers/STM32G4xx_HAL_Driver/Src/stm32g4xx_hal_pcd.c ****       }
 1364              		.loc 1 2141 9 is_stmt 1 discriminator 6 view .LVU470
2141:Drivers/STM32G4xx_HAL_Driver/Src/stm32g4xx_hal_pcd.c ****       }
 1365              		.loc 1 2141 9 discriminator 6 view .LVU471
2145:Drivers/STM32G4xx_HAL_Driver/Src/stm32g4xx_hal_pcd.c ****       {
 1366              		.loc 1 2145 7 view .LVU472
2145:Drivers/STM32G4xx_HAL_Driver/Src/stm32g4xx_hal_pcd.c ****       {
 1367              		.loc 1 2145 13 is_stmt 0 view .LVU473
 1368 029a 94F82430 		ldrb	r3, [r4, #36]	@ zero_extendqisi2
2145:Drivers/STM32G4xx_HAL_Driver/Src/stm32g4xx_hal_pcd.c ****       {
 1369              		.loc 1 2145 10 view .LVU474
 1370 029e 012B     		cmp	r3, #1
 1371 02a0 7FF4E0AE 		bne	.L66
2147:Drivers/STM32G4xx_HAL_Driver/Src/stm32g4xx_hal_pcd.c ****         ep->xfer_count += TxPctSize;
 1372              		.loc 1 2147 9 is_stmt 1 view .LVU475
2147:Drivers/STM32G4xx_HAL_Driver/Src/stm32g4xx_hal_pcd.c ****         ep->xfer_count += TxPctSize;
 1373              		.loc 1 2147 11 is_stmt 0 view .LVU476
 1374 02a4 6369     		ldr	r3, [r4, #20]
2147:Drivers/STM32G4xx_HAL_Driver/Src/stm32g4xx_hal_pcd.c ****         ep->xfer_count += TxPctSize;
 1375              		.loc 1 2147 23 view .LVU477
 1376 02a6 1344     		add	r3, r3, r2
 1377 02a8 6361     		str	r3, [r4, #20]
2148:Drivers/STM32G4xx_HAL_Driver/Src/stm32g4xx_hal_pcd.c **** 
 1378              		.loc 1 2148 9 is_stmt 1 view .LVU478
2148:Drivers/STM32G4xx_HAL_Driver/Src/stm32g4xx_hal_pcd.c **** 
 1379              		.loc 1 2148 11 is_stmt 0 view .LVU479
 1380 02aa E369     		ldr	r3, [r4, #28]
2148:Drivers/STM32G4xx_HAL_Driver/Src/stm32g4xx_hal_pcd.c **** 
 1381              		.loc 1 2148 24 view .LVU480
 1382 02ac 1344     		add	r3, r3, r2
ARM GAS  /tmp/ccXaRXaA.s 			page 70


 1383 02ae E361     		str	r3, [r4, #28]
2151:Drivers/STM32G4xx_HAL_Driver/Src/stm32g4xx_hal_pcd.c ****         {
 1384              		.loc 1 2151 9 is_stmt 1 view .LVU481
2151:Drivers/STM32G4xx_HAL_Driver/Src/stm32g4xx_hal_pcd.c ****         {
 1385              		.loc 1 2151 15 is_stmt 0 view .LVU482
 1386 02b0 216A     		ldr	r1, [r4, #32]
2151:Drivers/STM32G4xx_HAL_Driver/Src/stm32g4xx_hal_pcd.c ****         {
 1387              		.loc 1 2151 34 view .LVU483
 1388 02b2 2369     		ldr	r3, [r4, #16]
2151:Drivers/STM32G4xx_HAL_Driver/Src/stm32g4xx_hal_pcd.c ****         {
 1389              		.loc 1 2151 12 view .LVU484
 1390 02b4 9942     		cmp	r1, r3
 1391 02b6 C0F09C80 		bcc	.L86
2153:Drivers/STM32G4xx_HAL_Driver/Src/stm32g4xx_hal_pcd.c ****           ep->xfer_len_db -= len;
 1392              		.loc 1 2153 11 is_stmt 1 view .LVU485
 1393              	.LVL146:
2154:Drivers/STM32G4xx_HAL_Driver/Src/stm32g4xx_hal_pcd.c ****         }
 1394              		.loc 1 2154 11 view .LVU486
2154:Drivers/STM32G4xx_HAL_Driver/Src/stm32g4xx_hal_pcd.c ****         }
 1395              		.loc 1 2154 27 is_stmt 0 view .LVU487
 1396 02ba C91A     		subs	r1, r1, r3
 1397 02bc 2162     		str	r1, [r4, #32]
 1398              	.L87:
2169:Drivers/STM32G4xx_HAL_Driver/Src/stm32g4xx_hal_pcd.c **** 
 1399              		.loc 1 2169 9 is_stmt 1 view .LVU488
 1400              	.LBB23:
2169:Drivers/STM32G4xx_HAL_Driver/Src/stm32g4xx_hal_pcd.c **** 
 1401              		.loc 1 2169 9 view .LVU489
 1402 02be 2968     		ldr	r1, [r5]
 1403              	.LVL147:
2169:Drivers/STM32G4xx_HAL_Driver/Src/stm32g4xx_hal_pcd.c **** 
 1404              		.loc 1 2169 9 view .LVU490
2169:Drivers/STM32G4xx_HAL_Driver/Src/stm32g4xx_hal_pcd.c **** 
 1405              		.loc 1 2169 9 view .LVU491
 1406 02c0 6278     		ldrb	r2, [r4, #1]	@ zero_extendqisi2
 1407              	.LVL148:
2169:Drivers/STM32G4xx_HAL_Driver/Src/stm32g4xx_hal_pcd.c **** 
 1408              		.loc 1 2169 9 is_stmt 0 view .LVU492
 1409 02c2 002A     		cmp	r2, #0
 1410 02c4 40F0C180 		bne	.L89
2169:Drivers/STM32G4xx_HAL_Driver/Src/stm32g4xx_hal_pcd.c **** 
 1411              		.loc 1 2169 9 is_stmt 1 discriminator 1 view .LVU493
 1412              	.LBB24:
2169:Drivers/STM32G4xx_HAL_Driver/Src/stm32g4xx_hal_pcd.c **** 
 1413              		.loc 1 2169 9 discriminator 1 view .LVU494
 1414              	.LVL149:
2169:Drivers/STM32G4xx_HAL_Driver/Src/stm32g4xx_hal_pcd.c **** 
 1415              		.loc 1 2169 9 view .LVU495
2169:Drivers/STM32G4xx_HAL_Driver/Src/stm32g4xx_hal_pcd.c **** 
 1416              		.loc 1 2169 9 view .LVU496
2169:Drivers/STM32G4xx_HAL_Driver/Src/stm32g4xx_hal_pcd.c **** 
 1417              		.loc 1 2169 9 is_stmt 0 discriminator 1 view .LVU497
 1418 02c8 B1F85020 		ldrh	r2, [r1, #80]
 1419 02cc 11FA82F2 		uxtah	r2, r1, r2
 1420              	.LVL150:
2169:Drivers/STM32G4xx_HAL_Driver/Src/stm32g4xx_hal_pcd.c **** 
 1421              		.loc 1 2169 9 is_stmt 1 view .LVU498
ARM GAS  /tmp/ccXaRXaA.s 			page 71


2169:Drivers/STM32G4xx_HAL_Driver/Src/stm32g4xx_hal_pcd.c **** 
 1422              		.loc 1 2169 9 is_stmt 0 discriminator 1 view .LVU499
 1423 02d0 2178     		ldrb	r1, [r4]	@ zero_extendqisi2
 1424              	.LVL151:
2169:Drivers/STM32G4xx_HAL_Driver/Src/stm32g4xx_hal_pcd.c **** 
 1425              		.loc 1 2169 9 discriminator 1 view .LVU500
 1426 02d2 02EBC102 		add	r2, r2, r1, lsl #3
 1427              	.LVL152:
2169:Drivers/STM32G4xx_HAL_Driver/Src/stm32g4xx_hal_pcd.c **** 
 1428              		.loc 1 2169 9 is_stmt 1 view .LVU501
 1429              	.LBB25:
2169:Drivers/STM32G4xx_HAL_Driver/Src/stm32g4xx_hal_pcd.c **** 
 1430              		.loc 1 2169 9 view .LVU502
2169:Drivers/STM32G4xx_HAL_Driver/Src/stm32g4xx_hal_pcd.c **** 
 1431              		.loc 1 2169 9 view .LVU503
2169:Drivers/STM32G4xx_HAL_Driver/Src/stm32g4xx_hal_pcd.c **** 
 1432              		.loc 1 2169 9 is_stmt 0 discriminator 1 view .LVU504
 1433 02d6 B2F80614 		ldrh	r1, [r2, #1030]
 1434 02da C1F30901 		ubfx	r1, r1, #0, #10
 1435 02de A2F80614 		strh	r1, [r2, #1030]	@ movhi
 1436              	.LVL153:
2169:Drivers/STM32G4xx_HAL_Driver/Src/stm32g4xx_hal_pcd.c **** 
 1437              		.loc 1 2169 9 is_stmt 1 view .LVU505
2169:Drivers/STM32G4xx_HAL_Driver/Src/stm32g4xx_hal_pcd.c **** 
 1438              		.loc 1 2169 9 is_stmt 0 discriminator 1 view .LVU506
 1439 02e2 002B     		cmp	r3, #0
 1440 02e4 40F09180 		bne	.L90
2169:Drivers/STM32G4xx_HAL_Driver/Src/stm32g4xx_hal_pcd.c **** 
 1441              		.loc 1 2169 9 is_stmt 1 discriminator 3 view .LVU507
 1442 02e8 B2F80614 		ldrh	r1, [r2, #1030]
 1443 02ec 6FEA4141 		mvn	r1, r1, lsl #17
 1444 02f0 6FEA5141 		mvn	r1, r1, lsr #17
 1445 02f4 89B2     		uxth	r1, r1
 1446 02f6 A2F80614 		strh	r1, [r2, #1030]	@ movhi
 1447 02fa A8E0     		b	.L91
 1448              	.LVL154:
 1449              	.L76:
2169:Drivers/STM32G4xx_HAL_Driver/Src/stm32g4xx_hal_pcd.c **** 
 1450              		.loc 1 2169 9 is_stmt 0 discriminator 3 view .LVU508
 1451              	.LBE25:
 1452              	.LBE24:
 1453              	.LBE23:
2106:Drivers/STM32G4xx_HAL_Driver/Src/stm32g4xx_hal_pcd.c ****     }
 1454              		.loc 1 2106 7 is_stmt 1 view .LVU509
2106:Drivers/STM32G4xx_HAL_Driver/Src/stm32g4xx_hal_pcd.c ****     }
 1455              		.loc 1 2106 20 is_stmt 0 view .LVU510
 1456 02fc 0023     		movs	r3, #0
 1457 02fe A361     		str	r3, [r4, #24]
 1458 0300 B7E7     		b	.L77
 1459              	.L100:
2112:Drivers/STM32G4xx_HAL_Driver/Src/stm32g4xx_hal_pcd.c ****       PCD_SET_EP_DBUF1_CNT(hpcd->Instance, ep->num, ep->is_in, 0U);
 1460              		.loc 1 2112 7 is_stmt 1 view .LVU511
2112:Drivers/STM32G4xx_HAL_Driver/Src/stm32g4xx_hal_pcd.c ****       PCD_SET_EP_DBUF1_CNT(hpcd->Instance, ep->num, ep->is_in, 0U);
 1461              		.loc 1 2112 7 view .LVU512
 1462 0302 6378     		ldrb	r3, [r4, #1]	@ zero_extendqisi2
 1463 0304 002B     		cmp	r3, #0
 1464 0306 49D1     		bne	.L79
ARM GAS  /tmp/ccXaRXaA.s 			page 72


2112:Drivers/STM32G4xx_HAL_Driver/Src/stm32g4xx_hal_pcd.c ****       PCD_SET_EP_DBUF1_CNT(hpcd->Instance, ep->num, ep->is_in, 0U);
 1465              		.loc 1 2112 7 discriminator 1 view .LVU513
 1466              	.LBB28:
2112:Drivers/STM32G4xx_HAL_Driver/Src/stm32g4xx_hal_pcd.c ****       PCD_SET_EP_DBUF1_CNT(hpcd->Instance, ep->num, ep->is_in, 0U);
 1467              		.loc 1 2112 7 discriminator 1 view .LVU514
 1468 0308 2A68     		ldr	r2, [r5]
 1469              	.LVL155:
2112:Drivers/STM32G4xx_HAL_Driver/Src/stm32g4xx_hal_pcd.c ****       PCD_SET_EP_DBUF1_CNT(hpcd->Instance, ep->num, ep->is_in, 0U);
 1470              		.loc 1 2112 7 view .LVU515
2112:Drivers/STM32G4xx_HAL_Driver/Src/stm32g4xx_hal_pcd.c ****       PCD_SET_EP_DBUF1_CNT(hpcd->Instance, ep->num, ep->is_in, 0U);
 1471              		.loc 1 2112 7 view .LVU516
2112:Drivers/STM32G4xx_HAL_Driver/Src/stm32g4xx_hal_pcd.c ****       PCD_SET_EP_DBUF1_CNT(hpcd->Instance, ep->num, ep->is_in, 0U);
 1472              		.loc 1 2112 7 is_stmt 0 discriminator 1 view .LVU517
 1473 030a B2F85030 		ldrh	r3, [r2, #80]
 1474 030e 12FA83F3 		uxtah	r3, r2, r3
 1475              	.LVL156:
2112:Drivers/STM32G4xx_HAL_Driver/Src/stm32g4xx_hal_pcd.c ****       PCD_SET_EP_DBUF1_CNT(hpcd->Instance, ep->num, ep->is_in, 0U);
 1476              		.loc 1 2112 7 is_stmt 1 view .LVU518
2112:Drivers/STM32G4xx_HAL_Driver/Src/stm32g4xx_hal_pcd.c ****       PCD_SET_EP_DBUF1_CNT(hpcd->Instance, ep->num, ep->is_in, 0U);
 1477              		.loc 1 2112 7 is_stmt 0 discriminator 1 view .LVU519
 1478 0312 0344     		add	r3, r3, r0
 1479              	.LVL157:
2112:Drivers/STM32G4xx_HAL_Driver/Src/stm32g4xx_hal_pcd.c ****       PCD_SET_EP_DBUF1_CNT(hpcd->Instance, ep->num, ep->is_in, 0U);
 1480              		.loc 1 2112 7 is_stmt 1 view .LVU520
 1481              	.LBB29:
2112:Drivers/STM32G4xx_HAL_Driver/Src/stm32g4xx_hal_pcd.c ****       PCD_SET_EP_DBUF1_CNT(hpcd->Instance, ep->num, ep->is_in, 0U);
 1482              		.loc 1 2112 7 view .LVU521
2112:Drivers/STM32G4xx_HAL_Driver/Src/stm32g4xx_hal_pcd.c ****       PCD_SET_EP_DBUF1_CNT(hpcd->Instance, ep->num, ep->is_in, 0U);
 1483              		.loc 1 2112 7 view .LVU522
2112:Drivers/STM32G4xx_HAL_Driver/Src/stm32g4xx_hal_pcd.c ****       PCD_SET_EP_DBUF1_CNT(hpcd->Instance, ep->num, ep->is_in, 0U);
 1484              		.loc 1 2112 7 is_stmt 0 discriminator 1 view .LVU523
 1485 0314 B3F80224 		ldrh	r2, [r3, #1026]
 1486 0318 C2F30902 		ubfx	r2, r2, #0, #10
 1487 031c A3F80224 		strh	r2, [r3, #1026]	@ movhi
2112:Drivers/STM32G4xx_HAL_Driver/Src/stm32g4xx_hal_pcd.c ****       PCD_SET_EP_DBUF1_CNT(hpcd->Instance, ep->num, ep->is_in, 0U);
 1488              		.loc 1 2112 7 is_stmt 1 view .LVU524
2112:Drivers/STM32G4xx_HAL_Driver/Src/stm32g4xx_hal_pcd.c ****       PCD_SET_EP_DBUF1_CNT(hpcd->Instance, ep->num, ep->is_in, 0U);
 1489              		.loc 1 2112 7 discriminator 3 view .LVU525
 1490 0320 B3F80224 		ldrh	r2, [r3, #1026]
 1491 0324 6FEA4242 		mvn	r2, r2, lsl #17
 1492 0328 6FEA5242 		mvn	r2, r2, lsr #17
 1493 032c 92B2     		uxth	r2, r2
 1494 032e A3F80224 		strh	r2, [r3, #1026]	@ movhi
2112:Drivers/STM32G4xx_HAL_Driver/Src/stm32g4xx_hal_pcd.c ****       PCD_SET_EP_DBUF1_CNT(hpcd->Instance, ep->num, ep->is_in, 0U);
 1495              		.loc 1 2112 7 discriminator 15 view .LVU526
 1496              	.LBE29:
2112:Drivers/STM32G4xx_HAL_Driver/Src/stm32g4xx_hal_pcd.c ****       PCD_SET_EP_DBUF1_CNT(hpcd->Instance, ep->num, ep->is_in, 0U);
 1497              		.loc 1 2112 7 discriminator 15 view .LVU527
 1498              	.LBE28:
2112:Drivers/STM32G4xx_HAL_Driver/Src/stm32g4xx_hal_pcd.c ****       PCD_SET_EP_DBUF1_CNT(hpcd->Instance, ep->num, ep->is_in, 0U);
 1499              		.loc 1 2112 7 discriminator 15 view .LVU528
 1500              	.LVL158:
 1501              	.L80:
2112:Drivers/STM32G4xx_HAL_Driver/Src/stm32g4xx_hal_pcd.c ****       PCD_SET_EP_DBUF1_CNT(hpcd->Instance, ep->num, ep->is_in, 0U);
 1502              		.loc 1 2112 7 discriminator 18 view .LVU529
2112:Drivers/STM32G4xx_HAL_Driver/Src/stm32g4xx_hal_pcd.c ****       PCD_SET_EP_DBUF1_CNT(hpcd->Instance, ep->num, ep->is_in, 0U);
 1503              		.loc 1 2112 7 discriminator 18 view .LVU530
ARM GAS  /tmp/ccXaRXaA.s 			page 73


2113:Drivers/STM32G4xx_HAL_Driver/Src/stm32g4xx_hal_pcd.c **** 
 1504              		.loc 1 2113 7 view .LVU531
 1505              	.LBB30:
2113:Drivers/STM32G4xx_HAL_Driver/Src/stm32g4xx_hal_pcd.c **** 
 1506              		.loc 1 2113 7 view .LVU532
 1507 0332 2A68     		ldr	r2, [r5]
 1508              	.LVL159:
2113:Drivers/STM32G4xx_HAL_Driver/Src/stm32g4xx_hal_pcd.c **** 
 1509              		.loc 1 2113 7 view .LVU533
2113:Drivers/STM32G4xx_HAL_Driver/Src/stm32g4xx_hal_pcd.c **** 
 1510              		.loc 1 2113 7 view .LVU534
 1511 0334 6378     		ldrb	r3, [r4, #1]	@ zero_extendqisi2
 1512 0336 002B     		cmp	r3, #0
 1513 0338 3CD1     		bne	.L81
2113:Drivers/STM32G4xx_HAL_Driver/Src/stm32g4xx_hal_pcd.c **** 
 1514              		.loc 1 2113 7 discriminator 1 view .LVU535
 1515              	.LBB31:
2113:Drivers/STM32G4xx_HAL_Driver/Src/stm32g4xx_hal_pcd.c **** 
 1516              		.loc 1 2113 7 discriminator 1 view .LVU536
 1517              	.LVL160:
2113:Drivers/STM32G4xx_HAL_Driver/Src/stm32g4xx_hal_pcd.c **** 
 1518              		.loc 1 2113 7 view .LVU537
2113:Drivers/STM32G4xx_HAL_Driver/Src/stm32g4xx_hal_pcd.c **** 
 1519              		.loc 1 2113 7 view .LVU538
2113:Drivers/STM32G4xx_HAL_Driver/Src/stm32g4xx_hal_pcd.c **** 
 1520              		.loc 1 2113 7 is_stmt 0 discriminator 1 view .LVU539
 1521 033a B2F85030 		ldrh	r3, [r2, #80]
 1522 033e 12FA83F3 		uxtah	r3, r2, r3
 1523              	.LVL161:
2113:Drivers/STM32G4xx_HAL_Driver/Src/stm32g4xx_hal_pcd.c **** 
 1524              		.loc 1 2113 7 is_stmt 1 view .LVU540
2113:Drivers/STM32G4xx_HAL_Driver/Src/stm32g4xx_hal_pcd.c **** 
 1525              		.loc 1 2113 7 is_stmt 0 discriminator 1 view .LVU541
 1526 0342 2278     		ldrb	r2, [r4]	@ zero_extendqisi2
 1527              	.LVL162:
2113:Drivers/STM32G4xx_HAL_Driver/Src/stm32g4xx_hal_pcd.c **** 
 1528              		.loc 1 2113 7 discriminator 1 view .LVU542
 1529 0344 03EBC203 		add	r3, r3, r2, lsl #3
 1530              	.LVL163:
2113:Drivers/STM32G4xx_HAL_Driver/Src/stm32g4xx_hal_pcd.c **** 
 1531              		.loc 1 2113 7 is_stmt 1 view .LVU543
 1532              	.LBB32:
2113:Drivers/STM32G4xx_HAL_Driver/Src/stm32g4xx_hal_pcd.c **** 
 1533              		.loc 1 2113 7 view .LVU544
2113:Drivers/STM32G4xx_HAL_Driver/Src/stm32g4xx_hal_pcd.c **** 
 1534              		.loc 1 2113 7 view .LVU545
2113:Drivers/STM32G4xx_HAL_Driver/Src/stm32g4xx_hal_pcd.c **** 
 1535              		.loc 1 2113 7 is_stmt 0 discriminator 1 view .LVU546
 1536 0348 B3F80624 		ldrh	r2, [r3, #1030]
 1537 034c C2F30902 		ubfx	r2, r2, #0, #10
 1538 0350 A3F80624 		strh	r2, [r3, #1030]	@ movhi
 1539              	.LVL164:
2113:Drivers/STM32G4xx_HAL_Driver/Src/stm32g4xx_hal_pcd.c **** 
 1540              		.loc 1 2113 7 is_stmt 1 view .LVU547
2113:Drivers/STM32G4xx_HAL_Driver/Src/stm32g4xx_hal_pcd.c **** 
 1541              		.loc 1 2113 7 discriminator 3 view .LVU548
 1542 0354 B3F80624 		ldrh	r2, [r3, #1030]
ARM GAS  /tmp/ccXaRXaA.s 			page 74


 1543 0358 6FEA4242 		mvn	r2, r2, lsl #17
 1544 035c 6FEA5242 		mvn	r2, r2, lsr #17
 1545 0360 92B2     		uxth	r2, r2
 1546 0362 A3F80624 		strh	r2, [r3, #1030]	@ movhi
2113:Drivers/STM32G4xx_HAL_Driver/Src/stm32g4xx_hal_pcd.c **** 
 1547              		.loc 1 2113 7 discriminator 15 view .LVU549
 1548              	.LBE32:
2113:Drivers/STM32G4xx_HAL_Driver/Src/stm32g4xx_hal_pcd.c **** 
 1549              		.loc 1 2113 7 discriminator 15 view .LVU550
 1550              	.LBE31:
2113:Drivers/STM32G4xx_HAL_Driver/Src/stm32g4xx_hal_pcd.c **** 
 1551              		.loc 1 2113 7 discriminator 15 view .LVU551
 1552              	.LVL165:
 1553              	.L82:
2113:Drivers/STM32G4xx_HAL_Driver/Src/stm32g4xx_hal_pcd.c **** 
 1554              		.loc 1 2113 7 is_stmt 0 discriminator 15 view .LVU552
 1555              	.LBE30:
2113:Drivers/STM32G4xx_HAL_Driver/Src/stm32g4xx_hal_pcd.c **** 
 1556              		.loc 1 2113 7 is_stmt 1 discriminator 18 view .LVU553
2115:Drivers/STM32G4xx_HAL_Driver/Src/stm32g4xx_hal_pcd.c ****       {
 1557              		.loc 1 2115 7 view .LVU554
2115:Drivers/STM32G4xx_HAL_Driver/Src/stm32g4xx_hal_pcd.c ****       {
 1558              		.loc 1 2115 13 is_stmt 0 view .LVU555
 1559 0366 E378     		ldrb	r3, [r4, #3]	@ zero_extendqisi2
2115:Drivers/STM32G4xx_HAL_Driver/Src/stm32g4xx_hal_pcd.c ****       {
 1560              		.loc 1 2115 10 view .LVU556
 1561 0368 022B     		cmp	r3, #2
 1562 036a 30D0     		beq	.L101
 1563              	.L83:
2118:Drivers/STM32G4xx_HAL_Driver/Src/stm32g4xx_hal_pcd.c ****       }
 1564              		.loc 1 2118 9 is_stmt 1 discriminator 7 view .LVU557
2125:Drivers/STM32G4xx_HAL_Driver/Src/stm32g4xx_hal_pcd.c **** #endif /* USE_HAL_PCD_REGISTER_CALLBACKS */
 1565              		.loc 1 2125 7 view .LVU558
 1566 036c 2178     		ldrb	r1, [r4]	@ zero_extendqisi2
 1567 036e 2846     		mov	r0, r5
 1568 0370 FFF7FEFF 		bl	HAL_PCD_DataInStageCallback
 1569              	.LVL166:
2129:Drivers/STM32G4xx_HAL_Driver/Src/stm32g4xx_hal_pcd.c ****       {
 1570              		.loc 1 2129 7 view .LVU559
2129:Drivers/STM32G4xx_HAL_Driver/Src/stm32g4xx_hal_pcd.c ****       {
 1571              		.loc 1 2129 10 is_stmt 0 view .LVU560
 1572 0374 16F4804F 		tst	r6, #16384
 1573 0378 7FF485AE 		bne	.L64
2131:Drivers/STM32G4xx_HAL_Driver/Src/stm32g4xx_hal_pcd.c ****       }
 1574              		.loc 1 2131 9 is_stmt 1 view .LVU561
2131:Drivers/STM32G4xx_HAL_Driver/Src/stm32g4xx_hal_pcd.c ****       }
 1575              		.loc 1 2131 9 view .LVU562
2131:Drivers/STM32G4xx_HAL_Driver/Src/stm32g4xx_hal_pcd.c ****       }
 1576              		.loc 1 2131 9 discriminator 2 view .LVU563
2131:Drivers/STM32G4xx_HAL_Driver/Src/stm32g4xx_hal_pcd.c ****       }
 1577              		.loc 1 2131 9 discriminator 4 view .LVU564
 1578              	.LBB33:
2131:Drivers/STM32G4xx_HAL_Driver/Src/stm32g4xx_hal_pcd.c ****       }
 1579              		.loc 1 2131 9 discriminator 4 view .LVU565
2131:Drivers/STM32G4xx_HAL_Driver/Src/stm32g4xx_hal_pcd.c ****       }
 1580              		.loc 1 2131 9 discriminator 4 view .LVU566
 1581 037c 2A68     		ldr	r2, [r5]
ARM GAS  /tmp/ccXaRXaA.s 			page 75


 1582 037e 2178     		ldrb	r1, [r4]	@ zero_extendqisi2
 1583 0380 32F82130 		ldrh	r3, [r2, r1, lsl #2]
 1584 0384 9BB2     		uxth	r3, r3
 1585 0386 23F4E043 		bic	r3, r3, #28672
 1586 038a 23F07003 		bic	r3, r3, #112
 1587              	.LVL167:
2131:Drivers/STM32G4xx_HAL_Driver/Src/stm32g4xx_hal_pcd.c ****       }
 1588              		.loc 1 2131 9 view .LVU567
2131:Drivers/STM32G4xx_HAL_Driver/Src/stm32g4xx_hal_pcd.c ****       }
 1589              		.loc 1 2131 9 is_stmt 0 discriminator 4 view .LVU568
 1590 038e 43F44043 		orr	r3, r3, #49152
 1591              	.LVL168:
2131:Drivers/STM32G4xx_HAL_Driver/Src/stm32g4xx_hal_pcd.c ****       }
 1592              		.loc 1 2131 9 discriminator 4 view .LVU569
 1593 0392 43F08003 		orr	r3, r3, #128
 1594 0396 22F82130 		strh	r3, [r2, r1, lsl #2]	@ movhi
 1595              	.LBE33:
2131:Drivers/STM32G4xx_HAL_Driver/Src/stm32g4xx_hal_pcd.c ****       }
 1596              		.loc 1 2131 9 is_stmt 1 discriminator 6 view .LVU570
2131:Drivers/STM32G4xx_HAL_Driver/Src/stm32g4xx_hal_pcd.c ****       }
 1597              		.loc 1 2131 9 discriminator 6 view .LVU571
2134:Drivers/STM32G4xx_HAL_Driver/Src/stm32g4xx_hal_pcd.c ****     }
 1598              		.loc 1 2134 7 view .LVU572
2134:Drivers/STM32G4xx_HAL_Driver/Src/stm32g4xx_hal_pcd.c ****     }
 1599              		.loc 1 2134 14 is_stmt 0 view .LVU573
 1600 039a 74E6     		b	.L64
 1601              	.LVL169:
 1602              	.L79:
2112:Drivers/STM32G4xx_HAL_Driver/Src/stm32g4xx_hal_pcd.c ****       PCD_SET_EP_DBUF1_CNT(hpcd->Instance, ep->num, ep->is_in, 0U);
 1603              		.loc 1 2112 7 is_stmt 1 discriminator 2 view .LVU574
 1604 039c 012B     		cmp	r3, #1
 1605 039e C8D1     		bne	.L80
2112:Drivers/STM32G4xx_HAL_Driver/Src/stm32g4xx_hal_pcd.c ****       PCD_SET_EP_DBUF1_CNT(hpcd->Instance, ep->num, ep->is_in, 0U);
 1606              		.loc 1 2112 7 discriminator 16 view .LVU575
 1607              	.LBB34:
2112:Drivers/STM32G4xx_HAL_Driver/Src/stm32g4xx_hal_pcd.c ****       PCD_SET_EP_DBUF1_CNT(hpcd->Instance, ep->num, ep->is_in, 0U);
 1608              		.loc 1 2112 7 discriminator 16 view .LVU576
 1609 03a0 2A68     		ldr	r2, [r5]
 1610              	.LVL170:
2112:Drivers/STM32G4xx_HAL_Driver/Src/stm32g4xx_hal_pcd.c ****       PCD_SET_EP_DBUF1_CNT(hpcd->Instance, ep->num, ep->is_in, 0U);
 1611              		.loc 1 2112 7 view .LVU577
2112:Drivers/STM32G4xx_HAL_Driver/Src/stm32g4xx_hal_pcd.c ****       PCD_SET_EP_DBUF1_CNT(hpcd->Instance, ep->num, ep->is_in, 0U);
 1612              		.loc 1 2112 7 view .LVU578
2112:Drivers/STM32G4xx_HAL_Driver/Src/stm32g4xx_hal_pcd.c ****       PCD_SET_EP_DBUF1_CNT(hpcd->Instance, ep->num, ep->is_in, 0U);
 1613              		.loc 1 2112 7 is_stmt 0 discriminator 16 view .LVU579
 1614 03a2 B2F85030 		ldrh	r3, [r2, #80]
 1615 03a6 12FA83F3 		uxtah	r3, r2, r3
 1616              	.LVL171:
2112:Drivers/STM32G4xx_HAL_Driver/Src/stm32g4xx_hal_pcd.c ****       PCD_SET_EP_DBUF1_CNT(hpcd->Instance, ep->num, ep->is_in, 0U);
 1617              		.loc 1 2112 7 is_stmt 1 view .LVU580
2112:Drivers/STM32G4xx_HAL_Driver/Src/stm32g4xx_hal_pcd.c ****       PCD_SET_EP_DBUF1_CNT(hpcd->Instance, ep->num, ep->is_in, 0U);
 1618              		.loc 1 2112 7 is_stmt 0 discriminator 16 view .LVU581
 1619 03aa 0344     		add	r3, r3, r0
 1620              	.LVL172:
2112:Drivers/STM32G4xx_HAL_Driver/Src/stm32g4xx_hal_pcd.c ****       PCD_SET_EP_DBUF1_CNT(hpcd->Instance, ep->num, ep->is_in, 0U);
 1621              		.loc 1 2112 7 is_stmt 1 view .LVU582
2112:Drivers/STM32G4xx_HAL_Driver/Src/stm32g4xx_hal_pcd.c ****       PCD_SET_EP_DBUF1_CNT(hpcd->Instance, ep->num, ep->is_in, 0U);
ARM GAS  /tmp/ccXaRXaA.s 			page 76


 1622              		.loc 1 2112 7 is_stmt 0 discriminator 16 view .LVU583
 1623 03ac 0022     		movs	r2, #0
 1624 03ae A3F80224 		strh	r2, [r3, #1026]	@ movhi
 1625 03b2 BEE7     		b	.L80
 1626              	.LVL173:
 1627              	.L81:
2112:Drivers/STM32G4xx_HAL_Driver/Src/stm32g4xx_hal_pcd.c ****       PCD_SET_EP_DBUF1_CNT(hpcd->Instance, ep->num, ep->is_in, 0U);
 1628              		.loc 1 2112 7 discriminator 16 view .LVU584
 1629              	.LBE34:
 1630              	.LBB35:
2113:Drivers/STM32G4xx_HAL_Driver/Src/stm32g4xx_hal_pcd.c **** 
 1631              		.loc 1 2113 7 is_stmt 1 discriminator 2 view .LVU585
 1632 03b4 012B     		cmp	r3, #1
 1633 03b6 D6D1     		bne	.L82
2113:Drivers/STM32G4xx_HAL_Driver/Src/stm32g4xx_hal_pcd.c **** 
 1634              		.loc 1 2113 7 discriminator 16 view .LVU586
 1635 03b8 B2F85030 		ldrh	r3, [r2, #80]
 1636 03bc 12FA83F3 		uxtah	r3, r2, r3
 1637              	.LVL174:
2113:Drivers/STM32G4xx_HAL_Driver/Src/stm32g4xx_hal_pcd.c **** 
 1638              		.loc 1 2113 7 view .LVU587
2113:Drivers/STM32G4xx_HAL_Driver/Src/stm32g4xx_hal_pcd.c **** 
 1639              		.loc 1 2113 7 is_stmt 0 discriminator 16 view .LVU588
 1640 03c0 2278     		ldrb	r2, [r4]	@ zero_extendqisi2
 1641 03c2 03EBC203 		add	r3, r3, r2, lsl #3
 1642              	.LVL175:
2113:Drivers/STM32G4xx_HAL_Driver/Src/stm32g4xx_hal_pcd.c **** 
 1643              		.loc 1 2113 7 is_stmt 1 view .LVU589
2113:Drivers/STM32G4xx_HAL_Driver/Src/stm32g4xx_hal_pcd.c **** 
 1644              		.loc 1 2113 7 is_stmt 0 discriminator 16 view .LVU590
 1645 03c6 0022     		movs	r2, #0
 1646 03c8 A3F80624 		strh	r2, [r3, #1030]	@ movhi
 1647 03cc CBE7     		b	.L82
 1648              	.LVL176:
 1649              	.L101:
2113:Drivers/STM32G4xx_HAL_Driver/Src/stm32g4xx_hal_pcd.c **** 
 1650              		.loc 1 2113 7 discriminator 16 view .LVU591
 1651              	.LBE35:
2118:Drivers/STM32G4xx_HAL_Driver/Src/stm32g4xx_hal_pcd.c ****       }
 1652              		.loc 1 2118 9 is_stmt 1 view .LVU592
 1653              	.LBB36:
2118:Drivers/STM32G4xx_HAL_Driver/Src/stm32g4xx_hal_pcd.c ****       }
 1654              		.loc 1 2118 9 view .LVU593
2118:Drivers/STM32G4xx_HAL_Driver/Src/stm32g4xx_hal_pcd.c ****       }
 1655              		.loc 1 2118 9 view .LVU594
 1656 03ce 2A68     		ldr	r2, [r5]
 1657 03d0 2178     		ldrb	r1, [r4]	@ zero_extendqisi2
 1658 03d2 32F82130 		ldrh	r3, [r2, r1, lsl #2]
 1659 03d6 9BB2     		uxth	r3, r3
 1660 03d8 23F4E043 		bic	r3, r3, #28672
 1661 03dc 23F04003 		bic	r3, r3, #64
 1662              	.LVL177:
2118:Drivers/STM32G4xx_HAL_Driver/Src/stm32g4xx_hal_pcd.c ****       }
 1663              		.loc 1 2118 9 view .LVU595
2118:Drivers/STM32G4xx_HAL_Driver/Src/stm32g4xx_hal_pcd.c ****       }
 1664              		.loc 1 2118 9 discriminator 3 view .LVU596
2118:Drivers/STM32G4xx_HAL_Driver/Src/stm32g4xx_hal_pcd.c ****       }
ARM GAS  /tmp/ccXaRXaA.s 			page 77


 1665              		.loc 1 2118 9 discriminator 4 view .LVU597
 1666 03e0 83F02003 		eor	r3, r3, #32
 1667              	.LVL178:
2118:Drivers/STM32G4xx_HAL_Driver/Src/stm32g4xx_hal_pcd.c ****       }
 1668              		.loc 1 2118 9 discriminator 6 view .LVU598
 1669 03e4 43F40043 		orr	r3, r3, #32768
 1670              	.LVL179:
2118:Drivers/STM32G4xx_HAL_Driver/Src/stm32g4xx_hal_pcd.c ****       }
 1671              		.loc 1 2118 9 is_stmt 0 discriminator 6 view .LVU599
 1672 03e8 43F08003 		orr	r3, r3, #128
 1673 03ec 22F82130 		strh	r3, [r2, r1, lsl #2]	@ movhi
 1674 03f0 BCE7     		b	.L83
 1675              	.LVL180:
 1676              	.L86:
2118:Drivers/STM32G4xx_HAL_Driver/Src/stm32g4xx_hal_pcd.c ****       }
 1677              		.loc 1 2118 9 discriminator 6 view .LVU600
 1678              	.LBE36:
2156:Drivers/STM32G4xx_HAL_Driver/Src/stm32g4xx_hal_pcd.c ****         {
 1679              		.loc 1 2156 14 is_stmt 1 view .LVU601
2156:Drivers/STM32G4xx_HAL_Driver/Src/stm32g4xx_hal_pcd.c ****         {
 1680              		.loc 1 2156 17 is_stmt 0 view .LVU602
 1681 03f2 21B9     		cbnz	r1, .L88
2158:Drivers/STM32G4xx_HAL_Driver/Src/stm32g4xx_hal_pcd.c ****           ep->xfer_fill_db = 0U;
 1682              		.loc 1 2158 11 is_stmt 1 view .LVU603
 1683              	.LVL181:
2159:Drivers/STM32G4xx_HAL_Driver/Src/stm32g4xx_hal_pcd.c ****         }
 1684              		.loc 1 2159 11 view .LVU604
2159:Drivers/STM32G4xx_HAL_Driver/Src/stm32g4xx_hal_pcd.c ****         }
 1685              		.loc 1 2159 28 is_stmt 0 view .LVU605
 1686 03f4 0023     		movs	r3, #0
 1687 03f6 84F82430 		strb	r3, [r4, #36]
2158:Drivers/STM32G4xx_HAL_Driver/Src/stm32g4xx_hal_pcd.c ****           ep->xfer_fill_db = 0U;
 1688              		.loc 1 2158 15 view .LVU606
 1689 03fa 1346     		mov	r3, r2
 1690 03fc 5FE7     		b	.L87
 1691              	.LVL182:
 1692              	.L88:
2163:Drivers/STM32G4xx_HAL_Driver/Src/stm32g4xx_hal_pcd.c ****           ep->xfer_len_db = 0U;
 1693              		.loc 1 2163 11 is_stmt 1 view .LVU607
2164:Drivers/STM32G4xx_HAL_Driver/Src/stm32g4xx_hal_pcd.c ****           ep->xfer_fill_db = 0;
 1694              		.loc 1 2164 11 view .LVU608
2164:Drivers/STM32G4xx_HAL_Driver/Src/stm32g4xx_hal_pcd.c ****           ep->xfer_fill_db = 0;
 1695              		.loc 1 2164 27 is_stmt 0 view .LVU609
 1696 03fe 0023     		movs	r3, #0
 1697 0400 2362     		str	r3, [r4, #32]
2165:Drivers/STM32G4xx_HAL_Driver/Src/stm32g4xx_hal_pcd.c ****         }
 1698              		.loc 1 2165 11 is_stmt 1 view .LVU610
2165:Drivers/STM32G4xx_HAL_Driver/Src/stm32g4xx_hal_pcd.c ****         }
 1699              		.loc 1 2165 28 is_stmt 0 view .LVU611
 1700 0402 84F82430 		strb	r3, [r4, #36]
2163:Drivers/STM32G4xx_HAL_Driver/Src/stm32g4xx_hal_pcd.c ****           ep->xfer_len_db = 0U;
 1701              		.loc 1 2163 15 view .LVU612
 1702 0406 0B46     		mov	r3, r1
 1703 0408 59E7     		b	.L87
 1704              	.LVL183:
 1705              	.L90:
 1706              	.LBB37:
ARM GAS  /tmp/ccXaRXaA.s 			page 78


 1707              	.LBB27:
 1708              	.LBB26:
2169:Drivers/STM32G4xx_HAL_Driver/Src/stm32g4xx_hal_pcd.c **** 
 1709              		.loc 1 2169 9 is_stmt 1 discriminator 4 view .LVU613
 1710 040a 3E2B     		cmp	r3, #62
 1711 040c 0DD8     		bhi	.L92
2169:Drivers/STM32G4xx_HAL_Driver/Src/stm32g4xx_hal_pcd.c **** 
 1712              		.loc 1 2169 9 discriminator 6 view .LVU614
2169:Drivers/STM32G4xx_HAL_Driver/Src/stm32g4xx_hal_pcd.c **** 
 1713              		.loc 1 2169 9 discriminator 6 view .LVU615
 1714 040e 5908     		lsrs	r1, r3, #1
 1715              	.LVL184:
2169:Drivers/STM32G4xx_HAL_Driver/Src/stm32g4xx_hal_pcd.c **** 
 1716              		.loc 1 2169 9 view .LVU616
2169:Drivers/STM32G4xx_HAL_Driver/Src/stm32g4xx_hal_pcd.c **** 
 1717              		.loc 1 2169 9 is_stmt 0 discriminator 6 view .LVU617
 1718 0410 13F0010F 		tst	r3, #1
 1719 0414 00D0     		beq	.L93
2169:Drivers/STM32G4xx_HAL_Driver/Src/stm32g4xx_hal_pcd.c **** 
 1720              		.loc 1 2169 9 is_stmt 1 discriminator 8 view .LVU618
 1721 0416 0131     		adds	r1, r1, #1
 1722              	.LVL185:
 1723              	.L93:
2169:Drivers/STM32G4xx_HAL_Driver/Src/stm32g4xx_hal_pcd.c **** 
 1724              		.loc 1 2169 9 discriminator 10 view .LVU619
 1725 0418 B2F80604 		ldrh	r0, [r2, #1030]
 1726 041c 80B2     		uxth	r0, r0
 1727 041e 8902     		lsls	r1, r1, #10
 1728              	.LVL186:
2169:Drivers/STM32G4xx_HAL_Driver/Src/stm32g4xx_hal_pcd.c **** 
 1729              		.loc 1 2169 9 is_stmt 0 discriminator 10 view .LVU620
 1730 0420 89B2     		uxth	r1, r1
 1731 0422 0143     		orrs	r1, r1, r0
 1732 0424 A2F80614 		strh	r1, [r2, #1030]	@ movhi
2169:Drivers/STM32G4xx_HAL_Driver/Src/stm32g4xx_hal_pcd.c **** 
 1733              		.loc 1 2169 9 is_stmt 1 view .LVU621
 1734 0428 11E0     		b	.L91
 1735              	.LVL187:
 1736              	.L92:
2169:Drivers/STM32G4xx_HAL_Driver/Src/stm32g4xx_hal_pcd.c **** 
 1737              		.loc 1 2169 9 discriminator 7 view .LVU622
2169:Drivers/STM32G4xx_HAL_Driver/Src/stm32g4xx_hal_pcd.c **** 
 1738              		.loc 1 2169 9 discriminator 7 view .LVU623
 1739 042a 5809     		lsrs	r0, r3, #5
 1740              	.LVL188:
2169:Drivers/STM32G4xx_HAL_Driver/Src/stm32g4xx_hal_pcd.c **** 
 1741              		.loc 1 2169 9 view .LVU624
2169:Drivers/STM32G4xx_HAL_Driver/Src/stm32g4xx_hal_pcd.c **** 
 1742              		.loc 1 2169 9 is_stmt 0 discriminator 7 view .LVU625
 1743 042c 13F01F0F 		tst	r3, #31
 1744 0430 00D1     		bne	.L94
2169:Drivers/STM32G4xx_HAL_Driver/Src/stm32g4xx_hal_pcd.c **** 
 1745              		.loc 1 2169 9 is_stmt 1 discriminator 12 view .LVU626
 1746 0432 0138     		subs	r0, r0, #1
 1747              	.LVL189:
 1748              	.L94:
2169:Drivers/STM32G4xx_HAL_Driver/Src/stm32g4xx_hal_pcd.c **** 
ARM GAS  /tmp/ccXaRXaA.s 			page 79


 1749              		.loc 1 2169 9 discriminator 14 view .LVU627
 1750 0434 B2F80614 		ldrh	r1, [r2, #1030]
 1751 0438 89B2     		uxth	r1, r1
 1752 043a 8002     		lsls	r0, r0, #10
 1753              	.LVL190:
2169:Drivers/STM32G4xx_HAL_Driver/Src/stm32g4xx_hal_pcd.c **** 
 1754              		.loc 1 2169 9 is_stmt 0 discriminator 14 view .LVU628
 1755 043c 80B2     		uxth	r0, r0
 1756 043e 0143     		orrs	r1, r1, r0
 1757 0440 41F40041 		orr	r1, r1, #32768
 1758 0444 A2F80614 		strh	r1, [r2, #1030]	@ movhi
 1759 0448 01E0     		b	.L91
 1760              	.LVL191:
 1761              	.L89:
2169:Drivers/STM32G4xx_HAL_Driver/Src/stm32g4xx_hal_pcd.c **** 
 1762              		.loc 1 2169 9 discriminator 14 view .LVU629
 1763              	.LBE26:
 1764              	.LBE27:
2169:Drivers/STM32G4xx_HAL_Driver/Src/stm32g4xx_hal_pcd.c **** 
 1765              		.loc 1 2169 9 is_stmt 1 discriminator 2 view .LVU630
 1766 044a 012A     		cmp	r2, #1
 1767 044c 06D0     		beq	.L102
 1768              	.LVL192:
 1769              	.L91:
2169:Drivers/STM32G4xx_HAL_Driver/Src/stm32g4xx_hal_pcd.c **** 
 1770              		.loc 1 2169 9 is_stmt 0 discriminator 2 view .LVU631
 1771              	.LBE37:
2169:Drivers/STM32G4xx_HAL_Driver/Src/stm32g4xx_hal_pcd.c **** 
 1772              		.loc 1 2169 9 is_stmt 1 discriminator 18 view .LVU632
2172:Drivers/STM32G4xx_HAL_Driver/Src/stm32g4xx_hal_pcd.c ****       }
 1773              		.loc 1 2172 9 view .LVU633
 1774 044e 9BB2     		uxth	r3, r3
 1775              	.LVL193:
2172:Drivers/STM32G4xx_HAL_Driver/Src/stm32g4xx_hal_pcd.c ****       }
 1776              		.loc 1 2172 9 is_stmt 0 view .LVU634
 1777 0450 6289     		ldrh	r2, [r4, #10]
 1778 0452 6169     		ldr	r1, [r4, #20]
 1779 0454 2868     		ldr	r0, [r5]
 1780 0456 FFF7FEFF 		bl	USB_WritePMA
 1781              	.LVL194:
 1782 045a 03E6     		b	.L66
 1783              	.LVL195:
 1784              	.L102:
 1785              	.LBB38:
2169:Drivers/STM32G4xx_HAL_Driver/Src/stm32g4xx_hal_pcd.c **** 
 1786              		.loc 1 2169 9 is_stmt 1 discriminator 16 view .LVU635
 1787 045c B1F85020 		ldrh	r2, [r1, #80]
 1788 0460 11FA82F2 		uxtah	r2, r1, r2
 1789              	.LVL196:
2169:Drivers/STM32G4xx_HAL_Driver/Src/stm32g4xx_hal_pcd.c **** 
 1790              		.loc 1 2169 9 view .LVU636
2169:Drivers/STM32G4xx_HAL_Driver/Src/stm32g4xx_hal_pcd.c **** 
 1791              		.loc 1 2169 9 is_stmt 0 discriminator 16 view .LVU637
 1792 0464 2178     		ldrb	r1, [r4]	@ zero_extendqisi2
 1793 0466 02EBC102 		add	r2, r2, r1, lsl #3
 1794              	.LVL197:
2169:Drivers/STM32G4xx_HAL_Driver/Src/stm32g4xx_hal_pcd.c **** 
ARM GAS  /tmp/ccXaRXaA.s 			page 80


 1795              		.loc 1 2169 9 is_stmt 1 view .LVU638
2169:Drivers/STM32G4xx_HAL_Driver/Src/stm32g4xx_hal_pcd.c **** 
 1796              		.loc 1 2169 9 is_stmt 0 discriminator 16 view .LVU639
 1797 046a 99B2     		uxth	r1, r3
 1798 046c A2F80614 		strh	r1, [r2, #1030]	@ movhi
 1799 0470 EDE7     		b	.L91
 1800              	.LBE38:
 1801              		.cfi_endproc
 1802              	.LFE364:
 1804              		.section	.text.HAL_PCD_SetupStageCallback,"ax",%progbits
 1805              		.align	1
 1806              		.weak	HAL_PCD_SetupStageCallback
 1807              		.syntax unified
 1808              		.thumb
 1809              		.thumb_func
 1811              	HAL_PCD_SetupStageCallback:
 1812              	.LVL198:
 1813              	.LFB338:
1108:Drivers/STM32G4xx_HAL_Driver/Src/stm32g4xx_hal_pcd.c ****   /* Prevent unused argument(s) compilation warning */
 1814              		.loc 1 1108 1 is_stmt 1 view -0
 1815              		.cfi_startproc
 1816              		@ args = 0, pretend = 0, frame = 0
 1817              		@ frame_needed = 0, uses_anonymous_args = 0
 1818              		@ link register save eliminated.
1110:Drivers/STM32G4xx_HAL_Driver/Src/stm32g4xx_hal_pcd.c **** 
 1819              		.loc 1 1110 3 view .LVU641
1115:Drivers/STM32G4xx_HAL_Driver/Src/stm32g4xx_hal_pcd.c **** 
 1820              		.loc 1 1115 1 is_stmt 0 view .LVU642
 1821 0000 7047     		bx	lr
 1822              		.cfi_endproc
 1823              	.LFE338:
 1825              		.section	.text.PCD_EP_ISR_Handler,"ax",%progbits
 1826              		.align	1
 1827              		.syntax unified
 1828              		.thumb
 1829              		.thumb_func
 1831              	PCD_EP_ISR_Handler:
 1832              	.LVL199:
 1833              	.LFB362:
1631:Drivers/STM32G4xx_HAL_Driver/Src/stm32g4xx_hal_pcd.c ****   PCD_EPTypeDef *ep;
 1834              		.loc 1 1631 1 is_stmt 1 view -0
 1835              		.cfi_startproc
 1836              		@ args = 0, pretend = 0, frame = 0
 1837              		@ frame_needed = 0, uses_anonymous_args = 0
1631:Drivers/STM32G4xx_HAL_Driver/Src/stm32g4xx_hal_pcd.c ****   PCD_EPTypeDef *ep;
 1838              		.loc 1 1631 1 is_stmt 0 view .LVU644
 1839 0000 2DE9F047 		push	{r4, r5, r6, r7, r8, r9, r10, lr}
 1840              		.cfi_def_cfa_offset 32
 1841              		.cfi_offset 4, -32
 1842              		.cfi_offset 5, -28
 1843              		.cfi_offset 6, -24
 1844              		.cfi_offset 7, -20
 1845              		.cfi_offset 8, -16
 1846              		.cfi_offset 9, -12
 1847              		.cfi_offset 10, -8
 1848              		.cfi_offset 14, -4
 1849 0004 0446     		mov	r4, r0
ARM GAS  /tmp/ccXaRXaA.s 			page 81


1632:Drivers/STM32G4xx_HAL_Driver/Src/stm32g4xx_hal_pcd.c ****   uint16_t count;
 1850              		.loc 1 1632 3 is_stmt 1 view .LVU645
1633:Drivers/STM32G4xx_HAL_Driver/Src/stm32g4xx_hal_pcd.c ****   uint16_t wIstr;
 1851              		.loc 1 1633 3 view .LVU646
1634:Drivers/STM32G4xx_HAL_Driver/Src/stm32g4xx_hal_pcd.c ****   uint16_t wEPVal;
 1852              		.loc 1 1634 3 view .LVU647
1635:Drivers/STM32G4xx_HAL_Driver/Src/stm32g4xx_hal_pcd.c ****   uint16_t TxPctSize;
 1853              		.loc 1 1635 3 view .LVU648
1636:Drivers/STM32G4xx_HAL_Driver/Src/stm32g4xx_hal_pcd.c ****   uint8_t epindex;
 1854              		.loc 1 1636 3 view .LVU649
1637:Drivers/STM32G4xx_HAL_Driver/Src/stm32g4xx_hal_pcd.c **** 
 1855              		.loc 1 1637 3 view .LVU650
1644:Drivers/STM32G4xx_HAL_Driver/Src/stm32g4xx_hal_pcd.c ****   {
 1856              		.loc 1 1644 3 view .LVU651
1644:Drivers/STM32G4xx_HAL_Driver/Src/stm32g4xx_hal_pcd.c ****   {
 1857              		.loc 1 1644 9 is_stmt 0 view .LVU652
 1858 0006 3EE0     		b	.L105
 1859              	.LVL200:
 1860              	.L133:
1667:Drivers/STM32G4xx_HAL_Driver/Src/stm32g4xx_hal_pcd.c ****         ep = &hpcd->IN_ep[0];
 1861              		.loc 1 1667 9 is_stmt 1 view .LVU653
 1862              	.LBB39:
1667:Drivers/STM32G4xx_HAL_Driver/Src/stm32g4xx_hal_pcd.c ****         ep = &hpcd->IN_ep[0];
 1863              		.loc 1 1667 9 view .LVU654
1667:Drivers/STM32G4xx_HAL_Driver/Src/stm32g4xx_hal_pcd.c ****         ep = &hpcd->IN_ep[0];
 1864              		.loc 1 1667 9 view .LVU655
 1865 0008 0388     		ldrh	r3, [r0]
 1866 000a 9BB2     		uxth	r3, r3
 1867 000c 23F4E143 		bic	r3, r3, #28800
 1868 0010 23F07003 		bic	r3, r3, #112
 1869              	.LVL201:
1667:Drivers/STM32G4xx_HAL_Driver/Src/stm32g4xx_hal_pcd.c ****         ep = &hpcd->IN_ep[0];
 1870              		.loc 1 1667 9 view .LVU656
 1871 0014 6FEA4343 		mvn	r3, r3, lsl #17
 1872              	.LVL202:
1667:Drivers/STM32G4xx_HAL_Driver/Src/stm32g4xx_hal_pcd.c ****         ep = &hpcd->IN_ep[0];
 1873              		.loc 1 1667 9 is_stmt 0 view .LVU657
 1874 0018 6FEA5343 		mvn	r3, r3, lsr #17
 1875 001c 9BB2     		uxth	r3, r3
 1876 001e 0380     		strh	r3, [r0]	@ movhi
 1877              	.LBE39:
1667:Drivers/STM32G4xx_HAL_Driver/Src/stm32g4xx_hal_pcd.c ****         ep = &hpcd->IN_ep[0];
 1878              		.loc 1 1667 9 is_stmt 1 view .LVU658
1668:Drivers/STM32G4xx_HAL_Driver/Src/stm32g4xx_hal_pcd.c **** 
 1879              		.loc 1 1668 9 view .LVU659
 1880              	.LVL203:
1670:Drivers/STM32G4xx_HAL_Driver/Src/stm32g4xx_hal_pcd.c ****         ep->xfer_buff += ep->xfer_count;
 1881              		.loc 1 1670 9 view .LVU660
1670:Drivers/STM32G4xx_HAL_Driver/Src/stm32g4xx_hal_pcd.c ****         ep->xfer_buff += ep->xfer_count;
 1882              		.loc 1 1670 26 is_stmt 0 view .LVU661
 1883 0020 2168     		ldr	r1, [r4]
 1884 0022 B1F85030 		ldrh	r3, [r1, #80]
 1885 0026 227C     		ldrb	r2, [r4, #16]	@ zero_extendqisi2
 1886              	.LVL204:
1670:Drivers/STM32G4xx_HAL_Driver/Src/stm32g4xx_hal_pcd.c ****         ep->xfer_buff += ep->xfer_count;
 1887              		.loc 1 1670 26 view .LVU662
 1888 0028 D200     		lsls	r2, r2, #3
ARM GAS  /tmp/ccXaRXaA.s 			page 82


 1889 002a 12FA83F3 		uxtah	r3, r2, r3
 1890 002e 0B44     		add	r3, r3, r1
 1891 0030 B3F80234 		ldrh	r3, [r3, #1026]
 1892 0034 C3F30903 		ubfx	r3, r3, #0, #10
1670:Drivers/STM32G4xx_HAL_Driver/Src/stm32g4xx_hal_pcd.c ****         ep->xfer_buff += ep->xfer_count;
 1893              		.loc 1 1670 24 view .LVU663
 1894 0038 E362     		str	r3, [r4, #44]
1671:Drivers/STM32G4xx_HAL_Driver/Src/stm32g4xx_hal_pcd.c **** 
 1895              		.loc 1 1671 9 is_stmt 1 view .LVU664
1671:Drivers/STM32G4xx_HAL_Driver/Src/stm32g4xx_hal_pcd.c **** 
 1896              		.loc 1 1671 11 is_stmt 0 view .LVU665
 1897 003a 626A     		ldr	r2, [r4, #36]
1671:Drivers/STM32G4xx_HAL_Driver/Src/stm32g4xx_hal_pcd.c **** 
 1898              		.loc 1 1671 23 view .LVU666
 1899 003c 1A44     		add	r2, r2, r3
 1900 003e 6262     		str	r2, [r4, #36]
1677:Drivers/STM32G4xx_HAL_Driver/Src/stm32g4xx_hal_pcd.c **** #endif /* USE_HAL_PCD_REGISTER_CALLBACKS */
 1901              		.loc 1 1677 9 is_stmt 1 view .LVU667
 1902 0040 0021     		movs	r1, #0
 1903 0042 2046     		mov	r0, r4
 1904 0044 FFF7FEFF 		bl	HAL_PCD_DataInStageCallback
 1905              	.LVL205:
1680:Drivers/STM32G4xx_HAL_Driver/Src/stm32g4xx_hal_pcd.c ****         {
 1906              		.loc 1 1680 9 view .LVU668
1680:Drivers/STM32G4xx_HAL_Driver/Src/stm32g4xx_hal_pcd.c ****         {
 1907              		.loc 1 1680 18 is_stmt 0 view .LVU669
 1908 0048 237B     		ldrb	r3, [r4, #12]	@ zero_extendqisi2
1680:Drivers/STM32G4xx_HAL_Driver/Src/stm32g4xx_hal_pcd.c ****         {
 1909              		.loc 1 1680 12 view .LVU670
 1910 004a E3B1     		cbz	r3, .L105
1680:Drivers/STM32G4xx_HAL_Driver/Src/stm32g4xx_hal_pcd.c ****         {
 1911              		.loc 1 1680 44 discriminator 1 view .LVU671
 1912 004c A36A     		ldr	r3, [r4, #40]
1680:Drivers/STM32G4xx_HAL_Driver/Src/stm32g4xx_hal_pcd.c ****         {
 1913              		.loc 1 1680 38 discriminator 1 view .LVU672
 1914 004e D3B9     		cbnz	r3, .L105
1682:Drivers/STM32G4xx_HAL_Driver/Src/stm32g4xx_hal_pcd.c ****           hpcd->USB_Address = 0U;
 1915              		.loc 1 1682 11 is_stmt 1 view .LVU673
1682:Drivers/STM32G4xx_HAL_Driver/Src/stm32g4xx_hal_pcd.c ****           hpcd->USB_Address = 0U;
 1916              		.loc 1 1682 50 is_stmt 0 view .LVU674
 1917 0050 237B     		ldrb	r3, [r4, #12]	@ zero_extendqisi2
1682:Drivers/STM32G4xx_HAL_Driver/Src/stm32g4xx_hal_pcd.c ****           hpcd->USB_Address = 0U;
 1918              		.loc 1 1682 15 view .LVU675
 1919 0052 2268     		ldr	r2, [r4]
1682:Drivers/STM32G4xx_HAL_Driver/Src/stm32g4xx_hal_pcd.c ****           hpcd->USB_Address = 0U;
 1920              		.loc 1 1682 33 view .LVU676
 1921 0054 43F08003 		orr	r3, r3, #128
 1922 0058 A2F84C30 		strh	r3, [r2, #76]	@ movhi
1683:Drivers/STM32G4xx_HAL_Driver/Src/stm32g4xx_hal_pcd.c ****         }
 1923              		.loc 1 1683 11 is_stmt 1 view .LVU677
1683:Drivers/STM32G4xx_HAL_Driver/Src/stm32g4xx_hal_pcd.c ****         }
 1924              		.loc 1 1683 29 is_stmt 0 view .LVU678
 1925 005c 0023     		movs	r3, #0
 1926 005e 2373     		strb	r3, [r4, #12]
 1927 0060 11E0     		b	.L105
 1928              	.LVL206:
 1929              	.L111:
ARM GAS  /tmp/ccXaRXaA.s 			page 83


1712:Drivers/STM32G4xx_HAL_Driver/Src/stm32g4xx_hal_pcd.c ****                       ep->pmaadress, (uint16_t)ep->xfer_count);
 1930              		.loc 1 1712 11 is_stmt 1 view .LVU679
 1931 0062 B4F85621 		ldrh	r2, [r4, #342]
 1932 0066 04F52671 		add	r1, r4, #664
 1933 006a FFF7FEFF 		bl	USB_ReadPMA
 1934              	.LVL207:
1716:Drivers/STM32G4xx_HAL_Driver/Src/stm32g4xx_hal_pcd.c **** 
 1935              		.loc 1 1716 11 view .LVU680
 1936              	.LBB40:
1716:Drivers/STM32G4xx_HAL_Driver/Src/stm32g4xx_hal_pcd.c **** 
 1937              		.loc 1 1716 11 view .LVU681
1716:Drivers/STM32G4xx_HAL_Driver/Src/stm32g4xx_hal_pcd.c **** 
 1938              		.loc 1 1716 11 view .LVU682
 1939 006e 2268     		ldr	r2, [r4]
 1940 0070 1388     		ldrh	r3, [r2]
 1941 0072 23F07003 		bic	r3, r3, #112
 1942 0076 1B05     		lsls	r3, r3, #20
 1943 0078 1B0D     		lsrs	r3, r3, #20
 1944              	.LVL208:
1716:Drivers/STM32G4xx_HAL_Driver/Src/stm32g4xx_hal_pcd.c **** 
 1945              		.loc 1 1716 11 view .LVU683
 1946 007a 43F08003 		orr	r3, r3, #128
 1947              	.LVL209:
1716:Drivers/STM32G4xx_HAL_Driver/Src/stm32g4xx_hal_pcd.c **** 
 1948              		.loc 1 1716 11 is_stmt 0 view .LVU684
 1949 007e 1380     		strh	r3, [r2]	@ movhi
 1950              	.LBE40:
1716:Drivers/STM32G4xx_HAL_Driver/Src/stm32g4xx_hal_pcd.c **** 
 1951              		.loc 1 1716 11 is_stmt 1 view .LVU685
1722:Drivers/STM32G4xx_HAL_Driver/Src/stm32g4xx_hal_pcd.c **** #endif /* USE_HAL_PCD_REGISTER_CALLBACKS */
 1952              		.loc 1 1722 11 view .LVU686
 1953 0080 2046     		mov	r0, r4
 1954 0082 FFF7FEFF 		bl	HAL_PCD_SetupStageCallback
 1955              	.LVL210:
 1956              	.L105:
1644:Drivers/STM32G4xx_HAL_Driver/Src/stm32g4xx_hal_pcd.c ****   {
 1957              		.loc 1 1644 48 view .LVU687
1644:Drivers/STM32G4xx_HAL_Driver/Src/stm32g4xx_hal_pcd.c ****   {
 1958              		.loc 1 1644 15 is_stmt 0 view .LVU688
 1959 0086 2068     		ldr	r0, [r4]
1644:Drivers/STM32G4xx_HAL_Driver/Src/stm32g4xx_hal_pcd.c ****   {
 1960              		.loc 1 1644 25 view .LVU689
 1961 0088 B0F84430 		ldrh	r3, [r0, #68]
1644:Drivers/STM32G4xx_HAL_Driver/Src/stm32g4xx_hal_pcd.c ****   {
 1962              		.loc 1 1644 48 view .LVU690
 1963 008c 13F4004F 		tst	r3, #32768
 1964 0090 00F03482 		beq	.L132
1646:Drivers/STM32G4xx_HAL_Driver/Src/stm32g4xx_hal_pcd.c **** 
 1965              		.loc 1 1646 5 is_stmt 1 view .LVU691
1646:Drivers/STM32G4xx_HAL_Driver/Src/stm32g4xx_hal_pcd.c **** 
 1966              		.loc 1 1646 11 is_stmt 0 view .LVU692
 1967 0094 B0F84430 		ldrh	r3, [r0, #68]
 1968 0098 9AB2     		uxth	r2, r3
 1969              	.LVL211:
1649:Drivers/STM32G4xx_HAL_Driver/Src/stm32g4xx_hal_pcd.c **** 
 1970              		.loc 1 1649 5 is_stmt 1 view .LVU693
1649:Drivers/STM32G4xx_HAL_Driver/Src/stm32g4xx_hal_pcd.c **** 
ARM GAS  /tmp/ccXaRXaA.s 			page 84


 1971              		.loc 1 1649 13 is_stmt 0 view .LVU694
 1972 009a 03F00F05 		and	r5, r3, #15
 1973              	.LVL212:
1651:Drivers/STM32G4xx_HAL_Driver/Src/stm32g4xx_hal_pcd.c ****     {
 1974              		.loc 1 1651 5 is_stmt 1 view .LVU695
1651:Drivers/STM32G4xx_HAL_Driver/Src/stm32g4xx_hal_pcd.c ****     {
 1975              		.loc 1 1651 8 is_stmt 0 view .LVU696
 1976 009e 13F0080F 		tst	r3, #8
 1977 00a2 40F02F82 		bne	.L130
1656:Drivers/STM32G4xx_HAL_Driver/Src/stm32g4xx_hal_pcd.c ****     {
 1978              		.loc 1 1656 5 is_stmt 1 view .LVU697
1656:Drivers/STM32G4xx_HAL_Driver/Src/stm32g4xx_hal_pcd.c ****     {
 1979              		.loc 1 1656 8 is_stmt 0 view .LVU698
 1980 00a6 002D     		cmp	r5, #0
 1981 00a8 75D1     		bne	.L107
1661:Drivers/STM32G4xx_HAL_Driver/Src/stm32g4xx_hal_pcd.c ****       {
 1982              		.loc 1 1661 7 is_stmt 1 view .LVU699
1661:Drivers/STM32G4xx_HAL_Driver/Src/stm32g4xx_hal_pcd.c ****       {
 1983              		.loc 1 1661 10 is_stmt 0 view .LVU700
 1984 00aa 12F0100F 		tst	r2, #16
 1985 00ae ABD0     		beq	.L133
1692:Drivers/STM32G4xx_HAL_Driver/Src/stm32g4xx_hal_pcd.c ****         wEPVal = PCD_GET_ENDPOINT(hpcd->Instance, PCD_ENDP0);
 1986              		.loc 1 1692 9 is_stmt 1 view .LVU701
 1987              	.LVL213:
1693:Drivers/STM32G4xx_HAL_Driver/Src/stm32g4xx_hal_pcd.c **** 
 1988              		.loc 1 1693 9 view .LVU702
1693:Drivers/STM32G4xx_HAL_Driver/Src/stm32g4xx_hal_pcd.c **** 
 1989              		.loc 1 1693 16 is_stmt 0 view .LVU703
 1990 00b0 0388     		ldrh	r3, [r0]
 1991 00b2 9AB2     		uxth	r2, r3
 1992              	.LVL214:
1695:Drivers/STM32G4xx_HAL_Driver/Src/stm32g4xx_hal_pcd.c ****         {
 1993              		.loc 1 1695 9 is_stmt 1 view .LVU704
1695:Drivers/STM32G4xx_HAL_Driver/Src/stm32g4xx_hal_pcd.c ****         {
 1994              		.loc 1 1695 12 is_stmt 0 view .LVU705
 1995 00b4 13F4006F 		tst	r3, #2048
 1996 00b8 30D0     		beq	.L110
1698:Drivers/STM32G4xx_HAL_Driver/Src/stm32g4xx_hal_pcd.c **** 
 1997              		.loc 1 1698 11 is_stmt 1 view .LVU706
1698:Drivers/STM32G4xx_HAL_Driver/Src/stm32g4xx_hal_pcd.c **** 
 1998              		.loc 1 1698 28 is_stmt 0 view .LVU707
 1999 00ba B0F85030 		ldrh	r3, [r0, #80]
 2000 00be 94F85021 		ldrb	r2, [r4, #336]	@ zero_extendqisi2
 2001              	.LVL215:
1698:Drivers/STM32G4xx_HAL_Driver/Src/stm32g4xx_hal_pcd.c **** 
 2002              		.loc 1 1698 28 view .LVU708
 2003 00c2 D200     		lsls	r2, r2, #3
 2004 00c4 12FA83F3 		uxtah	r3, r2, r3
 2005 00c8 0344     		add	r3, r3, r0
 2006 00ca B3F80634 		ldrh	r3, [r3, #1030]
 2007 00ce C3F30903 		ubfx	r3, r3, #0, #10
1698:Drivers/STM32G4xx_HAL_Driver/Src/stm32g4xx_hal_pcd.c **** 
 2008              		.loc 1 1698 26 view .LVU709
 2009 00d2 C4F86C31 		str	r3, [r4, #364]
1700:Drivers/STM32G4xx_HAL_Driver/Src/stm32g4xx_hal_pcd.c ****           {
 2010              		.loc 1 1700 11 is_stmt 1 view .LVU710
1700:Drivers/STM32G4xx_HAL_Driver/Src/stm32g4xx_hal_pcd.c ****           {
ARM GAS  /tmp/ccXaRXaA.s 			page 85


 2011              		.loc 1 1700 14 is_stmt 0 view .LVU711
 2012 00d6 082B     		cmp	r3, #8
 2013 00d8 C3D0     		beq	.L111
1703:Drivers/STM32G4xx_HAL_Driver/Src/stm32g4xx_hal_pcd.c ****             PCD_SET_EP_TX_STATUS(hpcd->Instance, PCD_ENDP0, USB_EP_TX_STALL);
 2014              		.loc 1 1703 13 is_stmt 1 view .LVU712
 2015              	.LBB41:
1703:Drivers/STM32G4xx_HAL_Driver/Src/stm32g4xx_hal_pcd.c ****             PCD_SET_EP_TX_STATUS(hpcd->Instance, PCD_ENDP0, USB_EP_TX_STALL);
 2016              		.loc 1 1703 13 view .LVU713
1703:Drivers/STM32G4xx_HAL_Driver/Src/stm32g4xx_hal_pcd.c ****             PCD_SET_EP_TX_STATUS(hpcd->Instance, PCD_ENDP0, USB_EP_TX_STALL);
 2017              		.loc 1 1703 13 view .LVU714
 2018 00da 0388     		ldrh	r3, [r0]
 2019 00dc 9BB2     		uxth	r3, r3
 2020 00de 23F48043 		bic	r3, r3, #16384
 2021 00e2 23F07003 		bic	r3, r3, #112
 2022              	.LVL216:
1703:Drivers/STM32G4xx_HAL_Driver/Src/stm32g4xx_hal_pcd.c ****             PCD_SET_EP_TX_STATUS(hpcd->Instance, PCD_ENDP0, USB_EP_TX_STALL);
 2023              		.loc 1 1703 13 view .LVU715
1703:Drivers/STM32G4xx_HAL_Driver/Src/stm32g4xx_hal_pcd.c ****             PCD_SET_EP_TX_STATUS(hpcd->Instance, PCD_ENDP0, USB_EP_TX_STALL);
 2024              		.loc 1 1703 13 discriminator 1 view .LVU716
 2025 00e6 83F48053 		eor	r3, r3, #4096
 2026              	.LVL217:
1703:Drivers/STM32G4xx_HAL_Driver/Src/stm32g4xx_hal_pcd.c ****             PCD_SET_EP_TX_STATUS(hpcd->Instance, PCD_ENDP0, USB_EP_TX_STALL);
 2027              		.loc 1 1703 13 discriminator 3 view .LVU717
1703:Drivers/STM32G4xx_HAL_Driver/Src/stm32g4xx_hal_pcd.c ****             PCD_SET_EP_TX_STATUS(hpcd->Instance, PCD_ENDP0, USB_EP_TX_STALL);
 2028              		.loc 1 1703 13 discriminator 6 view .LVU718
 2029 00ea 48F28001 		movw	r1, #32896
 2030 00ee 0B43     		orrs	r3, r3, r1
 2031              	.LVL218:
1703:Drivers/STM32G4xx_HAL_Driver/Src/stm32g4xx_hal_pcd.c ****             PCD_SET_EP_TX_STATUS(hpcd->Instance, PCD_ENDP0, USB_EP_TX_STALL);
 2032              		.loc 1 1703 13 is_stmt 0 discriminator 6 view .LVU719
 2033 00f0 0380     		strh	r3, [r0]	@ movhi
 2034              	.LBE41:
1703:Drivers/STM32G4xx_HAL_Driver/Src/stm32g4xx_hal_pcd.c ****             PCD_SET_EP_TX_STATUS(hpcd->Instance, PCD_ENDP0, USB_EP_TX_STALL);
 2035              		.loc 1 1703 13 is_stmt 1 view .LVU720
1704:Drivers/STM32G4xx_HAL_Driver/Src/stm32g4xx_hal_pcd.c **** 
 2036              		.loc 1 1704 13 view .LVU721
 2037              	.LBB42:
1704:Drivers/STM32G4xx_HAL_Driver/Src/stm32g4xx_hal_pcd.c **** 
 2038              		.loc 1 1704 13 view .LVU722
1704:Drivers/STM32G4xx_HAL_Driver/Src/stm32g4xx_hal_pcd.c **** 
 2039              		.loc 1 1704 13 view .LVU723
 2040 00f2 2268     		ldr	r2, [r4]
 2041 00f4 1388     		ldrh	r3, [r2]
 2042 00f6 9BB2     		uxth	r3, r3
 2043 00f8 23F4E043 		bic	r3, r3, #28672
 2044 00fc 23F04003 		bic	r3, r3, #64
 2045              	.LVL219:
1704:Drivers/STM32G4xx_HAL_Driver/Src/stm32g4xx_hal_pcd.c **** 
 2046              		.loc 1 1704 13 view .LVU724
1704:Drivers/STM32G4xx_HAL_Driver/Src/stm32g4xx_hal_pcd.c **** 
 2047              		.loc 1 1704 13 discriminator 1 view .LVU725
 2048 0100 83F01003 		eor	r3, r3, #16
 2049              	.LVL220:
1704:Drivers/STM32G4xx_HAL_Driver/Src/stm32g4xx_hal_pcd.c **** 
 2050              		.loc 1 1704 13 discriminator 3 view .LVU726
1704:Drivers/STM32G4xx_HAL_Driver/Src/stm32g4xx_hal_pcd.c **** 
 2051              		.loc 1 1704 13 discriminator 6 view .LVU727
ARM GAS  /tmp/ccXaRXaA.s 			page 86


 2052 0104 0B43     		orrs	r3, r3, r1
 2053              	.LVL221:
1704:Drivers/STM32G4xx_HAL_Driver/Src/stm32g4xx_hal_pcd.c **** 
 2054              		.loc 1 1704 13 is_stmt 0 discriminator 6 view .LVU728
 2055 0106 1380     		strh	r3, [r2]	@ movhi
 2056              	.LBE42:
1704:Drivers/STM32G4xx_HAL_Driver/Src/stm32g4xx_hal_pcd.c **** 
 2057              		.loc 1 1704 13 is_stmt 1 view .LVU729
1707:Drivers/STM32G4xx_HAL_Driver/Src/stm32g4xx_hal_pcd.c **** 
 2058              		.loc 1 1707 13 view .LVU730
 2059              	.LBB43:
1707:Drivers/STM32G4xx_HAL_Driver/Src/stm32g4xx_hal_pcd.c **** 
 2060              		.loc 1 1707 13 view .LVU731
1707:Drivers/STM32G4xx_HAL_Driver/Src/stm32g4xx_hal_pcd.c **** 
 2061              		.loc 1 1707 13 view .LVU732
 2062 0108 2268     		ldr	r2, [r4]
 2063 010a 1388     		ldrh	r3, [r2]
 2064 010c 23F07003 		bic	r3, r3, #112
 2065 0110 1B05     		lsls	r3, r3, #20
 2066 0112 1B0D     		lsrs	r3, r3, #20
 2067              	.LVL222:
1707:Drivers/STM32G4xx_HAL_Driver/Src/stm32g4xx_hal_pcd.c **** 
 2068              		.loc 1 1707 13 view .LVU733
 2069 0114 43F08003 		orr	r3, r3, #128
 2070              	.LVL223:
1707:Drivers/STM32G4xx_HAL_Driver/Src/stm32g4xx_hal_pcd.c **** 
 2071              		.loc 1 1707 13 is_stmt 0 view .LVU734
 2072 0118 1380     		strh	r3, [r2]	@ movhi
 2073              	.LBE43:
1707:Drivers/STM32G4xx_HAL_Driver/Src/stm32g4xx_hal_pcd.c **** 
 2074              		.loc 1 1707 13 is_stmt 1 view .LVU735
1709:Drivers/STM32G4xx_HAL_Driver/Src/stm32g4xx_hal_pcd.c ****           }
 2075              		.loc 1 1709 13 view .LVU736
1709:Drivers/STM32G4xx_HAL_Driver/Src/stm32g4xx_hal_pcd.c ****           }
 2076              		.loc 1 1709 20 is_stmt 0 view .LVU737
 2077 011a F0E1     		b	.L106
 2078              	.LVL224:
 2079              	.L110:
1725:Drivers/STM32G4xx_HAL_Driver/Src/stm32g4xx_hal_pcd.c ****         {
 2080              		.loc 1 1725 14 is_stmt 1 view .LVU738
1725:Drivers/STM32G4xx_HAL_Driver/Src/stm32g4xx_hal_pcd.c ****         {
 2081              		.loc 1 1725 17 is_stmt 0 view .LVU739
 2082 011c 12F4004F 		tst	r2, #32768
 2083 0120 B1D0     		beq	.L105
1727:Drivers/STM32G4xx_HAL_Driver/Src/stm32g4xx_hal_pcd.c **** 
 2084              		.loc 1 1727 11 is_stmt 1 view .LVU740
 2085              	.LBB44:
1727:Drivers/STM32G4xx_HAL_Driver/Src/stm32g4xx_hal_pcd.c **** 
 2086              		.loc 1 1727 11 view .LVU741
1727:Drivers/STM32G4xx_HAL_Driver/Src/stm32g4xx_hal_pcd.c **** 
 2087              		.loc 1 1727 11 view .LVU742
 2088 0122 0388     		ldrh	r3, [r0]
 2089 0124 23F07003 		bic	r3, r3, #112
 2090 0128 1B05     		lsls	r3, r3, #20
 2091 012a 1B0D     		lsrs	r3, r3, #20
 2092              	.LVL225:
1727:Drivers/STM32G4xx_HAL_Driver/Src/stm32g4xx_hal_pcd.c **** 
ARM GAS  /tmp/ccXaRXaA.s 			page 87


 2093              		.loc 1 1727 11 view .LVU743
 2094 012c 43F08003 		orr	r3, r3, #128
 2095              	.LVL226:
1727:Drivers/STM32G4xx_HAL_Driver/Src/stm32g4xx_hal_pcd.c **** 
 2096              		.loc 1 1727 11 is_stmt 0 view .LVU744
 2097 0130 0380     		strh	r3, [r0]	@ movhi
 2098              	.LBE44:
1727:Drivers/STM32G4xx_HAL_Driver/Src/stm32g4xx_hal_pcd.c **** 
 2099              		.loc 1 1727 11 is_stmt 1 view .LVU745
1730:Drivers/STM32G4xx_HAL_Driver/Src/stm32g4xx_hal_pcd.c **** 
 2100              		.loc 1 1730 11 view .LVU746
1730:Drivers/STM32G4xx_HAL_Driver/Src/stm32g4xx_hal_pcd.c **** 
 2101              		.loc 1 1730 28 is_stmt 0 view .LVU747
 2102 0132 2068     		ldr	r0, [r4]
 2103 0134 B0F85030 		ldrh	r3, [r0, #80]
 2104 0138 94F85021 		ldrb	r2, [r4, #336]	@ zero_extendqisi2
 2105              	.LVL227:
1730:Drivers/STM32G4xx_HAL_Driver/Src/stm32g4xx_hal_pcd.c **** 
 2106              		.loc 1 1730 28 view .LVU748
 2107 013c D200     		lsls	r2, r2, #3
 2108 013e 12FA83F3 		uxtah	r3, r2, r3
 2109 0142 0344     		add	r3, r3, r0
 2110 0144 B3F80634 		ldrh	r3, [r3, #1030]
 2111 0148 C3F30903 		ubfx	r3, r3, #0, #10
1730:Drivers/STM32G4xx_HAL_Driver/Src/stm32g4xx_hal_pcd.c **** 
 2112              		.loc 1 1730 26 view .LVU749
 2113 014c C4F86C31 		str	r3, [r4, #364]
1732:Drivers/STM32G4xx_HAL_Driver/Src/stm32g4xx_hal_pcd.c ****           {
 2114              		.loc 1 1732 11 is_stmt 1 view .LVU750
1732:Drivers/STM32G4xx_HAL_Driver/Src/stm32g4xx_hal_pcd.c ****           {
 2115              		.loc 1 1732 14 is_stmt 0 view .LVU751
 2116 0150 6BB9     		cbnz	r3, .L112
1735:Drivers/STM32G4xx_HAL_Driver/Src/stm32g4xx_hal_pcd.c ****           }
 2117              		.loc 1 1735 13 is_stmt 1 view .LVU752
 2118              	.LBB45:
1735:Drivers/STM32G4xx_HAL_Driver/Src/stm32g4xx_hal_pcd.c ****           }
 2119              		.loc 1 1735 13 view .LVU753
1735:Drivers/STM32G4xx_HAL_Driver/Src/stm32g4xx_hal_pcd.c ****           }
 2120              		.loc 1 1735 13 view .LVU754
 2121 0152 0388     		ldrh	r3, [r0]
 2122 0154 9BB2     		uxth	r3, r3
 2123 0156 23F48043 		bic	r3, r3, #16384
 2124 015a 23F07003 		bic	r3, r3, #112
 2125              	.LVL228:
1735:Drivers/STM32G4xx_HAL_Driver/Src/stm32g4xx_hal_pcd.c ****           }
 2126              		.loc 1 1735 13 view .LVU755
1735:Drivers/STM32G4xx_HAL_Driver/Src/stm32g4xx_hal_pcd.c ****           }
 2127              		.loc 1 1735 13 discriminator 1 view .LVU756
1735:Drivers/STM32G4xx_HAL_Driver/Src/stm32g4xx_hal_pcd.c ****           }
 2128              		.loc 1 1735 13 discriminator 3 view .LVU757
1735:Drivers/STM32G4xx_HAL_Driver/Src/stm32g4xx_hal_pcd.c ****           }
 2129              		.loc 1 1735 13 discriminator 4 view .LVU758
 2130 015e 83F44053 		eor	r3, r3, #12288
 2131              	.LVL229:
1735:Drivers/STM32G4xx_HAL_Driver/Src/stm32g4xx_hal_pcd.c ****           }
 2132              		.loc 1 1735 13 discriminator 6 view .LVU759
 2133 0162 43F40043 		orr	r3, r3, #32768
ARM GAS  /tmp/ccXaRXaA.s 			page 88


 2134              	.LVL230:
1735:Drivers/STM32G4xx_HAL_Driver/Src/stm32g4xx_hal_pcd.c ****           }
 2135              		.loc 1 1735 13 is_stmt 0 discriminator 6 view .LVU760
 2136 0166 43F08003 		orr	r3, r3, #128
 2137 016a 0380     		strh	r3, [r0]	@ movhi
 2138              	.LBE45:
1735:Drivers/STM32G4xx_HAL_Driver/Src/stm32g4xx_hal_pcd.c ****           }
 2139              		.loc 1 1735 13 is_stmt 1 view .LVU761
 2140 016c 8BE7     		b	.L105
 2141              	.LVL231:
 2142              	.L112:
1739:Drivers/STM32G4xx_HAL_Driver/Src/stm32g4xx_hal_pcd.c ****             {
 2143              		.loc 1 1739 13 view .LVU762
1739:Drivers/STM32G4xx_HAL_Driver/Src/stm32g4xx_hal_pcd.c ****             {
 2144              		.loc 1 1739 19 is_stmt 0 view .LVU763
 2145 016e D4F86411 		ldr	r1, [r4, #356]
1739:Drivers/STM32G4xx_HAL_Driver/Src/stm32g4xx_hal_pcd.c ****             {
 2146              		.loc 1 1739 16 view .LVU764
 2147 0172 0029     		cmp	r1, #0
 2148 0174 87D0     		beq	.L105
1741:Drivers/STM32G4xx_HAL_Driver/Src/stm32g4xx_hal_pcd.c ****                           ep->pmaadress, (uint16_t)ep->xfer_count);  /* max 64bytes */
 2149              		.loc 1 1741 15 is_stmt 1 view .LVU765
 2150 0176 B4F85621 		ldrh	r2, [r4, #342]
 2151 017a FFF7FEFF 		bl	USB_ReadPMA
 2152              	.LVL232:
1744:Drivers/STM32G4xx_HAL_Driver/Src/stm32g4xx_hal_pcd.c **** 
 2153              		.loc 1 1744 15 view .LVU766
1744:Drivers/STM32G4xx_HAL_Driver/Src/stm32g4xx_hal_pcd.c **** 
 2154              		.loc 1 1744 17 is_stmt 0 view .LVU767
 2155 017e D4F86431 		ldr	r3, [r4, #356]
1744:Drivers/STM32G4xx_HAL_Driver/Src/stm32g4xx_hal_pcd.c **** 
 2156              		.loc 1 1744 34 view .LVU768
 2157 0182 D4F86C21 		ldr	r2, [r4, #364]
1744:Drivers/STM32G4xx_HAL_Driver/Src/stm32g4xx_hal_pcd.c **** 
 2158              		.loc 1 1744 29 view .LVU769
 2159 0186 1344     		add	r3, r3, r2
 2160 0188 C4F86431 		str	r3, [r4, #356]
1750:Drivers/STM32G4xx_HAL_Driver/Src/stm32g4xx_hal_pcd.c **** #endif /* USE_HAL_PCD_REGISTER_CALLBACKS */
 2161              		.loc 1 1750 15 is_stmt 1 view .LVU770
 2162 018c 0021     		movs	r1, #0
 2163 018e 2046     		mov	r0, r4
 2164 0190 FFF7FEFF 		bl	HAL_PCD_DataOutStageCallback
 2165              	.LVL233:
 2166 0194 77E7     		b	.L105
 2167              	.LVL234:
 2168              	.L107:
1761:Drivers/STM32G4xx_HAL_Driver/Src/stm32g4xx_hal_pcd.c **** 
 2169              		.loc 1 1761 7 view .LVU771
1761:Drivers/STM32G4xx_HAL_Driver/Src/stm32g4xx_hal_pcd.c **** 
 2170              		.loc 1 1761 16 is_stmt 0 view .LVU772
 2171 0196 AF00     		lsls	r7, r5, #2
1761:Drivers/STM32G4xx_HAL_Driver/Src/stm32g4xx_hal_pcd.c **** 
 2172              		.loc 1 1761 14 view .LVU773
 2173 0198 30F82530 		ldrh	r3, [r0, r5, lsl #2]
 2174 019c 9EB2     		uxth	r6, r3
 2175              	.LVL235:
1763:Drivers/STM32G4xx_HAL_Driver/Src/stm32g4xx_hal_pcd.c ****       {
ARM GAS  /tmp/ccXaRXaA.s 			page 89


 2176              		.loc 1 1763 7 is_stmt 1 view .LVU774
1763:Drivers/STM32G4xx_HAL_Driver/Src/stm32g4xx_hal_pcd.c ****       {
 2177              		.loc 1 1763 10 is_stmt 0 view .LVU775
 2178 019e 13F4004F 		tst	r3, #32768
 2179 01a2 4DD1     		bne	.L134
 2180              	.LVL236:
 2181              	.L113:
1835:Drivers/STM32G4xx_HAL_Driver/Src/stm32g4xx_hal_pcd.c ****       {
 2182              		.loc 1 1835 7 is_stmt 1 view .LVU776
1835:Drivers/STM32G4xx_HAL_Driver/Src/stm32g4xx_hal_pcd.c ****       {
 2183              		.loc 1 1835 10 is_stmt 0 view .LVU777
 2184 01a4 16F0800F 		tst	r6, #128
 2185 01a8 3FF46DAF 		beq	.L105
1837:Drivers/STM32G4xx_HAL_Driver/Src/stm32g4xx_hal_pcd.c **** 
 2186              		.loc 1 1837 9 is_stmt 1 view .LVU778
1837:Drivers/STM32G4xx_HAL_Driver/Src/stm32g4xx_hal_pcd.c **** 
 2187              		.loc 1 1837 26 is_stmt 0 view .LVU779
 2188 01ac 2A46     		mov	r2, r5
1837:Drivers/STM32G4xx_HAL_Driver/Src/stm32g4xx_hal_pcd.c **** 
 2189              		.loc 1 1837 12 view .LVU780
 2190 01ae 05EB8501 		add	r1, r5, r5, lsl #2
 2191 01b2 C900     		lsls	r1, r1, #3
 2192 01b4 1031     		adds	r1, r1, #16
 2193 01b6 2144     		add	r1, r1, r4
 2194              	.LVL237:
1840:Drivers/STM32G4xx_HAL_Driver/Src/stm32g4xx_hal_pcd.c **** 
 2195              		.loc 1 1840 9 is_stmt 1 view .LVU781
 2196              	.LBB46:
1840:Drivers/STM32G4xx_HAL_Driver/Src/stm32g4xx_hal_pcd.c **** 
 2197              		.loc 1 1840 9 view .LVU782
1840:Drivers/STM32G4xx_HAL_Driver/Src/stm32g4xx_hal_pcd.c **** 
 2198              		.loc 1 1840 9 view .LVU783
 2199 01b8 2068     		ldr	r0, [r4]
 2200 01ba C35B     		ldrh	r3, [r0, r7]
 2201 01bc 9BB2     		uxth	r3, r3
 2202 01be 23F4E143 		bic	r3, r3, #28800
 2203 01c2 23F07003 		bic	r3, r3, #112
 2204              	.LVL238:
1840:Drivers/STM32G4xx_HAL_Driver/Src/stm32g4xx_hal_pcd.c **** 
 2205              		.loc 1 1840 9 view .LVU784
 2206 01c6 6FEA4343 		mvn	r3, r3, lsl #17
 2207              	.LVL239:
1840:Drivers/STM32G4xx_HAL_Driver/Src/stm32g4xx_hal_pcd.c **** 
 2208              		.loc 1 1840 9 is_stmt 0 view .LVU785
 2209 01ca 6FEA5343 		mvn	r3, r3, lsr #17
 2210 01ce 9BB2     		uxth	r3, r3
 2211 01d0 C353     		strh	r3, [r0, r7]	@ movhi
 2212              	.LBE46:
1840:Drivers/STM32G4xx_HAL_Driver/Src/stm32g4xx_hal_pcd.c **** 
 2213              		.loc 1 1840 9 is_stmt 1 view .LVU786
1842:Drivers/STM32G4xx_HAL_Driver/Src/stm32g4xx_hal_pcd.c ****         {
 2214              		.loc 1 1842 9 view .LVU787
1842:Drivers/STM32G4xx_HAL_Driver/Src/stm32g4xx_hal_pcd.c ****         {
 2215              		.loc 1 1842 15 is_stmt 0 view .LVU788
 2216 01d2 05EB8503 		add	r3, r5, r5, lsl #2
 2217 01d6 04EBC303 		add	r3, r4, r3, lsl #3
 2218 01da DB7C     		ldrb	r3, [r3, #19]	@ zero_extendqisi2
ARM GAS  /tmp/ccXaRXaA.s 			page 90


1842:Drivers/STM32G4xx_HAL_Driver/Src/stm32g4xx_hal_pcd.c ****         {
 2219              		.loc 1 1842 12 view .LVU789
 2220 01dc 012B     		cmp	r3, #1
 2221 01de 00F0F580 		beq	.L135
1870:Drivers/STM32G4xx_HAL_Driver/Src/stm32g4xx_hal_pcd.c ****           {
 2222              		.loc 1 1870 11 is_stmt 1 view .LVU790
1870:Drivers/STM32G4xx_HAL_Driver/Src/stm32g4xx_hal_pcd.c ****           {
 2223              		.loc 1 1870 14 is_stmt 0 view .LVU791
 2224 01e2 16F4807F 		tst	r6, #256
 2225 01e6 40F08481 		bne	.L125
1873:Drivers/STM32G4xx_HAL_Driver/Src/stm32g4xx_hal_pcd.c **** 
 2226              		.loc 1 1873 13 is_stmt 1 view .LVU792
1873:Drivers/STM32G4xx_HAL_Driver/Src/stm32g4xx_hal_pcd.c **** 
 2227              		.loc 1 1873 35 is_stmt 0 view .LVU793
 2228 01ea 2068     		ldr	r0, [r4]
 2229 01ec B0F85030 		ldrh	r3, [r0, #80]
 2230 01f0 05EB8506 		add	r6, r5, r5, lsl #2
 2231              	.LVL240:
1873:Drivers/STM32G4xx_HAL_Driver/Src/stm32g4xx_hal_pcd.c **** 
 2232              		.loc 1 1873 35 view .LVU794
 2233 01f4 04EBC606 		add	r6, r4, r6, lsl #3
 2234 01f8 377C     		ldrb	r7, [r6, #16]	@ zero_extendqisi2
 2235 01fa FE00     		lsls	r6, r7, #3
 2236 01fc 16FA83F3 		uxtah	r3, r6, r3
 2237 0200 0344     		add	r3, r3, r0
 2238 0202 B3F80234 		ldrh	r3, [r3, #1026]
1873:Drivers/STM32G4xx_HAL_Driver/Src/stm32g4xx_hal_pcd.c **** 
 2239              		.loc 1 1873 23 view .LVU795
 2240 0206 C3F30903 		ubfx	r3, r3, #0, #10
 2241              	.LVL241:
1875:Drivers/STM32G4xx_HAL_Driver/Src/stm32g4xx_hal_pcd.c ****             {
 2242              		.loc 1 1875 13 is_stmt 1 view .LVU796
1875:Drivers/STM32G4xx_HAL_Driver/Src/stm32g4xx_hal_pcd.c ****             {
 2243              		.loc 1 1875 19 is_stmt 0 view .LVU797
 2244 020a 6E1C     		adds	r6, r5, #1
 2245 020c 06EB8606 		add	r6, r6, r6, lsl #2
 2246 0210 54F83660 		ldr	r6, [r4, r6, lsl #3]
1875:Drivers/STM32G4xx_HAL_Driver/Src/stm32g4xx_hal_pcd.c ****             {
 2247              		.loc 1 1875 16 view .LVU798
 2248 0214 9E42     		cmp	r6, r3
 2249 0216 40F24F81 		bls	.L126
1877:Drivers/STM32G4xx_HAL_Driver/Src/stm32g4xx_hal_pcd.c ****             }
 2250              		.loc 1 1877 15 is_stmt 1 view .LVU799
1877:Drivers/STM32G4xx_HAL_Driver/Src/stm32g4xx_hal_pcd.c ****             }
 2251              		.loc 1 1877 28 is_stmt 0 view .LVU800
 2252 021a 0135     		adds	r5, r5, #1
 2253              	.LVL242:
1877:Drivers/STM32G4xx_HAL_Driver/Src/stm32g4xx_hal_pcd.c ****             }
 2254              		.loc 1 1877 28 view .LVU801
 2255 021c 05EB8505 		add	r5, r5, r5, lsl #2
 2256 0220 F61A     		subs	r6, r6, r3
 2257 0222 44F83560 		str	r6, [r4, r5, lsl #3]
 2258              	.L127:
1885:Drivers/STM32G4xx_HAL_Driver/Src/stm32g4xx_hal_pcd.c ****             {
 2259              		.loc 1 1885 13 is_stmt 1 view .LVU802
1885:Drivers/STM32G4xx_HAL_Driver/Src/stm32g4xx_hal_pcd.c ****             {
 2260              		.loc 1 1885 19 is_stmt 0 view .LVU803
ARM GAS  /tmp/ccXaRXaA.s 			page 91


 2261 0226 551C     		adds	r5, r2, #1
 2262 0228 05EB8505 		add	r5, r5, r5, lsl #2
 2263 022c 54F83550 		ldr	r5, [r4, r5, lsl #3]
1885:Drivers/STM32G4xx_HAL_Driver/Src/stm32g4xx_hal_pcd.c ****             {
 2264              		.loc 1 1885 16 view .LVU804
 2265 0230 002D     		cmp	r5, #0
 2266 0232 40F04881 		bne	.L128
1891:Drivers/STM32G4xx_HAL_Driver/Src/stm32g4xx_hal_pcd.c **** #endif /* USE_HAL_PCD_REGISTER_CALLBACKS */
 2267              		.loc 1 1891 15 is_stmt 1 view .LVU805
 2268 0236 3946     		mov	r1, r7
 2269              	.LVL243:
1891:Drivers/STM32G4xx_HAL_Driver/Src/stm32g4xx_hal_pcd.c **** #endif /* USE_HAL_PCD_REGISTER_CALLBACKS */
 2270              		.loc 1 1891 15 is_stmt 0 view .LVU806
 2271 0238 2046     		mov	r0, r4
 2272 023a FFF7FEFF 		bl	HAL_PCD_DataInStageCallback
 2273              	.LVL244:
1891:Drivers/STM32G4xx_HAL_Driver/Src/stm32g4xx_hal_pcd.c **** #endif /* USE_HAL_PCD_REGISTER_CALLBACKS */
 2274              		.loc 1 1891 15 view .LVU807
 2275 023e 22E7     		b	.L105
 2276              	.LVL245:
 2277              	.L134:
1766:Drivers/STM32G4xx_HAL_Driver/Src/stm32g4xx_hal_pcd.c ****         ep = &hpcd->OUT_ep[epindex];
 2278              		.loc 1 1766 9 is_stmt 1 view .LVU808
 2279              	.LBB47:
1766:Drivers/STM32G4xx_HAL_Driver/Src/stm32g4xx_hal_pcd.c ****         ep = &hpcd->OUT_ep[epindex];
 2280              		.loc 1 1766 9 view .LVU809
1766:Drivers/STM32G4xx_HAL_Driver/Src/stm32g4xx_hal_pcd.c ****         ep = &hpcd->OUT_ep[epindex];
 2281              		.loc 1 1766 9 view .LVU810
 2282 0240 30F82530 		ldrh	r3, [r0, r5, lsl #2]
 2283 0244 23F07003 		bic	r3, r3, #112
 2284 0248 1B05     		lsls	r3, r3, #20
 2285 024a 1B0D     		lsrs	r3, r3, #20
 2286              	.LVL246:
1766:Drivers/STM32G4xx_HAL_Driver/Src/stm32g4xx_hal_pcd.c ****         ep = &hpcd->OUT_ep[epindex];
 2287              		.loc 1 1766 9 view .LVU811
 2288 024c 43F08003 		orr	r3, r3, #128
 2289              	.LVL247:
1766:Drivers/STM32G4xx_HAL_Driver/Src/stm32g4xx_hal_pcd.c ****         ep = &hpcd->OUT_ep[epindex];
 2290              		.loc 1 1766 9 is_stmt 0 view .LVU812
 2291 0250 20F82530 		strh	r3, [r0, r5, lsl #2]	@ movhi
 2292              	.LBE47:
1766:Drivers/STM32G4xx_HAL_Driver/Src/stm32g4xx_hal_pcd.c ****         ep = &hpcd->OUT_ep[epindex];
 2293              		.loc 1 1766 9 is_stmt 1 view .LVU813
1767:Drivers/STM32G4xx_HAL_Driver/Src/stm32g4xx_hal_pcd.c **** 
 2294              		.loc 1 1767 9 view .LVU814
1767:Drivers/STM32G4xx_HAL_Driver/Src/stm32g4xx_hal_pcd.c **** 
 2295              		.loc 1 1767 27 is_stmt 0 view .LVU815
 2296 0254 A846     		mov	r8, r5
1767:Drivers/STM32G4xx_HAL_Driver/Src/stm32g4xx_hal_pcd.c **** 
 2297              		.loc 1 1767 12 view .LVU816
 2298 0256 05EB8509 		add	r9, r5, r5, lsl #2
 2299 025a 4FEAC909 		lsl	r9, r9, #3
 2300 025e 09F5A879 		add	r9, r9, #336
 2301 0262 A144     		add	r9, r9, r4
 2302              	.LVL248:
1770:Drivers/STM32G4xx_HAL_Driver/Src/stm32g4xx_hal_pcd.c ****         {
 2303              		.loc 1 1770 9 is_stmt 1 view .LVU817
ARM GAS  /tmp/ccXaRXaA.s 			page 92


1770:Drivers/STM32G4xx_HAL_Driver/Src/stm32g4xx_hal_pcd.c ****         {
 2304              		.loc 1 1770 15 is_stmt 0 view .LVU818
 2305 0264 05EB8503 		add	r3, r5, r5, lsl #2
 2306 0268 04EBC303 		add	r3, r4, r3, lsl #3
 2307 026c 93F85C31 		ldrb	r3, [r3, #348]	@ zero_extendqisi2
1770:Drivers/STM32G4xx_HAL_Driver/Src/stm32g4xx_hal_pcd.c ****         {
 2308              		.loc 1 1770 12 view .LVU819
 2309 0270 EBBB     		cbnz	r3, .L114
1772:Drivers/STM32G4xx_HAL_Driver/Src/stm32g4xx_hal_pcd.c **** 
 2310              		.loc 1 1772 11 is_stmt 1 view .LVU820
1772:Drivers/STM32G4xx_HAL_Driver/Src/stm32g4xx_hal_pcd.c **** 
 2311              		.loc 1 1772 29 is_stmt 0 view .LVU821
 2312 0272 2068     		ldr	r0, [r4]
 2313 0274 B0F85030 		ldrh	r3, [r0, #80]
 2314 0278 05EB8502 		add	r2, r5, r5, lsl #2
 2315              	.LVL249:
1772:Drivers/STM32G4xx_HAL_Driver/Src/stm32g4xx_hal_pcd.c **** 
 2316              		.loc 1 1772 29 view .LVU822
 2317 027c 04EBC202 		add	r2, r4, r2, lsl #3
 2318 0280 92F85021 		ldrb	r2, [r2, #336]	@ zero_extendqisi2
 2319 0284 D200     		lsls	r2, r2, #3
 2320 0286 12FA83F3 		uxtah	r3, r2, r3
 2321 028a 0344     		add	r3, r3, r0
 2322 028c B3F806A4 		ldrh	r10, [r3, #1030]
1772:Drivers/STM32G4xx_HAL_Driver/Src/stm32g4xx_hal_pcd.c **** 
 2323              		.loc 1 1772 17 view .LVU823
 2324 0290 CAF3090A 		ubfx	r10, r10, #0, #10
 2325              	.LVL250:
1774:Drivers/STM32G4xx_HAL_Driver/Src/stm32g4xx_hal_pcd.c ****           {
 2326              		.loc 1 1774 11 is_stmt 1 view .LVU824
1774:Drivers/STM32G4xx_HAL_Driver/Src/stm32g4xx_hal_pcd.c ****           {
 2327              		.loc 1 1774 14 is_stmt 0 view .LVU825
 2328 0294 BAF1000F 		cmp	r10, #0
 2329 0298 1DD1     		bne	.L136
 2330              	.L115:
1817:Drivers/STM32G4xx_HAL_Driver/Src/stm32g4xx_hal_pcd.c **** 
 2331              		.loc 1 1817 9 is_stmt 1 view .LVU826
1817:Drivers/STM32G4xx_HAL_Driver/Src/stm32g4xx_hal_pcd.c **** 
 2332              		.loc 1 1817 11 is_stmt 0 view .LVU827
 2333 029a 08EB8803 		add	r3, r8, r8, lsl #2
 2334 029e 04EBC303 		add	r3, r4, r3, lsl #3
 2335 02a2 D3F86C21 		ldr	r2, [r3, #364]
1817:Drivers/STM32G4xx_HAL_Driver/Src/stm32g4xx_hal_pcd.c **** 
 2336              		.loc 1 1817 24 view .LVU828
 2337 02a6 5244     		add	r2, r2, r10
 2338 02a8 C3F86C21 		str	r2, [r3, #364]
1819:Drivers/STM32G4xx_HAL_Driver/Src/stm32g4xx_hal_pcd.c ****         {
 2339              		.loc 1 1819 9 is_stmt 1 view .LVU829
1819:Drivers/STM32G4xx_HAL_Driver/Src/stm32g4xx_hal_pcd.c ****         {
 2340              		.loc 1 1819 16 is_stmt 0 view .LVU830
 2341 02ac D3F86831 		ldr	r3, [r3, #360]
1819:Drivers/STM32G4xx_HAL_Driver/Src/stm32g4xx_hal_pcd.c ****         {
 2342              		.loc 1 1819 12 view .LVU831
 2343 02b0 3BB1     		cbz	r3, .L118
1819:Drivers/STM32G4xx_HAL_Driver/Src/stm32g4xx_hal_pcd.c ****         {
 2344              		.loc 1 1819 48 discriminator 1 view .LVU832
 2345 02b2 08EB8803 		add	r3, r8, r8, lsl #2
ARM GAS  /tmp/ccXaRXaA.s 			page 93


 2346 02b6 04EBC303 		add	r3, r4, r3, lsl #3
 2347 02ba D3F86031 		ldr	r3, [r3, #352]
1819:Drivers/STM32G4xx_HAL_Driver/Src/stm32g4xx_hal_pcd.c ****         {
 2348              		.loc 1 1819 34 discriminator 1 view .LVU833
 2349 02be 9A45     		cmp	r10, r3
 2350 02c0 72D2     		bcs	.L119
 2351              	.L118:
1825:Drivers/STM32G4xx_HAL_Driver/Src/stm32g4xx_hal_pcd.c **** #endif /* USE_HAL_PCD_REGISTER_CALLBACKS */
 2352              		.loc 1 1825 11 is_stmt 1 view .LVU834
 2353 02c2 08EB8808 		add	r8, r8, r8, lsl #2
 2354 02c6 04EBC808 		add	r8, r4, r8, lsl #3
 2355 02ca 98F85011 		ldrb	r1, [r8, #336]	@ zero_extendqisi2
 2356 02ce 2046     		mov	r0, r4
 2357 02d0 FFF7FEFF 		bl	HAL_PCD_DataOutStageCallback
 2358              	.LVL251:
 2359 02d4 66E7     		b	.L113
 2360              	.L136:
1776:Drivers/STM32G4xx_HAL_Driver/Src/stm32g4xx_hal_pcd.c ****           }
 2361              		.loc 1 1776 13 view .LVU835
 2362 02d6 05EB8501 		add	r1, r5, r5, lsl #2
 2363 02da 04EBC101 		add	r1, r4, r1, lsl #3
 2364 02de 5346     		mov	r3, r10
 2365 02e0 B1F85621 		ldrh	r2, [r1, #342]
 2366 02e4 D1F86411 		ldr	r1, [r1, #356]
 2367 02e8 FFF7FEFF 		bl	USB_ReadPMA
 2368              	.LVL252:
 2369 02ec D5E7     		b	.L115
 2370              	.LVL253:
 2371              	.L114:
1783:Drivers/STM32G4xx_HAL_Driver/Src/stm32g4xx_hal_pcd.c ****           {
 2372              		.loc 1 1783 11 view .LVU836
1783:Drivers/STM32G4xx_HAL_Driver/Src/stm32g4xx_hal_pcd.c ****           {
 2373              		.loc 1 1783 17 is_stmt 0 view .LVU837
 2374 02ee 05EB8503 		add	r3, r5, r5, lsl #2
 2375 02f2 04EBC303 		add	r3, r4, r3, lsl #3
 2376 02f6 93F85331 		ldrb	r3, [r3, #339]	@ zero_extendqisi2
1783:Drivers/STM32G4xx_HAL_Driver/Src/stm32g4xx_hal_pcd.c ****           {
 2377              		.loc 1 1783 14 view .LVU838
 2378 02fa 022B     		cmp	r3, #2
 2379 02fc 34D0     		beq	.L137
1790:Drivers/STM32G4xx_HAL_Driver/Src/stm32g4xx_hal_pcd.c **** 
 2380              		.loc 1 1790 13 is_stmt 1 view .LVU839
1790:Drivers/STM32G4xx_HAL_Driver/Src/stm32g4xx_hal_pcd.c **** 
 2381              		.loc 1 1790 13 view .LVU840
1790:Drivers/STM32G4xx_HAL_Driver/Src/stm32g4xx_hal_pcd.c **** 
 2382              		.loc 1 1790 13 discriminator 1 view .LVU841
 2383              	.LBB48:
1790:Drivers/STM32G4xx_HAL_Driver/Src/stm32g4xx_hal_pcd.c **** 
 2384              		.loc 1 1790 13 discriminator 1 view .LVU842
1790:Drivers/STM32G4xx_HAL_Driver/Src/stm32g4xx_hal_pcd.c **** 
 2385              		.loc 1 1790 13 discriminator 1 view .LVU843
 2386 02fe 2168     		ldr	r1, [r4]
 2387 0300 05EB8502 		add	r2, r5, r5, lsl #2
 2388              	.LVL254:
1790:Drivers/STM32G4xx_HAL_Driver/Src/stm32g4xx_hal_pcd.c **** 
 2389              		.loc 1 1790 13 is_stmt 0 discriminator 1 view .LVU844
 2390 0304 04EBC202 		add	r2, r4, r2, lsl #3
ARM GAS  /tmp/ccXaRXaA.s 			page 94


 2391 0308 92F85001 		ldrb	r0, [r2, #336]	@ zero_extendqisi2
 2392 030c 31F82030 		ldrh	r3, [r1, r0, lsl #2]
 2393 0310 9BB2     		uxth	r3, r3
 2394 0312 23F4E043 		bic	r3, r3, #28672
 2395 0316 23F07003 		bic	r3, r3, #112
 2396              	.LVL255:
1790:Drivers/STM32G4xx_HAL_Driver/Src/stm32g4xx_hal_pcd.c **** 
 2397              		.loc 1 1790 13 is_stmt 1 view .LVU845
1790:Drivers/STM32G4xx_HAL_Driver/Src/stm32g4xx_hal_pcd.c **** 
 2398              		.loc 1 1790 13 is_stmt 0 discriminator 1 view .LVU846
 2399 031a 43F40043 		orr	r3, r3, #32768
 2400              	.LVL256:
1790:Drivers/STM32G4xx_HAL_Driver/Src/stm32g4xx_hal_pcd.c **** 
 2401              		.loc 1 1790 13 discriminator 1 view .LVU847
 2402 031e 43F0C003 		orr	r3, r3, #192
 2403 0322 21F82030 		strh	r3, [r1, r0, lsl #2]	@ movhi
 2404              	.LBE48:
1790:Drivers/STM32G4xx_HAL_Driver/Src/stm32g4xx_hal_pcd.c **** 
 2405              		.loc 1 1790 13 is_stmt 1 view .LVU848
1790:Drivers/STM32G4xx_HAL_Driver/Src/stm32g4xx_hal_pcd.c **** 
 2406              		.loc 1 1790 13 discriminator 6 view .LVU849
1790:Drivers/STM32G4xx_HAL_Driver/Src/stm32g4xx_hal_pcd.c **** 
 2407              		.loc 1 1790 13 discriminator 6 view .LVU850
1792:Drivers/STM32G4xx_HAL_Driver/Src/stm32g4xx_hal_pcd.c ****             {
 2408              		.loc 1 1792 13 view .LVU851
1792:Drivers/STM32G4xx_HAL_Driver/Src/stm32g4xx_hal_pcd.c ****             {
 2409              		.loc 1 1792 18 is_stmt 0 view .LVU852
 2410 0326 2068     		ldr	r0, [r4]
 2411 0328 92F85031 		ldrb	r3, [r2, #336]	@ zero_extendqisi2
 2412 032c 30F82320 		ldrh	r2, [r0, r3, lsl #2]
1792:Drivers/STM32G4xx_HAL_Driver/Src/stm32g4xx_hal_pcd.c ****             {
 2413              		.loc 1 1792 16 view .LVU853
 2414 0330 12F4804F 		tst	r2, #16384
 2415 0334 1FD0     		beq	.L117
1795:Drivers/STM32G4xx_HAL_Driver/Src/stm32g4xx_hal_pcd.c **** 
 2416              		.loc 1 1795 15 is_stmt 1 view .LVU854
1795:Drivers/STM32G4xx_HAL_Driver/Src/stm32g4xx_hal_pcd.c **** 
 2417              		.loc 1 1795 33 is_stmt 0 view .LVU855
 2418 0336 B0F85020 		ldrh	r2, [r0, #80]
 2419 033a DB00     		lsls	r3, r3, #3
 2420 033c 13FA82F3 		uxtah	r3, r3, r2
 2421 0340 0344     		add	r3, r3, r0
 2422 0342 B3F802A4 		ldrh	r10, [r3, #1026]
1795:Drivers/STM32G4xx_HAL_Driver/Src/stm32g4xx_hal_pcd.c **** 
 2423              		.loc 1 1795 21 view .LVU856
 2424 0346 CAF3090A 		ubfx	r10, r10, #0, #10
 2425              	.LVL257:
1797:Drivers/STM32G4xx_HAL_Driver/Src/stm32g4xx_hal_pcd.c ****               {
 2426              		.loc 1 1797 15 is_stmt 1 view .LVU857
1797:Drivers/STM32G4xx_HAL_Driver/Src/stm32g4xx_hal_pcd.c ****               {
 2427              		.loc 1 1797 18 is_stmt 0 view .LVU858
 2428 034a BAF1000F 		cmp	r10, #0
 2429 034e A4D0     		beq	.L115
1799:Drivers/STM32G4xx_HAL_Driver/Src/stm32g4xx_hal_pcd.c ****               }
 2430              		.loc 1 1799 17 is_stmt 1 view .LVU859
 2431 0350 05EB8501 		add	r1, r5, r5, lsl #2
 2432 0354 04EBC101 		add	r1, r4, r1, lsl #3
ARM GAS  /tmp/ccXaRXaA.s 			page 95


 2433 0358 5346     		mov	r3, r10
 2434 035a B1F85821 		ldrh	r2, [r1, #344]
 2435 035e D1F86411 		ldr	r1, [r1, #356]
 2436 0362 FFF7FEFF 		bl	USB_ReadPMA
 2437              	.LVL258:
 2438 0366 98E7     		b	.L115
 2439              	.LVL259:
 2440              	.L137:
1785:Drivers/STM32G4xx_HAL_Driver/Src/stm32g4xx_hal_pcd.c ****           }
 2441              		.loc 1 1785 13 view .LVU860
1785:Drivers/STM32G4xx_HAL_Driver/Src/stm32g4xx_hal_pcd.c ****           }
 2442              		.loc 1 1785 21 is_stmt 0 view .LVU861
 2443 0368 3246     		mov	r2, r6
 2444              	.LVL260:
1785:Drivers/STM32G4xx_HAL_Driver/Src/stm32g4xx_hal_pcd.c ****           }
 2445              		.loc 1 1785 21 view .LVU862
 2446 036a 4946     		mov	r1, r9
 2447 036c 2046     		mov	r0, r4
 2448 036e FFF7FEFF 		bl	HAL_PCD_EP_DB_Receive
 2449              	.LVL261:
 2450 0372 8246     		mov	r10, r0
 2451              	.LVL262:
1785:Drivers/STM32G4xx_HAL_Driver/Src/stm32g4xx_hal_pcd.c ****           }
 2452              		.loc 1 1785 21 view .LVU863
 2453 0374 91E7     		b	.L115
 2454              	.LVL263:
 2455              	.L117:
1805:Drivers/STM32G4xx_HAL_Driver/Src/stm32g4xx_hal_pcd.c **** 
 2456              		.loc 1 1805 15 is_stmt 1 view .LVU864
1805:Drivers/STM32G4xx_HAL_Driver/Src/stm32g4xx_hal_pcd.c **** 
 2457              		.loc 1 1805 33 is_stmt 0 view .LVU865
 2458 0376 B0F85020 		ldrh	r2, [r0, #80]
 2459 037a DB00     		lsls	r3, r3, #3
 2460 037c 13FA82F3 		uxtah	r3, r3, r2
 2461 0380 0344     		add	r3, r3, r0
 2462 0382 B3F806A4 		ldrh	r10, [r3, #1030]
1805:Drivers/STM32G4xx_HAL_Driver/Src/stm32g4xx_hal_pcd.c **** 
 2463              		.loc 1 1805 21 view .LVU866
 2464 0386 CAF3090A 		ubfx	r10, r10, #0, #10
 2465              	.LVL264:
1807:Drivers/STM32G4xx_HAL_Driver/Src/stm32g4xx_hal_pcd.c ****               {
 2466              		.loc 1 1807 15 is_stmt 1 view .LVU867
1807:Drivers/STM32G4xx_HAL_Driver/Src/stm32g4xx_hal_pcd.c ****               {
 2467              		.loc 1 1807 18 is_stmt 0 view .LVU868
 2468 038a BAF1000F 		cmp	r10, #0
 2469 038e 84D0     		beq	.L115
1809:Drivers/STM32G4xx_HAL_Driver/Src/stm32g4xx_hal_pcd.c ****               }
 2470              		.loc 1 1809 17 is_stmt 1 view .LVU869
 2471 0390 05EB8501 		add	r1, r5, r5, lsl #2
 2472 0394 04EBC101 		add	r1, r4, r1, lsl #3
 2473 0398 5346     		mov	r3, r10
 2474 039a B1F85A21 		ldrh	r2, [r1, #346]
 2475 039e D1F86411 		ldr	r1, [r1, #356]
 2476 03a2 FFF7FEFF 		bl	USB_ReadPMA
 2477              	.LVL265:
 2478 03a6 78E7     		b	.L115
 2479              	.LVL266:
ARM GAS  /tmp/ccXaRXaA.s 			page 96


 2480              	.L119:
1830:Drivers/STM32G4xx_HAL_Driver/Src/stm32g4xx_hal_pcd.c ****           (void)USB_EPStartXfer(hpcd->Instance, ep);
 2481              		.loc 1 1830 11 view .LVU870
1830:Drivers/STM32G4xx_HAL_Driver/Src/stm32g4xx_hal_pcd.c ****           (void)USB_EPStartXfer(hpcd->Instance, ep);
 2482              		.loc 1 1830 13 is_stmt 0 view .LVU871
 2483 03a8 08EB8803 		add	r3, r8, r8, lsl #2
 2484 03ac 04EBC303 		add	r3, r4, r3, lsl #3
 2485 03b0 D3F86431 		ldr	r3, [r3, #356]
1830:Drivers/STM32G4xx_HAL_Driver/Src/stm32g4xx_hal_pcd.c ****           (void)USB_EPStartXfer(hpcd->Instance, ep);
 2486              		.loc 1 1830 25 view .LVU872
 2487 03b4 08EB8808 		add	r8, r8, r8, lsl #2
 2488 03b8 04EBC808 		add	r8, r4, r8, lsl #3
 2489 03bc 5344     		add	r3, r3, r10
 2490 03be C8F86431 		str	r3, [r8, #356]
1831:Drivers/STM32G4xx_HAL_Driver/Src/stm32g4xx_hal_pcd.c ****         }
 2491              		.loc 1 1831 11 is_stmt 1 view .LVU873
1831:Drivers/STM32G4xx_HAL_Driver/Src/stm32g4xx_hal_pcd.c ****         }
 2492              		.loc 1 1831 17 is_stmt 0 view .LVU874
 2493 03c2 4946     		mov	r1, r9
 2494 03c4 2068     		ldr	r0, [r4]
 2495 03c6 FFF7FEFF 		bl	USB_EPStartXfer
 2496              	.LVL267:
 2497 03ca EBE6     		b	.L113
 2498              	.LVL268:
 2499              	.L135:
1844:Drivers/STM32G4xx_HAL_Driver/Src/stm32g4xx_hal_pcd.c **** 
 2500              		.loc 1 1844 11 is_stmt 1 view .LVU875
1844:Drivers/STM32G4xx_HAL_Driver/Src/stm32g4xx_hal_pcd.c **** 
 2501              		.loc 1 1844 24 is_stmt 0 view .LVU876
 2502 03cc 6B1C     		adds	r3, r5, #1
 2503 03ce 03EB8303 		add	r3, r3, r3, lsl #2
 2504 03d2 DB00     		lsls	r3, r3, #3
 2505 03d4 0021     		movs	r1, #0
 2506              	.LVL269:
1844:Drivers/STM32G4xx_HAL_Driver/Src/stm32g4xx_hal_pcd.c **** 
 2507              		.loc 1 1844 24 view .LVU877
 2508 03d6 E150     		str	r1, [r4, r3]
1847:Drivers/STM32G4xx_HAL_Driver/Src/stm32g4xx_hal_pcd.c ****           {
 2509              		.loc 1 1847 11 is_stmt 1 view .LVU878
1847:Drivers/STM32G4xx_HAL_Driver/Src/stm32g4xx_hal_pcd.c ****           {
 2510              		.loc 1 1847 17 is_stmt 0 view .LVU879
 2511 03d8 05EB8505 		add	r5, r5, r5, lsl #2
 2512              	.LVL270:
1847:Drivers/STM32G4xx_HAL_Driver/Src/stm32g4xx_hal_pcd.c ****           {
 2513              		.loc 1 1847 17 view .LVU880
 2514 03dc 04EBC505 		add	r5, r4, r5, lsl #3
 2515 03e0 2B7F     		ldrb	r3, [r5, #28]	@ zero_extendqisi2
1847:Drivers/STM32G4xx_HAL_Driver/Src/stm32g4xx_hal_pcd.c ****           {
 2516              		.loc 1 1847 14 view .LVU881
 2517 03e2 DBB1     		cbz	r3, .L121
1849:Drivers/STM32G4xx_HAL_Driver/Src/stm32g4xx_hal_pcd.c ****             {
 2518              		.loc 1 1849 13 is_stmt 1 view .LVU882
1849:Drivers/STM32G4xx_HAL_Driver/Src/stm32g4xx_hal_pcd.c ****             {
 2519              		.loc 1 1849 16 is_stmt 0 view .LVU883
 2520 03e4 16F0400F 		tst	r6, #64
 2521 03e8 33D0     		beq	.L122
1851:Drivers/STM32G4xx_HAL_Driver/Src/stm32g4xx_hal_pcd.c ****             }
ARM GAS  /tmp/ccXaRXaA.s 			page 97


 2522              		.loc 1 1851 15 is_stmt 1 view .LVU884
1851:Drivers/STM32G4xx_HAL_Driver/Src/stm32g4xx_hal_pcd.c ****             }
 2523              		.loc 1 1851 15 view .LVU885
 2524 03ea 6B7C     		ldrb	r3, [r5, #17]	@ zero_extendqisi2
 2525 03ec FBB9     		cbnz	r3, .L123
1851:Drivers/STM32G4xx_HAL_Driver/Src/stm32g4xx_hal_pcd.c ****             }
 2526              		.loc 1 1851 15 discriminator 1 view .LVU886
 2527              	.LBB49:
1851:Drivers/STM32G4xx_HAL_Driver/Src/stm32g4xx_hal_pcd.c ****             }
 2528              		.loc 1 1851 15 discriminator 1 view .LVU887
 2529 03ee 2168     		ldr	r1, [r4]
 2530              	.LVL271:
1851:Drivers/STM32G4xx_HAL_Driver/Src/stm32g4xx_hal_pcd.c ****             }
 2531              		.loc 1 1851 15 view .LVU888
1851:Drivers/STM32G4xx_HAL_Driver/Src/stm32g4xx_hal_pcd.c ****             }
 2532              		.loc 1 1851 15 view .LVU889
1851:Drivers/STM32G4xx_HAL_Driver/Src/stm32g4xx_hal_pcd.c ****             }
 2533              		.loc 1 1851 15 is_stmt 0 discriminator 1 view .LVU890
 2534 03f0 B1F85030 		ldrh	r3, [r1, #80]
 2535 03f4 11FA83F3 		uxtah	r3, r1, r3
 2536              	.LVL272:
1851:Drivers/STM32G4xx_HAL_Driver/Src/stm32g4xx_hal_pcd.c ****             }
 2537              		.loc 1 1851 15 is_stmt 1 view .LVU891
1851:Drivers/STM32G4xx_HAL_Driver/Src/stm32g4xx_hal_pcd.c ****             }
 2538              		.loc 1 1851 15 is_stmt 0 discriminator 1 view .LVU892
 2539 03f8 297C     		ldrb	r1, [r5, #16]	@ zero_extendqisi2
 2540 03fa 03EBC103 		add	r3, r3, r1, lsl #3
 2541              	.LVL273:
1851:Drivers/STM32G4xx_HAL_Driver/Src/stm32g4xx_hal_pcd.c ****             }
 2542              		.loc 1 1851 15 is_stmt 1 view .LVU893
 2543              	.LBB50:
1851:Drivers/STM32G4xx_HAL_Driver/Src/stm32g4xx_hal_pcd.c ****             }
 2544              		.loc 1 1851 15 view .LVU894
1851:Drivers/STM32G4xx_HAL_Driver/Src/stm32g4xx_hal_pcd.c ****             }
 2545              		.loc 1 1851 15 view .LVU895
1851:Drivers/STM32G4xx_HAL_Driver/Src/stm32g4xx_hal_pcd.c ****             }
 2546              		.loc 1 1851 15 is_stmt 0 discriminator 1 view .LVU896
 2547 03fe B3F80214 		ldrh	r1, [r3, #1026]
 2548 0402 C1F30901 		ubfx	r1, r1, #0, #10
 2549 0406 A3F80214 		strh	r1, [r3, #1026]	@ movhi
1851:Drivers/STM32G4xx_HAL_Driver/Src/stm32g4xx_hal_pcd.c ****             }
 2550              		.loc 1 1851 15 is_stmt 1 view .LVU897
1851:Drivers/STM32G4xx_HAL_Driver/Src/stm32g4xx_hal_pcd.c ****             }
 2551              		.loc 1 1851 15 discriminator 3 view .LVU898
 2552 040a B3F80214 		ldrh	r1, [r3, #1026]
 2553 040e 6FEA4141 		mvn	r1, r1, lsl #17
 2554 0412 6FEA5141 		mvn	r1, r1, lsr #17
 2555 0416 89B2     		uxth	r1, r1
 2556 0418 A3F80214 		strh	r1, [r3, #1026]	@ movhi
1851:Drivers/STM32G4xx_HAL_Driver/Src/stm32g4xx_hal_pcd.c ****             }
 2557              		.loc 1 1851 15 discriminator 15 view .LVU899
 2558              	.LBE50:
1851:Drivers/STM32G4xx_HAL_Driver/Src/stm32g4xx_hal_pcd.c ****             }
 2559              		.loc 1 1851 15 discriminator 15 view .LVU900
 2560              	.LBE49:
1851:Drivers/STM32G4xx_HAL_Driver/Src/stm32g4xx_hal_pcd.c ****             }
 2561              		.loc 1 1851 15 discriminator 15 view .LVU901
ARM GAS  /tmp/ccXaRXaA.s 			page 98


 2562              	.LVL274:
 2563              	.L121:
1855:Drivers/STM32G4xx_HAL_Driver/Src/stm32g4xx_hal_pcd.c ****             }
 2564              		.loc 1 1855 15 discriminator 18 view .LVU902
1864:Drivers/STM32G4xx_HAL_Driver/Src/stm32g4xx_hal_pcd.c **** #endif /* USE_HAL_PCD_REGISTER_CALLBACKS */
 2565              		.loc 1 1864 11 view .LVU903
 2566 041c 02EB8202 		add	r2, r2, r2, lsl #2
 2567              	.LVL275:
1864:Drivers/STM32G4xx_HAL_Driver/Src/stm32g4xx_hal_pcd.c **** #endif /* USE_HAL_PCD_REGISTER_CALLBACKS */
 2568              		.loc 1 1864 11 is_stmt 0 view .LVU904
 2569 0420 04EBC202 		add	r2, r4, r2, lsl #3
 2570 0424 117C     		ldrb	r1, [r2, #16]	@ zero_extendqisi2
 2571 0426 2046     		mov	r0, r4
 2572 0428 FFF7FEFF 		bl	HAL_PCD_DataInStageCallback
 2573              	.LVL276:
 2574 042c 2BE6     		b	.L105
 2575              	.LVL277:
 2576              	.L123:
1851:Drivers/STM32G4xx_HAL_Driver/Src/stm32g4xx_hal_pcd.c ****             }
 2577              		.loc 1 1851 15 is_stmt 1 discriminator 2 view .LVU905
 2578 042e 012B     		cmp	r3, #1
 2579 0430 F4D1     		bne	.L121
1851:Drivers/STM32G4xx_HAL_Driver/Src/stm32g4xx_hal_pcd.c ****             }
 2580              		.loc 1 1851 15 discriminator 16 view .LVU906
 2581              	.LBB51:
1851:Drivers/STM32G4xx_HAL_Driver/Src/stm32g4xx_hal_pcd.c ****             }
 2582              		.loc 1 1851 15 discriminator 16 view .LVU907
 2583 0432 2168     		ldr	r1, [r4]
 2584              	.LVL278:
1851:Drivers/STM32G4xx_HAL_Driver/Src/stm32g4xx_hal_pcd.c ****             }
 2585              		.loc 1 1851 15 view .LVU908
1851:Drivers/STM32G4xx_HAL_Driver/Src/stm32g4xx_hal_pcd.c ****             }
 2586              		.loc 1 1851 15 view .LVU909
1851:Drivers/STM32G4xx_HAL_Driver/Src/stm32g4xx_hal_pcd.c ****             }
 2587              		.loc 1 1851 15 is_stmt 0 discriminator 16 view .LVU910
 2588 0434 B1F85030 		ldrh	r3, [r1, #80]
 2589 0438 11FA83F3 		uxtah	r3, r1, r3
 2590              	.LVL279:
1851:Drivers/STM32G4xx_HAL_Driver/Src/stm32g4xx_hal_pcd.c ****             }
 2591              		.loc 1 1851 15 is_stmt 1 view .LVU911
1851:Drivers/STM32G4xx_HAL_Driver/Src/stm32g4xx_hal_pcd.c ****             }
 2592              		.loc 1 1851 15 is_stmt 0 discriminator 16 view .LVU912
 2593 043c 02EB8201 		add	r1, r2, r2, lsl #2
 2594 0440 04EBC101 		add	r1, r4, r1, lsl #3
 2595 0444 097C     		ldrb	r1, [r1, #16]	@ zero_extendqisi2
 2596 0446 03EBC103 		add	r3, r3, r1, lsl #3
 2597              	.LVL280:
1851:Drivers/STM32G4xx_HAL_Driver/Src/stm32g4xx_hal_pcd.c ****             }
 2598              		.loc 1 1851 15 is_stmt 1 view .LVU913
1851:Drivers/STM32G4xx_HAL_Driver/Src/stm32g4xx_hal_pcd.c ****             }
 2599              		.loc 1 1851 15 is_stmt 0 discriminator 16 view .LVU914
 2600 044a 0021     		movs	r1, #0
 2601 044c A3F80214 		strh	r1, [r3, #1026]	@ movhi
 2602 0450 E4E7     		b	.L121
 2603              	.LVL281:
 2604              	.L122:
1851:Drivers/STM32G4xx_HAL_Driver/Src/stm32g4xx_hal_pcd.c ****             }
ARM GAS  /tmp/ccXaRXaA.s 			page 99


 2605              		.loc 1 1851 15 discriminator 16 view .LVU915
 2606              	.LBE51:
1855:Drivers/STM32G4xx_HAL_Driver/Src/stm32g4xx_hal_pcd.c ****             }
 2607              		.loc 1 1855 15 is_stmt 1 view .LVU916
 2608              	.LBB52:
1855:Drivers/STM32G4xx_HAL_Driver/Src/stm32g4xx_hal_pcd.c ****             }
 2609              		.loc 1 1855 15 view .LVU917
 2610 0452 2168     		ldr	r1, [r4]
 2611              	.LVL282:
1855:Drivers/STM32G4xx_HAL_Driver/Src/stm32g4xx_hal_pcd.c ****             }
 2612              		.loc 1 1855 15 view .LVU918
1855:Drivers/STM32G4xx_HAL_Driver/Src/stm32g4xx_hal_pcd.c ****             }
 2613              		.loc 1 1855 15 view .LVU919
 2614 0454 02EB8203 		add	r3, r2, r2, lsl #2
 2615 0458 04EBC303 		add	r3, r4, r3, lsl #3
 2616 045c 5B7C     		ldrb	r3, [r3, #17]	@ zero_extendqisi2
 2617 045e D3B9     		cbnz	r3, .L124
1855:Drivers/STM32G4xx_HAL_Driver/Src/stm32g4xx_hal_pcd.c ****             }
 2618              		.loc 1 1855 15 discriminator 1 view .LVU920
 2619              	.LBB53:
1855:Drivers/STM32G4xx_HAL_Driver/Src/stm32g4xx_hal_pcd.c ****             }
 2620              		.loc 1 1855 15 discriminator 1 view .LVU921
 2621              	.LVL283:
1855:Drivers/STM32G4xx_HAL_Driver/Src/stm32g4xx_hal_pcd.c ****             }
 2622              		.loc 1 1855 15 view .LVU922
1855:Drivers/STM32G4xx_HAL_Driver/Src/stm32g4xx_hal_pcd.c ****             }
 2623              		.loc 1 1855 15 view .LVU923
1855:Drivers/STM32G4xx_HAL_Driver/Src/stm32g4xx_hal_pcd.c ****             }
 2624              		.loc 1 1855 15 is_stmt 0 discriminator 1 view .LVU924
 2625 0460 B1F85030 		ldrh	r3, [r1, #80]
 2626 0464 11FA83F3 		uxtah	r3, r1, r3
 2627              	.LVL284:
1855:Drivers/STM32G4xx_HAL_Driver/Src/stm32g4xx_hal_pcd.c ****             }
 2628              		.loc 1 1855 15 is_stmt 1 view .LVU925
1855:Drivers/STM32G4xx_HAL_Driver/Src/stm32g4xx_hal_pcd.c ****             }
 2629              		.loc 1 1855 15 is_stmt 0 discriminator 1 view .LVU926
 2630 0468 02EB8201 		add	r1, r2, r2, lsl #2
 2631              	.LVL285:
1855:Drivers/STM32G4xx_HAL_Driver/Src/stm32g4xx_hal_pcd.c ****             }
 2632              		.loc 1 1855 15 discriminator 1 view .LVU927
 2633 046c 04EBC101 		add	r1, r4, r1, lsl #3
 2634 0470 097C     		ldrb	r1, [r1, #16]	@ zero_extendqisi2
 2635 0472 03EBC103 		add	r3, r3, r1, lsl #3
 2636              	.LVL286:
1855:Drivers/STM32G4xx_HAL_Driver/Src/stm32g4xx_hal_pcd.c ****             }
 2637              		.loc 1 1855 15 is_stmt 1 view .LVU928
 2638              	.LBB54:
1855:Drivers/STM32G4xx_HAL_Driver/Src/stm32g4xx_hal_pcd.c ****             }
 2639              		.loc 1 1855 15 view .LVU929
1855:Drivers/STM32G4xx_HAL_Driver/Src/stm32g4xx_hal_pcd.c ****             }
 2640              		.loc 1 1855 15 view .LVU930
1855:Drivers/STM32G4xx_HAL_Driver/Src/stm32g4xx_hal_pcd.c ****             }
 2641              		.loc 1 1855 15 is_stmt 0 discriminator 1 view .LVU931
 2642 0476 B3F80614 		ldrh	r1, [r3, #1030]
 2643 047a C1F30901 		ubfx	r1, r1, #0, #10
 2644 047e A3F80614 		strh	r1, [r3, #1030]	@ movhi
 2645              	.LVL287:
ARM GAS  /tmp/ccXaRXaA.s 			page 100


1855:Drivers/STM32G4xx_HAL_Driver/Src/stm32g4xx_hal_pcd.c ****             }
 2646              		.loc 1 1855 15 is_stmt 1 view .LVU932
1855:Drivers/STM32G4xx_HAL_Driver/Src/stm32g4xx_hal_pcd.c ****             }
 2647              		.loc 1 1855 15 discriminator 3 view .LVU933
 2648 0482 B3F80614 		ldrh	r1, [r3, #1030]
 2649 0486 6FEA4141 		mvn	r1, r1, lsl #17
 2650 048a 6FEA5141 		mvn	r1, r1, lsr #17
 2651 048e 89B2     		uxth	r1, r1
 2652 0490 A3F80614 		strh	r1, [r3, #1030]	@ movhi
1855:Drivers/STM32G4xx_HAL_Driver/Src/stm32g4xx_hal_pcd.c ****             }
 2653              		.loc 1 1855 15 discriminator 15 view .LVU934
 2654              	.LBE54:
1855:Drivers/STM32G4xx_HAL_Driver/Src/stm32g4xx_hal_pcd.c ****             }
 2655              		.loc 1 1855 15 discriminator 15 view .LVU935
 2656              	.LBE53:
1855:Drivers/STM32G4xx_HAL_Driver/Src/stm32g4xx_hal_pcd.c ****             }
 2657              		.loc 1 1855 15 discriminator 15 view .LVU936
 2658              	.LBB56:
 2659              	.LBB55:
 2660 0494 C2E7     		b	.L121
 2661              	.LVL288:
 2662              	.L124:
1855:Drivers/STM32G4xx_HAL_Driver/Src/stm32g4xx_hal_pcd.c ****             }
 2663              		.loc 1 1855 15 is_stmt 0 discriminator 15 view .LVU937
 2664              	.LBE55:
 2665              	.LBE56:
1855:Drivers/STM32G4xx_HAL_Driver/Src/stm32g4xx_hal_pcd.c ****             }
 2666              		.loc 1 1855 15 is_stmt 1 discriminator 2 view .LVU938
 2667 0496 012B     		cmp	r3, #1
 2668 0498 C0D1     		bne	.L121
1855:Drivers/STM32G4xx_HAL_Driver/Src/stm32g4xx_hal_pcd.c ****             }
 2669              		.loc 1 1855 15 discriminator 16 view .LVU939
 2670 049a B1F85030 		ldrh	r3, [r1, #80]
 2671 049e 11FA83F3 		uxtah	r3, r1, r3
 2672              	.LVL289:
1855:Drivers/STM32G4xx_HAL_Driver/Src/stm32g4xx_hal_pcd.c ****             }
 2673              		.loc 1 1855 15 view .LVU940
1855:Drivers/STM32G4xx_HAL_Driver/Src/stm32g4xx_hal_pcd.c ****             }
 2674              		.loc 1 1855 15 is_stmt 0 discriminator 16 view .LVU941
 2675 04a2 02EB8201 		add	r1, r2, r2, lsl #2
 2676 04a6 04EBC101 		add	r1, r4, r1, lsl #3
 2677 04aa 097C     		ldrb	r1, [r1, #16]	@ zero_extendqisi2
 2678 04ac 03EBC103 		add	r3, r3, r1, lsl #3
 2679              	.LVL290:
1855:Drivers/STM32G4xx_HAL_Driver/Src/stm32g4xx_hal_pcd.c ****             }
 2680              		.loc 1 1855 15 is_stmt 1 view .LVU942
1855:Drivers/STM32G4xx_HAL_Driver/Src/stm32g4xx_hal_pcd.c ****             }
 2681              		.loc 1 1855 15 is_stmt 0 discriminator 16 view .LVU943
 2682 04b0 0021     		movs	r1, #0
 2683 04b2 A3F80614 		strh	r1, [r3, #1030]	@ movhi
 2684 04b6 B1E7     		b	.L121
 2685              	.LVL291:
 2686              	.L126:
1855:Drivers/STM32G4xx_HAL_Driver/Src/stm32g4xx_hal_pcd.c ****             }
 2687              		.loc 1 1855 15 discriminator 16 view .LVU944
 2688              	.LBE52:
1881:Drivers/STM32G4xx_HAL_Driver/Src/stm32g4xx_hal_pcd.c ****             }
ARM GAS  /tmp/ccXaRXaA.s 			page 101


 2689              		.loc 1 1881 15 is_stmt 1 view .LVU945
1881:Drivers/STM32G4xx_HAL_Driver/Src/stm32g4xx_hal_pcd.c ****             }
 2690              		.loc 1 1881 28 is_stmt 0 view .LVU946
 2691 04b8 0135     		adds	r5, r5, #1
 2692              	.LVL292:
1881:Drivers/STM32G4xx_HAL_Driver/Src/stm32g4xx_hal_pcd.c ****             }
 2693              		.loc 1 1881 28 view .LVU947
 2694 04ba 05EB8505 		add	r5, r5, r5, lsl #2
 2695 04be ED00     		lsls	r5, r5, #3
 2696 04c0 0026     		movs	r6, #0
 2697 04c2 6651     		str	r6, [r4, r5]
 2698 04c4 AFE6     		b	.L127
 2699              	.L128:
1897:Drivers/STM32G4xx_HAL_Driver/Src/stm32g4xx_hal_pcd.c ****               ep->xfer_count += TxPctSize;
 2700              		.loc 1 1897 15 is_stmt 1 view .LVU948
1897:Drivers/STM32G4xx_HAL_Driver/Src/stm32g4xx_hal_pcd.c ****               ep->xfer_count += TxPctSize;
 2701              		.loc 1 1897 17 is_stmt 0 view .LVU949
 2702 04c6 02EB8205 		add	r5, r2, r2, lsl #2
 2703 04ca 04EBC505 		add	r5, r4, r5, lsl #3
 2704 04ce 6E6A     		ldr	r6, [r5, #36]
1897:Drivers/STM32G4xx_HAL_Driver/Src/stm32g4xx_hal_pcd.c ****               ep->xfer_count += TxPctSize;
 2705              		.loc 1 1897 29 view .LVU950
 2706 04d0 1E44     		add	r6, r6, r3
 2707 04d2 6E62     		str	r6, [r5, #36]
1898:Drivers/STM32G4xx_HAL_Driver/Src/stm32g4xx_hal_pcd.c ****               (void)USB_EPStartXfer(hpcd->Instance, ep);
 2708              		.loc 1 1898 15 is_stmt 1 view .LVU951
1898:Drivers/STM32G4xx_HAL_Driver/Src/stm32g4xx_hal_pcd.c ****               (void)USB_EPStartXfer(hpcd->Instance, ep);
 2709              		.loc 1 1898 17 is_stmt 0 view .LVU952
 2710 04d4 0132     		adds	r2, r2, #1
 2711              	.LVL293:
1898:Drivers/STM32G4xx_HAL_Driver/Src/stm32g4xx_hal_pcd.c ****               (void)USB_EPStartXfer(hpcd->Instance, ep);
 2712              		.loc 1 1898 17 view .LVU953
 2713 04d6 02EB8205 		add	r5, r2, r2, lsl #2
 2714 04da 04EBC505 		add	r5, r4, r5, lsl #3
 2715 04de 6D68     		ldr	r5, [r5, #4]
1898:Drivers/STM32G4xx_HAL_Driver/Src/stm32g4xx_hal_pcd.c ****               (void)USB_EPStartXfer(hpcd->Instance, ep);
 2716              		.loc 1 1898 30 view .LVU954
 2717 04e0 02EB8202 		add	r2, r2, r2, lsl #2
 2718              	.LVL294:
1898:Drivers/STM32G4xx_HAL_Driver/Src/stm32g4xx_hal_pcd.c ****               (void)USB_EPStartXfer(hpcd->Instance, ep);
 2719              		.loc 1 1898 30 view .LVU955
 2720 04e4 04EBC202 		add	r2, r4, r2, lsl #3
 2721 04e8 2B44     		add	r3, r3, r5
 2722              	.LVL295:
1898:Drivers/STM32G4xx_HAL_Driver/Src/stm32g4xx_hal_pcd.c ****               (void)USB_EPStartXfer(hpcd->Instance, ep);
 2723              		.loc 1 1898 30 view .LVU956
 2724 04ea 5360     		str	r3, [r2, #4]
1899:Drivers/STM32G4xx_HAL_Driver/Src/stm32g4xx_hal_pcd.c ****             }
 2725              		.loc 1 1899 15 is_stmt 1 view .LVU957
1899:Drivers/STM32G4xx_HAL_Driver/Src/stm32g4xx_hal_pcd.c ****             }
 2726              		.loc 1 1899 21 is_stmt 0 view .LVU958
 2727 04ec FFF7FEFF 		bl	USB_EPStartXfer
 2728              	.LVL296:
1899:Drivers/STM32G4xx_HAL_Driver/Src/stm32g4xx_hal_pcd.c ****             }
 2729              		.loc 1 1899 21 view .LVU959
 2730 04f0 C9E5     		b	.L105
 2731              	.LVL297:
ARM GAS  /tmp/ccXaRXaA.s 			page 102


 2732              	.L125:
1906:Drivers/STM32G4xx_HAL_Driver/Src/stm32g4xx_hal_pcd.c ****           }
 2733              		.loc 1 1906 13 is_stmt 1 view .LVU960
1906:Drivers/STM32G4xx_HAL_Driver/Src/stm32g4xx_hal_pcd.c ****           }
 2734              		.loc 1 1906 19 is_stmt 0 view .LVU961
 2735 04f2 3246     		mov	r2, r6
 2736 04f4 2046     		mov	r0, r4
 2737 04f6 FFF7FEFF 		bl	HAL_PCD_EP_DB_Transmit
 2738              	.LVL298:
1906:Drivers/STM32G4xx_HAL_Driver/Src/stm32g4xx_hal_pcd.c ****           }
 2739              		.loc 1 1906 19 view .LVU962
 2740 04fa C4E5     		b	.L105
 2741              	.LVL299:
 2742              	.L132:
1914:Drivers/STM32G4xx_HAL_Driver/Src/stm32g4xx_hal_pcd.c **** }
 2743              		.loc 1 1914 10 view .LVU963
 2744 04fc 0025     		movs	r5, #0
 2745              	.L106:
1915:Drivers/STM32G4xx_HAL_Driver/Src/stm32g4xx_hal_pcd.c **** 
 2746              		.loc 1 1915 1 view .LVU964
 2747 04fe 2846     		mov	r0, r5
 2748 0500 BDE8F087 		pop	{r4, r5, r6, r7, r8, r9, r10, pc}
 2749              	.LVL300:
 2750              	.L130:
1653:Drivers/STM32G4xx_HAL_Driver/Src/stm32g4xx_hal_pcd.c ****     }
 2751              		.loc 1 1653 14 view .LVU965
 2752 0504 0125     		movs	r5, #1
 2753              	.LVL301:
1653:Drivers/STM32G4xx_HAL_Driver/Src/stm32g4xx_hal_pcd.c ****     }
 2754              		.loc 1 1653 14 view .LVU966
 2755 0506 FAE7     		b	.L106
 2756              		.cfi_endproc
 2757              	.LFE362:
 2759              		.section	.text.HAL_PCD_SOFCallback,"ax",%progbits
 2760              		.align	1
 2761              		.weak	HAL_PCD_SOFCallback
 2762              		.syntax unified
 2763              		.thumb
 2764              		.thumb_func
 2766              	HAL_PCD_SOFCallback:
 2767              	.LVL302:
 2768              	.LFB339:
1123:Drivers/STM32G4xx_HAL_Driver/Src/stm32g4xx_hal_pcd.c ****   /* Prevent unused argument(s) compilation warning */
 2769              		.loc 1 1123 1 is_stmt 1 view -0
 2770              		.cfi_startproc
 2771              		@ args = 0, pretend = 0, frame = 0
 2772              		@ frame_needed = 0, uses_anonymous_args = 0
 2773              		@ link register save eliminated.
1125:Drivers/STM32G4xx_HAL_Driver/Src/stm32g4xx_hal_pcd.c **** 
 2774              		.loc 1 1125 3 view .LVU968
1130:Drivers/STM32G4xx_HAL_Driver/Src/stm32g4xx_hal_pcd.c **** 
 2775              		.loc 1 1130 1 is_stmt 0 view .LVU969
 2776 0000 7047     		bx	lr
 2777              		.cfi_endproc
 2778              	.LFE339:
 2780              		.section	.text.HAL_PCD_ResetCallback,"ax",%progbits
 2781              		.align	1
ARM GAS  /tmp/ccXaRXaA.s 			page 103


 2782              		.weak	HAL_PCD_ResetCallback
 2783              		.syntax unified
 2784              		.thumb
 2785              		.thumb_func
 2787              	HAL_PCD_ResetCallback:
 2788              	.LVL303:
 2789              	.LFB340:
1138:Drivers/STM32G4xx_HAL_Driver/Src/stm32g4xx_hal_pcd.c ****   /* Prevent unused argument(s) compilation warning */
 2790              		.loc 1 1138 1 is_stmt 1 view -0
 2791              		.cfi_startproc
 2792              		@ args = 0, pretend = 0, frame = 0
 2793              		@ frame_needed = 0, uses_anonymous_args = 0
 2794              		@ link register save eliminated.
1140:Drivers/STM32G4xx_HAL_Driver/Src/stm32g4xx_hal_pcd.c **** 
 2795              		.loc 1 1140 3 view .LVU971
1145:Drivers/STM32G4xx_HAL_Driver/Src/stm32g4xx_hal_pcd.c **** 
 2796              		.loc 1 1145 1 is_stmt 0 view .LVU972
 2797 0000 7047     		bx	lr
 2798              		.cfi_endproc
 2799              	.LFE340:
 2801              		.section	.text.HAL_PCD_SuspendCallback,"ax",%progbits
 2802              		.align	1
 2803              		.weak	HAL_PCD_SuspendCallback
 2804              		.syntax unified
 2805              		.thumb
 2806              		.thumb_func
 2808              	HAL_PCD_SuspendCallback:
 2809              	.LVL304:
 2810              	.LFB341:
1153:Drivers/STM32G4xx_HAL_Driver/Src/stm32g4xx_hal_pcd.c ****   /* Prevent unused argument(s) compilation warning */
 2811              		.loc 1 1153 1 is_stmt 1 view -0
 2812              		.cfi_startproc
 2813              		@ args = 0, pretend = 0, frame = 0
 2814              		@ frame_needed = 0, uses_anonymous_args = 0
 2815              		@ link register save eliminated.
1155:Drivers/STM32G4xx_HAL_Driver/Src/stm32g4xx_hal_pcd.c **** 
 2816              		.loc 1 1155 3 view .LVU974
1160:Drivers/STM32G4xx_HAL_Driver/Src/stm32g4xx_hal_pcd.c **** 
 2817              		.loc 1 1160 1 is_stmt 0 view .LVU975
 2818 0000 7047     		bx	lr
 2819              		.cfi_endproc
 2820              	.LFE341:
 2822              		.section	.text.HAL_PCD_ResumeCallback,"ax",%progbits
 2823              		.align	1
 2824              		.weak	HAL_PCD_ResumeCallback
 2825              		.syntax unified
 2826              		.thumb
 2827              		.thumb_func
 2829              	HAL_PCD_ResumeCallback:
 2830              	.LVL305:
 2831              	.LFB342:
1168:Drivers/STM32G4xx_HAL_Driver/Src/stm32g4xx_hal_pcd.c ****   /* Prevent unused argument(s) compilation warning */
 2832              		.loc 1 1168 1 is_stmt 1 view -0
 2833              		.cfi_startproc
 2834              		@ args = 0, pretend = 0, frame = 0
 2835              		@ frame_needed = 0, uses_anonymous_args = 0
 2836              		@ link register save eliminated.
ARM GAS  /tmp/ccXaRXaA.s 			page 104


1170:Drivers/STM32G4xx_HAL_Driver/Src/stm32g4xx_hal_pcd.c **** 
 2837              		.loc 1 1170 3 view .LVU977
1175:Drivers/STM32G4xx_HAL_Driver/Src/stm32g4xx_hal_pcd.c **** 
 2838              		.loc 1 1175 1 is_stmt 0 view .LVU978
 2839 0000 7047     		bx	lr
 2840              		.cfi_endproc
 2841              	.LFE342:
 2843              		.section	.text.HAL_PCD_ISOOUTIncompleteCallback,"ax",%progbits
 2844              		.align	1
 2845              		.weak	HAL_PCD_ISOOUTIncompleteCallback
 2846              		.syntax unified
 2847              		.thumb
 2848              		.thumb_func
 2850              	HAL_PCD_ISOOUTIncompleteCallback:
 2851              	.LVL306:
 2852              	.LFB343:
1184:Drivers/STM32G4xx_HAL_Driver/Src/stm32g4xx_hal_pcd.c ****   /* Prevent unused argument(s) compilation warning */
 2853              		.loc 1 1184 1 is_stmt 1 view -0
 2854              		.cfi_startproc
 2855              		@ args = 0, pretend = 0, frame = 0
 2856              		@ frame_needed = 0, uses_anonymous_args = 0
 2857              		@ link register save eliminated.
1186:Drivers/STM32G4xx_HAL_Driver/Src/stm32g4xx_hal_pcd.c ****   UNUSED(epnum);
 2858              		.loc 1 1186 3 view .LVU980
1187:Drivers/STM32G4xx_HAL_Driver/Src/stm32g4xx_hal_pcd.c **** 
 2859              		.loc 1 1187 3 view .LVU981
1192:Drivers/STM32G4xx_HAL_Driver/Src/stm32g4xx_hal_pcd.c **** 
 2860              		.loc 1 1192 1 is_stmt 0 view .LVU982
 2861 0000 7047     		bx	lr
 2862              		.cfi_endproc
 2863              	.LFE343:
 2865              		.section	.text.HAL_PCD_ISOINIncompleteCallback,"ax",%progbits
 2866              		.align	1
 2867              		.weak	HAL_PCD_ISOINIncompleteCallback
 2868              		.syntax unified
 2869              		.thumb
 2870              		.thumb_func
 2872              	HAL_PCD_ISOINIncompleteCallback:
 2873              	.LVL307:
 2874              	.LFB344:
1201:Drivers/STM32G4xx_HAL_Driver/Src/stm32g4xx_hal_pcd.c ****   /* Prevent unused argument(s) compilation warning */
 2875              		.loc 1 1201 1 is_stmt 1 view -0
 2876              		.cfi_startproc
 2877              		@ args = 0, pretend = 0, frame = 0
 2878              		@ frame_needed = 0, uses_anonymous_args = 0
 2879              		@ link register save eliminated.
1203:Drivers/STM32G4xx_HAL_Driver/Src/stm32g4xx_hal_pcd.c ****   UNUSED(epnum);
 2880              		.loc 1 1203 3 view .LVU984
1204:Drivers/STM32G4xx_HAL_Driver/Src/stm32g4xx_hal_pcd.c **** 
 2881              		.loc 1 1204 3 view .LVU985
1209:Drivers/STM32G4xx_HAL_Driver/Src/stm32g4xx_hal_pcd.c **** 
 2882              		.loc 1 1209 1 is_stmt 0 view .LVU986
 2883 0000 7047     		bx	lr
 2884              		.cfi_endproc
 2885              	.LFE344:
 2887              		.section	.text.HAL_PCD_ConnectCallback,"ax",%progbits
 2888              		.align	1
ARM GAS  /tmp/ccXaRXaA.s 			page 105


 2889              		.weak	HAL_PCD_ConnectCallback
 2890              		.syntax unified
 2891              		.thumb
 2892              		.thumb_func
 2894              	HAL_PCD_ConnectCallback:
 2895              	.LVL308:
 2896              	.LFB345:
1217:Drivers/STM32G4xx_HAL_Driver/Src/stm32g4xx_hal_pcd.c ****   /* Prevent unused argument(s) compilation warning */
 2897              		.loc 1 1217 1 is_stmt 1 view -0
 2898              		.cfi_startproc
 2899              		@ args = 0, pretend = 0, frame = 0
 2900              		@ frame_needed = 0, uses_anonymous_args = 0
 2901              		@ link register save eliminated.
1219:Drivers/STM32G4xx_HAL_Driver/Src/stm32g4xx_hal_pcd.c **** 
 2902              		.loc 1 1219 3 view .LVU988
1224:Drivers/STM32G4xx_HAL_Driver/Src/stm32g4xx_hal_pcd.c **** 
 2903              		.loc 1 1224 1 is_stmt 0 view .LVU989
 2904 0000 7047     		bx	lr
 2905              		.cfi_endproc
 2906              	.LFE345:
 2908              		.section	.text.HAL_PCD_DisconnectCallback,"ax",%progbits
 2909              		.align	1
 2910              		.weak	HAL_PCD_DisconnectCallback
 2911              		.syntax unified
 2912              		.thumb
 2913              		.thumb_func
 2915              	HAL_PCD_DisconnectCallback:
 2916              	.LVL309:
 2917              	.LFB346:
1232:Drivers/STM32G4xx_HAL_Driver/Src/stm32g4xx_hal_pcd.c ****   /* Prevent unused argument(s) compilation warning */
 2918              		.loc 1 1232 1 is_stmt 1 view -0
 2919              		.cfi_startproc
 2920              		@ args = 0, pretend = 0, frame = 0
 2921              		@ frame_needed = 0, uses_anonymous_args = 0
 2922              		@ link register save eliminated.
1234:Drivers/STM32G4xx_HAL_Driver/Src/stm32g4xx_hal_pcd.c **** 
 2923              		.loc 1 1234 3 view .LVU991
1239:Drivers/STM32G4xx_HAL_Driver/Src/stm32g4xx_hal_pcd.c **** 
 2924              		.loc 1 1239 1 is_stmt 0 view .LVU992
 2925 0000 7047     		bx	lr
 2926              		.cfi_endproc
 2927              	.LFE346:
 2929              		.section	.text.HAL_PCD_DevConnect,"ax",%progbits
 2930              		.align	1
 2931              		.global	HAL_PCD_DevConnect
 2932              		.syntax unified
 2933              		.thumb
 2934              		.thumb_func
 2936              	HAL_PCD_DevConnect:
 2937              	.LVL310:
 2938              	.LFB347:
1266:Drivers/STM32G4xx_HAL_Driver/Src/stm32g4xx_hal_pcd.c ****   __HAL_LOCK(hpcd);
 2939              		.loc 1 1266 1 is_stmt 1 view -0
 2940              		.cfi_startproc
 2941              		@ args = 0, pretend = 0, frame = 0
 2942              		@ frame_needed = 0, uses_anonymous_args = 0
1267:Drivers/STM32G4xx_HAL_Driver/Src/stm32g4xx_hal_pcd.c ****   (void)USB_DevConnect(hpcd->Instance);
ARM GAS  /tmp/ccXaRXaA.s 			page 106


 2943              		.loc 1 1267 3 view .LVU994
1267:Drivers/STM32G4xx_HAL_Driver/Src/stm32g4xx_hal_pcd.c ****   (void)USB_DevConnect(hpcd->Instance);
 2944              		.loc 1 1267 3 view .LVU995
 2945 0000 90F89032 		ldrb	r3, [r0, #656]	@ zero_extendqisi2
 2946 0004 012B     		cmp	r3, #1
 2947 0006 0BD0     		beq	.L148
1266:Drivers/STM32G4xx_HAL_Driver/Src/stm32g4xx_hal_pcd.c ****   __HAL_LOCK(hpcd);
 2948              		.loc 1 1266 1 is_stmt 0 view .LVU996
 2949 0008 10B5     		push	{r4, lr}
 2950              		.cfi_def_cfa_offset 8
 2951              		.cfi_offset 4, -8
 2952              		.cfi_offset 14, -4
 2953 000a 0446     		mov	r4, r0
1267:Drivers/STM32G4xx_HAL_Driver/Src/stm32g4xx_hal_pcd.c ****   (void)USB_DevConnect(hpcd->Instance);
 2954              		.loc 1 1267 3 is_stmt 1 discriminator 2 view .LVU997
 2955 000c 0123     		movs	r3, #1
 2956 000e 80F89032 		strb	r3, [r0, #656]
1267:Drivers/STM32G4xx_HAL_Driver/Src/stm32g4xx_hal_pcd.c ****   (void)USB_DevConnect(hpcd->Instance);
 2957              		.loc 1 1267 3 view .LVU998
1268:Drivers/STM32G4xx_HAL_Driver/Src/stm32g4xx_hal_pcd.c ****   __HAL_UNLOCK(hpcd);
 2958              		.loc 1 1268 3 view .LVU999
1268:Drivers/STM32G4xx_HAL_Driver/Src/stm32g4xx_hal_pcd.c ****   __HAL_UNLOCK(hpcd);
 2959              		.loc 1 1268 9 is_stmt 0 view .LVU1000
 2960 0012 0068     		ldr	r0, [r0]
 2961              	.LVL311:
1268:Drivers/STM32G4xx_HAL_Driver/Src/stm32g4xx_hal_pcd.c ****   __HAL_UNLOCK(hpcd);
 2962              		.loc 1 1268 9 view .LVU1001
 2963 0014 FFF7FEFF 		bl	USB_DevConnect
 2964              	.LVL312:
1269:Drivers/STM32G4xx_HAL_Driver/Src/stm32g4xx_hal_pcd.c **** 
 2965              		.loc 1 1269 3 is_stmt 1 view .LVU1002
1269:Drivers/STM32G4xx_HAL_Driver/Src/stm32g4xx_hal_pcd.c **** 
 2966              		.loc 1 1269 3 view .LVU1003
 2967 0018 0020     		movs	r0, #0
 2968 001a 84F89002 		strb	r0, [r4, #656]
1269:Drivers/STM32G4xx_HAL_Driver/Src/stm32g4xx_hal_pcd.c **** 
 2969              		.loc 1 1269 3 view .LVU1004
1271:Drivers/STM32G4xx_HAL_Driver/Src/stm32g4xx_hal_pcd.c **** }
 2970              		.loc 1 1271 3 view .LVU1005
1272:Drivers/STM32G4xx_HAL_Driver/Src/stm32g4xx_hal_pcd.c **** 
 2971              		.loc 1 1272 1 is_stmt 0 view .LVU1006
 2972 001e 10BD     		pop	{r4, pc}
 2973              	.LVL313:
 2974              	.L148:
 2975              		.cfi_def_cfa_offset 0
 2976              		.cfi_restore 4
 2977              		.cfi_restore 14
1267:Drivers/STM32G4xx_HAL_Driver/Src/stm32g4xx_hal_pcd.c ****   (void)USB_DevConnect(hpcd->Instance);
 2978              		.loc 1 1267 3 discriminator 1 view .LVU1007
 2979 0020 0220     		movs	r0, #2
 2980              	.LVL314:
1272:Drivers/STM32G4xx_HAL_Driver/Src/stm32g4xx_hal_pcd.c **** 
 2981              		.loc 1 1272 1 view .LVU1008
 2982 0022 7047     		bx	lr
 2983              		.cfi_endproc
 2984              	.LFE347:
 2986              		.section	.text.HAL_PCD_DevDisconnect,"ax",%progbits
ARM GAS  /tmp/ccXaRXaA.s 			page 107


 2987              		.align	1
 2988              		.global	HAL_PCD_DevDisconnect
 2989              		.syntax unified
 2990              		.thumb
 2991              		.thumb_func
 2993              	HAL_PCD_DevDisconnect:
 2994              	.LVL315:
 2995              	.LFB348:
1280:Drivers/STM32G4xx_HAL_Driver/Src/stm32g4xx_hal_pcd.c ****   __HAL_LOCK(hpcd);
 2996              		.loc 1 1280 1 is_stmt 1 view -0
 2997              		.cfi_startproc
 2998              		@ args = 0, pretend = 0, frame = 0
 2999              		@ frame_needed = 0, uses_anonymous_args = 0
1281:Drivers/STM32G4xx_HAL_Driver/Src/stm32g4xx_hal_pcd.c ****   (void)USB_DevDisconnect(hpcd->Instance);
 3000              		.loc 1 1281 3 view .LVU1010
1281:Drivers/STM32G4xx_HAL_Driver/Src/stm32g4xx_hal_pcd.c ****   (void)USB_DevDisconnect(hpcd->Instance);
 3001              		.loc 1 1281 3 view .LVU1011
 3002 0000 90F89032 		ldrb	r3, [r0, #656]	@ zero_extendqisi2
 3003 0004 012B     		cmp	r3, #1
 3004 0006 0BD0     		beq	.L155
1280:Drivers/STM32G4xx_HAL_Driver/Src/stm32g4xx_hal_pcd.c ****   __HAL_LOCK(hpcd);
 3005              		.loc 1 1280 1 is_stmt 0 view .LVU1012
 3006 0008 10B5     		push	{r4, lr}
 3007              		.cfi_def_cfa_offset 8
 3008              		.cfi_offset 4, -8
 3009              		.cfi_offset 14, -4
 3010 000a 0446     		mov	r4, r0
1281:Drivers/STM32G4xx_HAL_Driver/Src/stm32g4xx_hal_pcd.c ****   (void)USB_DevDisconnect(hpcd->Instance);
 3011              		.loc 1 1281 3 is_stmt 1 discriminator 2 view .LVU1013
 3012 000c 0123     		movs	r3, #1
 3013 000e 80F89032 		strb	r3, [r0, #656]
1281:Drivers/STM32G4xx_HAL_Driver/Src/stm32g4xx_hal_pcd.c ****   (void)USB_DevDisconnect(hpcd->Instance);
 3014              		.loc 1 1281 3 view .LVU1014
1282:Drivers/STM32G4xx_HAL_Driver/Src/stm32g4xx_hal_pcd.c ****   __HAL_UNLOCK(hpcd);
 3015              		.loc 1 1282 3 view .LVU1015
1282:Drivers/STM32G4xx_HAL_Driver/Src/stm32g4xx_hal_pcd.c ****   __HAL_UNLOCK(hpcd);
 3016              		.loc 1 1282 9 is_stmt 0 view .LVU1016
 3017 0012 0068     		ldr	r0, [r0]
 3018              	.LVL316:
1282:Drivers/STM32G4xx_HAL_Driver/Src/stm32g4xx_hal_pcd.c ****   __HAL_UNLOCK(hpcd);
 3019              		.loc 1 1282 9 view .LVU1017
 3020 0014 FFF7FEFF 		bl	USB_DevDisconnect
 3021              	.LVL317:
1283:Drivers/STM32G4xx_HAL_Driver/Src/stm32g4xx_hal_pcd.c **** 
 3022              		.loc 1 1283 3 is_stmt 1 view .LVU1018
1283:Drivers/STM32G4xx_HAL_Driver/Src/stm32g4xx_hal_pcd.c **** 
 3023              		.loc 1 1283 3 view .LVU1019
 3024 0018 0020     		movs	r0, #0
 3025 001a 84F89002 		strb	r0, [r4, #656]
1283:Drivers/STM32G4xx_HAL_Driver/Src/stm32g4xx_hal_pcd.c **** 
 3026              		.loc 1 1283 3 view .LVU1020
1285:Drivers/STM32G4xx_HAL_Driver/Src/stm32g4xx_hal_pcd.c **** }
 3027              		.loc 1 1285 3 view .LVU1021
1286:Drivers/STM32G4xx_HAL_Driver/Src/stm32g4xx_hal_pcd.c **** 
 3028              		.loc 1 1286 1 is_stmt 0 view .LVU1022
 3029 001e 10BD     		pop	{r4, pc}
 3030              	.LVL318:
ARM GAS  /tmp/ccXaRXaA.s 			page 108


 3031              	.L155:
 3032              		.cfi_def_cfa_offset 0
 3033              		.cfi_restore 4
 3034              		.cfi_restore 14
1281:Drivers/STM32G4xx_HAL_Driver/Src/stm32g4xx_hal_pcd.c ****   (void)USB_DevDisconnect(hpcd->Instance);
 3035              		.loc 1 1281 3 discriminator 1 view .LVU1023
 3036 0020 0220     		movs	r0, #2
 3037              	.LVL319:
1286:Drivers/STM32G4xx_HAL_Driver/Src/stm32g4xx_hal_pcd.c **** 
 3038              		.loc 1 1286 1 view .LVU1024
 3039 0022 7047     		bx	lr
 3040              		.cfi_endproc
 3041              	.LFE348:
 3043              		.section	.text.HAL_PCD_SetAddress,"ax",%progbits
 3044              		.align	1
 3045              		.global	HAL_PCD_SetAddress
 3046              		.syntax unified
 3047              		.thumb
 3048              		.thumb_func
 3050              	HAL_PCD_SetAddress:
 3051              	.LVL320:
 3052              	.LFB349:
1295:Drivers/STM32G4xx_HAL_Driver/Src/stm32g4xx_hal_pcd.c ****   __HAL_LOCK(hpcd);
 3053              		.loc 1 1295 1 is_stmt 1 view -0
 3054              		.cfi_startproc
 3055              		@ args = 0, pretend = 0, frame = 0
 3056              		@ frame_needed = 0, uses_anonymous_args = 0
1296:Drivers/STM32G4xx_HAL_Driver/Src/stm32g4xx_hal_pcd.c ****   hpcd->USB_Address = address;
 3057              		.loc 1 1296 3 view .LVU1026
1296:Drivers/STM32G4xx_HAL_Driver/Src/stm32g4xx_hal_pcd.c ****   hpcd->USB_Address = address;
 3058              		.loc 1 1296 3 view .LVU1027
 3059 0000 90F89032 		ldrb	r3, [r0, #656]	@ zero_extendqisi2
 3060 0004 012B     		cmp	r3, #1
 3061 0006 0CD0     		beq	.L162
1295:Drivers/STM32G4xx_HAL_Driver/Src/stm32g4xx_hal_pcd.c ****   __HAL_LOCK(hpcd);
 3062              		.loc 1 1295 1 is_stmt 0 view .LVU1028
 3063 0008 10B5     		push	{r4, lr}
 3064              		.cfi_def_cfa_offset 8
 3065              		.cfi_offset 4, -8
 3066              		.cfi_offset 14, -4
 3067 000a 0446     		mov	r4, r0
1296:Drivers/STM32G4xx_HAL_Driver/Src/stm32g4xx_hal_pcd.c ****   hpcd->USB_Address = address;
 3068              		.loc 1 1296 3 is_stmt 1 discriminator 2 view .LVU1029
 3069 000c 0123     		movs	r3, #1
 3070 000e 80F89032 		strb	r3, [r0, #656]
1296:Drivers/STM32G4xx_HAL_Driver/Src/stm32g4xx_hal_pcd.c ****   hpcd->USB_Address = address;
 3071              		.loc 1 1296 3 view .LVU1030
1297:Drivers/STM32G4xx_HAL_Driver/Src/stm32g4xx_hal_pcd.c ****   (void)USB_SetDevAddress(hpcd->Instance, address);
 3072              		.loc 1 1297 3 view .LVU1031
1297:Drivers/STM32G4xx_HAL_Driver/Src/stm32g4xx_hal_pcd.c ****   (void)USB_SetDevAddress(hpcd->Instance, address);
 3073              		.loc 1 1297 21 is_stmt 0 view .LVU1032
 3074 0012 0173     		strb	r1, [r0, #12]
1298:Drivers/STM32G4xx_HAL_Driver/Src/stm32g4xx_hal_pcd.c ****   __HAL_UNLOCK(hpcd);
 3075              		.loc 1 1298 3 is_stmt 1 view .LVU1033
1298:Drivers/STM32G4xx_HAL_Driver/Src/stm32g4xx_hal_pcd.c ****   __HAL_UNLOCK(hpcd);
 3076              		.loc 1 1298 9 is_stmt 0 view .LVU1034
 3077 0014 0068     		ldr	r0, [r0]
ARM GAS  /tmp/ccXaRXaA.s 			page 109


 3078              	.LVL321:
1298:Drivers/STM32G4xx_HAL_Driver/Src/stm32g4xx_hal_pcd.c ****   __HAL_UNLOCK(hpcd);
 3079              		.loc 1 1298 9 view .LVU1035
 3080 0016 FFF7FEFF 		bl	USB_SetDevAddress
 3081              	.LVL322:
1299:Drivers/STM32G4xx_HAL_Driver/Src/stm32g4xx_hal_pcd.c **** 
 3082              		.loc 1 1299 3 is_stmt 1 view .LVU1036
1299:Drivers/STM32G4xx_HAL_Driver/Src/stm32g4xx_hal_pcd.c **** 
 3083              		.loc 1 1299 3 view .LVU1037
 3084 001a 0020     		movs	r0, #0
 3085 001c 84F89002 		strb	r0, [r4, #656]
1299:Drivers/STM32G4xx_HAL_Driver/Src/stm32g4xx_hal_pcd.c **** 
 3086              		.loc 1 1299 3 view .LVU1038
1301:Drivers/STM32G4xx_HAL_Driver/Src/stm32g4xx_hal_pcd.c **** }
 3087              		.loc 1 1301 3 view .LVU1039
1302:Drivers/STM32G4xx_HAL_Driver/Src/stm32g4xx_hal_pcd.c **** /**
 3088              		.loc 1 1302 1 is_stmt 0 view .LVU1040
 3089 0020 10BD     		pop	{r4, pc}
 3090              	.LVL323:
 3091              	.L162:
 3092              		.cfi_def_cfa_offset 0
 3093              		.cfi_restore 4
 3094              		.cfi_restore 14
1296:Drivers/STM32G4xx_HAL_Driver/Src/stm32g4xx_hal_pcd.c ****   hpcd->USB_Address = address;
 3095              		.loc 1 1296 3 discriminator 1 view .LVU1041
 3096 0022 0220     		movs	r0, #2
 3097              	.LVL324:
1302:Drivers/STM32G4xx_HAL_Driver/Src/stm32g4xx_hal_pcd.c **** /**
 3098              		.loc 1 1302 1 view .LVU1042
 3099 0024 7047     		bx	lr
 3100              		.cfi_endproc
 3101              	.LFE349:
 3103              		.section	.text.HAL_PCD_IRQHandler,"ax",%progbits
 3104              		.align	1
 3105              		.global	HAL_PCD_IRQHandler
 3106              		.syntax unified
 3107              		.thumb
 3108              		.thumb_func
 3110              	HAL_PCD_IRQHandler:
 3111              	.LVL325:
 3112              	.LFB335:
 930:Drivers/STM32G4xx_HAL_Driver/Src/stm32g4xx_hal_pcd.c ****   uint32_t wIstr = USB_ReadInterrupts(hpcd->Instance);
 3113              		.loc 1 930 1 is_stmt 1 view -0
 3114              		.cfi_startproc
 3115              		@ args = 0, pretend = 0, frame = 0
 3116              		@ frame_needed = 0, uses_anonymous_args = 0
 930:Drivers/STM32G4xx_HAL_Driver/Src/stm32g4xx_hal_pcd.c ****   uint32_t wIstr = USB_ReadInterrupts(hpcd->Instance);
 3117              		.loc 1 930 1 is_stmt 0 view .LVU1044
 3118 0000 10B5     		push	{r4, lr}
 3119              		.cfi_def_cfa_offset 8
 3120              		.cfi_offset 4, -8
 3121              		.cfi_offset 14, -4
 3122 0002 0446     		mov	r4, r0
 931:Drivers/STM32G4xx_HAL_Driver/Src/stm32g4xx_hal_pcd.c **** 
 3123              		.loc 1 931 3 is_stmt 1 view .LVU1045
 931:Drivers/STM32G4xx_HAL_Driver/Src/stm32g4xx_hal_pcd.c **** 
 3124              		.loc 1 931 20 is_stmt 0 view .LVU1046
ARM GAS  /tmp/ccXaRXaA.s 			page 110


 3125 0004 0068     		ldr	r0, [r0]
 3126              	.LVL326:
 931:Drivers/STM32G4xx_HAL_Driver/Src/stm32g4xx_hal_pcd.c **** 
 3127              		.loc 1 931 20 view .LVU1047
 3128 0006 FFF7FEFF 		bl	USB_ReadInterrupts
 3129              	.LVL327:
 933:Drivers/STM32G4xx_HAL_Driver/Src/stm32g4xx_hal_pcd.c ****   {
 3130              		.loc 1 933 3 is_stmt 1 view .LVU1048
 933:Drivers/STM32G4xx_HAL_Driver/Src/stm32g4xx_hal_pcd.c ****   {
 3131              		.loc 1 933 6 is_stmt 0 view .LVU1049
 3132 000a 10F4004F 		tst	r0, #32768
 3133 000e 23D1     		bne	.L181
 942:Drivers/STM32G4xx_HAL_Driver/Src/stm32g4xx_hal_pcd.c ****   {
 3134              		.loc 1 942 3 is_stmt 1 view .LVU1050
 942:Drivers/STM32G4xx_HAL_Driver/Src/stm32g4xx_hal_pcd.c ****   {
 3135              		.loc 1 942 6 is_stmt 0 view .LVU1051
 3136 0010 10F4806F 		tst	r0, #1024
 3137 0014 24D1     		bne	.L182
 957:Drivers/STM32G4xx_HAL_Driver/Src/stm32g4xx_hal_pcd.c ****   {
 3138              		.loc 1 957 3 is_stmt 1 view .LVU1052
 957:Drivers/STM32G4xx_HAL_Driver/Src/stm32g4xx_hal_pcd.c ****   {
 3139              		.loc 1 957 6 is_stmt 0 view .LVU1053
 3140 0016 10F4804F 		tst	r0, #16384
 3141 001a 32D1     		bne	.L183
 964:Drivers/STM32G4xx_HAL_Driver/Src/stm32g4xx_hal_pcd.c ****   {
 3142              		.loc 1 964 3 is_stmt 1 view .LVU1054
 964:Drivers/STM32G4xx_HAL_Driver/Src/stm32g4xx_hal_pcd.c ****   {
 3143              		.loc 1 964 6 is_stmt 0 view .LVU1055
 3144 001c 10F4005F 		tst	r0, #8192
 3145 0020 39D1     		bne	.L184
 971:Drivers/STM32G4xx_HAL_Driver/Src/stm32g4xx_hal_pcd.c ****   {
 3146              		.loc 1 971 3 is_stmt 1 view .LVU1056
 971:Drivers/STM32G4xx_HAL_Driver/Src/stm32g4xx_hal_pcd.c ****   {
 3147              		.loc 1 971 6 is_stmt 0 view .LVU1057
 3148 0022 10F4805F 		tst	r0, #4096
 3149 0026 40D1     		bne	.L185
 997:Drivers/STM32G4xx_HAL_Driver/Src/stm32g4xx_hal_pcd.c ****   {
 3150              		.loc 1 997 3 is_stmt 1 view .LVU1058
 997:Drivers/STM32G4xx_HAL_Driver/Src/stm32g4xx_hal_pcd.c ****   {
 3151              		.loc 1 997 6 is_stmt 0 view .LVU1059
 3152 0028 10F4006F 		tst	r0, #2048
 3153 002c 67D1     		bne	.L186
1017:Drivers/STM32G4xx_HAL_Driver/Src/stm32g4xx_hal_pcd.c ****   {
 3154              		.loc 1 1017 3 is_stmt 1 view .LVU1060
1017:Drivers/STM32G4xx_HAL_Driver/Src/stm32g4xx_hal_pcd.c ****   {
 3155              		.loc 1 1017 6 is_stmt 0 view .LVU1061
 3156 002e 10F0800F 		tst	r0, #128
 3157 0032 40F08180 		bne	.L187
1046:Drivers/STM32G4xx_HAL_Driver/Src/stm32g4xx_hal_pcd.c ****   {
 3158              		.loc 1 1046 3 is_stmt 1 view .LVU1062
1046:Drivers/STM32G4xx_HAL_Driver/Src/stm32g4xx_hal_pcd.c ****   {
 3159              		.loc 1 1046 6 is_stmt 0 view .LVU1063
 3160 0036 10F4007F 		tst	r0, #512
 3161 003a 40F0AD80 		bne	.L188
1059:Drivers/STM32G4xx_HAL_Driver/Src/stm32g4xx_hal_pcd.c ****   {
 3162              		.loc 1 1059 3 is_stmt 1 view .LVU1064
1059:Drivers/STM32G4xx_HAL_Driver/Src/stm32g4xx_hal_pcd.c ****   {
ARM GAS  /tmp/ccXaRXaA.s 			page 111


 3163              		.loc 1 1059 6 is_stmt 0 view .LVU1065
 3164 003e 10F4807F 		tst	r0, #256
 3165 0042 27D0     		beq	.L167
1062:Drivers/STM32G4xx_HAL_Driver/Src/stm32g4xx_hal_pcd.c **** 
 3166              		.loc 1 1062 5 is_stmt 1 view .LVU1066
 3167 0044 2268     		ldr	r2, [r4]
 3168 0046 B2F84430 		ldrh	r3, [r2, #68]
 3169 004a 9BB2     		uxth	r3, r3
 3170 004c 23F48073 		bic	r3, r3, #256
 3171 0050 9BB2     		uxth	r3, r3
 3172 0052 A2F84430 		strh	r3, [r2, #68]	@ movhi
1064:Drivers/STM32G4xx_HAL_Driver/Src/stm32g4xx_hal_pcd.c ****   }
 3173              		.loc 1 1064 5 view .LVU1067
 3174 0056 1DE0     		b	.L167
 3175              	.L181:
 937:Drivers/STM32G4xx_HAL_Driver/Src/stm32g4xx_hal_pcd.c **** 
 3176              		.loc 1 937 5 view .LVU1068
 937:Drivers/STM32G4xx_HAL_Driver/Src/stm32g4xx_hal_pcd.c **** 
 3177              		.loc 1 937 11 is_stmt 0 view .LVU1069
 3178 0058 2046     		mov	r0, r4
 3179              	.LVL328:
 937:Drivers/STM32G4xx_HAL_Driver/Src/stm32g4xx_hal_pcd.c **** 
 3180              		.loc 1 937 11 view .LVU1070
 3181 005a FFF7FEFF 		bl	PCD_EP_ISR_Handler
 3182              	.LVL329:
 939:Drivers/STM32G4xx_HAL_Driver/Src/stm32g4xx_hal_pcd.c ****   }
 3183              		.loc 1 939 5 is_stmt 1 view .LVU1071
 3184 005e 19E0     		b	.L167
 3185              	.LVL330:
 3186              	.L182:
 944:Drivers/STM32G4xx_HAL_Driver/Src/stm32g4xx_hal_pcd.c **** 
 3187              		.loc 1 944 5 view .LVU1072
 3188 0060 2268     		ldr	r2, [r4]
 3189 0062 B2F84430 		ldrh	r3, [r2, #68]
 3190 0066 9BB2     		uxth	r3, r3
 3191 0068 23F48063 		bic	r3, r3, #1024
 3192 006c 9BB2     		uxth	r3, r3
 3193 006e A2F84430 		strh	r3, [r2, #68]	@ movhi
 949:Drivers/STM32G4xx_HAL_Driver/Src/stm32g4xx_hal_pcd.c **** #endif /* USE_HAL_PCD_REGISTER_CALLBACKS */
 3194              		.loc 1 949 5 view .LVU1073
 3195 0072 2046     		mov	r0, r4
 3196              	.LVL331:
 949:Drivers/STM32G4xx_HAL_Driver/Src/stm32g4xx_hal_pcd.c **** #endif /* USE_HAL_PCD_REGISTER_CALLBACKS */
 3197              		.loc 1 949 5 is_stmt 0 view .LVU1074
 3198 0074 FFF7FEFF 		bl	HAL_PCD_ResetCallback
 3199              	.LVL332:
 952:Drivers/STM32G4xx_HAL_Driver/Src/stm32g4xx_hal_pcd.c **** 
 3200              		.loc 1 952 5 is_stmt 1 view .LVU1075
 952:Drivers/STM32G4xx_HAL_Driver/Src/stm32g4xx_hal_pcd.c **** 
 3201              		.loc 1 952 11 is_stmt 0 view .LVU1076
 3202 0078 0021     		movs	r1, #0
 3203 007a 2046     		mov	r0, r4
 3204 007c FFF7FEFF 		bl	HAL_PCD_SetAddress
 3205              	.LVL333:
 954:Drivers/STM32G4xx_HAL_Driver/Src/stm32g4xx_hal_pcd.c ****   }
 3206              		.loc 1 954 5 is_stmt 1 view .LVU1077
 3207 0080 08E0     		b	.L167
ARM GAS  /tmp/ccXaRXaA.s 			page 112


 3208              	.LVL334:
 3209              	.L183:
 959:Drivers/STM32G4xx_HAL_Driver/Src/stm32g4xx_hal_pcd.c **** 
 3210              		.loc 1 959 5 view .LVU1078
 3211 0082 2268     		ldr	r2, [r4]
 3212 0084 B2F84430 		ldrh	r3, [r2, #68]
 3213 0088 9BB2     		uxth	r3, r3
 3214 008a 23F48043 		bic	r3, r3, #16384
 3215 008e 9BB2     		uxth	r3, r3
 3216 0090 A2F84430 		strh	r3, [r2, #68]	@ movhi
 961:Drivers/STM32G4xx_HAL_Driver/Src/stm32g4xx_hal_pcd.c ****   }
 3217              		.loc 1 961 5 view .LVU1079
 3218              	.LVL335:
 3219              	.L167:
1066:Drivers/STM32G4xx_HAL_Driver/Src/stm32g4xx_hal_pcd.c **** 
 3220              		.loc 1 1066 1 is_stmt 0 view .LVU1080
 3221 0094 10BD     		pop	{r4, pc}
 3222              	.LVL336:
 3223              	.L184:
 966:Drivers/STM32G4xx_HAL_Driver/Src/stm32g4xx_hal_pcd.c **** 
 3224              		.loc 1 966 5 is_stmt 1 view .LVU1081
 3225 0096 2268     		ldr	r2, [r4]
 3226 0098 B2F84430 		ldrh	r3, [r2, #68]
 3227 009c 9BB2     		uxth	r3, r3
 3228 009e 23F40053 		bic	r3, r3, #8192
 3229 00a2 9BB2     		uxth	r3, r3
 3230 00a4 A2F84430 		strh	r3, [r2, #68]	@ movhi
 968:Drivers/STM32G4xx_HAL_Driver/Src/stm32g4xx_hal_pcd.c ****   }
 3231              		.loc 1 968 5 view .LVU1082
 3232 00a8 F4E7     		b	.L167
 3233              	.L185:
 973:Drivers/STM32G4xx_HAL_Driver/Src/stm32g4xx_hal_pcd.c ****     hpcd->Instance->CNTR &= (uint16_t) ~(USB_CNTR_FSUSP);
 3234              		.loc 1 973 5 view .LVU1083
 973:Drivers/STM32G4xx_HAL_Driver/Src/stm32g4xx_hal_pcd.c ****     hpcd->Instance->CNTR &= (uint16_t) ~(USB_CNTR_FSUSP);
 3235              		.loc 1 973 9 is_stmt 0 view .LVU1084
 3236 00aa 2268     		ldr	r2, [r4]
 973:Drivers/STM32G4xx_HAL_Driver/Src/stm32g4xx_hal_pcd.c ****     hpcd->Instance->CNTR &= (uint16_t) ~(USB_CNTR_FSUSP);
 3237              		.loc 1 973 19 view .LVU1085
 3238 00ac B2F84030 		ldrh	r3, [r2, #64]
 3239 00b0 9BB2     		uxth	r3, r3
 973:Drivers/STM32G4xx_HAL_Driver/Src/stm32g4xx_hal_pcd.c ****     hpcd->Instance->CNTR &= (uint16_t) ~(USB_CNTR_FSUSP);
 3240              		.loc 1 973 26 view .LVU1086
 3241 00b2 23F00403 		bic	r3, r3, #4
 3242 00b6 9BB2     		uxth	r3, r3
 3243 00b8 A2F84030 		strh	r3, [r2, #64]	@ movhi
 974:Drivers/STM32G4xx_HAL_Driver/Src/stm32g4xx_hal_pcd.c **** 
 3244              		.loc 1 974 5 is_stmt 1 view .LVU1087
 974:Drivers/STM32G4xx_HAL_Driver/Src/stm32g4xx_hal_pcd.c **** 
 3245              		.loc 1 974 9 is_stmt 0 view .LVU1088
 3246 00bc 2268     		ldr	r2, [r4]
 974:Drivers/STM32G4xx_HAL_Driver/Src/stm32g4xx_hal_pcd.c **** 
 3247              		.loc 1 974 19 view .LVU1089
 3248 00be B2F84030 		ldrh	r3, [r2, #64]
 3249 00c2 9BB2     		uxth	r3, r3
 974:Drivers/STM32G4xx_HAL_Driver/Src/stm32g4xx_hal_pcd.c **** 
 3250              		.loc 1 974 26 view .LVU1090
 3251 00c4 23F00803 		bic	r3, r3, #8
ARM GAS  /tmp/ccXaRXaA.s 			page 113


 3252 00c8 9BB2     		uxth	r3, r3
 3253 00ca A2F84030 		strh	r3, [r2, #64]	@ movhi
 976:Drivers/STM32G4xx_HAL_Driver/Src/stm32g4xx_hal_pcd.c ****     {
 3254              		.loc 1 976 5 is_stmt 1 view .LVU1091
 976:Drivers/STM32G4xx_HAL_Driver/Src/stm32g4xx_hal_pcd.c ****     {
 3255              		.loc 1 976 13 is_stmt 0 view .LVU1092
 3256 00ce 94F8C832 		ldrb	r3, [r4, #712]	@ zero_extendqisi2
 976:Drivers/STM32G4xx_HAL_Driver/Src/stm32g4xx_hal_pcd.c ****     {
 3257              		.loc 1 976 8 view .LVU1093
 3258 00d2 012B     		cmp	r3, #1
 3259 00d4 0CD0     		beq	.L189
 3260              	.LVL337:
 3261              	.L174:
 989:Drivers/STM32G4xx_HAL_Driver/Src/stm32g4xx_hal_pcd.c **** #endif /* USE_HAL_PCD_REGISTER_CALLBACKS */
 3262              		.loc 1 989 5 is_stmt 1 view .LVU1094
 3263 00d6 2046     		mov	r0, r4
 3264 00d8 FFF7FEFF 		bl	HAL_PCD_ResumeCallback
 3265              	.LVL338:
 992:Drivers/STM32G4xx_HAL_Driver/Src/stm32g4xx_hal_pcd.c **** 
 3266              		.loc 1 992 5 view .LVU1095
 3267 00dc 2268     		ldr	r2, [r4]
 3268 00de B2F84430 		ldrh	r3, [r2, #68]
 3269 00e2 9BB2     		uxth	r3, r3
 3270 00e4 23F48053 		bic	r3, r3, #4096
 3271 00e8 9BB2     		uxth	r3, r3
 3272 00ea A2F84430 		strh	r3, [r2, #68]	@ movhi
 994:Drivers/STM32G4xx_HAL_Driver/Src/stm32g4xx_hal_pcd.c ****   }
 3273              		.loc 1 994 5 view .LVU1096
 3274 00ee D1E7     		b	.L167
 3275              	.LVL339:
 3276              	.L189:
 978:Drivers/STM32G4xx_HAL_Driver/Src/stm32g4xx_hal_pcd.c **** #if (USE_HAL_PCD_REGISTER_CALLBACKS == 1U)
 3277              		.loc 1 978 7 view .LVU1097
 978:Drivers/STM32G4xx_HAL_Driver/Src/stm32g4xx_hal_pcd.c **** #if (USE_HAL_PCD_REGISTER_CALLBACKS == 1U)
 3278              		.loc 1 978 23 is_stmt 0 view .LVU1098
 3279 00f0 0021     		movs	r1, #0
 3280 00f2 84F8C812 		strb	r1, [r4, #712]
 982:Drivers/STM32G4xx_HAL_Driver/Src/stm32g4xx_hal_pcd.c **** #endif /* USE_HAL_PCD_REGISTER_CALLBACKS */
 3281              		.loc 1 982 7 is_stmt 1 view .LVU1099
 3282 00f6 2046     		mov	r0, r4
 3283              	.LVL340:
 982:Drivers/STM32G4xx_HAL_Driver/Src/stm32g4xx_hal_pcd.c **** #endif /* USE_HAL_PCD_REGISTER_CALLBACKS */
 3284              		.loc 1 982 7 is_stmt 0 view .LVU1100
 3285 00f8 FFF7FEFF 		bl	HAL_PCDEx_LPM_Callback
 3286              	.LVL341:
 3287 00fc EBE7     		b	.L174
 3288              	.LVL342:
 3289              	.L186:
1000:Drivers/STM32G4xx_HAL_Driver/Src/stm32g4xx_hal_pcd.c **** 
 3290              		.loc 1 1000 5 is_stmt 1 view .LVU1101
1000:Drivers/STM32G4xx_HAL_Driver/Src/stm32g4xx_hal_pcd.c **** 
 3291              		.loc 1 1000 9 is_stmt 0 view .LVU1102
 3292 00fe 2268     		ldr	r2, [r4]
1000:Drivers/STM32G4xx_HAL_Driver/Src/stm32g4xx_hal_pcd.c **** 
 3293              		.loc 1 1000 19 view .LVU1103
 3294 0100 B2F84030 		ldrh	r3, [r2, #64]
 3295 0104 9BB2     		uxth	r3, r3
ARM GAS  /tmp/ccXaRXaA.s 			page 114


1000:Drivers/STM32G4xx_HAL_Driver/Src/stm32g4xx_hal_pcd.c **** 
 3296              		.loc 1 1000 26 view .LVU1104
 3297 0106 43F00803 		orr	r3, r3, #8
 3298 010a A2F84030 		strh	r3, [r2, #64]	@ movhi
1003:Drivers/STM32G4xx_HAL_Driver/Src/stm32g4xx_hal_pcd.c **** 
 3299              		.loc 1 1003 5 is_stmt 1 view .LVU1105
 3300 010e 2268     		ldr	r2, [r4]
 3301 0110 B2F84430 		ldrh	r3, [r2, #68]
 3302 0114 9BB2     		uxth	r3, r3
 3303 0116 23F40063 		bic	r3, r3, #2048
 3304 011a 9BB2     		uxth	r3, r3
 3305 011c A2F84430 		strh	r3, [r2, #68]	@ movhi
1005:Drivers/STM32G4xx_HAL_Driver/Src/stm32g4xx_hal_pcd.c **** 
 3306              		.loc 1 1005 5 view .LVU1106
1005:Drivers/STM32G4xx_HAL_Driver/Src/stm32g4xx_hal_pcd.c **** 
 3307              		.loc 1 1005 9 is_stmt 0 view .LVU1107
 3308 0120 2268     		ldr	r2, [r4]
1005:Drivers/STM32G4xx_HAL_Driver/Src/stm32g4xx_hal_pcd.c **** 
 3309              		.loc 1 1005 19 view .LVU1108
 3310 0122 B2F84030 		ldrh	r3, [r2, #64]
 3311 0126 9BB2     		uxth	r3, r3
1005:Drivers/STM32G4xx_HAL_Driver/Src/stm32g4xx_hal_pcd.c **** 
 3312              		.loc 1 1005 26 view .LVU1109
 3313 0128 43F00403 		orr	r3, r3, #4
 3314 012c A2F84030 		strh	r3, [r2, #64]	@ movhi
1010:Drivers/STM32G4xx_HAL_Driver/Src/stm32g4xx_hal_pcd.c **** #endif /* USE_HAL_PCD_REGISTER_CALLBACKS */
 3315              		.loc 1 1010 5 is_stmt 1 view .LVU1110
 3316 0130 2046     		mov	r0, r4
 3317              	.LVL343:
1010:Drivers/STM32G4xx_HAL_Driver/Src/stm32g4xx_hal_pcd.c **** #endif /* USE_HAL_PCD_REGISTER_CALLBACKS */
 3318              		.loc 1 1010 5 is_stmt 0 view .LVU1111
 3319 0132 FFF7FEFF 		bl	HAL_PCD_SuspendCallback
 3320              	.LVL344:
1013:Drivers/STM32G4xx_HAL_Driver/Src/stm32g4xx_hal_pcd.c ****   }
 3321              		.loc 1 1013 5 is_stmt 1 view .LVU1112
 3322 0136 ADE7     		b	.L167
 3323              	.LVL345:
 3324              	.L187:
1019:Drivers/STM32G4xx_HAL_Driver/Src/stm32g4xx_hal_pcd.c ****     if (hpcd->LPM_State == LPM_L0)
 3325              		.loc 1 1019 5 view .LVU1113
 3326 0138 2268     		ldr	r2, [r4]
 3327 013a B2F84430 		ldrh	r3, [r2, #68]
 3328 013e 9BB2     		uxth	r3, r3
 3329 0140 23F08003 		bic	r3, r3, #128
 3330 0144 9BB2     		uxth	r3, r3
 3331 0146 A2F84430 		strh	r3, [r2, #68]	@ movhi
1020:Drivers/STM32G4xx_HAL_Driver/Src/stm32g4xx_hal_pcd.c ****     {
 3332              		.loc 1 1020 5 view .LVU1114
1020:Drivers/STM32G4xx_HAL_Driver/Src/stm32g4xx_hal_pcd.c ****     {
 3333              		.loc 1 1020 13 is_stmt 0 view .LVU1115
 3334 014a 94F8C832 		ldrb	r3, [r4, #712]	@ zero_extendqisi2
1020:Drivers/STM32G4xx_HAL_Driver/Src/stm32g4xx_hal_pcd.c ****     {
 3335              		.loc 1 1020 8 view .LVU1116
 3336 014e FBB9     		cbnz	r3, .L177
1023:Drivers/STM32G4xx_HAL_Driver/Src/stm32g4xx_hal_pcd.c ****       hpcd->Instance->CNTR |= (uint16_t)USB_CNTR_FSUSP;
 3337              		.loc 1 1023 7 is_stmt 1 view .LVU1117
1023:Drivers/STM32G4xx_HAL_Driver/Src/stm32g4xx_hal_pcd.c ****       hpcd->Instance->CNTR |= (uint16_t)USB_CNTR_FSUSP;
ARM GAS  /tmp/ccXaRXaA.s 			page 115


 3338              		.loc 1 1023 11 is_stmt 0 view .LVU1118
 3339 0150 2268     		ldr	r2, [r4]
1023:Drivers/STM32G4xx_HAL_Driver/Src/stm32g4xx_hal_pcd.c ****       hpcd->Instance->CNTR |= (uint16_t)USB_CNTR_FSUSP;
 3340              		.loc 1 1023 21 view .LVU1119
 3341 0152 B2F84030 		ldrh	r3, [r2, #64]
 3342 0156 9BB2     		uxth	r3, r3
1023:Drivers/STM32G4xx_HAL_Driver/Src/stm32g4xx_hal_pcd.c ****       hpcd->Instance->CNTR |= (uint16_t)USB_CNTR_FSUSP;
 3343              		.loc 1 1023 28 view .LVU1120
 3344 0158 43F00403 		orr	r3, r3, #4
 3345 015c A2F84030 		strh	r3, [r2, #64]	@ movhi
1024:Drivers/STM32G4xx_HAL_Driver/Src/stm32g4xx_hal_pcd.c **** 
 3346              		.loc 1 1024 7 is_stmt 1 view .LVU1121
1024:Drivers/STM32G4xx_HAL_Driver/Src/stm32g4xx_hal_pcd.c **** 
 3347              		.loc 1 1024 11 is_stmt 0 view .LVU1122
 3348 0160 2268     		ldr	r2, [r4]
1024:Drivers/STM32G4xx_HAL_Driver/Src/stm32g4xx_hal_pcd.c **** 
 3349              		.loc 1 1024 21 view .LVU1123
 3350 0162 B2F84030 		ldrh	r3, [r2, #64]
 3351 0166 9BB2     		uxth	r3, r3
1024:Drivers/STM32G4xx_HAL_Driver/Src/stm32g4xx_hal_pcd.c **** 
 3352              		.loc 1 1024 28 view .LVU1124
 3353 0168 43F00803 		orr	r3, r3, #8
 3354 016c A2F84030 		strh	r3, [r2, #64]	@ movhi
1026:Drivers/STM32G4xx_HAL_Driver/Src/stm32g4xx_hal_pcd.c ****       hpcd->BESL = ((uint32_t)hpcd->Instance->LPMCSR & USB_LPMCSR_BESL) >> 2;
 3355              		.loc 1 1026 7 is_stmt 1 view .LVU1125
1026:Drivers/STM32G4xx_HAL_Driver/Src/stm32g4xx_hal_pcd.c ****       hpcd->BESL = ((uint32_t)hpcd->Instance->LPMCSR & USB_LPMCSR_BESL) >> 2;
 3356              		.loc 1 1026 23 is_stmt 0 view .LVU1126
 3357 0170 0121     		movs	r1, #1
 3358 0172 84F8C812 		strb	r1, [r4, #712]
1027:Drivers/STM32G4xx_HAL_Driver/Src/stm32g4xx_hal_pcd.c **** #if (USE_HAL_PCD_REGISTER_CALLBACKS == 1U)
 3359              		.loc 1 1027 7 is_stmt 1 view .LVU1127
1027:Drivers/STM32G4xx_HAL_Driver/Src/stm32g4xx_hal_pcd.c **** #if (USE_HAL_PCD_REGISTER_CALLBACKS == 1U)
 3360              		.loc 1 1027 35 is_stmt 0 view .LVU1128
 3361 0176 2368     		ldr	r3, [r4]
1027:Drivers/STM32G4xx_HAL_Driver/Src/stm32g4xx_hal_pcd.c **** #if (USE_HAL_PCD_REGISTER_CALLBACKS == 1U)
 3362              		.loc 1 1027 45 view .LVU1129
 3363 0178 B3F85430 		ldrh	r3, [r3, #84]
1027:Drivers/STM32G4xx_HAL_Driver/Src/stm32g4xx_hal_pcd.c **** #if (USE_HAL_PCD_REGISTER_CALLBACKS == 1U)
 3364              		.loc 1 1027 73 view .LVU1130
 3365 017c C3F38D03 		ubfx	r3, r3, #2, #14
 3366 0180 03F03C03 		and	r3, r3, #60
1027:Drivers/STM32G4xx_HAL_Driver/Src/stm32g4xx_hal_pcd.c **** #if (USE_HAL_PCD_REGISTER_CALLBACKS == 1U)
 3367              		.loc 1 1027 18 view .LVU1131
 3368 0184 C4F8CC32 		str	r3, [r4, #716]
1031:Drivers/STM32G4xx_HAL_Driver/Src/stm32g4xx_hal_pcd.c **** #endif /* USE_HAL_PCD_REGISTER_CALLBACKS */
 3369              		.loc 1 1031 7 is_stmt 1 view .LVU1132
 3370 0188 2046     		mov	r0, r4
 3371              	.LVL346:
1031:Drivers/STM32G4xx_HAL_Driver/Src/stm32g4xx_hal_pcd.c **** #endif /* USE_HAL_PCD_REGISTER_CALLBACKS */
 3372              		.loc 1 1031 7 is_stmt 0 view .LVU1133
 3373 018a FFF7FEFF 		bl	HAL_PCDEx_LPM_Callback
 3374              	.LVL347:
 3375 018e 81E7     		b	.L167
 3376              	.LVL348:
 3377              	.L177:
1039:Drivers/STM32G4xx_HAL_Driver/Src/stm32g4xx_hal_pcd.c **** #endif /* USE_HAL_PCD_REGISTER_CALLBACKS */
 3378              		.loc 1 1039 7 is_stmt 1 view .LVU1134
ARM GAS  /tmp/ccXaRXaA.s 			page 116


 3379 0190 2046     		mov	r0, r4
 3380              	.LVL349:
1039:Drivers/STM32G4xx_HAL_Driver/Src/stm32g4xx_hal_pcd.c **** #endif /* USE_HAL_PCD_REGISTER_CALLBACKS */
 3381              		.loc 1 1039 7 is_stmt 0 view .LVU1135
 3382 0192 FFF7FEFF 		bl	HAL_PCD_SuspendCallback
 3383              	.LVL350:
1043:Drivers/STM32G4xx_HAL_Driver/Src/stm32g4xx_hal_pcd.c ****   }
 3384              		.loc 1 1043 5 is_stmt 1 view .LVU1136
 3385 0196 7DE7     		b	.L167
 3386              	.LVL351:
 3387              	.L188:
1048:Drivers/STM32G4xx_HAL_Driver/Src/stm32g4xx_hal_pcd.c **** 
 3388              		.loc 1 1048 5 view .LVU1137
 3389 0198 2268     		ldr	r2, [r4]
 3390 019a B2F84430 		ldrh	r3, [r2, #68]
 3391 019e 9BB2     		uxth	r3, r3
 3392 01a0 23F40073 		bic	r3, r3, #512
 3393 01a4 9BB2     		uxth	r3, r3
 3394 01a6 A2F84430 		strh	r3, [r2, #68]	@ movhi
1053:Drivers/STM32G4xx_HAL_Driver/Src/stm32g4xx_hal_pcd.c **** #endif /* USE_HAL_PCD_REGISTER_CALLBACKS */
 3395              		.loc 1 1053 5 view .LVU1138
 3396 01aa 2046     		mov	r0, r4
 3397              	.LVL352:
1053:Drivers/STM32G4xx_HAL_Driver/Src/stm32g4xx_hal_pcd.c **** #endif /* USE_HAL_PCD_REGISTER_CALLBACKS */
 3398              		.loc 1 1053 5 is_stmt 0 view .LVU1139
 3399 01ac FFF7FEFF 		bl	HAL_PCD_SOFCallback
 3400              	.LVL353:
1056:Drivers/STM32G4xx_HAL_Driver/Src/stm32g4xx_hal_pcd.c ****   }
 3401              		.loc 1 1056 5 is_stmt 1 view .LVU1140
 3402 01b0 70E7     		b	.L167
 3403              		.cfi_endproc
 3404              	.LFE335:
 3406              		.section	.text.HAL_PCD_EP_Open,"ax",%progbits
 3407              		.align	1
 3408              		.global	HAL_PCD_EP_Open
 3409              		.syntax unified
 3410              		.thumb
 3411              		.thumb_func
 3413              	HAL_PCD_EP_Open:
 3414              	.LVL354:
 3415              	.LFB350:
1313:Drivers/STM32G4xx_HAL_Driver/Src/stm32g4xx_hal_pcd.c ****   HAL_StatusTypeDef ret = HAL_OK;
 3416              		.loc 1 1313 1 view -0
 3417              		.cfi_startproc
 3418              		@ args = 0, pretend = 0, frame = 0
 3419              		@ frame_needed = 0, uses_anonymous_args = 0
1313:Drivers/STM32G4xx_HAL_Driver/Src/stm32g4xx_hal_pcd.c ****   HAL_StatusTypeDef ret = HAL_OK;
 3420              		.loc 1 1313 1 is_stmt 0 view .LVU1142
 3421 0000 10B5     		push	{r4, lr}
 3422              		.cfi_def_cfa_offset 8
 3423              		.cfi_offset 4, -8
 3424              		.cfi_offset 14, -4
 3425 0002 0446     		mov	r4, r0
 3426 0004 0846     		mov	r0, r1
 3427              	.LVL355:
1314:Drivers/STM32G4xx_HAL_Driver/Src/stm32g4xx_hal_pcd.c ****   PCD_EPTypeDef *ep;
 3428              		.loc 1 1314 3 is_stmt 1 view .LVU1143
ARM GAS  /tmp/ccXaRXaA.s 			page 117


1315:Drivers/STM32G4xx_HAL_Driver/Src/stm32g4xx_hal_pcd.c **** 
 3429              		.loc 1 1315 3 view .LVU1144
1317:Drivers/STM32G4xx_HAL_Driver/Src/stm32g4xx_hal_pcd.c ****   {
 3430              		.loc 1 1317 3 view .LVU1145
1317:Drivers/STM32G4xx_HAL_Driver/Src/stm32g4xx_hal_pcd.c ****   {
 3431              		.loc 1 1317 6 is_stmt 0 view .LVU1146
 3432 0006 11F0800F 		tst	r1, #128
 3433 000a 27D1     		bne	.L197
1324:Drivers/STM32G4xx_HAL_Driver/Src/stm32g4xx_hal_pcd.c ****     ep->is_in = 0U;
 3434              		.loc 1 1324 5 is_stmt 1 view .LVU1147
1324:Drivers/STM32G4xx_HAL_Driver/Src/stm32g4xx_hal_pcd.c ****     ep->is_in = 0U;
 3435              		.loc 1 1324 32 is_stmt 0 view .LVU1148
 3436 000c 01F0070C 		and	ip, r1, #7
1324:Drivers/STM32G4xx_HAL_Driver/Src/stm32g4xx_hal_pcd.c ****     ep->is_in = 0U;
 3437              		.loc 1 1324 8 view .LVU1149
 3438 0010 0CEB8C01 		add	r1, ip, ip, lsl #2
 3439              	.LVL356:
1324:Drivers/STM32G4xx_HAL_Driver/Src/stm32g4xx_hal_pcd.c ****     ep->is_in = 0U;
 3440              		.loc 1 1324 8 view .LVU1150
 3441 0014 C900     		lsls	r1, r1, #3
 3442 0016 01F5A87E 		add	lr, r1, #336
 3443 001a 04EB0E01 		add	r1, r4, lr
 3444              	.LVL357:
1325:Drivers/STM32G4xx_HAL_Driver/Src/stm32g4xx_hal_pcd.c ****   }
 3445              		.loc 1 1325 5 is_stmt 1 view .LVU1151
1325:Drivers/STM32G4xx_HAL_Driver/Src/stm32g4xx_hal_pcd.c ****   }
 3446              		.loc 1 1325 15 is_stmt 0 view .LVU1152
 3447 001e 0CEB8C0C 		add	ip, ip, ip, lsl #2
 3448 0022 04EBCC0C 		add	ip, r4, ip, lsl #3
 3449 0026 4FF0000E 		mov	lr, #0
 3450 002a 8CF851E1 		strb	lr, [ip, #337]
 3451              	.L192:
1328:Drivers/STM32G4xx_HAL_Driver/Src/stm32g4xx_hal_pcd.c ****   ep->maxpacket = (uint32_t)ep_mps & 0x7FFU;
 3452              		.loc 1 1328 3 is_stmt 1 view .LVU1153
1328:Drivers/STM32G4xx_HAL_Driver/Src/stm32g4xx_hal_pcd.c ****   ep->maxpacket = (uint32_t)ep_mps & 0x7FFU;
 3453              		.loc 1 1328 21 is_stmt 0 view .LVU1154
 3454 002e 00F00700 		and	r0, r0, #7
 3455              	.LVL358:
1328:Drivers/STM32G4xx_HAL_Driver/Src/stm32g4xx_hal_pcd.c ****   ep->maxpacket = (uint32_t)ep_mps & 0x7FFU;
 3456              		.loc 1 1328 11 view .LVU1155
 3457 0032 0870     		strb	r0, [r1]
1329:Drivers/STM32G4xx_HAL_Driver/Src/stm32g4xx_hal_pcd.c ****   ep->type = ep_type;
 3458              		.loc 1 1329 3 is_stmt 1 view .LVU1156
1329:Drivers/STM32G4xx_HAL_Driver/Src/stm32g4xx_hal_pcd.c ****   ep->type = ep_type;
 3459              		.loc 1 1329 36 is_stmt 0 view .LVU1157
 3460 0034 C2F30A02 		ubfx	r2, r2, #0, #11
 3461              	.LVL359:
1329:Drivers/STM32G4xx_HAL_Driver/Src/stm32g4xx_hal_pcd.c ****   ep->type = ep_type;
 3462              		.loc 1 1329 17 view .LVU1158
 3463 0038 0A61     		str	r2, [r1, #16]
1330:Drivers/STM32G4xx_HAL_Driver/Src/stm32g4xx_hal_pcd.c **** 
 3464              		.loc 1 1330 3 is_stmt 1 view .LVU1159
1330:Drivers/STM32G4xx_HAL_Driver/Src/stm32g4xx_hal_pcd.c **** 
 3465              		.loc 1 1330 12 is_stmt 0 view .LVU1160
 3466 003a CB70     		strb	r3, [r1, #3]
1333:Drivers/STM32G4xx_HAL_Driver/Src/stm32g4xx_hal_pcd.c ****   {
 3467              		.loc 1 1333 3 is_stmt 1 view .LVU1161
ARM GAS  /tmp/ccXaRXaA.s 			page 118


1333:Drivers/STM32G4xx_HAL_Driver/Src/stm32g4xx_hal_pcd.c ****   {
 3468              		.loc 1 1333 6 is_stmt 0 view .LVU1162
 3469 003c 022B     		cmp	r3, #2
 3470 003e 1DD0     		beq	.L198
 3471              	.LVL360:
 3472              	.L193:
1338:Drivers/STM32G4xx_HAL_Driver/Src/stm32g4xx_hal_pcd.c ****   (void)USB_ActivateEndpoint(hpcd->Instance, ep);
 3473              		.loc 1 1338 3 is_stmt 1 view .LVU1163
1338:Drivers/STM32G4xx_HAL_Driver/Src/stm32g4xx_hal_pcd.c ****   (void)USB_ActivateEndpoint(hpcd->Instance, ep);
 3474              		.loc 1 1338 3 view .LVU1164
 3475 0040 94F89032 		ldrb	r3, [r4, #656]	@ zero_extendqisi2
 3476 0044 012B     		cmp	r3, #1
 3477 0046 1CD0     		beq	.L195
1338:Drivers/STM32G4xx_HAL_Driver/Src/stm32g4xx_hal_pcd.c ****   (void)USB_ActivateEndpoint(hpcd->Instance, ep);
 3478              		.loc 1 1338 3 discriminator 2 view .LVU1165
 3479 0048 0123     		movs	r3, #1
 3480 004a 84F89032 		strb	r3, [r4, #656]
 3481              	.LVL361:
1338:Drivers/STM32G4xx_HAL_Driver/Src/stm32g4xx_hal_pcd.c ****   (void)USB_ActivateEndpoint(hpcd->Instance, ep);
 3482              		.loc 1 1338 3 view .LVU1166
1339:Drivers/STM32G4xx_HAL_Driver/Src/stm32g4xx_hal_pcd.c ****   __HAL_UNLOCK(hpcd);
 3483              		.loc 1 1339 3 view .LVU1167
1339:Drivers/STM32G4xx_HAL_Driver/Src/stm32g4xx_hal_pcd.c ****   __HAL_UNLOCK(hpcd);
 3484              		.loc 1 1339 9 is_stmt 0 view .LVU1168
 3485 004e 2068     		ldr	r0, [r4]
 3486 0050 FFF7FEFF 		bl	USB_ActivateEndpoint
 3487              	.LVL362:
1340:Drivers/STM32G4xx_HAL_Driver/Src/stm32g4xx_hal_pcd.c **** 
 3488              		.loc 1 1340 3 is_stmt 1 view .LVU1169
1340:Drivers/STM32G4xx_HAL_Driver/Src/stm32g4xx_hal_pcd.c **** 
 3489              		.loc 1 1340 3 view .LVU1170
 3490 0054 0020     		movs	r0, #0
 3491 0056 84F89002 		strb	r0, [r4, #656]
1340:Drivers/STM32G4xx_HAL_Driver/Src/stm32g4xx_hal_pcd.c **** 
 3492              		.loc 1 1340 3 view .LVU1171
1342:Drivers/STM32G4xx_HAL_Driver/Src/stm32g4xx_hal_pcd.c **** }
 3493              		.loc 1 1342 3 view .LVU1172
 3494              	.L194:
1343:Drivers/STM32G4xx_HAL_Driver/Src/stm32g4xx_hal_pcd.c **** 
 3495              		.loc 1 1343 1 is_stmt 0 view .LVU1173
 3496 005a 10BD     		pop	{r4, pc}
 3497              	.LVL363:
 3498              	.L197:
1319:Drivers/STM32G4xx_HAL_Driver/Src/stm32g4xx_hal_pcd.c ****     ep->is_in = 1U;
 3499              		.loc 1 1319 5 is_stmt 1 view .LVU1174
1319:Drivers/STM32G4xx_HAL_Driver/Src/stm32g4xx_hal_pcd.c ****     ep->is_in = 1U;
 3500              		.loc 1 1319 31 is_stmt 0 view .LVU1175
 3501 005c 01F0070C 		and	ip, r1, #7
1319:Drivers/STM32G4xx_HAL_Driver/Src/stm32g4xx_hal_pcd.c ****     ep->is_in = 1U;
 3502              		.loc 1 1319 8 view .LVU1176
 3503 0060 0CEB8C01 		add	r1, ip, ip, lsl #2
 3504              	.LVL364:
1319:Drivers/STM32G4xx_HAL_Driver/Src/stm32g4xx_hal_pcd.c ****     ep->is_in = 1U;
 3505              		.loc 1 1319 8 view .LVU1177
 3506 0064 C900     		lsls	r1, r1, #3
 3507 0066 1031     		adds	r1, r1, #16
 3508 0068 2144     		add	r1, r1, r4
ARM GAS  /tmp/ccXaRXaA.s 			page 119


 3509              	.LVL365:
1320:Drivers/STM32G4xx_HAL_Driver/Src/stm32g4xx_hal_pcd.c ****   }
 3510              		.loc 1 1320 5 is_stmt 1 view .LVU1178
1320:Drivers/STM32G4xx_HAL_Driver/Src/stm32g4xx_hal_pcd.c ****   }
 3511              		.loc 1 1320 15 is_stmt 0 view .LVU1179
 3512 006a 0CEB8C0C 		add	ip, ip, ip, lsl #2
 3513 006e 04EBCC0C 		add	ip, r4, ip, lsl #3
 3514 0072 4FF0010E 		mov	lr, #1
 3515 0076 8CF811E0 		strb	lr, [ip, #17]
 3516 007a D8E7     		b	.L192
 3517              	.LVL366:
 3518              	.L198:
1335:Drivers/STM32G4xx_HAL_Driver/Src/stm32g4xx_hal_pcd.c ****   }
 3519              		.loc 1 1335 5 is_stmt 1 view .LVU1180
1335:Drivers/STM32G4xx_HAL_Driver/Src/stm32g4xx_hal_pcd.c ****   }
 3520              		.loc 1 1335 24 is_stmt 0 view .LVU1181
 3521 007c 0023     		movs	r3, #0
 3522              	.LVL367:
1335:Drivers/STM32G4xx_HAL_Driver/Src/stm32g4xx_hal_pcd.c ****   }
 3523              		.loc 1 1335 24 view .LVU1182
 3524 007e 0B71     		strb	r3, [r1, #4]
 3525 0080 DEE7     		b	.L193
 3526              	.L195:
1338:Drivers/STM32G4xx_HAL_Driver/Src/stm32g4xx_hal_pcd.c ****   (void)USB_ActivateEndpoint(hpcd->Instance, ep);
 3527              		.loc 1 1338 3 discriminator 1 view .LVU1183
 3528 0082 0220     		movs	r0, #2
 3529 0084 E9E7     		b	.L194
 3530              		.cfi_endproc
 3531              	.LFE350:
 3533              		.section	.text.HAL_PCD_EP_Close,"ax",%progbits
 3534              		.align	1
 3535              		.global	HAL_PCD_EP_Close
 3536              		.syntax unified
 3537              		.thumb
 3538              		.thumb_func
 3540              	HAL_PCD_EP_Close:
 3541              	.LVL368:
 3542              	.LFB351:
1352:Drivers/STM32G4xx_HAL_Driver/Src/stm32g4xx_hal_pcd.c ****   PCD_EPTypeDef *ep;
 3543              		.loc 1 1352 1 is_stmt 1 view -0
 3544              		.cfi_startproc
 3545              		@ args = 0, pretend = 0, frame = 0
 3546              		@ frame_needed = 0, uses_anonymous_args = 0
1352:Drivers/STM32G4xx_HAL_Driver/Src/stm32g4xx_hal_pcd.c ****   PCD_EPTypeDef *ep;
 3547              		.loc 1 1352 1 is_stmt 0 view .LVU1185
 3548 0000 10B5     		push	{r4, lr}
 3549              		.cfi_def_cfa_offset 8
 3550              		.cfi_offset 4, -8
 3551              		.cfi_offset 14, -4
 3552 0002 0446     		mov	r4, r0
 3553 0004 0A46     		mov	r2, r1
1353:Drivers/STM32G4xx_HAL_Driver/Src/stm32g4xx_hal_pcd.c **** 
 3554              		.loc 1 1353 3 is_stmt 1 view .LVU1186
1355:Drivers/STM32G4xx_HAL_Driver/Src/stm32g4xx_hal_pcd.c ****   {
 3555              		.loc 1 1355 3 view .LVU1187
1355:Drivers/STM32G4xx_HAL_Driver/Src/stm32g4xx_hal_pcd.c ****   {
 3556              		.loc 1 1355 6 is_stmt 0 view .LVU1188
ARM GAS  /tmp/ccXaRXaA.s 			page 120


 3557 0006 11F0800F 		tst	r1, #128
 3558 000a 1FD1     		bne	.L205
1362:Drivers/STM32G4xx_HAL_Driver/Src/stm32g4xx_hal_pcd.c ****     ep->is_in = 0U;
 3559              		.loc 1 1362 5 is_stmt 1 view .LVU1189
1362:Drivers/STM32G4xx_HAL_Driver/Src/stm32g4xx_hal_pcd.c ****     ep->is_in = 0U;
 3560              		.loc 1 1362 32 is_stmt 0 view .LVU1190
 3561 000c 01F00700 		and	r0, r1, #7
 3562              	.LVL369:
1362:Drivers/STM32G4xx_HAL_Driver/Src/stm32g4xx_hal_pcd.c ****     ep->is_in = 0U;
 3563              		.loc 1 1362 8 view .LVU1191
 3564 0010 00EB8003 		add	r3, r0, r0, lsl #2
 3565 0014 DB00     		lsls	r3, r3, #3
 3566 0016 03F5A873 		add	r3, r3, #336
 3567 001a E118     		adds	r1, r4, r3
 3568              	.LVL370:
1363:Drivers/STM32G4xx_HAL_Driver/Src/stm32g4xx_hal_pcd.c ****   }
 3569              		.loc 1 1363 5 is_stmt 1 view .LVU1192
1363:Drivers/STM32G4xx_HAL_Driver/Src/stm32g4xx_hal_pcd.c ****   }
 3570              		.loc 1 1363 15 is_stmt 0 view .LVU1193
 3571 001c 00EB8000 		add	r0, r0, r0, lsl #2
 3572 0020 04EBC000 		add	r0, r4, r0, lsl #3
 3573 0024 0023     		movs	r3, #0
 3574 0026 80F85131 		strb	r3, [r0, #337]
 3575              	.L201:
1365:Drivers/STM32G4xx_HAL_Driver/Src/stm32g4xx_hal_pcd.c **** 
 3576              		.loc 1 1365 3 is_stmt 1 view .LVU1194
1365:Drivers/STM32G4xx_HAL_Driver/Src/stm32g4xx_hal_pcd.c **** 
 3577              		.loc 1 1365 21 is_stmt 0 view .LVU1195
 3578 002a 02F00702 		and	r2, r2, #7
 3579              	.LVL371:
1365:Drivers/STM32G4xx_HAL_Driver/Src/stm32g4xx_hal_pcd.c **** 
 3580              		.loc 1 1365 11 view .LVU1196
 3581 002e 0A70     		strb	r2, [r1]
1367:Drivers/STM32G4xx_HAL_Driver/Src/stm32g4xx_hal_pcd.c ****   (void)USB_DeactivateEndpoint(hpcd->Instance, ep);
 3582              		.loc 1 1367 3 is_stmt 1 view .LVU1197
1367:Drivers/STM32G4xx_HAL_Driver/Src/stm32g4xx_hal_pcd.c ****   (void)USB_DeactivateEndpoint(hpcd->Instance, ep);
 3583              		.loc 1 1367 3 view .LVU1198
 3584 0030 94F89032 		ldrb	r3, [r4, #656]	@ zero_extendqisi2
 3585 0034 012B     		cmp	r3, #1
 3586 0036 17D0     		beq	.L203
1367:Drivers/STM32G4xx_HAL_Driver/Src/stm32g4xx_hal_pcd.c ****   (void)USB_DeactivateEndpoint(hpcd->Instance, ep);
 3587              		.loc 1 1367 3 discriminator 2 view .LVU1199
 3588 0038 0123     		movs	r3, #1
 3589 003a 84F89032 		strb	r3, [r4, #656]
1367:Drivers/STM32G4xx_HAL_Driver/Src/stm32g4xx_hal_pcd.c ****   (void)USB_DeactivateEndpoint(hpcd->Instance, ep);
 3590              		.loc 1 1367 3 view .LVU1200
1368:Drivers/STM32G4xx_HAL_Driver/Src/stm32g4xx_hal_pcd.c ****   __HAL_UNLOCK(hpcd);
 3591              		.loc 1 1368 3 view .LVU1201
1368:Drivers/STM32G4xx_HAL_Driver/Src/stm32g4xx_hal_pcd.c ****   __HAL_UNLOCK(hpcd);
 3592              		.loc 1 1368 9 is_stmt 0 view .LVU1202
 3593 003e 2068     		ldr	r0, [r4]
 3594 0040 FFF7FEFF 		bl	USB_DeactivateEndpoint
 3595              	.LVL372:
1369:Drivers/STM32G4xx_HAL_Driver/Src/stm32g4xx_hal_pcd.c ****   return HAL_OK;
 3596              		.loc 1 1369 3 is_stmt 1 view .LVU1203
1369:Drivers/STM32G4xx_HAL_Driver/Src/stm32g4xx_hal_pcd.c ****   return HAL_OK;
 3597              		.loc 1 1369 3 view .LVU1204
ARM GAS  /tmp/ccXaRXaA.s 			page 121


 3598 0044 0020     		movs	r0, #0
 3599 0046 84F89002 		strb	r0, [r4, #656]
1369:Drivers/STM32G4xx_HAL_Driver/Src/stm32g4xx_hal_pcd.c ****   return HAL_OK;
 3600              		.loc 1 1369 3 view .LVU1205
1370:Drivers/STM32G4xx_HAL_Driver/Src/stm32g4xx_hal_pcd.c **** }
 3601              		.loc 1 1370 3 view .LVU1206
 3602              	.L202:
1371:Drivers/STM32G4xx_HAL_Driver/Src/stm32g4xx_hal_pcd.c **** 
 3603              		.loc 1 1371 1 is_stmt 0 view .LVU1207
 3604 004a 10BD     		pop	{r4, pc}
 3605              	.LVL373:
 3606              	.L205:
1357:Drivers/STM32G4xx_HAL_Driver/Src/stm32g4xx_hal_pcd.c ****     ep->is_in = 1U;
 3607              		.loc 1 1357 5 is_stmt 1 view .LVU1208
1357:Drivers/STM32G4xx_HAL_Driver/Src/stm32g4xx_hal_pcd.c ****     ep->is_in = 1U;
 3608              		.loc 1 1357 31 is_stmt 0 view .LVU1209
 3609 004c 01F00700 		and	r0, r1, #7
 3610              	.LVL374:
1357:Drivers/STM32G4xx_HAL_Driver/Src/stm32g4xx_hal_pcd.c ****     ep->is_in = 1U;
 3611              		.loc 1 1357 8 view .LVU1210
 3612 0050 00EB8003 		add	r3, r0, r0, lsl #2
 3613 0054 DB00     		lsls	r3, r3, #3
 3614 0056 1033     		adds	r3, r3, #16
 3615 0058 E118     		adds	r1, r4, r3
 3616              	.LVL375:
1358:Drivers/STM32G4xx_HAL_Driver/Src/stm32g4xx_hal_pcd.c ****   }
 3617              		.loc 1 1358 5 is_stmt 1 view .LVU1211
1358:Drivers/STM32G4xx_HAL_Driver/Src/stm32g4xx_hal_pcd.c ****   }
 3618              		.loc 1 1358 15 is_stmt 0 view .LVU1212
 3619 005a 00EB8000 		add	r0, r0, r0, lsl #2
 3620 005e 04EBC000 		add	r0, r4, r0, lsl #3
 3621 0062 0123     		movs	r3, #1
 3622 0064 4374     		strb	r3, [r0, #17]
 3623 0066 E0E7     		b	.L201
 3624              	.LVL376:
 3625              	.L203:
1367:Drivers/STM32G4xx_HAL_Driver/Src/stm32g4xx_hal_pcd.c ****   (void)USB_DeactivateEndpoint(hpcd->Instance, ep);
 3626              		.loc 1 1367 3 discriminator 1 view .LVU1213
 3627 0068 0220     		movs	r0, #2
 3628 006a EEE7     		b	.L202
 3629              		.cfi_endproc
 3630              	.LFE351:
 3632              		.section	.text.HAL_PCD_EP_Receive,"ax",%progbits
 3633              		.align	1
 3634              		.global	HAL_PCD_EP_Receive
 3635              		.syntax unified
 3636              		.thumb
 3637              		.thumb_func
 3639              	HAL_PCD_EP_Receive:
 3640              	.LVL377:
 3641              	.LFB352:
1383:Drivers/STM32G4xx_HAL_Driver/Src/stm32g4xx_hal_pcd.c ****   PCD_EPTypeDef *ep;
 3642              		.loc 1 1383 1 is_stmt 1 view -0
 3643              		.cfi_startproc
 3644              		@ args = 0, pretend = 0, frame = 0
 3645              		@ frame_needed = 0, uses_anonymous_args = 0
1383:Drivers/STM32G4xx_HAL_Driver/Src/stm32g4xx_hal_pcd.c ****   PCD_EPTypeDef *ep;
ARM GAS  /tmp/ccXaRXaA.s 			page 122


 3646              		.loc 1 1383 1 is_stmt 0 view .LVU1215
 3647 0000 10B5     		push	{r4, lr}
 3648              		.cfi_def_cfa_offset 8
 3649              		.cfi_offset 4, -8
 3650              		.cfi_offset 14, -4
1384:Drivers/STM32G4xx_HAL_Driver/Src/stm32g4xx_hal_pcd.c **** 
 3651              		.loc 1 1384 3 is_stmt 1 view .LVU1216
1386:Drivers/STM32G4xx_HAL_Driver/Src/stm32g4xx_hal_pcd.c **** 
 3652              		.loc 1 1386 3 view .LVU1217
 3653 0002 01F0070C 		and	ip, r1, #7
1386:Drivers/STM32G4xx_HAL_Driver/Src/stm32g4xx_hal_pcd.c **** 
 3654              		.loc 1 1386 6 is_stmt 0 view .LVU1218
 3655 0006 0CEB8C01 		add	r1, ip, ip, lsl #2
 3656              	.LVL378:
1386:Drivers/STM32G4xx_HAL_Driver/Src/stm32g4xx_hal_pcd.c **** 
 3657              		.loc 1 1386 6 view .LVU1219
 3658 000a C900     		lsls	r1, r1, #3
 3659 000c 01F5A871 		add	r1, r1, #336
 3660              	.LVL379:
1389:Drivers/STM32G4xx_HAL_Driver/Src/stm32g4xx_hal_pcd.c ****   ep->xfer_len = len;
 3661              		.loc 1 1389 3 is_stmt 1 view .LVU1220
1389:Drivers/STM32G4xx_HAL_Driver/Src/stm32g4xx_hal_pcd.c ****   ep->xfer_len = len;
 3662              		.loc 1 1389 17 is_stmt 0 view .LVU1221
 3663 0010 0CEB8C0E 		add	lr, ip, ip, lsl #2
 3664 0014 00EBCE0E 		add	lr, r0, lr, lsl #3
 3665 0018 CEF86421 		str	r2, [lr, #356]
1390:Drivers/STM32G4xx_HAL_Driver/Src/stm32g4xx_hal_pcd.c ****   ep->xfer_count = 0U;
 3666              		.loc 1 1390 3 is_stmt 1 view .LVU1222
1390:Drivers/STM32G4xx_HAL_Driver/Src/stm32g4xx_hal_pcd.c ****   ep->xfer_count = 0U;
 3667              		.loc 1 1390 16 is_stmt 0 view .LVU1223
 3668 001c CEF86831 		str	r3, [lr, #360]
1391:Drivers/STM32G4xx_HAL_Driver/Src/stm32g4xx_hal_pcd.c ****   ep->is_in = 0U;
 3669              		.loc 1 1391 3 is_stmt 1 view .LVU1224
1391:Drivers/STM32G4xx_HAL_Driver/Src/stm32g4xx_hal_pcd.c ****   ep->is_in = 0U;
 3670              		.loc 1 1391 18 is_stmt 0 view .LVU1225
 3671 0020 0024     		movs	r4, #0
 3672 0022 CEF86C41 		str	r4, [lr, #364]
1392:Drivers/STM32G4xx_HAL_Driver/Src/stm32g4xx_hal_pcd.c ****   ep->num = ep_addr & EP_ADDR_MSK;
 3673              		.loc 1 1392 3 is_stmt 1 view .LVU1226
1392:Drivers/STM32G4xx_HAL_Driver/Src/stm32g4xx_hal_pcd.c ****   ep->num = ep_addr & EP_ADDR_MSK;
 3674              		.loc 1 1392 13 is_stmt 0 view .LVU1227
 3675 0026 8EF85141 		strb	r4, [lr, #337]
1393:Drivers/STM32G4xx_HAL_Driver/Src/stm32g4xx_hal_pcd.c **** 
 3676              		.loc 1 1393 3 is_stmt 1 view .LVU1228
1393:Drivers/STM32G4xx_HAL_Driver/Src/stm32g4xx_hal_pcd.c **** 
 3677              		.loc 1 1393 11 is_stmt 0 view .LVU1229
 3678 002a 8EF850C1 		strb	ip, [lr, #336]
1395:Drivers/STM32G4xx_HAL_Driver/Src/stm32g4xx_hal_pcd.c **** 
 3679              		.loc 1 1395 3 is_stmt 1 view .LVU1230
1395:Drivers/STM32G4xx_HAL_Driver/Src/stm32g4xx_hal_pcd.c **** 
 3680              		.loc 1 1395 9 is_stmt 0 view .LVU1231
 3681 002e 0144     		add	r1, r1, r0
 3682              	.LVL380:
1395:Drivers/STM32G4xx_HAL_Driver/Src/stm32g4xx_hal_pcd.c **** 
 3683              		.loc 1 1395 9 view .LVU1232
 3684 0030 0068     		ldr	r0, [r0]
 3685              	.LVL381:
ARM GAS  /tmp/ccXaRXaA.s 			page 123


1395:Drivers/STM32G4xx_HAL_Driver/Src/stm32g4xx_hal_pcd.c **** 
 3686              		.loc 1 1395 9 view .LVU1233
 3687 0032 FFF7FEFF 		bl	USB_EPStartXfer
 3688              	.LVL382:
1397:Drivers/STM32G4xx_HAL_Driver/Src/stm32g4xx_hal_pcd.c **** }
 3689              		.loc 1 1397 3 is_stmt 1 view .LVU1234
1398:Drivers/STM32G4xx_HAL_Driver/Src/stm32g4xx_hal_pcd.c **** 
 3690              		.loc 1 1398 1 is_stmt 0 view .LVU1235
 3691 0036 2046     		mov	r0, r4
 3692 0038 10BD     		pop	{r4, pc}
 3693              		.cfi_endproc
 3694              	.LFE352:
 3696              		.section	.text.HAL_PCD_EP_GetRxCount,"ax",%progbits
 3697              		.align	1
 3698              		.global	HAL_PCD_EP_GetRxCount
 3699              		.syntax unified
 3700              		.thumb
 3701              		.thumb_func
 3703              	HAL_PCD_EP_GetRxCount:
 3704              	.LVL383:
 3705              	.LFB353:
1407:Drivers/STM32G4xx_HAL_Driver/Src/stm32g4xx_hal_pcd.c ****   return hpcd->OUT_ep[ep_addr & EP_ADDR_MSK].xfer_count;
 3706              		.loc 1 1407 1 is_stmt 1 view -0
 3707              		.cfi_startproc
 3708              		@ args = 0, pretend = 0, frame = 0
 3709              		@ frame_needed = 0, uses_anonymous_args = 0
 3710              		@ link register save eliminated.
1408:Drivers/STM32G4xx_HAL_Driver/Src/stm32g4xx_hal_pcd.c **** }
 3711              		.loc 1 1408 3 view .LVU1237
1408:Drivers/STM32G4xx_HAL_Driver/Src/stm32g4xx_hal_pcd.c **** }
 3712              		.loc 1 1408 31 is_stmt 0 view .LVU1238
 3713 0000 01F00701 		and	r1, r1, #7
 3714              	.LVL384:
1408:Drivers/STM32G4xx_HAL_Driver/Src/stm32g4xx_hal_pcd.c **** }
 3715              		.loc 1 1408 45 view .LVU1239
 3716 0004 01EB8101 		add	r1, r1, r1, lsl #2
 3717 0008 00EBC100 		add	r0, r0, r1, lsl #3
 3718              	.LVL385:
1409:Drivers/STM32G4xx_HAL_Driver/Src/stm32g4xx_hal_pcd.c **** /**
 3719              		.loc 1 1409 1 view .LVU1240
 3720 000c D0F86C01 		ldr	r0, [r0, #364]
 3721 0010 7047     		bx	lr
 3722              		.cfi_endproc
 3723              	.LFE353:
 3725              		.section	.text.HAL_PCD_EP_Transmit,"ax",%progbits
 3726              		.align	1
 3727              		.global	HAL_PCD_EP_Transmit
 3728              		.syntax unified
 3729              		.thumb
 3730              		.thumb_func
 3732              	HAL_PCD_EP_Transmit:
 3733              	.LVL386:
 3734              	.LFB354:
1419:Drivers/STM32G4xx_HAL_Driver/Src/stm32g4xx_hal_pcd.c ****   PCD_EPTypeDef *ep;
 3735              		.loc 1 1419 1 is_stmt 1 view -0
 3736              		.cfi_startproc
 3737              		@ args = 0, pretend = 0, frame = 0
ARM GAS  /tmp/ccXaRXaA.s 			page 124


 3738              		@ frame_needed = 0, uses_anonymous_args = 0
1419:Drivers/STM32G4xx_HAL_Driver/Src/stm32g4xx_hal_pcd.c ****   PCD_EPTypeDef *ep;
 3739              		.loc 1 1419 1 is_stmt 0 view .LVU1242
 3740 0000 38B5     		push	{r3, r4, r5, lr}
 3741              		.cfi_def_cfa_offset 16
 3742              		.cfi_offset 3, -16
 3743              		.cfi_offset 4, -12
 3744              		.cfi_offset 5, -8
 3745              		.cfi_offset 14, -4
1420:Drivers/STM32G4xx_HAL_Driver/Src/stm32g4xx_hal_pcd.c **** 
 3746              		.loc 1 1420 3 is_stmt 1 view .LVU1243
1422:Drivers/STM32G4xx_HAL_Driver/Src/stm32g4xx_hal_pcd.c **** 
 3747              		.loc 1 1422 3 view .LVU1244
 3748 0002 01F0070C 		and	ip, r1, #7
1422:Drivers/STM32G4xx_HAL_Driver/Src/stm32g4xx_hal_pcd.c **** 
 3749              		.loc 1 1422 6 is_stmt 0 view .LVU1245
 3750 0006 0CEB8C01 		add	r1, ip, ip, lsl #2
 3751              	.LVL387:
1422:Drivers/STM32G4xx_HAL_Driver/Src/stm32g4xx_hal_pcd.c **** 
 3752              		.loc 1 1422 6 view .LVU1246
 3753 000a C900     		lsls	r1, r1, #3
 3754 000c 1031     		adds	r1, r1, #16
 3755              	.LVL388:
1425:Drivers/STM32G4xx_HAL_Driver/Src/stm32g4xx_hal_pcd.c ****   ep->xfer_len = len;
 3756              		.loc 1 1425 3 is_stmt 1 view .LVU1247
1425:Drivers/STM32G4xx_HAL_Driver/Src/stm32g4xx_hal_pcd.c ****   ep->xfer_len = len;
 3757              		.loc 1 1425 17 is_stmt 0 view .LVU1248
 3758 000e 0CEB8C0E 		add	lr, ip, ip, lsl #2
 3759 0012 00EBCE0E 		add	lr, r0, lr, lsl #3
 3760 0016 CEF82420 		str	r2, [lr, #36]
1426:Drivers/STM32G4xx_HAL_Driver/Src/stm32g4xx_hal_pcd.c ****   ep->xfer_fill_db = 1U;
 3761              		.loc 1 1426 3 is_stmt 1 view .LVU1249
1426:Drivers/STM32G4xx_HAL_Driver/Src/stm32g4xx_hal_pcd.c ****   ep->xfer_fill_db = 1U;
 3762              		.loc 1 1426 16 is_stmt 0 view .LVU1250
 3763 001a 0CF10102 		add	r2, ip, #1
 3764              	.LVL389:
1426:Drivers/STM32G4xx_HAL_Driver/Src/stm32g4xx_hal_pcd.c ****   ep->xfer_fill_db = 1U;
 3765              		.loc 1 1426 16 view .LVU1251
 3766 001e 02EB8204 		add	r4, r2, r2, lsl #2
 3767 0022 40F83430 		str	r3, [r0, r4, lsl #3]
 3768              	.LVL390:
1427:Drivers/STM32G4xx_HAL_Driver/Src/stm32g4xx_hal_pcd.c ****   ep->xfer_len_db = len;
 3769              		.loc 1 1427 3 is_stmt 1 view .LVU1252
1427:Drivers/STM32G4xx_HAL_Driver/Src/stm32g4xx_hal_pcd.c ****   ep->xfer_len_db = len;
 3770              		.loc 1 1427 20 is_stmt 0 view .LVU1253
 3771 0026 0125     		movs	r5, #1
 3772 0028 8EF83450 		strb	r5, [lr, #52]
1428:Drivers/STM32G4xx_HAL_Driver/Src/stm32g4xx_hal_pcd.c ****   ep->xfer_count = 0U;
 3773              		.loc 1 1428 3 is_stmt 1 view .LVU1254
1428:Drivers/STM32G4xx_HAL_Driver/Src/stm32g4xx_hal_pcd.c ****   ep->xfer_count = 0U;
 3774              		.loc 1 1428 19 is_stmt 0 view .LVU1255
 3775 002c CEF83030 		str	r3, [lr, #48]
1429:Drivers/STM32G4xx_HAL_Driver/Src/stm32g4xx_hal_pcd.c ****   ep->is_in = 1U;
 3776              		.loc 1 1429 3 is_stmt 1 view .LVU1256
1429:Drivers/STM32G4xx_HAL_Driver/Src/stm32g4xx_hal_pcd.c ****   ep->is_in = 1U;
 3777              		.loc 1 1429 18 is_stmt 0 view .LVU1257
 3778 0030 00EBC402 		add	r2, r0, r4, lsl #3
ARM GAS  /tmp/ccXaRXaA.s 			page 125


 3779 0034 0024     		movs	r4, #0
 3780 0036 5460     		str	r4, [r2, #4]
1430:Drivers/STM32G4xx_HAL_Driver/Src/stm32g4xx_hal_pcd.c ****   ep->num = ep_addr & EP_ADDR_MSK;
 3781              		.loc 1 1430 3 is_stmt 1 view .LVU1258
1430:Drivers/STM32G4xx_HAL_Driver/Src/stm32g4xx_hal_pcd.c ****   ep->num = ep_addr & EP_ADDR_MSK;
 3782              		.loc 1 1430 13 is_stmt 0 view .LVU1259
 3783 0038 8EF81150 		strb	r5, [lr, #17]
1431:Drivers/STM32G4xx_HAL_Driver/Src/stm32g4xx_hal_pcd.c **** 
 3784              		.loc 1 1431 3 is_stmt 1 view .LVU1260
1431:Drivers/STM32G4xx_HAL_Driver/Src/stm32g4xx_hal_pcd.c **** 
 3785              		.loc 1 1431 11 is_stmt 0 view .LVU1261
 3786 003c 8EF810C0 		strb	ip, [lr, #16]
1433:Drivers/STM32G4xx_HAL_Driver/Src/stm32g4xx_hal_pcd.c **** 
 3787              		.loc 1 1433 3 is_stmt 1 view .LVU1262
1433:Drivers/STM32G4xx_HAL_Driver/Src/stm32g4xx_hal_pcd.c **** 
 3788              		.loc 1 1433 9 is_stmt 0 view .LVU1263
 3789 0040 0144     		add	r1, r1, r0
 3790              	.LVL391:
1433:Drivers/STM32G4xx_HAL_Driver/Src/stm32g4xx_hal_pcd.c **** 
 3791              		.loc 1 1433 9 view .LVU1264
 3792 0042 0068     		ldr	r0, [r0]
 3793              	.LVL392:
1433:Drivers/STM32G4xx_HAL_Driver/Src/stm32g4xx_hal_pcd.c **** 
 3794              		.loc 1 1433 9 view .LVU1265
 3795 0044 FFF7FEFF 		bl	USB_EPStartXfer
 3796              	.LVL393:
1435:Drivers/STM32G4xx_HAL_Driver/Src/stm32g4xx_hal_pcd.c **** }
 3797              		.loc 1 1435 3 is_stmt 1 view .LVU1266
1436:Drivers/STM32G4xx_HAL_Driver/Src/stm32g4xx_hal_pcd.c **** 
 3798              		.loc 1 1436 1 is_stmt 0 view .LVU1267
 3799 0048 2046     		mov	r0, r4
 3800 004a 38BD     		pop	{r3, r4, r5, pc}
 3801              		.cfi_endproc
 3802              	.LFE354:
 3804              		.section	.text.HAL_PCD_EP_SetStall,"ax",%progbits
 3805              		.align	1
 3806              		.global	HAL_PCD_EP_SetStall
 3807              		.syntax unified
 3808              		.thumb
 3809              		.thumb_func
 3811              	HAL_PCD_EP_SetStall:
 3812              	.LVL394:
 3813              	.LFB355:
1445:Drivers/STM32G4xx_HAL_Driver/Src/stm32g4xx_hal_pcd.c ****   PCD_EPTypeDef *ep;
 3814              		.loc 1 1445 1 is_stmt 1 view -0
 3815              		.cfi_startproc
 3816              		@ args = 0, pretend = 0, frame = 0
 3817              		@ frame_needed = 0, uses_anonymous_args = 0
1445:Drivers/STM32G4xx_HAL_Driver/Src/stm32g4xx_hal_pcd.c ****   PCD_EPTypeDef *ep;
 3818              		.loc 1 1445 1 is_stmt 0 view .LVU1269
 3819 0000 0B46     		mov	r3, r1
1446:Drivers/STM32G4xx_HAL_Driver/Src/stm32g4xx_hal_pcd.c **** 
 3820              		.loc 1 1446 3 is_stmt 1 view .LVU1270
1448:Drivers/STM32G4xx_HAL_Driver/Src/stm32g4xx_hal_pcd.c ****   {
 3821              		.loc 1 1448 3 view .LVU1271
 3822 0002 01F00702 		and	r2, r1, #7
1448:Drivers/STM32G4xx_HAL_Driver/Src/stm32g4xx_hal_pcd.c ****   {
ARM GAS  /tmp/ccXaRXaA.s 			page 126


 3823              		.loc 1 1448 53 is_stmt 0 view .LVU1272
 3824 0006 0179     		ldrb	r1, [r0, #4]	@ zero_extendqisi2
 3825              	.LVL395:
1448:Drivers/STM32G4xx_HAL_Driver/Src/stm32g4xx_hal_pcd.c ****   {
 3826              		.loc 1 1448 6 view .LVU1273
 3827 0008 9142     		cmp	r1, r2
 3828 000a 2ED3     		bcc	.L215
1445:Drivers/STM32G4xx_HAL_Driver/Src/stm32g4xx_hal_pcd.c ****   PCD_EPTypeDef *ep;
 3829              		.loc 1 1445 1 view .LVU1274
 3830 000c 10B5     		push	{r4, lr}
 3831              		.cfi_def_cfa_offset 8
 3832              		.cfi_offset 4, -8
 3833              		.cfi_offset 14, -4
 3834 000e 0446     		mov	r4, r0
1453:Drivers/STM32G4xx_HAL_Driver/Src/stm32g4xx_hal_pcd.c ****   {
 3835              		.loc 1 1453 3 is_stmt 1 view .LVU1275
1453:Drivers/STM32G4xx_HAL_Driver/Src/stm32g4xx_hal_pcd.c ****   {
 3836              		.loc 1 1453 6 is_stmt 0 view .LVU1276
 3837 0010 13F0800F 		tst	r3, #128
 3838 0014 1DD1     		bne	.L221
1460:Drivers/STM32G4xx_HAL_Driver/Src/stm32g4xx_hal_pcd.c ****     ep->is_in = 0U;
 3839              		.loc 1 1460 5 is_stmt 1 view .LVU1277
1460:Drivers/STM32G4xx_HAL_Driver/Src/stm32g4xx_hal_pcd.c ****     ep->is_in = 0U;
 3840              		.loc 1 1460 8 is_stmt 0 view .LVU1278
 3841 0016 03EB8301 		add	r1, r3, r3, lsl #2
 3842 001a C900     		lsls	r1, r1, #3
 3843 001c 01F5A871 		add	r1, r1, #336
 3844 0020 0144     		add	r1, r1, r0
 3845              	.LVL396:
1461:Drivers/STM32G4xx_HAL_Driver/Src/stm32g4xx_hal_pcd.c ****   }
 3846              		.loc 1 1461 5 is_stmt 1 view .LVU1279
1461:Drivers/STM32G4xx_HAL_Driver/Src/stm32g4xx_hal_pcd.c ****   }
 3847              		.loc 1 1461 15 is_stmt 0 view .LVU1280
 3848 0022 03EB8303 		add	r3, r3, r3, lsl #2
 3849              	.LVL397:
1461:Drivers/STM32G4xx_HAL_Driver/Src/stm32g4xx_hal_pcd.c ****   }
 3850              		.loc 1 1461 15 view .LVU1281
 3851 0026 00EBC303 		add	r3, r0, r3, lsl #3
 3852 002a 0020     		movs	r0, #0
 3853              	.LVL398:
1461:Drivers/STM32G4xx_HAL_Driver/Src/stm32g4xx_hal_pcd.c ****   }
 3854              		.loc 1 1461 15 view .LVU1282
 3855 002c 83F85101 		strb	r0, [r3, #337]
 3856              	.L214:
1464:Drivers/STM32G4xx_HAL_Driver/Src/stm32g4xx_hal_pcd.c ****   ep->num = ep_addr & EP_ADDR_MSK;
 3857              		.loc 1 1464 3 is_stmt 1 view .LVU1283
1464:Drivers/STM32G4xx_HAL_Driver/Src/stm32g4xx_hal_pcd.c ****   ep->num = ep_addr & EP_ADDR_MSK;
 3858              		.loc 1 1464 16 is_stmt 0 view .LVU1284
 3859 0030 0123     		movs	r3, #1
 3860 0032 8B70     		strb	r3, [r1, #2]
1465:Drivers/STM32G4xx_HAL_Driver/Src/stm32g4xx_hal_pcd.c **** 
 3861              		.loc 1 1465 3 is_stmt 1 view .LVU1285
1465:Drivers/STM32G4xx_HAL_Driver/Src/stm32g4xx_hal_pcd.c **** 
 3862              		.loc 1 1465 11 is_stmt 0 view .LVU1286
 3863 0034 0A70     		strb	r2, [r1]
1467:Drivers/STM32G4xx_HAL_Driver/Src/stm32g4xx_hal_pcd.c **** 
 3864              		.loc 1 1467 3 is_stmt 1 view .LVU1287
ARM GAS  /tmp/ccXaRXaA.s 			page 127


1467:Drivers/STM32G4xx_HAL_Driver/Src/stm32g4xx_hal_pcd.c **** 
 3865              		.loc 1 1467 3 view .LVU1288
 3866 0036 94F89032 		ldrb	r3, [r4, #656]	@ zero_extendqisi2
 3867 003a 012B     		cmp	r3, #1
 3868 003c 17D0     		beq	.L216
1467:Drivers/STM32G4xx_HAL_Driver/Src/stm32g4xx_hal_pcd.c **** 
 3869              		.loc 1 1467 3 discriminator 2 view .LVU1289
 3870 003e 0123     		movs	r3, #1
 3871 0040 84F89032 		strb	r3, [r4, #656]
1467:Drivers/STM32G4xx_HAL_Driver/Src/stm32g4xx_hal_pcd.c **** 
 3872              		.loc 1 1467 3 view .LVU1290
1469:Drivers/STM32G4xx_HAL_Driver/Src/stm32g4xx_hal_pcd.c **** 
 3873              		.loc 1 1469 3 view .LVU1291
1469:Drivers/STM32G4xx_HAL_Driver/Src/stm32g4xx_hal_pcd.c **** 
 3874              		.loc 1 1469 9 is_stmt 0 view .LVU1292
 3875 0044 2068     		ldr	r0, [r4]
 3876 0046 FFF7FEFF 		bl	USB_EPSetStall
 3877              	.LVL399:
1471:Drivers/STM32G4xx_HAL_Driver/Src/stm32g4xx_hal_pcd.c **** 
 3878              		.loc 1 1471 3 is_stmt 1 view .LVU1293
1471:Drivers/STM32G4xx_HAL_Driver/Src/stm32g4xx_hal_pcd.c **** 
 3879              		.loc 1 1471 3 view .LVU1294
 3880 004a 0020     		movs	r0, #0
 3881 004c 84F89002 		strb	r0, [r4, #656]
1471:Drivers/STM32G4xx_HAL_Driver/Src/stm32g4xx_hal_pcd.c **** 
 3882              		.loc 1 1471 3 view .LVU1295
1473:Drivers/STM32G4xx_HAL_Driver/Src/stm32g4xx_hal_pcd.c **** }
 3883              		.loc 1 1473 3 view .LVU1296
 3884              	.L212:
1474:Drivers/STM32G4xx_HAL_Driver/Src/stm32g4xx_hal_pcd.c **** 
 3885              		.loc 1 1474 1 is_stmt 0 view .LVU1297
 3886 0050 10BD     		pop	{r4, pc}
 3887              	.LVL400:
 3888              	.L221:
1455:Drivers/STM32G4xx_HAL_Driver/Src/stm32g4xx_hal_pcd.c ****     ep->is_in = 1U;
 3889              		.loc 1 1455 5 is_stmt 1 view .LVU1298
1455:Drivers/STM32G4xx_HAL_Driver/Src/stm32g4xx_hal_pcd.c ****     ep->is_in = 1U;
 3890              		.loc 1 1455 8 is_stmt 0 view .LVU1299
 3891 0052 02EB8201 		add	r1, r2, r2, lsl #2
 3892 0056 C900     		lsls	r1, r1, #3
 3893 0058 1031     		adds	r1, r1, #16
 3894 005a 0144     		add	r1, r1, r0
 3895              	.LVL401:
1456:Drivers/STM32G4xx_HAL_Driver/Src/stm32g4xx_hal_pcd.c ****   }
 3896              		.loc 1 1456 5 is_stmt 1 view .LVU1300
1456:Drivers/STM32G4xx_HAL_Driver/Src/stm32g4xx_hal_pcd.c ****   }
 3897              		.loc 1 1456 15 is_stmt 0 view .LVU1301
 3898 005c 02EB8203 		add	r3, r2, r2, lsl #2
 3899 0060 00EBC303 		add	r3, r0, r3, lsl #3
 3900 0064 0120     		movs	r0, #1
 3901              	.LVL402:
1456:Drivers/STM32G4xx_HAL_Driver/Src/stm32g4xx_hal_pcd.c ****   }
 3902              		.loc 1 1456 15 view .LVU1302
 3903 0066 5874     		strb	r0, [r3, #17]
 3904 0068 E2E7     		b	.L214
 3905              	.LVL403:
 3906              	.L215:
ARM GAS  /tmp/ccXaRXaA.s 			page 128


 3907              		.cfi_def_cfa_offset 0
 3908              		.cfi_restore 4
 3909              		.cfi_restore 14
1450:Drivers/STM32G4xx_HAL_Driver/Src/stm32g4xx_hal_pcd.c ****   }
 3910              		.loc 1 1450 12 view .LVU1303
 3911 006a 0120     		movs	r0, #1
 3912              	.LVL404:
1474:Drivers/STM32G4xx_HAL_Driver/Src/stm32g4xx_hal_pcd.c **** 
 3913              		.loc 1 1474 1 view .LVU1304
 3914 006c 7047     		bx	lr
 3915              	.LVL405:
 3916              	.L216:
 3917              		.cfi_def_cfa_offset 8
 3918              		.cfi_offset 4, -8
 3919              		.cfi_offset 14, -4
1467:Drivers/STM32G4xx_HAL_Driver/Src/stm32g4xx_hal_pcd.c **** 
 3920              		.loc 1 1467 3 discriminator 1 view .LVU1305
 3921 006e 0220     		movs	r0, #2
 3922 0070 EEE7     		b	.L212
 3923              		.cfi_endproc
 3924              	.LFE355:
 3926              		.section	.text.HAL_PCD_EP_ClrStall,"ax",%progbits
 3927              		.align	1
 3928              		.global	HAL_PCD_EP_ClrStall
 3929              		.syntax unified
 3930              		.thumb
 3931              		.thumb_func
 3933              	HAL_PCD_EP_ClrStall:
 3934              	.LVL406:
 3935              	.LFB356:
1483:Drivers/STM32G4xx_HAL_Driver/Src/stm32g4xx_hal_pcd.c ****   PCD_EPTypeDef *ep;
 3936              		.loc 1 1483 1 is_stmt 1 view -0
 3937              		.cfi_startproc
 3938              		@ args = 0, pretend = 0, frame = 0
 3939              		@ frame_needed = 0, uses_anonymous_args = 0
1483:Drivers/STM32G4xx_HAL_Driver/Src/stm32g4xx_hal_pcd.c ****   PCD_EPTypeDef *ep;
 3940              		.loc 1 1483 1 is_stmt 0 view .LVU1307
 3941 0000 0B46     		mov	r3, r1
1484:Drivers/STM32G4xx_HAL_Driver/Src/stm32g4xx_hal_pcd.c **** 
 3942              		.loc 1 1484 3 is_stmt 1 view .LVU1308
1486:Drivers/STM32G4xx_HAL_Driver/Src/stm32g4xx_hal_pcd.c ****   {
 3943              		.loc 1 1486 3 view .LVU1309
1486:Drivers/STM32G4xx_HAL_Driver/Src/stm32g4xx_hal_pcd.c ****   {
 3944              		.loc 1 1486 47 is_stmt 0 view .LVU1310
 3945 0002 0179     		ldrb	r1, [r0, #4]	@ zero_extendqisi2
 3946              	.LVL407:
1486:Drivers/STM32G4xx_HAL_Driver/Src/stm32g4xx_hal_pcd.c ****   {
 3947              		.loc 1 1486 6 view .LVU1311
 3948 0004 03F00F02 		and	r2, r3, #15
 3949 0008 9142     		cmp	r1, r2
 3950 000a 34D3     		bcc	.L226
1483:Drivers/STM32G4xx_HAL_Driver/Src/stm32g4xx_hal_pcd.c ****   PCD_EPTypeDef *ep;
 3951              		.loc 1 1483 1 view .LVU1312
 3952 000c 10B5     		push	{r4, lr}
 3953              		.cfi_def_cfa_offset 8
 3954              		.cfi_offset 4, -8
 3955              		.cfi_offset 14, -4
ARM GAS  /tmp/ccXaRXaA.s 			page 129


 3956 000e 0446     		mov	r4, r0
1491:Drivers/STM32G4xx_HAL_Driver/Src/stm32g4xx_hal_pcd.c ****   {
 3957              		.loc 1 1491 3 is_stmt 1 view .LVU1313
1491:Drivers/STM32G4xx_HAL_Driver/Src/stm32g4xx_hal_pcd.c ****   {
 3958              		.loc 1 1491 6 is_stmt 0 view .LVU1314
 3959 0010 13F0800F 		tst	r3, #128
 3960 0014 21D1     		bne	.L232
1498:Drivers/STM32G4xx_HAL_Driver/Src/stm32g4xx_hal_pcd.c ****     ep->is_in = 0U;
 3961              		.loc 1 1498 5 is_stmt 1 view .LVU1315
1498:Drivers/STM32G4xx_HAL_Driver/Src/stm32g4xx_hal_pcd.c ****     ep->is_in = 0U;
 3962              		.loc 1 1498 32 is_stmt 0 view .LVU1316
 3963 0016 03F00702 		and	r2, r3, #7
1498:Drivers/STM32G4xx_HAL_Driver/Src/stm32g4xx_hal_pcd.c ****     ep->is_in = 0U;
 3964              		.loc 1 1498 8 view .LVU1317
 3965 001a 02EB8201 		add	r1, r2, r2, lsl #2
 3966 001e C900     		lsls	r1, r1, #3
 3967 0020 01F5A871 		add	r1, r1, #336
 3968 0024 0144     		add	r1, r1, r0
 3969              	.LVL408:
1499:Drivers/STM32G4xx_HAL_Driver/Src/stm32g4xx_hal_pcd.c ****   }
 3970              		.loc 1 1499 5 is_stmt 1 view .LVU1318
1499:Drivers/STM32G4xx_HAL_Driver/Src/stm32g4xx_hal_pcd.c ****   }
 3971              		.loc 1 1499 15 is_stmt 0 view .LVU1319
 3972 0026 02EB8202 		add	r2, r2, r2, lsl #2
 3973 002a 00EBC202 		add	r2, r0, r2, lsl #3
 3974 002e 0020     		movs	r0, #0
 3975              	.LVL409:
1499:Drivers/STM32G4xx_HAL_Driver/Src/stm32g4xx_hal_pcd.c ****   }
 3976              		.loc 1 1499 15 view .LVU1320
 3977 0030 82F85101 		strb	r0, [r2, #337]
 3978              	.L225:
1502:Drivers/STM32G4xx_HAL_Driver/Src/stm32g4xx_hal_pcd.c ****   ep->num = ep_addr & EP_ADDR_MSK;
 3979              		.loc 1 1502 3 is_stmt 1 view .LVU1321
1502:Drivers/STM32G4xx_HAL_Driver/Src/stm32g4xx_hal_pcd.c ****   ep->num = ep_addr & EP_ADDR_MSK;
 3980              		.loc 1 1502 16 is_stmt 0 view .LVU1322
 3981 0034 0022     		movs	r2, #0
 3982 0036 8A70     		strb	r2, [r1, #2]
1503:Drivers/STM32G4xx_HAL_Driver/Src/stm32g4xx_hal_pcd.c **** 
 3983              		.loc 1 1503 3 is_stmt 1 view .LVU1323
1503:Drivers/STM32G4xx_HAL_Driver/Src/stm32g4xx_hal_pcd.c **** 
 3984              		.loc 1 1503 21 is_stmt 0 view .LVU1324
 3985 0038 03F00703 		and	r3, r3, #7
 3986              	.LVL410:
1503:Drivers/STM32G4xx_HAL_Driver/Src/stm32g4xx_hal_pcd.c **** 
 3987              		.loc 1 1503 11 view .LVU1325
 3988 003c 0B70     		strb	r3, [r1]
1505:Drivers/STM32G4xx_HAL_Driver/Src/stm32g4xx_hal_pcd.c ****   (void)USB_EPClearStall(hpcd->Instance, ep);
 3989              		.loc 1 1505 3 is_stmt 1 view .LVU1326
1505:Drivers/STM32G4xx_HAL_Driver/Src/stm32g4xx_hal_pcd.c ****   (void)USB_EPClearStall(hpcd->Instance, ep);
 3990              		.loc 1 1505 3 view .LVU1327
 3991 003e 94F89032 		ldrb	r3, [r4, #656]	@ zero_extendqisi2
 3992 0042 012B     		cmp	r3, #1
 3993 0044 19D0     		beq	.L227
1505:Drivers/STM32G4xx_HAL_Driver/Src/stm32g4xx_hal_pcd.c ****   (void)USB_EPClearStall(hpcd->Instance, ep);
 3994              		.loc 1 1505 3 discriminator 2 view .LVU1328
 3995 0046 0123     		movs	r3, #1
 3996 0048 84F89032 		strb	r3, [r4, #656]
ARM GAS  /tmp/ccXaRXaA.s 			page 130


1505:Drivers/STM32G4xx_HAL_Driver/Src/stm32g4xx_hal_pcd.c ****   (void)USB_EPClearStall(hpcd->Instance, ep);
 3997              		.loc 1 1505 3 view .LVU1329
1506:Drivers/STM32G4xx_HAL_Driver/Src/stm32g4xx_hal_pcd.c ****   __HAL_UNLOCK(hpcd);
 3998              		.loc 1 1506 3 view .LVU1330
1506:Drivers/STM32G4xx_HAL_Driver/Src/stm32g4xx_hal_pcd.c ****   __HAL_UNLOCK(hpcd);
 3999              		.loc 1 1506 9 is_stmt 0 view .LVU1331
 4000 004c 2068     		ldr	r0, [r4]
 4001 004e FFF7FEFF 		bl	USB_EPClearStall
 4002              	.LVL411:
1507:Drivers/STM32G4xx_HAL_Driver/Src/stm32g4xx_hal_pcd.c **** 
 4003              		.loc 1 1507 3 is_stmt 1 view .LVU1332
1507:Drivers/STM32G4xx_HAL_Driver/Src/stm32g4xx_hal_pcd.c **** 
 4004              		.loc 1 1507 3 view .LVU1333
 4005 0052 0020     		movs	r0, #0
 4006 0054 84F89002 		strb	r0, [r4, #656]
1507:Drivers/STM32G4xx_HAL_Driver/Src/stm32g4xx_hal_pcd.c **** 
 4007              		.loc 1 1507 3 view .LVU1334
1509:Drivers/STM32G4xx_HAL_Driver/Src/stm32g4xx_hal_pcd.c **** }
 4008              		.loc 1 1509 3 view .LVU1335
 4009              	.L223:
1510:Drivers/STM32G4xx_HAL_Driver/Src/stm32g4xx_hal_pcd.c **** 
 4010              		.loc 1 1510 1 is_stmt 0 view .LVU1336
 4011 0058 10BD     		pop	{r4, pc}
 4012              	.LVL412:
 4013              	.L232:
1493:Drivers/STM32G4xx_HAL_Driver/Src/stm32g4xx_hal_pcd.c ****     ep->is_in = 1U;
 4014              		.loc 1 1493 5 is_stmt 1 view .LVU1337
1493:Drivers/STM32G4xx_HAL_Driver/Src/stm32g4xx_hal_pcd.c ****     ep->is_in = 1U;
 4015              		.loc 1 1493 31 is_stmt 0 view .LVU1338
 4016 005a 03F00702 		and	r2, r3, #7
1493:Drivers/STM32G4xx_HAL_Driver/Src/stm32g4xx_hal_pcd.c ****     ep->is_in = 1U;
 4017              		.loc 1 1493 8 view .LVU1339
 4018 005e 02EB8201 		add	r1, r2, r2, lsl #2
 4019 0062 C900     		lsls	r1, r1, #3
 4020 0064 1031     		adds	r1, r1, #16
 4021 0066 0144     		add	r1, r1, r0
 4022              	.LVL413:
1494:Drivers/STM32G4xx_HAL_Driver/Src/stm32g4xx_hal_pcd.c ****   }
 4023              		.loc 1 1494 5 is_stmt 1 view .LVU1340
1494:Drivers/STM32G4xx_HAL_Driver/Src/stm32g4xx_hal_pcd.c ****   }
 4024              		.loc 1 1494 15 is_stmt 0 view .LVU1341
 4025 0068 02EB8202 		add	r2, r2, r2, lsl #2
 4026 006c 00EBC202 		add	r2, r0, r2, lsl #3
 4027 0070 0120     		movs	r0, #1
 4028              	.LVL414:
1494:Drivers/STM32G4xx_HAL_Driver/Src/stm32g4xx_hal_pcd.c ****   }
 4029              		.loc 1 1494 15 view .LVU1342
 4030 0072 5074     		strb	r0, [r2, #17]
 4031 0074 DEE7     		b	.L225
 4032              	.LVL415:
 4033              	.L226:
 4034              		.cfi_def_cfa_offset 0
 4035              		.cfi_restore 4
 4036              		.cfi_restore 14
1488:Drivers/STM32G4xx_HAL_Driver/Src/stm32g4xx_hal_pcd.c ****   }
 4037              		.loc 1 1488 12 view .LVU1343
 4038 0076 0120     		movs	r0, #1
ARM GAS  /tmp/ccXaRXaA.s 			page 131


 4039              	.LVL416:
1510:Drivers/STM32G4xx_HAL_Driver/Src/stm32g4xx_hal_pcd.c **** 
 4040              		.loc 1 1510 1 view .LVU1344
 4041 0078 7047     		bx	lr
 4042              	.LVL417:
 4043              	.L227:
 4044              		.cfi_def_cfa_offset 8
 4045              		.cfi_offset 4, -8
 4046              		.cfi_offset 14, -4
1505:Drivers/STM32G4xx_HAL_Driver/Src/stm32g4xx_hal_pcd.c ****   (void)USB_EPClearStall(hpcd->Instance, ep);
 4047              		.loc 1 1505 3 discriminator 1 view .LVU1345
 4048 007a 0220     		movs	r0, #2
 4049 007c ECE7     		b	.L223
 4050              		.cfi_endproc
 4051              	.LFE356:
 4053              		.section	.text.HAL_PCD_EP_Abort,"ax",%progbits
 4054              		.align	1
 4055              		.global	HAL_PCD_EP_Abort
 4056              		.syntax unified
 4057              		.thumb
 4058              		.thumb_func
 4060              	HAL_PCD_EP_Abort:
 4061              	.LVL418:
 4062              	.LFB357:
1519:Drivers/STM32G4xx_HAL_Driver/Src/stm32g4xx_hal_pcd.c ****   HAL_StatusTypeDef ret;
 4063              		.loc 1 1519 1 is_stmt 1 view -0
 4064              		.cfi_startproc
 4065              		@ args = 0, pretend = 0, frame = 0
 4066              		@ frame_needed = 0, uses_anonymous_args = 0
1519:Drivers/STM32G4xx_HAL_Driver/Src/stm32g4xx_hal_pcd.c ****   HAL_StatusTypeDef ret;
 4067              		.loc 1 1519 1 is_stmt 0 view .LVU1347
 4068 0000 08B5     		push	{r3, lr}
 4069              		.cfi_def_cfa_offset 8
 4070              		.cfi_offset 3, -8
 4071              		.cfi_offset 14, -4
1520:Drivers/STM32G4xx_HAL_Driver/Src/stm32g4xx_hal_pcd.c ****   PCD_EPTypeDef *ep;
 4072              		.loc 1 1520 3 is_stmt 1 view .LVU1348
1521:Drivers/STM32G4xx_HAL_Driver/Src/stm32g4xx_hal_pcd.c **** 
 4073              		.loc 1 1521 3 view .LVU1349
1523:Drivers/STM32G4xx_HAL_Driver/Src/stm32g4xx_hal_pcd.c ****   {
 4074              		.loc 1 1523 3 view .LVU1350
1523:Drivers/STM32G4xx_HAL_Driver/Src/stm32g4xx_hal_pcd.c ****   {
 4075              		.loc 1 1523 6 is_stmt 0 view .LVU1351
 4076 0002 11F0800F 		tst	r1, #128
 4077 0006 0BD1     		bne	.L237
1529:Drivers/STM32G4xx_HAL_Driver/Src/stm32g4xx_hal_pcd.c ****   }
 4078              		.loc 1 1529 5 is_stmt 1 view .LVU1352
1529:Drivers/STM32G4xx_HAL_Driver/Src/stm32g4xx_hal_pcd.c ****   }
 4079              		.loc 1 1529 32 is_stmt 0 view .LVU1353
 4080 0008 01F00701 		and	r1, r1, #7
 4081              	.LVL419:
1529:Drivers/STM32G4xx_HAL_Driver/Src/stm32g4xx_hal_pcd.c ****   }
 4082              		.loc 1 1529 8 view .LVU1354
 4083 000c 01EB8101 		add	r1, r1, r1, lsl #2
 4084 0010 C900     		lsls	r1, r1, #3
 4085 0012 01F5A871 		add	r1, r1, #336
 4086 0016 0144     		add	r1, r1, r0
ARM GAS  /tmp/ccXaRXaA.s 			page 132


 4087              	.L235:
 4088              	.LVL420:
1533:Drivers/STM32G4xx_HAL_Driver/Src/stm32g4xx_hal_pcd.c **** 
 4089              		.loc 1 1533 3 is_stmt 1 view .LVU1355
1533:Drivers/STM32G4xx_HAL_Driver/Src/stm32g4xx_hal_pcd.c **** 
 4090              		.loc 1 1533 9 is_stmt 0 view .LVU1356
 4091 0018 0068     		ldr	r0, [r0]
 4092              	.LVL421:
1533:Drivers/STM32G4xx_HAL_Driver/Src/stm32g4xx_hal_pcd.c **** 
 4093              		.loc 1 1533 9 view .LVU1357
 4094 001a FFF7FEFF 		bl	USB_EPStopXfer
 4095              	.LVL422:
1535:Drivers/STM32G4xx_HAL_Driver/Src/stm32g4xx_hal_pcd.c **** }
 4096              		.loc 1 1535 3 is_stmt 1 view .LVU1358
1536:Drivers/STM32G4xx_HAL_Driver/Src/stm32g4xx_hal_pcd.c **** 
 4097              		.loc 1 1536 1 is_stmt 0 view .LVU1359
 4098 001e 08BD     		pop	{r3, pc}
 4099              	.LVL423:
 4100              	.L237:
1525:Drivers/STM32G4xx_HAL_Driver/Src/stm32g4xx_hal_pcd.c ****   }
 4101              		.loc 1 1525 5 is_stmt 1 view .LVU1360
1525:Drivers/STM32G4xx_HAL_Driver/Src/stm32g4xx_hal_pcd.c ****   }
 4102              		.loc 1 1525 31 is_stmt 0 view .LVU1361
 4103 0020 01F00701 		and	r1, r1, #7
 4104              	.LVL424:
1525:Drivers/STM32G4xx_HAL_Driver/Src/stm32g4xx_hal_pcd.c ****   }
 4105              		.loc 1 1525 8 view .LVU1362
 4106 0024 01EB8101 		add	r1, r1, r1, lsl #2
 4107 0028 C900     		lsls	r1, r1, #3
 4108 002a 1031     		adds	r1, r1, #16
 4109 002c 0144     		add	r1, r1, r0
 4110              	.LVL425:
1525:Drivers/STM32G4xx_HAL_Driver/Src/stm32g4xx_hal_pcd.c ****   }
 4111              		.loc 1 1525 8 view .LVU1363
 4112 002e F3E7     		b	.L235
 4113              		.cfi_endproc
 4114              	.LFE357:
 4116              		.section	.text.HAL_PCD_EP_Flush,"ax",%progbits
 4117              		.align	1
 4118              		.global	HAL_PCD_EP_Flush
 4119              		.syntax unified
 4120              		.thumb
 4121              		.thumb_func
 4123              	HAL_PCD_EP_Flush:
 4124              	.LVL426:
 4125              	.LFB358:
1545:Drivers/STM32G4xx_HAL_Driver/Src/stm32g4xx_hal_pcd.c ****   __HAL_LOCK(hpcd);
 4126              		.loc 1 1545 1 is_stmt 1 view -0
 4127              		.cfi_startproc
 4128              		@ args = 0, pretend = 0, frame = 0
 4129              		@ frame_needed = 0, uses_anonymous_args = 0
1546:Drivers/STM32G4xx_HAL_Driver/Src/stm32g4xx_hal_pcd.c **** 
 4130              		.loc 1 1546 3 view .LVU1365
1546:Drivers/STM32G4xx_HAL_Driver/Src/stm32g4xx_hal_pcd.c **** 
 4131              		.loc 1 1546 3 view .LVU1366
 4132 0000 90F89032 		ldrb	r3, [r0, #656]	@ zero_extendqisi2
 4133 0004 012B     		cmp	r3, #1
ARM GAS  /tmp/ccXaRXaA.s 			page 133


 4134 0006 14D0     		beq	.L242
1545:Drivers/STM32G4xx_HAL_Driver/Src/stm32g4xx_hal_pcd.c ****   __HAL_LOCK(hpcd);
 4135              		.loc 1 1545 1 is_stmt 0 view .LVU1367
 4136 0008 10B5     		push	{r4, lr}
 4137              		.cfi_def_cfa_offset 8
 4138              		.cfi_offset 4, -8
 4139              		.cfi_offset 14, -4
 4140 000a 0446     		mov	r4, r0
1546:Drivers/STM32G4xx_HAL_Driver/Src/stm32g4xx_hal_pcd.c **** 
 4141              		.loc 1 1546 3 is_stmt 1 discriminator 2 view .LVU1368
 4142 000c 0123     		movs	r3, #1
 4143 000e 80F89032 		strb	r3, [r0, #656]
1546:Drivers/STM32G4xx_HAL_Driver/Src/stm32g4xx_hal_pcd.c **** 
 4144              		.loc 1 1546 3 view .LVU1369
1548:Drivers/STM32G4xx_HAL_Driver/Src/stm32g4xx_hal_pcd.c ****   {
 4145              		.loc 1 1548 3 view .LVU1370
1548:Drivers/STM32G4xx_HAL_Driver/Src/stm32g4xx_hal_pcd.c ****   {
 4146              		.loc 1 1548 6 is_stmt 0 view .LVU1371
 4147 0012 11F0800F 		tst	r1, #128
 4148 0016 06D1     		bne	.L247
1554:Drivers/STM32G4xx_HAL_Driver/Src/stm32g4xx_hal_pcd.c ****   }
 4149              		.loc 1 1554 5 is_stmt 1 view .LVU1372
1554:Drivers/STM32G4xx_HAL_Driver/Src/stm32g4xx_hal_pcd.c ****   }
 4150              		.loc 1 1554 11 is_stmt 0 view .LVU1373
 4151 0018 0068     		ldr	r0, [r0]
 4152              	.LVL427:
1554:Drivers/STM32G4xx_HAL_Driver/Src/stm32g4xx_hal_pcd.c ****   }
 4153              		.loc 1 1554 11 view .LVU1374
 4154 001a FFF7FEFF 		bl	USB_FlushRxFifo
 4155              	.LVL428:
 4156              	.L241:
1557:Drivers/STM32G4xx_HAL_Driver/Src/stm32g4xx_hal_pcd.c **** 
 4157              		.loc 1 1557 3 is_stmt 1 view .LVU1375
1557:Drivers/STM32G4xx_HAL_Driver/Src/stm32g4xx_hal_pcd.c **** 
 4158              		.loc 1 1557 3 view .LVU1376
 4159 001e 0020     		movs	r0, #0
 4160 0020 84F89002 		strb	r0, [r4, #656]
1557:Drivers/STM32G4xx_HAL_Driver/Src/stm32g4xx_hal_pcd.c **** 
 4161              		.loc 1 1557 3 view .LVU1377
1559:Drivers/STM32G4xx_HAL_Driver/Src/stm32g4xx_hal_pcd.c **** }
 4162              		.loc 1 1559 3 view .LVU1378
1560:Drivers/STM32G4xx_HAL_Driver/Src/stm32g4xx_hal_pcd.c **** 
 4163              		.loc 1 1560 1 is_stmt 0 view .LVU1379
 4164 0024 10BD     		pop	{r4, pc}
 4165              	.LVL429:
 4166              	.L247:
1550:Drivers/STM32G4xx_HAL_Driver/Src/stm32g4xx_hal_pcd.c ****   }
 4167              		.loc 1 1550 5 is_stmt 1 view .LVU1380
1550:Drivers/STM32G4xx_HAL_Driver/Src/stm32g4xx_hal_pcd.c ****   }
 4168              		.loc 1 1550 11 is_stmt 0 view .LVU1381
 4169 0026 01F00701 		and	r1, r1, #7
 4170              	.LVL430:
1550:Drivers/STM32G4xx_HAL_Driver/Src/stm32g4xx_hal_pcd.c ****   }
 4171              		.loc 1 1550 11 view .LVU1382
 4172 002a 0068     		ldr	r0, [r0]
 4173              	.LVL431:
1550:Drivers/STM32G4xx_HAL_Driver/Src/stm32g4xx_hal_pcd.c ****   }
ARM GAS  /tmp/ccXaRXaA.s 			page 134


 4174              		.loc 1 1550 11 view .LVU1383
 4175 002c FFF7FEFF 		bl	USB_FlushTxFifo
 4176              	.LVL432:
 4177 0030 F5E7     		b	.L241
 4178              	.LVL433:
 4179              	.L242:
 4180              		.cfi_def_cfa_offset 0
 4181              		.cfi_restore 4
 4182              		.cfi_restore 14
1546:Drivers/STM32G4xx_HAL_Driver/Src/stm32g4xx_hal_pcd.c **** 
 4183              		.loc 1 1546 3 discriminator 1 view .LVU1384
 4184 0032 0220     		movs	r0, #2
 4185              	.LVL434:
1560:Drivers/STM32G4xx_HAL_Driver/Src/stm32g4xx_hal_pcd.c **** 
 4186              		.loc 1 1560 1 view .LVU1385
 4187 0034 7047     		bx	lr
 4188              		.cfi_endproc
 4189              	.LFE358:
 4191              		.section	.text.HAL_PCD_ActivateRemoteWakeup,"ax",%progbits
 4192              		.align	1
 4193              		.global	HAL_PCD_ActivateRemoteWakeup
 4194              		.syntax unified
 4195              		.thumb
 4196              		.thumb_func
 4198              	HAL_PCD_ActivateRemoteWakeup:
 4199              	.LVL435:
 4200              	.LFB359:
1568:Drivers/STM32G4xx_HAL_Driver/Src/stm32g4xx_hal_pcd.c ****   return (USB_ActivateRemoteWakeup(hpcd->Instance));
 4201              		.loc 1 1568 1 is_stmt 1 view -0
 4202              		.cfi_startproc
 4203              		@ args = 0, pretend = 0, frame = 0
 4204              		@ frame_needed = 0, uses_anonymous_args = 0
1568:Drivers/STM32G4xx_HAL_Driver/Src/stm32g4xx_hal_pcd.c ****   return (USB_ActivateRemoteWakeup(hpcd->Instance));
 4205              		.loc 1 1568 1 is_stmt 0 view .LVU1387
 4206 0000 08B5     		push	{r3, lr}
 4207              		.cfi_def_cfa_offset 8
 4208              		.cfi_offset 3, -8
 4209              		.cfi_offset 14, -4
1569:Drivers/STM32G4xx_HAL_Driver/Src/stm32g4xx_hal_pcd.c **** }
 4210              		.loc 1 1569 3 is_stmt 1 view .LVU1388
1569:Drivers/STM32G4xx_HAL_Driver/Src/stm32g4xx_hal_pcd.c **** }
 4211              		.loc 1 1569 11 is_stmt 0 view .LVU1389
 4212 0002 0068     		ldr	r0, [r0]
 4213              	.LVL436:
1569:Drivers/STM32G4xx_HAL_Driver/Src/stm32g4xx_hal_pcd.c **** }
 4214              		.loc 1 1569 11 view .LVU1390
 4215 0004 FFF7FEFF 		bl	USB_ActivateRemoteWakeup
 4216              	.LVL437:
1570:Drivers/STM32G4xx_HAL_Driver/Src/stm32g4xx_hal_pcd.c **** 
 4217              		.loc 1 1570 1 view .LVU1391
 4218 0008 08BD     		pop	{r3, pc}
 4219              		.cfi_endproc
 4220              	.LFE359:
 4222              		.section	.text.HAL_PCD_DeActivateRemoteWakeup,"ax",%progbits
 4223              		.align	1
 4224              		.global	HAL_PCD_DeActivateRemoteWakeup
 4225              		.syntax unified
ARM GAS  /tmp/ccXaRXaA.s 			page 135


 4226              		.thumb
 4227              		.thumb_func
 4229              	HAL_PCD_DeActivateRemoteWakeup:
 4230              	.LVL438:
 4231              	.LFB360:
1578:Drivers/STM32G4xx_HAL_Driver/Src/stm32g4xx_hal_pcd.c ****   return (USB_DeActivateRemoteWakeup(hpcd->Instance));
 4232              		.loc 1 1578 1 is_stmt 1 view -0
 4233              		.cfi_startproc
 4234              		@ args = 0, pretend = 0, frame = 0
 4235              		@ frame_needed = 0, uses_anonymous_args = 0
1578:Drivers/STM32G4xx_HAL_Driver/Src/stm32g4xx_hal_pcd.c ****   return (USB_DeActivateRemoteWakeup(hpcd->Instance));
 4236              		.loc 1 1578 1 is_stmt 0 view .LVU1393
 4237 0000 08B5     		push	{r3, lr}
 4238              		.cfi_def_cfa_offset 8
 4239              		.cfi_offset 3, -8
 4240              		.cfi_offset 14, -4
1579:Drivers/STM32G4xx_HAL_Driver/Src/stm32g4xx_hal_pcd.c **** }
 4241              		.loc 1 1579 3 is_stmt 1 view .LVU1394
1579:Drivers/STM32G4xx_HAL_Driver/Src/stm32g4xx_hal_pcd.c **** }
 4242              		.loc 1 1579 11 is_stmt 0 view .LVU1395
 4243 0002 0068     		ldr	r0, [r0]
 4244              	.LVL439:
1579:Drivers/STM32G4xx_HAL_Driver/Src/stm32g4xx_hal_pcd.c **** }
 4245              		.loc 1 1579 11 view .LVU1396
 4246 0004 FFF7FEFF 		bl	USB_DeActivateRemoteWakeup
 4247              	.LVL440:
1580:Drivers/STM32G4xx_HAL_Driver/Src/stm32g4xx_hal_pcd.c **** 
 4248              		.loc 1 1580 1 view .LVU1397
 4249 0008 08BD     		pop	{r3, pc}
 4250              		.cfi_endproc
 4251              	.LFE360:
 4253              		.section	.text.HAL_PCD_GetState,"ax",%progbits
 4254              		.align	1
 4255              		.global	HAL_PCD_GetState
 4256              		.syntax unified
 4257              		.thumb
 4258              		.thumb_func
 4260              	HAL_PCD_GetState:
 4261              	.LVL441:
 4262              	.LFB361:
1607:Drivers/STM32G4xx_HAL_Driver/Src/stm32g4xx_hal_pcd.c ****   return hpcd->State;
 4263              		.loc 1 1607 1 is_stmt 1 view -0
 4264              		.cfi_startproc
 4265              		@ args = 0, pretend = 0, frame = 0
 4266              		@ frame_needed = 0, uses_anonymous_args = 0
 4267              		@ link register save eliminated.
1608:Drivers/STM32G4xx_HAL_Driver/Src/stm32g4xx_hal_pcd.c **** }
 4268              		.loc 1 1608 3 view .LVU1399
1608:Drivers/STM32G4xx_HAL_Driver/Src/stm32g4xx_hal_pcd.c **** }
 4269              		.loc 1 1608 14 is_stmt 0 view .LVU1400
 4270 0000 90F89102 		ldrb	r0, [r0, #657]	@ zero_extendqisi2
 4271              	.LVL442:
1609:Drivers/STM32G4xx_HAL_Driver/Src/stm32g4xx_hal_pcd.c **** 
 4272              		.loc 1 1609 1 view .LVU1401
 4273 0004 7047     		bx	lr
 4274              		.cfi_endproc
 4275              	.LFE361:
ARM GAS  /tmp/ccXaRXaA.s 			page 136


 4277              		.text
 4278              	.Letext0:
 4279              		.file 2 "/opt/arm-gnu-toolchain-14.2/arm-none-eabi/include/machine/_default_types.h"
 4280              		.file 3 "/opt/arm-gnu-toolchain-14.2/arm-none-eabi/include/sys/_stdint.h"
 4281              		.file 4 "Drivers/CMSIS/Device/ST/STM32G4xx/Include/stm32g474xx.h"
 4282              		.file 5 "Drivers/STM32G4xx_HAL_Driver/Inc/stm32g4xx_hal_def.h"
 4283              		.file 6 "Drivers/STM32G4xx_HAL_Driver/Inc/stm32g4xx_ll_usb.h"
 4284              		.file 7 "Drivers/STM32G4xx_HAL_Driver/Inc/stm32g4xx_hal_pcd.h"
 4285              		.file 8 "Drivers/STM32G4xx_HAL_Driver/Inc/stm32g4xx_hal_pcd_ex.h"
ARM GAS  /tmp/ccXaRXaA.s 			page 137


DEFINED SYMBOLS
                            *ABS*:00000000 stm32g4xx_hal_pcd.c
     /tmp/ccXaRXaA.s:21     .text.HAL_PCD_EP_DB_Receive:00000000 $t
     /tmp/ccXaRXaA.s:26     .text.HAL_PCD_EP_DB_Receive:00000000 HAL_PCD_EP_DB_Receive
     /tmp/ccXaRXaA.s:276    .text.HAL_PCD_MspInit:00000000 $t
     /tmp/ccXaRXaA.s:282    .text.HAL_PCD_MspInit:00000000 HAL_PCD_MspInit
     /tmp/ccXaRXaA.s:297    .text.HAL_PCD_Init:00000000 $t
     /tmp/ccXaRXaA.s:303    .text.HAL_PCD_Init:00000000 HAL_PCD_Init
     /tmp/ccXaRXaA.s:487    .text.HAL_PCD_MspDeInit:00000000 $t
     /tmp/ccXaRXaA.s:493    .text.HAL_PCD_MspDeInit:00000000 HAL_PCD_MspDeInit
     /tmp/ccXaRXaA.s:508    .text.HAL_PCD_DeInit:00000000 $t
     /tmp/ccXaRXaA.s:514    .text.HAL_PCD_DeInit:00000000 HAL_PCD_DeInit
     /tmp/ccXaRXaA.s:575    .text.HAL_PCD_Start:00000000 $t
     /tmp/ccXaRXaA.s:581    .text.HAL_PCD_Start:00000000 HAL_PCD_Start
     /tmp/ccXaRXaA.s:636    .text.HAL_PCD_Stop:00000000 $t
     /tmp/ccXaRXaA.s:642    .text.HAL_PCD_Stop:00000000 HAL_PCD_Stop
     /tmp/ccXaRXaA.s:697    .text.HAL_PCD_DataOutStageCallback:00000000 $t
     /tmp/ccXaRXaA.s:703    .text.HAL_PCD_DataOutStageCallback:00000000 HAL_PCD_DataOutStageCallback
     /tmp/ccXaRXaA.s:719    .text.HAL_PCD_DataInStageCallback:00000000 $t
     /tmp/ccXaRXaA.s:725    .text.HAL_PCD_DataInStageCallback:00000000 HAL_PCD_DataInStageCallback
     /tmp/ccXaRXaA.s:741    .text.HAL_PCD_EP_DB_Transmit:00000000 $t
     /tmp/ccXaRXaA.s:746    .text.HAL_PCD_EP_DB_Transmit:00000000 HAL_PCD_EP_DB_Transmit
     /tmp/ccXaRXaA.s:1805   .text.HAL_PCD_SetupStageCallback:00000000 $t
     /tmp/ccXaRXaA.s:1811   .text.HAL_PCD_SetupStageCallback:00000000 HAL_PCD_SetupStageCallback
     /tmp/ccXaRXaA.s:1826   .text.PCD_EP_ISR_Handler:00000000 $t
     /tmp/ccXaRXaA.s:1831   .text.PCD_EP_ISR_Handler:00000000 PCD_EP_ISR_Handler
     /tmp/ccXaRXaA.s:2760   .text.HAL_PCD_SOFCallback:00000000 $t
     /tmp/ccXaRXaA.s:2766   .text.HAL_PCD_SOFCallback:00000000 HAL_PCD_SOFCallback
     /tmp/ccXaRXaA.s:2781   .text.HAL_PCD_ResetCallback:00000000 $t
     /tmp/ccXaRXaA.s:2787   .text.HAL_PCD_ResetCallback:00000000 HAL_PCD_ResetCallback
     /tmp/ccXaRXaA.s:2802   .text.HAL_PCD_SuspendCallback:00000000 $t
     /tmp/ccXaRXaA.s:2808   .text.HAL_PCD_SuspendCallback:00000000 HAL_PCD_SuspendCallback
     /tmp/ccXaRXaA.s:2823   .text.HAL_PCD_ResumeCallback:00000000 $t
     /tmp/ccXaRXaA.s:2829   .text.HAL_PCD_ResumeCallback:00000000 HAL_PCD_ResumeCallback
     /tmp/ccXaRXaA.s:2844   .text.HAL_PCD_ISOOUTIncompleteCallback:00000000 $t
     /tmp/ccXaRXaA.s:2850   .text.HAL_PCD_ISOOUTIncompleteCallback:00000000 HAL_PCD_ISOOUTIncompleteCallback
     /tmp/ccXaRXaA.s:2866   .text.HAL_PCD_ISOINIncompleteCallback:00000000 $t
     /tmp/ccXaRXaA.s:2872   .text.HAL_PCD_ISOINIncompleteCallback:00000000 HAL_PCD_ISOINIncompleteCallback
     /tmp/ccXaRXaA.s:2888   .text.HAL_PCD_ConnectCallback:00000000 $t
     /tmp/ccXaRXaA.s:2894   .text.HAL_PCD_ConnectCallback:00000000 HAL_PCD_ConnectCallback
     /tmp/ccXaRXaA.s:2909   .text.HAL_PCD_DisconnectCallback:00000000 $t
     /tmp/ccXaRXaA.s:2915   .text.HAL_PCD_DisconnectCallback:00000000 HAL_PCD_DisconnectCallback
     /tmp/ccXaRXaA.s:2930   .text.HAL_PCD_DevConnect:00000000 $t
     /tmp/ccXaRXaA.s:2936   .text.HAL_PCD_DevConnect:00000000 HAL_PCD_DevConnect
     /tmp/ccXaRXaA.s:2987   .text.HAL_PCD_DevDisconnect:00000000 $t
     /tmp/ccXaRXaA.s:2993   .text.HAL_PCD_DevDisconnect:00000000 HAL_PCD_DevDisconnect
     /tmp/ccXaRXaA.s:3044   .text.HAL_PCD_SetAddress:00000000 $t
     /tmp/ccXaRXaA.s:3050   .text.HAL_PCD_SetAddress:00000000 HAL_PCD_SetAddress
     /tmp/ccXaRXaA.s:3104   .text.HAL_PCD_IRQHandler:00000000 $t
     /tmp/ccXaRXaA.s:3110   .text.HAL_PCD_IRQHandler:00000000 HAL_PCD_IRQHandler
     /tmp/ccXaRXaA.s:3407   .text.HAL_PCD_EP_Open:00000000 $t
     /tmp/ccXaRXaA.s:3413   .text.HAL_PCD_EP_Open:00000000 HAL_PCD_EP_Open
     /tmp/ccXaRXaA.s:3534   .text.HAL_PCD_EP_Close:00000000 $t
     /tmp/ccXaRXaA.s:3540   .text.HAL_PCD_EP_Close:00000000 HAL_PCD_EP_Close
     /tmp/ccXaRXaA.s:3633   .text.HAL_PCD_EP_Receive:00000000 $t
     /tmp/ccXaRXaA.s:3639   .text.HAL_PCD_EP_Receive:00000000 HAL_PCD_EP_Receive
     /tmp/ccXaRXaA.s:3697   .text.HAL_PCD_EP_GetRxCount:00000000 $t
ARM GAS  /tmp/ccXaRXaA.s 			page 138


     /tmp/ccXaRXaA.s:3703   .text.HAL_PCD_EP_GetRxCount:00000000 HAL_PCD_EP_GetRxCount
     /tmp/ccXaRXaA.s:3726   .text.HAL_PCD_EP_Transmit:00000000 $t
     /tmp/ccXaRXaA.s:3732   .text.HAL_PCD_EP_Transmit:00000000 HAL_PCD_EP_Transmit
     /tmp/ccXaRXaA.s:3805   .text.HAL_PCD_EP_SetStall:00000000 $t
     /tmp/ccXaRXaA.s:3811   .text.HAL_PCD_EP_SetStall:00000000 HAL_PCD_EP_SetStall
     /tmp/ccXaRXaA.s:3927   .text.HAL_PCD_EP_ClrStall:00000000 $t
     /tmp/ccXaRXaA.s:3933   .text.HAL_PCD_EP_ClrStall:00000000 HAL_PCD_EP_ClrStall
     /tmp/ccXaRXaA.s:4054   .text.HAL_PCD_EP_Abort:00000000 $t
     /tmp/ccXaRXaA.s:4060   .text.HAL_PCD_EP_Abort:00000000 HAL_PCD_EP_Abort
     /tmp/ccXaRXaA.s:4117   .text.HAL_PCD_EP_Flush:00000000 $t
     /tmp/ccXaRXaA.s:4123   .text.HAL_PCD_EP_Flush:00000000 HAL_PCD_EP_Flush
     /tmp/ccXaRXaA.s:4192   .text.HAL_PCD_ActivateRemoteWakeup:00000000 $t
     /tmp/ccXaRXaA.s:4198   .text.HAL_PCD_ActivateRemoteWakeup:00000000 HAL_PCD_ActivateRemoteWakeup
     /tmp/ccXaRXaA.s:4223   .text.HAL_PCD_DeActivateRemoteWakeup:00000000 $t
     /tmp/ccXaRXaA.s:4229   .text.HAL_PCD_DeActivateRemoteWakeup:00000000 HAL_PCD_DeActivateRemoteWakeup
     /tmp/ccXaRXaA.s:4254   .text.HAL_PCD_GetState:00000000 $t
     /tmp/ccXaRXaA.s:4260   .text.HAL_PCD_GetState:00000000 HAL_PCD_GetState

UNDEFINED SYMBOLS
USB_ReadPMA
USB_DisableGlobalInt
USB_DevInit
HAL_PCDEx_ActivateLPM
USB_StopDevice
USB_EnableGlobalInt
USB_DevConnect
USB_DevDisconnect
USB_WritePMA
USB_EPStartXfer
USB_SetDevAddress
USB_ReadInterrupts
HAL_PCDEx_LPM_Callback
USB_ActivateEndpoint
USB_DeactivateEndpoint
USB_EPSetStall
USB_EPClearStall
USB_EPStopXfer
USB_FlushRxFifo
USB_FlushTxFifo
USB_ActivateRemoteWakeup
USB_DeActivateRemoteWakeup
