ARM GAS  /tmp/ccKRAx5z.s 			page 1


   1              		.cpu cortex-m4
   2              		.arch armv7e-m
   3              		.fpu fpv4-sp-d16
   4              		.eabi_attribute 27, 1
   5              		.eabi_attribute 28, 1
   6              		.eabi_attribute 20, 1
   7              		.eabi_attribute 21, 1
   8              		.eabi_attribute 23, 3
   9              		.eabi_attribute 24, 1
  10              		.eabi_attribute 25, 1
  11              		.eabi_attribute 26, 1
  12              		.eabi_attribute 30, 1
  13              		.eabi_attribute 34, 1
  14              		.eabi_attribute 18, 4
  15              		.file	"stm32g4xx_hal_tim.c"
  16              		.text
  17              	.Ltext0:
  18              		.cfi_sections	.debug_frame
  19              		.file 1 "Drivers/STM32G4xx_HAL_Driver/Src/stm32g4xx_hal_tim.c"
  20              		.section	.text.HAL_TIM_Base_MspInit,"ax",%progbits
  21              		.align	1
  22              		.weak	HAL_TIM_Base_MspInit
  23              		.syntax unified
  24              		.thumb
  25              		.thumb_func
  27              	HAL_TIM_Base_MspInit:
  28              	.LVL0:
  29              	.LFB331:
   1:Drivers/STM32G4xx_HAL_Driver/Src/stm32g4xx_hal_tim.c **** /**
   2:Drivers/STM32G4xx_HAL_Driver/Src/stm32g4xx_hal_tim.c ****   ******************************************************************************
   3:Drivers/STM32G4xx_HAL_Driver/Src/stm32g4xx_hal_tim.c ****   * @file    stm32g4xx_hal_tim.c
   4:Drivers/STM32G4xx_HAL_Driver/Src/stm32g4xx_hal_tim.c ****   * @author  MCD Application Team
   5:Drivers/STM32G4xx_HAL_Driver/Src/stm32g4xx_hal_tim.c ****   * @brief   TIM HAL module driver.
   6:Drivers/STM32G4xx_HAL_Driver/Src/stm32g4xx_hal_tim.c ****   *          This file provides firmware functions to manage the following
   7:Drivers/STM32G4xx_HAL_Driver/Src/stm32g4xx_hal_tim.c ****   *          functionalities of the Timer (TIM) peripheral:
   8:Drivers/STM32G4xx_HAL_Driver/Src/stm32g4xx_hal_tim.c ****   *           + TIM Time Base Initialization
   9:Drivers/STM32G4xx_HAL_Driver/Src/stm32g4xx_hal_tim.c ****   *           + TIM Time Base Start
  10:Drivers/STM32G4xx_HAL_Driver/Src/stm32g4xx_hal_tim.c ****   *           + TIM Time Base Start Interruption
  11:Drivers/STM32G4xx_HAL_Driver/Src/stm32g4xx_hal_tim.c ****   *           + TIM Time Base Start DMA
  12:Drivers/STM32G4xx_HAL_Driver/Src/stm32g4xx_hal_tim.c ****   *           + TIM Output Compare/PWM Initialization
  13:Drivers/STM32G4xx_HAL_Driver/Src/stm32g4xx_hal_tim.c ****   *           + TIM Output Compare/PWM Channel Configuration
  14:Drivers/STM32G4xx_HAL_Driver/Src/stm32g4xx_hal_tim.c ****   *           + TIM Output Compare/PWM  Start
  15:Drivers/STM32G4xx_HAL_Driver/Src/stm32g4xx_hal_tim.c ****   *           + TIM Output Compare/PWM  Start Interruption
  16:Drivers/STM32G4xx_HAL_Driver/Src/stm32g4xx_hal_tim.c ****   *           + TIM Output Compare/PWM Start DMA
  17:Drivers/STM32G4xx_HAL_Driver/Src/stm32g4xx_hal_tim.c ****   *           + TIM Input Capture Initialization
  18:Drivers/STM32G4xx_HAL_Driver/Src/stm32g4xx_hal_tim.c ****   *           + TIM Input Capture Channel Configuration
  19:Drivers/STM32G4xx_HAL_Driver/Src/stm32g4xx_hal_tim.c ****   *           + TIM Input Capture Start
  20:Drivers/STM32G4xx_HAL_Driver/Src/stm32g4xx_hal_tim.c ****   *           + TIM Input Capture Start Interruption
  21:Drivers/STM32G4xx_HAL_Driver/Src/stm32g4xx_hal_tim.c ****   *           + TIM Input Capture Start DMA
  22:Drivers/STM32G4xx_HAL_Driver/Src/stm32g4xx_hal_tim.c ****   *           + TIM One Pulse Initialization
  23:Drivers/STM32G4xx_HAL_Driver/Src/stm32g4xx_hal_tim.c ****   *           + TIM One Pulse Channel Configuration
  24:Drivers/STM32G4xx_HAL_Driver/Src/stm32g4xx_hal_tim.c ****   *           + TIM One Pulse Start
  25:Drivers/STM32G4xx_HAL_Driver/Src/stm32g4xx_hal_tim.c ****   *           + TIM Encoder Interface Initialization
  26:Drivers/STM32G4xx_HAL_Driver/Src/stm32g4xx_hal_tim.c ****   *           + TIM Encoder Interface Start
  27:Drivers/STM32G4xx_HAL_Driver/Src/stm32g4xx_hal_tim.c ****   *           + TIM Encoder Interface Start Interruption
  28:Drivers/STM32G4xx_HAL_Driver/Src/stm32g4xx_hal_tim.c ****   *           + TIM Encoder Interface Start DMA
  29:Drivers/STM32G4xx_HAL_Driver/Src/stm32g4xx_hal_tim.c ****   *           + Commutation Event configuration with Interruption and DMA
ARM GAS  /tmp/ccKRAx5z.s 			page 2


  30:Drivers/STM32G4xx_HAL_Driver/Src/stm32g4xx_hal_tim.c ****   *           + TIM OCRef clear configuration
  31:Drivers/STM32G4xx_HAL_Driver/Src/stm32g4xx_hal_tim.c ****   *           + TIM External Clock configuration
  32:Drivers/STM32G4xx_HAL_Driver/Src/stm32g4xx_hal_tim.c ****   ******************************************************************************
  33:Drivers/STM32G4xx_HAL_Driver/Src/stm32g4xx_hal_tim.c ****   * @attention
  34:Drivers/STM32G4xx_HAL_Driver/Src/stm32g4xx_hal_tim.c ****   *
  35:Drivers/STM32G4xx_HAL_Driver/Src/stm32g4xx_hal_tim.c ****   * Copyright (c) 2019 STMicroelectronics.
  36:Drivers/STM32G4xx_HAL_Driver/Src/stm32g4xx_hal_tim.c ****   * All rights reserved.
  37:Drivers/STM32G4xx_HAL_Driver/Src/stm32g4xx_hal_tim.c ****   *
  38:Drivers/STM32G4xx_HAL_Driver/Src/stm32g4xx_hal_tim.c ****   * This software is licensed under terms that can be found in the LICENSE file
  39:Drivers/STM32G4xx_HAL_Driver/Src/stm32g4xx_hal_tim.c ****   * in the root directory of this software component.
  40:Drivers/STM32G4xx_HAL_Driver/Src/stm32g4xx_hal_tim.c ****   * If no LICENSE file comes with this software, it is provided AS-IS.
  41:Drivers/STM32G4xx_HAL_Driver/Src/stm32g4xx_hal_tim.c ****   *
  42:Drivers/STM32G4xx_HAL_Driver/Src/stm32g4xx_hal_tim.c ****   ******************************************************************************
  43:Drivers/STM32G4xx_HAL_Driver/Src/stm32g4xx_hal_tim.c ****   @verbatim
  44:Drivers/STM32G4xx_HAL_Driver/Src/stm32g4xx_hal_tim.c ****   ==============================================================================
  45:Drivers/STM32G4xx_HAL_Driver/Src/stm32g4xx_hal_tim.c ****                       ##### TIMER Generic features #####
  46:Drivers/STM32G4xx_HAL_Driver/Src/stm32g4xx_hal_tim.c ****   ==============================================================================
  47:Drivers/STM32G4xx_HAL_Driver/Src/stm32g4xx_hal_tim.c ****   [..] The Timer features include:
  48:Drivers/STM32G4xx_HAL_Driver/Src/stm32g4xx_hal_tim.c ****        (#) 16-bit up, down, up/down auto-reload counter.
  49:Drivers/STM32G4xx_HAL_Driver/Src/stm32g4xx_hal_tim.c ****        (#) 16-bit programmable prescaler allowing dividing (also on the fly) the
  50:Drivers/STM32G4xx_HAL_Driver/Src/stm32g4xx_hal_tim.c ****            counter clock frequency either by any factor between 1 and 65536.
  51:Drivers/STM32G4xx_HAL_Driver/Src/stm32g4xx_hal_tim.c ****        (#) Up to 4 independent channels for:
  52:Drivers/STM32G4xx_HAL_Driver/Src/stm32g4xx_hal_tim.c ****            (++) Input Capture
  53:Drivers/STM32G4xx_HAL_Driver/Src/stm32g4xx_hal_tim.c ****            (++) Output Compare
  54:Drivers/STM32G4xx_HAL_Driver/Src/stm32g4xx_hal_tim.c ****            (++) PWM generation (Edge and Center-aligned Mode)
  55:Drivers/STM32G4xx_HAL_Driver/Src/stm32g4xx_hal_tim.c ****            (++) One-pulse mode output
  56:Drivers/STM32G4xx_HAL_Driver/Src/stm32g4xx_hal_tim.c ****        (#) Synchronization circuit to control the timer with external signals and to interconnect
  57:Drivers/STM32G4xx_HAL_Driver/Src/stm32g4xx_hal_tim.c ****             several timers together.
  58:Drivers/STM32G4xx_HAL_Driver/Src/stm32g4xx_hal_tim.c ****        (#) Supports incremental encoder for positioning purposes
  59:Drivers/STM32G4xx_HAL_Driver/Src/stm32g4xx_hal_tim.c **** 
  60:Drivers/STM32G4xx_HAL_Driver/Src/stm32g4xx_hal_tim.c ****             ##### How to use this driver #####
  61:Drivers/STM32G4xx_HAL_Driver/Src/stm32g4xx_hal_tim.c ****   ==============================================================================
  62:Drivers/STM32G4xx_HAL_Driver/Src/stm32g4xx_hal_tim.c ****     [..]
  63:Drivers/STM32G4xx_HAL_Driver/Src/stm32g4xx_hal_tim.c ****      (#) Initialize the TIM low level resources by implementing the following functions
  64:Drivers/STM32G4xx_HAL_Driver/Src/stm32g4xx_hal_tim.c ****          depending on the selected feature:
  65:Drivers/STM32G4xx_HAL_Driver/Src/stm32g4xx_hal_tim.c ****            (++) Time Base : HAL_TIM_Base_MspInit()
  66:Drivers/STM32G4xx_HAL_Driver/Src/stm32g4xx_hal_tim.c ****            (++) Input Capture : HAL_TIM_IC_MspInit()
  67:Drivers/STM32G4xx_HAL_Driver/Src/stm32g4xx_hal_tim.c ****            (++) Output Compare : HAL_TIM_OC_MspInit()
  68:Drivers/STM32G4xx_HAL_Driver/Src/stm32g4xx_hal_tim.c ****            (++) PWM generation : HAL_TIM_PWM_MspInit()
  69:Drivers/STM32G4xx_HAL_Driver/Src/stm32g4xx_hal_tim.c ****            (++) One-pulse mode output : HAL_TIM_OnePulse_MspInit()
  70:Drivers/STM32G4xx_HAL_Driver/Src/stm32g4xx_hal_tim.c ****            (++) Encoder mode output : HAL_TIM_Encoder_MspInit()
  71:Drivers/STM32G4xx_HAL_Driver/Src/stm32g4xx_hal_tim.c **** 
  72:Drivers/STM32G4xx_HAL_Driver/Src/stm32g4xx_hal_tim.c ****      (#) Initialize the TIM low level resources :
  73:Drivers/STM32G4xx_HAL_Driver/Src/stm32g4xx_hal_tim.c ****         (##) Enable the TIM interface clock using __HAL_RCC_TIMx_CLK_ENABLE();
  74:Drivers/STM32G4xx_HAL_Driver/Src/stm32g4xx_hal_tim.c ****         (##) TIM pins configuration
  75:Drivers/STM32G4xx_HAL_Driver/Src/stm32g4xx_hal_tim.c ****             (+++) Enable the clock for the TIM GPIOs using the following function:
  76:Drivers/STM32G4xx_HAL_Driver/Src/stm32g4xx_hal_tim.c ****              __HAL_RCC_GPIOx_CLK_ENABLE();
  77:Drivers/STM32G4xx_HAL_Driver/Src/stm32g4xx_hal_tim.c ****             (+++) Configure these TIM pins in Alternate function mode using HAL_GPIO_Init();
  78:Drivers/STM32G4xx_HAL_Driver/Src/stm32g4xx_hal_tim.c **** 
  79:Drivers/STM32G4xx_HAL_Driver/Src/stm32g4xx_hal_tim.c ****      (#) The external Clock can be configured, if needed (the default clock is the
  80:Drivers/STM32G4xx_HAL_Driver/Src/stm32g4xx_hal_tim.c ****          internal clock from the APBx), using the following function:
  81:Drivers/STM32G4xx_HAL_Driver/Src/stm32g4xx_hal_tim.c ****          HAL_TIM_ConfigClockSource, the clock configuration should be done before
  82:Drivers/STM32G4xx_HAL_Driver/Src/stm32g4xx_hal_tim.c ****          any start function.
  83:Drivers/STM32G4xx_HAL_Driver/Src/stm32g4xx_hal_tim.c **** 
  84:Drivers/STM32G4xx_HAL_Driver/Src/stm32g4xx_hal_tim.c ****      (#) Configure the TIM in the desired functioning mode using one of the
  85:Drivers/STM32G4xx_HAL_Driver/Src/stm32g4xx_hal_tim.c ****        Initialization function of this driver:
  86:Drivers/STM32G4xx_HAL_Driver/Src/stm32g4xx_hal_tim.c ****        (++) HAL_TIM_Base_Init: to use the Timer to generate a simple time base
ARM GAS  /tmp/ccKRAx5z.s 			page 3


  87:Drivers/STM32G4xx_HAL_Driver/Src/stm32g4xx_hal_tim.c ****        (++) HAL_TIM_OC_Init, HAL_TIM_OC_ConfigChannel and optionally HAL_TIMEx_OC_ConfigPulseOnComp
  88:Drivers/STM32G4xx_HAL_Driver/Src/stm32g4xx_hal_tim.c ****             to use the Timer to generate an Output Compare signal.
  89:Drivers/STM32G4xx_HAL_Driver/Src/stm32g4xx_hal_tim.c ****        (++) HAL_TIM_PWM_Init and HAL_TIM_PWM_ConfigChannel: to use the Timer to generate a
  90:Drivers/STM32G4xx_HAL_Driver/Src/stm32g4xx_hal_tim.c ****             PWM signal.
  91:Drivers/STM32G4xx_HAL_Driver/Src/stm32g4xx_hal_tim.c ****        (++) HAL_TIM_IC_Init and HAL_TIM_IC_ConfigChannel: to use the Timer to measure an
  92:Drivers/STM32G4xx_HAL_Driver/Src/stm32g4xx_hal_tim.c ****             external signal.
  93:Drivers/STM32G4xx_HAL_Driver/Src/stm32g4xx_hal_tim.c ****        (++) HAL_TIM_OnePulse_Init and HAL_TIM_OnePulse_ConfigChannel: to use the Timer
  94:Drivers/STM32G4xx_HAL_Driver/Src/stm32g4xx_hal_tim.c ****             in One Pulse Mode.
  95:Drivers/STM32G4xx_HAL_Driver/Src/stm32g4xx_hal_tim.c ****        (++) HAL_TIM_Encoder_Init: to use the Timer Encoder Interface.
  96:Drivers/STM32G4xx_HAL_Driver/Src/stm32g4xx_hal_tim.c **** 
  97:Drivers/STM32G4xx_HAL_Driver/Src/stm32g4xx_hal_tim.c ****      (#) Activate the TIM peripheral using one of the start functions depending from the feature us
  98:Drivers/STM32G4xx_HAL_Driver/Src/stm32g4xx_hal_tim.c ****            (++) Time Base : HAL_TIM_Base_Start(), HAL_TIM_Base_Start_DMA(), HAL_TIM_Base_Start_IT()
  99:Drivers/STM32G4xx_HAL_Driver/Src/stm32g4xx_hal_tim.c ****            (++) Input Capture :  HAL_TIM_IC_Start(), HAL_TIM_IC_Start_DMA(), HAL_TIM_IC_Start_IT()
 100:Drivers/STM32G4xx_HAL_Driver/Src/stm32g4xx_hal_tim.c ****            (++) Output Compare : HAL_TIM_OC_Start(), HAL_TIM_OC_Start_DMA(), HAL_TIM_OC_Start_IT()
 101:Drivers/STM32G4xx_HAL_Driver/Src/stm32g4xx_hal_tim.c ****            (++) PWM generation : HAL_TIM_PWM_Start(), HAL_TIM_PWM_Start_DMA(), HAL_TIM_PWM_Start_IT
 102:Drivers/STM32G4xx_HAL_Driver/Src/stm32g4xx_hal_tim.c ****            (++) One-pulse mode output : HAL_TIM_OnePulse_Start(), HAL_TIM_OnePulse_Start_IT()
 103:Drivers/STM32G4xx_HAL_Driver/Src/stm32g4xx_hal_tim.c ****            (++) Encoder mode output : HAL_TIM_Encoder_Start(), HAL_TIM_Encoder_Start_DMA(), HAL_TIM
 104:Drivers/STM32G4xx_HAL_Driver/Src/stm32g4xx_hal_tim.c **** 
 105:Drivers/STM32G4xx_HAL_Driver/Src/stm32g4xx_hal_tim.c ****      (#) The DMA Burst is managed with the two following functions:
 106:Drivers/STM32G4xx_HAL_Driver/Src/stm32g4xx_hal_tim.c ****          HAL_TIM_DMABurst_WriteStart()
 107:Drivers/STM32G4xx_HAL_Driver/Src/stm32g4xx_hal_tim.c ****          HAL_TIM_DMABurst_ReadStart()
 108:Drivers/STM32G4xx_HAL_Driver/Src/stm32g4xx_hal_tim.c **** 
 109:Drivers/STM32G4xx_HAL_Driver/Src/stm32g4xx_hal_tim.c ****     *** Callback registration ***
 110:Drivers/STM32G4xx_HAL_Driver/Src/stm32g4xx_hal_tim.c ****   =============================================
 111:Drivers/STM32G4xx_HAL_Driver/Src/stm32g4xx_hal_tim.c **** 
 112:Drivers/STM32G4xx_HAL_Driver/Src/stm32g4xx_hal_tim.c ****   [..]
 113:Drivers/STM32G4xx_HAL_Driver/Src/stm32g4xx_hal_tim.c ****   The compilation define  USE_HAL_TIM_REGISTER_CALLBACKS when set to 1
 114:Drivers/STM32G4xx_HAL_Driver/Src/stm32g4xx_hal_tim.c ****   allows the user to configure dynamically the driver callbacks.
 115:Drivers/STM32G4xx_HAL_Driver/Src/stm32g4xx_hal_tim.c **** 
 116:Drivers/STM32G4xx_HAL_Driver/Src/stm32g4xx_hal_tim.c ****   [..]
 117:Drivers/STM32G4xx_HAL_Driver/Src/stm32g4xx_hal_tim.c ****   Use Function HAL_TIM_RegisterCallback() to register a callback.
 118:Drivers/STM32G4xx_HAL_Driver/Src/stm32g4xx_hal_tim.c ****   HAL_TIM_RegisterCallback() takes as parameters the HAL peripheral handle,
 119:Drivers/STM32G4xx_HAL_Driver/Src/stm32g4xx_hal_tim.c ****   the Callback ID and a pointer to the user callback function.
 120:Drivers/STM32G4xx_HAL_Driver/Src/stm32g4xx_hal_tim.c **** 
 121:Drivers/STM32G4xx_HAL_Driver/Src/stm32g4xx_hal_tim.c ****   [..]
 122:Drivers/STM32G4xx_HAL_Driver/Src/stm32g4xx_hal_tim.c ****   Use function HAL_TIM_UnRegisterCallback() to reset a callback to the default
 123:Drivers/STM32G4xx_HAL_Driver/Src/stm32g4xx_hal_tim.c ****   weak function.
 124:Drivers/STM32G4xx_HAL_Driver/Src/stm32g4xx_hal_tim.c ****   HAL_TIM_UnRegisterCallback takes as parameters the HAL peripheral handle,
 125:Drivers/STM32G4xx_HAL_Driver/Src/stm32g4xx_hal_tim.c ****   and the Callback ID.
 126:Drivers/STM32G4xx_HAL_Driver/Src/stm32g4xx_hal_tim.c **** 
 127:Drivers/STM32G4xx_HAL_Driver/Src/stm32g4xx_hal_tim.c ****   [..]
 128:Drivers/STM32G4xx_HAL_Driver/Src/stm32g4xx_hal_tim.c ****   These functions allow to register/unregister following callbacks:
 129:Drivers/STM32G4xx_HAL_Driver/Src/stm32g4xx_hal_tim.c ****     (+) Base_MspInitCallback              : TIM Base Msp Init Callback.
 130:Drivers/STM32G4xx_HAL_Driver/Src/stm32g4xx_hal_tim.c ****     (+) Base_MspDeInitCallback            : TIM Base Msp DeInit Callback.
 131:Drivers/STM32G4xx_HAL_Driver/Src/stm32g4xx_hal_tim.c ****     (+) IC_MspInitCallback                : TIM IC Msp Init Callback.
 132:Drivers/STM32G4xx_HAL_Driver/Src/stm32g4xx_hal_tim.c ****     (+) IC_MspDeInitCallback              : TIM IC Msp DeInit Callback.
 133:Drivers/STM32G4xx_HAL_Driver/Src/stm32g4xx_hal_tim.c ****     (+) OC_MspInitCallback                : TIM OC Msp Init Callback.
 134:Drivers/STM32G4xx_HAL_Driver/Src/stm32g4xx_hal_tim.c ****     (+) OC_MspDeInitCallback              : TIM OC Msp DeInit Callback.
 135:Drivers/STM32G4xx_HAL_Driver/Src/stm32g4xx_hal_tim.c ****     (+) PWM_MspInitCallback               : TIM PWM Msp Init Callback.
 136:Drivers/STM32G4xx_HAL_Driver/Src/stm32g4xx_hal_tim.c ****     (+) PWM_MspDeInitCallback             : TIM PWM Msp DeInit Callback.
 137:Drivers/STM32G4xx_HAL_Driver/Src/stm32g4xx_hal_tim.c ****     (+) OnePulse_MspInitCallback          : TIM One Pulse Msp Init Callback.
 138:Drivers/STM32G4xx_HAL_Driver/Src/stm32g4xx_hal_tim.c ****     (+) OnePulse_MspDeInitCallback        : TIM One Pulse Msp DeInit Callback.
 139:Drivers/STM32G4xx_HAL_Driver/Src/stm32g4xx_hal_tim.c ****     (+) Encoder_MspInitCallback           : TIM Encoder Msp Init Callback.
 140:Drivers/STM32G4xx_HAL_Driver/Src/stm32g4xx_hal_tim.c ****     (+) Encoder_MspDeInitCallback         : TIM Encoder Msp DeInit Callback.
 141:Drivers/STM32G4xx_HAL_Driver/Src/stm32g4xx_hal_tim.c ****     (+) HallSensor_MspInitCallback        : TIM Hall Sensor Msp Init Callback.
 142:Drivers/STM32G4xx_HAL_Driver/Src/stm32g4xx_hal_tim.c ****     (+) HallSensor_MspDeInitCallback      : TIM Hall Sensor Msp DeInit Callback.
 143:Drivers/STM32G4xx_HAL_Driver/Src/stm32g4xx_hal_tim.c ****     (+) PeriodElapsedCallback             : TIM Period Elapsed Callback.
ARM GAS  /tmp/ccKRAx5z.s 			page 4


 144:Drivers/STM32G4xx_HAL_Driver/Src/stm32g4xx_hal_tim.c ****     (+) PeriodElapsedHalfCpltCallback     : TIM Period Elapsed half complete Callback.
 145:Drivers/STM32G4xx_HAL_Driver/Src/stm32g4xx_hal_tim.c ****     (+) TriggerCallback                   : TIM Trigger Callback.
 146:Drivers/STM32G4xx_HAL_Driver/Src/stm32g4xx_hal_tim.c ****     (+) TriggerHalfCpltCallback           : TIM Trigger half complete Callback.
 147:Drivers/STM32G4xx_HAL_Driver/Src/stm32g4xx_hal_tim.c ****     (+) IC_CaptureCallback                : TIM Input Capture Callback.
 148:Drivers/STM32G4xx_HAL_Driver/Src/stm32g4xx_hal_tim.c ****     (+) IC_CaptureHalfCpltCallback        : TIM Input Capture half complete Callback.
 149:Drivers/STM32G4xx_HAL_Driver/Src/stm32g4xx_hal_tim.c ****     (+) OC_DelayElapsedCallback           : TIM Output Compare Delay Elapsed Callback.
 150:Drivers/STM32G4xx_HAL_Driver/Src/stm32g4xx_hal_tim.c ****     (+) PWM_PulseFinishedCallback         : TIM PWM Pulse Finished Callback.
 151:Drivers/STM32G4xx_HAL_Driver/Src/stm32g4xx_hal_tim.c ****     (+) PWM_PulseFinishedHalfCpltCallback : TIM PWM Pulse Finished half complete Callback.
 152:Drivers/STM32G4xx_HAL_Driver/Src/stm32g4xx_hal_tim.c ****     (+) ErrorCallback                     : TIM Error Callback.
 153:Drivers/STM32G4xx_HAL_Driver/Src/stm32g4xx_hal_tim.c ****     (+) CommutationCallback               : TIM Commutation Callback.
 154:Drivers/STM32G4xx_HAL_Driver/Src/stm32g4xx_hal_tim.c ****     (+) CommutationHalfCpltCallback       : TIM Commutation half complete Callback.
 155:Drivers/STM32G4xx_HAL_Driver/Src/stm32g4xx_hal_tim.c ****     (+) BreakCallback                     : TIM Break Callback.
 156:Drivers/STM32G4xx_HAL_Driver/Src/stm32g4xx_hal_tim.c ****     (+) Break2Callback                    : TIM Break2 Callback.
 157:Drivers/STM32G4xx_HAL_Driver/Src/stm32g4xx_hal_tim.c ****     (+) EncoderIndexCallback              : TIM Encoder Index Callback.
 158:Drivers/STM32G4xx_HAL_Driver/Src/stm32g4xx_hal_tim.c ****     (+) DirectionChangeCallback           : TIM Direction Change Callback
 159:Drivers/STM32G4xx_HAL_Driver/Src/stm32g4xx_hal_tim.c ****     (+) IndexErrorCallback                : TIM Index Error Callback.
 160:Drivers/STM32G4xx_HAL_Driver/Src/stm32g4xx_hal_tim.c ****     (+) TransitionErrorCallback           : TIM Transition Error Callback
 161:Drivers/STM32G4xx_HAL_Driver/Src/stm32g4xx_hal_tim.c **** 
 162:Drivers/STM32G4xx_HAL_Driver/Src/stm32g4xx_hal_tim.c ****   [..]
 163:Drivers/STM32G4xx_HAL_Driver/Src/stm32g4xx_hal_tim.c **** By default, after the Init and when the state is HAL_TIM_STATE_RESET
 164:Drivers/STM32G4xx_HAL_Driver/Src/stm32g4xx_hal_tim.c **** all interrupt callbacks are set to the corresponding weak functions:
 165:Drivers/STM32G4xx_HAL_Driver/Src/stm32g4xx_hal_tim.c ****   examples HAL_TIM_TriggerCallback(), HAL_TIM_ErrorCallback().
 166:Drivers/STM32G4xx_HAL_Driver/Src/stm32g4xx_hal_tim.c **** 
 167:Drivers/STM32G4xx_HAL_Driver/Src/stm32g4xx_hal_tim.c ****   [..]
 168:Drivers/STM32G4xx_HAL_Driver/Src/stm32g4xx_hal_tim.c ****   Exception done for MspInit and MspDeInit functions that are reset to the legacy weak
 169:Drivers/STM32G4xx_HAL_Driver/Src/stm32g4xx_hal_tim.c ****   functionalities in the Init / DeInit only when these callbacks are null
 170:Drivers/STM32G4xx_HAL_Driver/Src/stm32g4xx_hal_tim.c ****   (not registered beforehand). If not, MspInit or MspDeInit are not null, the Init / DeInit
 171:Drivers/STM32G4xx_HAL_Driver/Src/stm32g4xx_hal_tim.c ****     keep and use the user MspInit / MspDeInit callbacks(registered beforehand)
 172:Drivers/STM32G4xx_HAL_Driver/Src/stm32g4xx_hal_tim.c **** 
 173:Drivers/STM32G4xx_HAL_Driver/Src/stm32g4xx_hal_tim.c ****   [..]
 174:Drivers/STM32G4xx_HAL_Driver/Src/stm32g4xx_hal_tim.c ****     Callbacks can be registered / unregistered in HAL_TIM_STATE_READY state only.
 175:Drivers/STM32G4xx_HAL_Driver/Src/stm32g4xx_hal_tim.c ****     Exception done MspInit / MspDeInit that can be registered / unregistered
 176:Drivers/STM32G4xx_HAL_Driver/Src/stm32g4xx_hal_tim.c ****     in HAL_TIM_STATE_READY or HAL_TIM_STATE_RESET state,
 177:Drivers/STM32G4xx_HAL_Driver/Src/stm32g4xx_hal_tim.c ****     thus registered(user) MspInit / DeInit callbacks can be used during the Init / DeInit.
 178:Drivers/STM32G4xx_HAL_Driver/Src/stm32g4xx_hal_tim.c ****   In that case first register the MspInit/MspDeInit user callbacks
 179:Drivers/STM32G4xx_HAL_Driver/Src/stm32g4xx_hal_tim.c ****       using HAL_TIM_RegisterCallback() before calling DeInit or Init function.
 180:Drivers/STM32G4xx_HAL_Driver/Src/stm32g4xx_hal_tim.c **** 
 181:Drivers/STM32G4xx_HAL_Driver/Src/stm32g4xx_hal_tim.c ****   [..]
 182:Drivers/STM32G4xx_HAL_Driver/Src/stm32g4xx_hal_tim.c ****       When The compilation define USE_HAL_TIM_REGISTER_CALLBACKS is set to 0 or
 183:Drivers/STM32G4xx_HAL_Driver/Src/stm32g4xx_hal_tim.c ****       not defined, the callback registration feature is not available and all callbacks
 184:Drivers/STM32G4xx_HAL_Driver/Src/stm32g4xx_hal_tim.c ****       are set to the corresponding weak functions.
 185:Drivers/STM32G4xx_HAL_Driver/Src/stm32g4xx_hal_tim.c **** 
 186:Drivers/STM32G4xx_HAL_Driver/Src/stm32g4xx_hal_tim.c ****   @endverbatim
 187:Drivers/STM32G4xx_HAL_Driver/Src/stm32g4xx_hal_tim.c ****   ******************************************************************************
 188:Drivers/STM32G4xx_HAL_Driver/Src/stm32g4xx_hal_tim.c ****   */
 189:Drivers/STM32G4xx_HAL_Driver/Src/stm32g4xx_hal_tim.c **** 
 190:Drivers/STM32G4xx_HAL_Driver/Src/stm32g4xx_hal_tim.c **** /* Includes ------------------------------------------------------------------*/
 191:Drivers/STM32G4xx_HAL_Driver/Src/stm32g4xx_hal_tim.c **** #include "stm32g4xx_hal.h"
 192:Drivers/STM32G4xx_HAL_Driver/Src/stm32g4xx_hal_tim.c **** 
 193:Drivers/STM32G4xx_HAL_Driver/Src/stm32g4xx_hal_tim.c **** /** @addtogroup STM32G4xx_HAL_Driver
 194:Drivers/STM32G4xx_HAL_Driver/Src/stm32g4xx_hal_tim.c ****   * @{
 195:Drivers/STM32G4xx_HAL_Driver/Src/stm32g4xx_hal_tim.c ****   */
 196:Drivers/STM32G4xx_HAL_Driver/Src/stm32g4xx_hal_tim.c **** 
 197:Drivers/STM32G4xx_HAL_Driver/Src/stm32g4xx_hal_tim.c **** /** @defgroup TIM TIM
 198:Drivers/STM32G4xx_HAL_Driver/Src/stm32g4xx_hal_tim.c ****   * @brief TIM HAL module driver
 199:Drivers/STM32G4xx_HAL_Driver/Src/stm32g4xx_hal_tim.c ****   * @{
 200:Drivers/STM32G4xx_HAL_Driver/Src/stm32g4xx_hal_tim.c ****   */
ARM GAS  /tmp/ccKRAx5z.s 			page 5


 201:Drivers/STM32G4xx_HAL_Driver/Src/stm32g4xx_hal_tim.c **** 
 202:Drivers/STM32G4xx_HAL_Driver/Src/stm32g4xx_hal_tim.c **** #ifdef HAL_TIM_MODULE_ENABLED
 203:Drivers/STM32G4xx_HAL_Driver/Src/stm32g4xx_hal_tim.c **** 
 204:Drivers/STM32G4xx_HAL_Driver/Src/stm32g4xx_hal_tim.c **** /* Private typedef -----------------------------------------------------------*/
 205:Drivers/STM32G4xx_HAL_Driver/Src/stm32g4xx_hal_tim.c **** /* Private define ------------------------------------------------------------*/
 206:Drivers/STM32G4xx_HAL_Driver/Src/stm32g4xx_hal_tim.c **** /** @addtogroup TIM_Private_Constants
 207:Drivers/STM32G4xx_HAL_Driver/Src/stm32g4xx_hal_tim.c ****   * @{
 208:Drivers/STM32G4xx_HAL_Driver/Src/stm32g4xx_hal_tim.c ****   */
 209:Drivers/STM32G4xx_HAL_Driver/Src/stm32g4xx_hal_tim.c **** #define TIMx_AF2_OCRSEL TIM1_AF2_OCRSEL
 210:Drivers/STM32G4xx_HAL_Driver/Src/stm32g4xx_hal_tim.c **** 
 211:Drivers/STM32G4xx_HAL_Driver/Src/stm32g4xx_hal_tim.c **** /**
 212:Drivers/STM32G4xx_HAL_Driver/Src/stm32g4xx_hal_tim.c ****   * @}
 213:Drivers/STM32G4xx_HAL_Driver/Src/stm32g4xx_hal_tim.c ****   */
 214:Drivers/STM32G4xx_HAL_Driver/Src/stm32g4xx_hal_tim.c **** /* Private macros ------------------------------------------------------------*/
 215:Drivers/STM32G4xx_HAL_Driver/Src/stm32g4xx_hal_tim.c **** /* Private variables ---------------------------------------------------------*/
 216:Drivers/STM32G4xx_HAL_Driver/Src/stm32g4xx_hal_tim.c **** /* Private function prototypes -----------------------------------------------*/
 217:Drivers/STM32G4xx_HAL_Driver/Src/stm32g4xx_hal_tim.c **** /** @addtogroup TIM_Private_Functions
 218:Drivers/STM32G4xx_HAL_Driver/Src/stm32g4xx_hal_tim.c ****   * @{
 219:Drivers/STM32G4xx_HAL_Driver/Src/stm32g4xx_hal_tim.c ****   */
 220:Drivers/STM32G4xx_HAL_Driver/Src/stm32g4xx_hal_tim.c **** static void TIM_OC1_SetConfig(TIM_TypeDef *TIMx, const TIM_OC_InitTypeDef *OC_Config);
 221:Drivers/STM32G4xx_HAL_Driver/Src/stm32g4xx_hal_tim.c **** static void TIM_OC3_SetConfig(TIM_TypeDef *TIMx, const TIM_OC_InitTypeDef *OC_Config);
 222:Drivers/STM32G4xx_HAL_Driver/Src/stm32g4xx_hal_tim.c **** static void TIM_OC4_SetConfig(TIM_TypeDef *TIMx, const TIM_OC_InitTypeDef *OC_Config);
 223:Drivers/STM32G4xx_HAL_Driver/Src/stm32g4xx_hal_tim.c **** static void TIM_OC5_SetConfig(TIM_TypeDef *TIMx, const TIM_OC_InitTypeDef *OC_Config);
 224:Drivers/STM32G4xx_HAL_Driver/Src/stm32g4xx_hal_tim.c **** static void TIM_OC6_SetConfig(TIM_TypeDef *TIMx, const TIM_OC_InitTypeDef *OC_Config);
 225:Drivers/STM32G4xx_HAL_Driver/Src/stm32g4xx_hal_tim.c **** static void TIM_TI1_ConfigInputStage(TIM_TypeDef *TIMx, uint32_t TIM_ICPolarity, uint32_t TIM_ICFil
 226:Drivers/STM32G4xx_HAL_Driver/Src/stm32g4xx_hal_tim.c **** static void TIM_TI2_SetConfig(TIM_TypeDef *TIMx, uint32_t TIM_ICPolarity, uint32_t TIM_ICSelection,
 227:Drivers/STM32G4xx_HAL_Driver/Src/stm32g4xx_hal_tim.c ****                               uint32_t TIM_ICFilter);
 228:Drivers/STM32G4xx_HAL_Driver/Src/stm32g4xx_hal_tim.c **** static void TIM_TI2_ConfigInputStage(TIM_TypeDef *TIMx, uint32_t TIM_ICPolarity, uint32_t TIM_ICFil
 229:Drivers/STM32G4xx_HAL_Driver/Src/stm32g4xx_hal_tim.c **** static void TIM_TI3_SetConfig(TIM_TypeDef *TIMx, uint32_t TIM_ICPolarity, uint32_t TIM_ICSelection,
 230:Drivers/STM32G4xx_HAL_Driver/Src/stm32g4xx_hal_tim.c ****                               uint32_t TIM_ICFilter);
 231:Drivers/STM32G4xx_HAL_Driver/Src/stm32g4xx_hal_tim.c **** static void TIM_TI4_SetConfig(TIM_TypeDef *TIMx, uint32_t TIM_ICPolarity, uint32_t TIM_ICSelection,
 232:Drivers/STM32G4xx_HAL_Driver/Src/stm32g4xx_hal_tim.c ****                               uint32_t TIM_ICFilter);
 233:Drivers/STM32G4xx_HAL_Driver/Src/stm32g4xx_hal_tim.c **** static void TIM_ITRx_SetConfig(TIM_TypeDef *TIMx, uint32_t InputTriggerSource);
 234:Drivers/STM32G4xx_HAL_Driver/Src/stm32g4xx_hal_tim.c **** static void TIM_DMAPeriodElapsedCplt(DMA_HandleTypeDef *hdma);
 235:Drivers/STM32G4xx_HAL_Driver/Src/stm32g4xx_hal_tim.c **** static void TIM_DMAPeriodElapsedHalfCplt(DMA_HandleTypeDef *hdma);
 236:Drivers/STM32G4xx_HAL_Driver/Src/stm32g4xx_hal_tim.c **** static void TIM_DMADelayPulseCplt(DMA_HandleTypeDef *hdma);
 237:Drivers/STM32G4xx_HAL_Driver/Src/stm32g4xx_hal_tim.c **** static void TIM_DMATriggerCplt(DMA_HandleTypeDef *hdma);
 238:Drivers/STM32G4xx_HAL_Driver/Src/stm32g4xx_hal_tim.c **** static void TIM_DMATriggerHalfCplt(DMA_HandleTypeDef *hdma);
 239:Drivers/STM32G4xx_HAL_Driver/Src/stm32g4xx_hal_tim.c **** static HAL_StatusTypeDef TIM_SlaveTimer_SetConfig(TIM_HandleTypeDef *htim,
 240:Drivers/STM32G4xx_HAL_Driver/Src/stm32g4xx_hal_tim.c ****                                                   const TIM_SlaveConfigTypeDef *sSlaveConfig);
 241:Drivers/STM32G4xx_HAL_Driver/Src/stm32g4xx_hal_tim.c **** /**
 242:Drivers/STM32G4xx_HAL_Driver/Src/stm32g4xx_hal_tim.c ****   * @}
 243:Drivers/STM32G4xx_HAL_Driver/Src/stm32g4xx_hal_tim.c ****   */
 244:Drivers/STM32G4xx_HAL_Driver/Src/stm32g4xx_hal_tim.c **** /* Exported functions --------------------------------------------------------*/
 245:Drivers/STM32G4xx_HAL_Driver/Src/stm32g4xx_hal_tim.c **** 
 246:Drivers/STM32G4xx_HAL_Driver/Src/stm32g4xx_hal_tim.c **** /** @defgroup TIM_Exported_Functions TIM Exported Functions
 247:Drivers/STM32G4xx_HAL_Driver/Src/stm32g4xx_hal_tim.c ****   * @{
 248:Drivers/STM32G4xx_HAL_Driver/Src/stm32g4xx_hal_tim.c ****   */
 249:Drivers/STM32G4xx_HAL_Driver/Src/stm32g4xx_hal_tim.c **** 
 250:Drivers/STM32G4xx_HAL_Driver/Src/stm32g4xx_hal_tim.c **** /** @defgroup TIM_Exported_Functions_Group1 TIM Time Base functions
 251:Drivers/STM32G4xx_HAL_Driver/Src/stm32g4xx_hal_tim.c ****   *  @brief    Time Base functions
 252:Drivers/STM32G4xx_HAL_Driver/Src/stm32g4xx_hal_tim.c ****   *
 253:Drivers/STM32G4xx_HAL_Driver/Src/stm32g4xx_hal_tim.c **** @verbatim
 254:Drivers/STM32G4xx_HAL_Driver/Src/stm32g4xx_hal_tim.c ****   ==============================================================================
 255:Drivers/STM32G4xx_HAL_Driver/Src/stm32g4xx_hal_tim.c ****               ##### Time Base functions #####
 256:Drivers/STM32G4xx_HAL_Driver/Src/stm32g4xx_hal_tim.c ****   ==============================================================================
 257:Drivers/STM32G4xx_HAL_Driver/Src/stm32g4xx_hal_tim.c ****   [..]
ARM GAS  /tmp/ccKRAx5z.s 			page 6


 258:Drivers/STM32G4xx_HAL_Driver/Src/stm32g4xx_hal_tim.c ****     This section provides functions allowing to:
 259:Drivers/STM32G4xx_HAL_Driver/Src/stm32g4xx_hal_tim.c ****     (+) Initialize and configure the TIM base.
 260:Drivers/STM32G4xx_HAL_Driver/Src/stm32g4xx_hal_tim.c ****     (+) De-initialize the TIM base.
 261:Drivers/STM32G4xx_HAL_Driver/Src/stm32g4xx_hal_tim.c ****     (+) Start the Time Base.
 262:Drivers/STM32G4xx_HAL_Driver/Src/stm32g4xx_hal_tim.c ****     (+) Stop the Time Base.
 263:Drivers/STM32G4xx_HAL_Driver/Src/stm32g4xx_hal_tim.c ****     (+) Start the Time Base and enable interrupt.
 264:Drivers/STM32G4xx_HAL_Driver/Src/stm32g4xx_hal_tim.c ****     (+) Stop the Time Base and disable interrupt.
 265:Drivers/STM32G4xx_HAL_Driver/Src/stm32g4xx_hal_tim.c ****     (+) Start the Time Base and enable DMA transfer.
 266:Drivers/STM32G4xx_HAL_Driver/Src/stm32g4xx_hal_tim.c ****     (+) Stop the Time Base and disable DMA transfer.
 267:Drivers/STM32G4xx_HAL_Driver/Src/stm32g4xx_hal_tim.c **** 
 268:Drivers/STM32G4xx_HAL_Driver/Src/stm32g4xx_hal_tim.c **** @endverbatim
 269:Drivers/STM32G4xx_HAL_Driver/Src/stm32g4xx_hal_tim.c ****   * @{
 270:Drivers/STM32G4xx_HAL_Driver/Src/stm32g4xx_hal_tim.c ****   */
 271:Drivers/STM32G4xx_HAL_Driver/Src/stm32g4xx_hal_tim.c **** /**
 272:Drivers/STM32G4xx_HAL_Driver/Src/stm32g4xx_hal_tim.c ****   * @brief  Initializes the TIM Time base Unit according to the specified
 273:Drivers/STM32G4xx_HAL_Driver/Src/stm32g4xx_hal_tim.c ****   *         parameters in the TIM_HandleTypeDef and initialize the associated handle.
 274:Drivers/STM32G4xx_HAL_Driver/Src/stm32g4xx_hal_tim.c ****   * @note   Switching from Center Aligned counter mode to Edge counter mode (or reverse)
 275:Drivers/STM32G4xx_HAL_Driver/Src/stm32g4xx_hal_tim.c ****   *         requires a timer reset to avoid unexpected direction
 276:Drivers/STM32G4xx_HAL_Driver/Src/stm32g4xx_hal_tim.c ****   *         due to DIR bit readonly in center aligned mode.
 277:Drivers/STM32G4xx_HAL_Driver/Src/stm32g4xx_hal_tim.c ****   *         Ex: call @ref HAL_TIM_Base_DeInit() before HAL_TIM_Base_Init()
 278:Drivers/STM32G4xx_HAL_Driver/Src/stm32g4xx_hal_tim.c ****   * @param  htim TIM Base handle
 279:Drivers/STM32G4xx_HAL_Driver/Src/stm32g4xx_hal_tim.c ****   * @retval HAL status
 280:Drivers/STM32G4xx_HAL_Driver/Src/stm32g4xx_hal_tim.c ****   */
 281:Drivers/STM32G4xx_HAL_Driver/Src/stm32g4xx_hal_tim.c **** HAL_StatusTypeDef HAL_TIM_Base_Init(TIM_HandleTypeDef *htim)
 282:Drivers/STM32G4xx_HAL_Driver/Src/stm32g4xx_hal_tim.c **** {
 283:Drivers/STM32G4xx_HAL_Driver/Src/stm32g4xx_hal_tim.c ****   /* Check the TIM handle allocation */
 284:Drivers/STM32G4xx_HAL_Driver/Src/stm32g4xx_hal_tim.c ****   if (htim == NULL)
 285:Drivers/STM32G4xx_HAL_Driver/Src/stm32g4xx_hal_tim.c ****   {
 286:Drivers/STM32G4xx_HAL_Driver/Src/stm32g4xx_hal_tim.c ****     return HAL_ERROR;
 287:Drivers/STM32G4xx_HAL_Driver/Src/stm32g4xx_hal_tim.c ****   }
 288:Drivers/STM32G4xx_HAL_Driver/Src/stm32g4xx_hal_tim.c **** 
 289:Drivers/STM32G4xx_HAL_Driver/Src/stm32g4xx_hal_tim.c ****   /* Check the parameters */
 290:Drivers/STM32G4xx_HAL_Driver/Src/stm32g4xx_hal_tim.c ****   assert_param(IS_TIM_INSTANCE(htim->Instance));
 291:Drivers/STM32G4xx_HAL_Driver/Src/stm32g4xx_hal_tim.c ****   assert_param(IS_TIM_COUNTER_MODE(htim->Init.CounterMode));
 292:Drivers/STM32G4xx_HAL_Driver/Src/stm32g4xx_hal_tim.c ****   assert_param(IS_TIM_CLOCKDIVISION_DIV(htim->Init.ClockDivision));
 293:Drivers/STM32G4xx_HAL_Driver/Src/stm32g4xx_hal_tim.c ****   assert_param(IS_TIM_PERIOD(htim, htim->Init.Period));
 294:Drivers/STM32G4xx_HAL_Driver/Src/stm32g4xx_hal_tim.c ****   assert_param(IS_TIM_AUTORELOAD_PRELOAD(htim->Init.AutoReloadPreload));
 295:Drivers/STM32G4xx_HAL_Driver/Src/stm32g4xx_hal_tim.c **** 
 296:Drivers/STM32G4xx_HAL_Driver/Src/stm32g4xx_hal_tim.c ****   if (htim->State == HAL_TIM_STATE_RESET)
 297:Drivers/STM32G4xx_HAL_Driver/Src/stm32g4xx_hal_tim.c ****   {
 298:Drivers/STM32G4xx_HAL_Driver/Src/stm32g4xx_hal_tim.c ****     /* Allocate lock resource and initialize it */
 299:Drivers/STM32G4xx_HAL_Driver/Src/stm32g4xx_hal_tim.c ****     htim->Lock = HAL_UNLOCKED;
 300:Drivers/STM32G4xx_HAL_Driver/Src/stm32g4xx_hal_tim.c **** 
 301:Drivers/STM32G4xx_HAL_Driver/Src/stm32g4xx_hal_tim.c **** #if (USE_HAL_TIM_REGISTER_CALLBACKS == 1)
 302:Drivers/STM32G4xx_HAL_Driver/Src/stm32g4xx_hal_tim.c ****     /* Reset interrupt callbacks to legacy weak callbacks */
 303:Drivers/STM32G4xx_HAL_Driver/Src/stm32g4xx_hal_tim.c ****     TIM_ResetCallback(htim);
 304:Drivers/STM32G4xx_HAL_Driver/Src/stm32g4xx_hal_tim.c **** 
 305:Drivers/STM32G4xx_HAL_Driver/Src/stm32g4xx_hal_tim.c ****     if (htim->Base_MspInitCallback == NULL)
 306:Drivers/STM32G4xx_HAL_Driver/Src/stm32g4xx_hal_tim.c ****     {
 307:Drivers/STM32G4xx_HAL_Driver/Src/stm32g4xx_hal_tim.c ****       htim->Base_MspInitCallback = HAL_TIM_Base_MspInit;
 308:Drivers/STM32G4xx_HAL_Driver/Src/stm32g4xx_hal_tim.c ****     }
 309:Drivers/STM32G4xx_HAL_Driver/Src/stm32g4xx_hal_tim.c ****     /* Init the low level hardware : GPIO, CLOCK, NVIC */
 310:Drivers/STM32G4xx_HAL_Driver/Src/stm32g4xx_hal_tim.c ****     htim->Base_MspInitCallback(htim);
 311:Drivers/STM32G4xx_HAL_Driver/Src/stm32g4xx_hal_tim.c **** #else
 312:Drivers/STM32G4xx_HAL_Driver/Src/stm32g4xx_hal_tim.c ****     /* Init the low level hardware : GPIO, CLOCK, NVIC */
 313:Drivers/STM32G4xx_HAL_Driver/Src/stm32g4xx_hal_tim.c ****     HAL_TIM_Base_MspInit(htim);
 314:Drivers/STM32G4xx_HAL_Driver/Src/stm32g4xx_hal_tim.c **** #endif /* USE_HAL_TIM_REGISTER_CALLBACKS */
ARM GAS  /tmp/ccKRAx5z.s 			page 7


 315:Drivers/STM32G4xx_HAL_Driver/Src/stm32g4xx_hal_tim.c ****   }
 316:Drivers/STM32G4xx_HAL_Driver/Src/stm32g4xx_hal_tim.c **** 
 317:Drivers/STM32G4xx_HAL_Driver/Src/stm32g4xx_hal_tim.c ****   /* Set the TIM state */
 318:Drivers/STM32G4xx_HAL_Driver/Src/stm32g4xx_hal_tim.c ****   htim->State = HAL_TIM_STATE_BUSY;
 319:Drivers/STM32G4xx_HAL_Driver/Src/stm32g4xx_hal_tim.c **** 
 320:Drivers/STM32G4xx_HAL_Driver/Src/stm32g4xx_hal_tim.c ****   /* Set the Time Base configuration */
 321:Drivers/STM32G4xx_HAL_Driver/Src/stm32g4xx_hal_tim.c ****   TIM_Base_SetConfig(htim->Instance, &htim->Init);
 322:Drivers/STM32G4xx_HAL_Driver/Src/stm32g4xx_hal_tim.c **** 
 323:Drivers/STM32G4xx_HAL_Driver/Src/stm32g4xx_hal_tim.c ****   /* Initialize the DMA burst operation state */
 324:Drivers/STM32G4xx_HAL_Driver/Src/stm32g4xx_hal_tim.c ****   htim->DMABurstState = HAL_DMA_BURST_STATE_READY;
 325:Drivers/STM32G4xx_HAL_Driver/Src/stm32g4xx_hal_tim.c **** 
 326:Drivers/STM32G4xx_HAL_Driver/Src/stm32g4xx_hal_tim.c ****   /* Initialize the TIM channels state */
 327:Drivers/STM32G4xx_HAL_Driver/Src/stm32g4xx_hal_tim.c ****   TIM_CHANNEL_STATE_SET_ALL(htim, HAL_TIM_CHANNEL_STATE_READY);
 328:Drivers/STM32G4xx_HAL_Driver/Src/stm32g4xx_hal_tim.c ****   TIM_CHANNEL_N_STATE_SET_ALL(htim, HAL_TIM_CHANNEL_STATE_READY);
 329:Drivers/STM32G4xx_HAL_Driver/Src/stm32g4xx_hal_tim.c **** 
 330:Drivers/STM32G4xx_HAL_Driver/Src/stm32g4xx_hal_tim.c ****   /* Initialize the TIM state*/
 331:Drivers/STM32G4xx_HAL_Driver/Src/stm32g4xx_hal_tim.c ****   htim->State = HAL_TIM_STATE_READY;
 332:Drivers/STM32G4xx_HAL_Driver/Src/stm32g4xx_hal_tim.c **** 
 333:Drivers/STM32G4xx_HAL_Driver/Src/stm32g4xx_hal_tim.c ****   return HAL_OK;
 334:Drivers/STM32G4xx_HAL_Driver/Src/stm32g4xx_hal_tim.c **** }
 335:Drivers/STM32G4xx_HAL_Driver/Src/stm32g4xx_hal_tim.c **** 
 336:Drivers/STM32G4xx_HAL_Driver/Src/stm32g4xx_hal_tim.c **** /**
 337:Drivers/STM32G4xx_HAL_Driver/Src/stm32g4xx_hal_tim.c ****   * @brief  DeInitializes the TIM Base peripheral
 338:Drivers/STM32G4xx_HAL_Driver/Src/stm32g4xx_hal_tim.c ****   * @param  htim TIM Base handle
 339:Drivers/STM32G4xx_HAL_Driver/Src/stm32g4xx_hal_tim.c ****   * @retval HAL status
 340:Drivers/STM32G4xx_HAL_Driver/Src/stm32g4xx_hal_tim.c ****   */
 341:Drivers/STM32G4xx_HAL_Driver/Src/stm32g4xx_hal_tim.c **** HAL_StatusTypeDef HAL_TIM_Base_DeInit(TIM_HandleTypeDef *htim)
 342:Drivers/STM32G4xx_HAL_Driver/Src/stm32g4xx_hal_tim.c **** {
 343:Drivers/STM32G4xx_HAL_Driver/Src/stm32g4xx_hal_tim.c ****   /* Check the parameters */
 344:Drivers/STM32G4xx_HAL_Driver/Src/stm32g4xx_hal_tim.c ****   assert_param(IS_TIM_INSTANCE(htim->Instance));
 345:Drivers/STM32G4xx_HAL_Driver/Src/stm32g4xx_hal_tim.c **** 
 346:Drivers/STM32G4xx_HAL_Driver/Src/stm32g4xx_hal_tim.c ****   htim->State = HAL_TIM_STATE_BUSY;
 347:Drivers/STM32G4xx_HAL_Driver/Src/stm32g4xx_hal_tim.c **** 
 348:Drivers/STM32G4xx_HAL_Driver/Src/stm32g4xx_hal_tim.c ****   /* Disable the TIM Peripheral Clock */
 349:Drivers/STM32G4xx_HAL_Driver/Src/stm32g4xx_hal_tim.c ****   __HAL_TIM_DISABLE(htim);
 350:Drivers/STM32G4xx_HAL_Driver/Src/stm32g4xx_hal_tim.c **** 
 351:Drivers/STM32G4xx_HAL_Driver/Src/stm32g4xx_hal_tim.c **** #if (USE_HAL_TIM_REGISTER_CALLBACKS == 1)
 352:Drivers/STM32G4xx_HAL_Driver/Src/stm32g4xx_hal_tim.c ****   if (htim->Base_MspDeInitCallback == NULL)
 353:Drivers/STM32G4xx_HAL_Driver/Src/stm32g4xx_hal_tim.c ****   {
 354:Drivers/STM32G4xx_HAL_Driver/Src/stm32g4xx_hal_tim.c ****     htim->Base_MspDeInitCallback = HAL_TIM_Base_MspDeInit;
 355:Drivers/STM32G4xx_HAL_Driver/Src/stm32g4xx_hal_tim.c ****   }
 356:Drivers/STM32G4xx_HAL_Driver/Src/stm32g4xx_hal_tim.c ****   /* DeInit the low level hardware */
 357:Drivers/STM32G4xx_HAL_Driver/Src/stm32g4xx_hal_tim.c ****   htim->Base_MspDeInitCallback(htim);
 358:Drivers/STM32G4xx_HAL_Driver/Src/stm32g4xx_hal_tim.c **** #else
 359:Drivers/STM32G4xx_HAL_Driver/Src/stm32g4xx_hal_tim.c ****   /* DeInit the low level hardware: GPIO, CLOCK, NVIC */
 360:Drivers/STM32G4xx_HAL_Driver/Src/stm32g4xx_hal_tim.c ****   HAL_TIM_Base_MspDeInit(htim);
 361:Drivers/STM32G4xx_HAL_Driver/Src/stm32g4xx_hal_tim.c **** #endif /* USE_HAL_TIM_REGISTER_CALLBACKS */
 362:Drivers/STM32G4xx_HAL_Driver/Src/stm32g4xx_hal_tim.c **** 
 363:Drivers/STM32G4xx_HAL_Driver/Src/stm32g4xx_hal_tim.c ****   /* Change the DMA burst operation state */
 364:Drivers/STM32G4xx_HAL_Driver/Src/stm32g4xx_hal_tim.c ****   htim->DMABurstState = HAL_DMA_BURST_STATE_RESET;
 365:Drivers/STM32G4xx_HAL_Driver/Src/stm32g4xx_hal_tim.c **** 
 366:Drivers/STM32G4xx_HAL_Driver/Src/stm32g4xx_hal_tim.c ****   /* Change the TIM channels state */
 367:Drivers/STM32G4xx_HAL_Driver/Src/stm32g4xx_hal_tim.c ****   TIM_CHANNEL_STATE_SET_ALL(htim, HAL_TIM_CHANNEL_STATE_RESET);
 368:Drivers/STM32G4xx_HAL_Driver/Src/stm32g4xx_hal_tim.c ****   TIM_CHANNEL_N_STATE_SET_ALL(htim, HAL_TIM_CHANNEL_STATE_RESET);
 369:Drivers/STM32G4xx_HAL_Driver/Src/stm32g4xx_hal_tim.c **** 
 370:Drivers/STM32G4xx_HAL_Driver/Src/stm32g4xx_hal_tim.c ****   /* Change TIM state */
 371:Drivers/STM32G4xx_HAL_Driver/Src/stm32g4xx_hal_tim.c ****   htim->State = HAL_TIM_STATE_RESET;
ARM GAS  /tmp/ccKRAx5z.s 			page 8


 372:Drivers/STM32G4xx_HAL_Driver/Src/stm32g4xx_hal_tim.c **** 
 373:Drivers/STM32G4xx_HAL_Driver/Src/stm32g4xx_hal_tim.c ****   /* Release Lock */
 374:Drivers/STM32G4xx_HAL_Driver/Src/stm32g4xx_hal_tim.c ****   __HAL_UNLOCK(htim);
 375:Drivers/STM32G4xx_HAL_Driver/Src/stm32g4xx_hal_tim.c **** 
 376:Drivers/STM32G4xx_HAL_Driver/Src/stm32g4xx_hal_tim.c ****   return HAL_OK;
 377:Drivers/STM32G4xx_HAL_Driver/Src/stm32g4xx_hal_tim.c **** }
 378:Drivers/STM32G4xx_HAL_Driver/Src/stm32g4xx_hal_tim.c **** 
 379:Drivers/STM32G4xx_HAL_Driver/Src/stm32g4xx_hal_tim.c **** /**
 380:Drivers/STM32G4xx_HAL_Driver/Src/stm32g4xx_hal_tim.c ****   * @brief  Initializes the TIM Base MSP.
 381:Drivers/STM32G4xx_HAL_Driver/Src/stm32g4xx_hal_tim.c ****   * @param  htim TIM Base handle
 382:Drivers/STM32G4xx_HAL_Driver/Src/stm32g4xx_hal_tim.c ****   * @retval None
 383:Drivers/STM32G4xx_HAL_Driver/Src/stm32g4xx_hal_tim.c ****   */
 384:Drivers/STM32G4xx_HAL_Driver/Src/stm32g4xx_hal_tim.c **** __weak void HAL_TIM_Base_MspInit(TIM_HandleTypeDef *htim)
 385:Drivers/STM32G4xx_HAL_Driver/Src/stm32g4xx_hal_tim.c **** {
  30              		.loc 1 385 1 view -0
  31              		.cfi_startproc
  32              		@ args = 0, pretend = 0, frame = 0
  33              		@ frame_needed = 0, uses_anonymous_args = 0
  34              		@ link register save eliminated.
 386:Drivers/STM32G4xx_HAL_Driver/Src/stm32g4xx_hal_tim.c ****   /* Prevent unused argument(s) compilation warning */
 387:Drivers/STM32G4xx_HAL_Driver/Src/stm32g4xx_hal_tim.c ****   UNUSED(htim);
  35              		.loc 1 387 3 view .LVU1
 388:Drivers/STM32G4xx_HAL_Driver/Src/stm32g4xx_hal_tim.c **** 
 389:Drivers/STM32G4xx_HAL_Driver/Src/stm32g4xx_hal_tim.c ****   /* NOTE : This function should not be modified, when the callback is needed,
 390:Drivers/STM32G4xx_HAL_Driver/Src/stm32g4xx_hal_tim.c ****             the HAL_TIM_Base_MspInit could be implemented in the user file
 391:Drivers/STM32G4xx_HAL_Driver/Src/stm32g4xx_hal_tim.c ****    */
 392:Drivers/STM32G4xx_HAL_Driver/Src/stm32g4xx_hal_tim.c **** }
  36              		.loc 1 392 1 is_stmt 0 view .LVU2
  37 0000 7047     		bx	lr
  38              		.cfi_endproc
  39              	.LFE331:
  41              		.section	.text.HAL_TIM_Base_MspDeInit,"ax",%progbits
  42              		.align	1
  43              		.weak	HAL_TIM_Base_MspDeInit
  44              		.syntax unified
  45              		.thumb
  46              		.thumb_func
  48              	HAL_TIM_Base_MspDeInit:
  49              	.LVL1:
  50              	.LFB332:
 393:Drivers/STM32G4xx_HAL_Driver/Src/stm32g4xx_hal_tim.c **** 
 394:Drivers/STM32G4xx_HAL_Driver/Src/stm32g4xx_hal_tim.c **** /**
 395:Drivers/STM32G4xx_HAL_Driver/Src/stm32g4xx_hal_tim.c ****   * @brief  DeInitializes TIM Base MSP.
 396:Drivers/STM32G4xx_HAL_Driver/Src/stm32g4xx_hal_tim.c ****   * @param  htim TIM Base handle
 397:Drivers/STM32G4xx_HAL_Driver/Src/stm32g4xx_hal_tim.c ****   * @retval None
 398:Drivers/STM32G4xx_HAL_Driver/Src/stm32g4xx_hal_tim.c ****   */
 399:Drivers/STM32G4xx_HAL_Driver/Src/stm32g4xx_hal_tim.c **** __weak void HAL_TIM_Base_MspDeInit(TIM_HandleTypeDef *htim)
 400:Drivers/STM32G4xx_HAL_Driver/Src/stm32g4xx_hal_tim.c **** {
  51              		.loc 1 400 1 is_stmt 1 view -0
  52              		.cfi_startproc
  53              		@ args = 0, pretend = 0, frame = 0
  54              		@ frame_needed = 0, uses_anonymous_args = 0
  55              		@ link register save eliminated.
 401:Drivers/STM32G4xx_HAL_Driver/Src/stm32g4xx_hal_tim.c ****   /* Prevent unused argument(s) compilation warning */
 402:Drivers/STM32G4xx_HAL_Driver/Src/stm32g4xx_hal_tim.c ****   UNUSED(htim);
  56              		.loc 1 402 3 view .LVU4
 403:Drivers/STM32G4xx_HAL_Driver/Src/stm32g4xx_hal_tim.c **** 
ARM GAS  /tmp/ccKRAx5z.s 			page 9


 404:Drivers/STM32G4xx_HAL_Driver/Src/stm32g4xx_hal_tim.c ****   /* NOTE : This function should not be modified, when the callback is needed,
 405:Drivers/STM32G4xx_HAL_Driver/Src/stm32g4xx_hal_tim.c ****             the HAL_TIM_Base_MspDeInit could be implemented in the user file
 406:Drivers/STM32G4xx_HAL_Driver/Src/stm32g4xx_hal_tim.c ****    */
 407:Drivers/STM32G4xx_HAL_Driver/Src/stm32g4xx_hal_tim.c **** }
  57              		.loc 1 407 1 is_stmt 0 view .LVU5
  58 0000 7047     		bx	lr
  59              		.cfi_endproc
  60              	.LFE332:
  62              		.section	.text.HAL_TIM_OC_MspInit,"ax",%progbits
  63              		.align	1
  64              		.weak	HAL_TIM_OC_MspInit
  65              		.syntax unified
  66              		.thumb
  67              		.thumb_func
  69              	HAL_TIM_OC_MspInit:
  70              	.LVL2:
  71              	.LFB341:
 408:Drivers/STM32G4xx_HAL_Driver/Src/stm32g4xx_hal_tim.c **** 
 409:Drivers/STM32G4xx_HAL_Driver/Src/stm32g4xx_hal_tim.c **** 
 410:Drivers/STM32G4xx_HAL_Driver/Src/stm32g4xx_hal_tim.c **** /**
 411:Drivers/STM32G4xx_HAL_Driver/Src/stm32g4xx_hal_tim.c ****   * @brief  Starts the TIM Base generation.
 412:Drivers/STM32G4xx_HAL_Driver/Src/stm32g4xx_hal_tim.c ****   * @param  htim TIM Base handle
 413:Drivers/STM32G4xx_HAL_Driver/Src/stm32g4xx_hal_tim.c ****   * @retval HAL status
 414:Drivers/STM32G4xx_HAL_Driver/Src/stm32g4xx_hal_tim.c ****   */
 415:Drivers/STM32G4xx_HAL_Driver/Src/stm32g4xx_hal_tim.c **** HAL_StatusTypeDef HAL_TIM_Base_Start(TIM_HandleTypeDef *htim)
 416:Drivers/STM32G4xx_HAL_Driver/Src/stm32g4xx_hal_tim.c **** {
 417:Drivers/STM32G4xx_HAL_Driver/Src/stm32g4xx_hal_tim.c ****   uint32_t tmpsmcr;
 418:Drivers/STM32G4xx_HAL_Driver/Src/stm32g4xx_hal_tim.c **** 
 419:Drivers/STM32G4xx_HAL_Driver/Src/stm32g4xx_hal_tim.c ****   /* Check the parameters */
 420:Drivers/STM32G4xx_HAL_Driver/Src/stm32g4xx_hal_tim.c ****   assert_param(IS_TIM_INSTANCE(htim->Instance));
 421:Drivers/STM32G4xx_HAL_Driver/Src/stm32g4xx_hal_tim.c **** 
 422:Drivers/STM32G4xx_HAL_Driver/Src/stm32g4xx_hal_tim.c ****   /* Check the TIM state */
 423:Drivers/STM32G4xx_HAL_Driver/Src/stm32g4xx_hal_tim.c ****   if (htim->State != HAL_TIM_STATE_READY)
 424:Drivers/STM32G4xx_HAL_Driver/Src/stm32g4xx_hal_tim.c ****   {
 425:Drivers/STM32G4xx_HAL_Driver/Src/stm32g4xx_hal_tim.c ****     return HAL_ERROR;
 426:Drivers/STM32G4xx_HAL_Driver/Src/stm32g4xx_hal_tim.c ****   }
 427:Drivers/STM32G4xx_HAL_Driver/Src/stm32g4xx_hal_tim.c **** 
 428:Drivers/STM32G4xx_HAL_Driver/Src/stm32g4xx_hal_tim.c ****   /* Set the TIM state */
 429:Drivers/STM32G4xx_HAL_Driver/Src/stm32g4xx_hal_tim.c ****   htim->State = HAL_TIM_STATE_BUSY;
 430:Drivers/STM32G4xx_HAL_Driver/Src/stm32g4xx_hal_tim.c **** 
 431:Drivers/STM32G4xx_HAL_Driver/Src/stm32g4xx_hal_tim.c ****   /* Enable the Peripheral, except in trigger mode where enable is automatically done with trigger 
 432:Drivers/STM32G4xx_HAL_Driver/Src/stm32g4xx_hal_tim.c ****   if (IS_TIM_SLAVE_INSTANCE(htim->Instance))
 433:Drivers/STM32G4xx_HAL_Driver/Src/stm32g4xx_hal_tim.c ****   {
 434:Drivers/STM32G4xx_HAL_Driver/Src/stm32g4xx_hal_tim.c ****     tmpsmcr = htim->Instance->SMCR & TIM_SMCR_SMS;
 435:Drivers/STM32G4xx_HAL_Driver/Src/stm32g4xx_hal_tim.c ****     if (!IS_TIM_SLAVEMODE_TRIGGER_ENABLED(tmpsmcr))
 436:Drivers/STM32G4xx_HAL_Driver/Src/stm32g4xx_hal_tim.c ****     {
 437:Drivers/STM32G4xx_HAL_Driver/Src/stm32g4xx_hal_tim.c ****       __HAL_TIM_ENABLE(htim);
 438:Drivers/STM32G4xx_HAL_Driver/Src/stm32g4xx_hal_tim.c ****     }
 439:Drivers/STM32G4xx_HAL_Driver/Src/stm32g4xx_hal_tim.c ****   }
 440:Drivers/STM32G4xx_HAL_Driver/Src/stm32g4xx_hal_tim.c ****   else
 441:Drivers/STM32G4xx_HAL_Driver/Src/stm32g4xx_hal_tim.c ****   {
 442:Drivers/STM32G4xx_HAL_Driver/Src/stm32g4xx_hal_tim.c ****     __HAL_TIM_ENABLE(htim);
 443:Drivers/STM32G4xx_HAL_Driver/Src/stm32g4xx_hal_tim.c ****   }
 444:Drivers/STM32G4xx_HAL_Driver/Src/stm32g4xx_hal_tim.c **** 
 445:Drivers/STM32G4xx_HAL_Driver/Src/stm32g4xx_hal_tim.c ****   /* Return function status */
 446:Drivers/STM32G4xx_HAL_Driver/Src/stm32g4xx_hal_tim.c ****   return HAL_OK;
 447:Drivers/STM32G4xx_HAL_Driver/Src/stm32g4xx_hal_tim.c **** }
ARM GAS  /tmp/ccKRAx5z.s 			page 10


 448:Drivers/STM32G4xx_HAL_Driver/Src/stm32g4xx_hal_tim.c **** 
 449:Drivers/STM32G4xx_HAL_Driver/Src/stm32g4xx_hal_tim.c **** /**
 450:Drivers/STM32G4xx_HAL_Driver/Src/stm32g4xx_hal_tim.c ****   * @brief  Stops the TIM Base generation.
 451:Drivers/STM32G4xx_HAL_Driver/Src/stm32g4xx_hal_tim.c ****   * @param  htim TIM Base handle
 452:Drivers/STM32G4xx_HAL_Driver/Src/stm32g4xx_hal_tim.c ****   * @retval HAL status
 453:Drivers/STM32G4xx_HAL_Driver/Src/stm32g4xx_hal_tim.c ****   */
 454:Drivers/STM32G4xx_HAL_Driver/Src/stm32g4xx_hal_tim.c **** HAL_StatusTypeDef HAL_TIM_Base_Stop(TIM_HandleTypeDef *htim)
 455:Drivers/STM32G4xx_HAL_Driver/Src/stm32g4xx_hal_tim.c **** {
 456:Drivers/STM32G4xx_HAL_Driver/Src/stm32g4xx_hal_tim.c ****   /* Check the parameters */
 457:Drivers/STM32G4xx_HAL_Driver/Src/stm32g4xx_hal_tim.c ****   assert_param(IS_TIM_INSTANCE(htim->Instance));
 458:Drivers/STM32G4xx_HAL_Driver/Src/stm32g4xx_hal_tim.c **** 
 459:Drivers/STM32G4xx_HAL_Driver/Src/stm32g4xx_hal_tim.c ****   /* Disable the Peripheral */
 460:Drivers/STM32G4xx_HAL_Driver/Src/stm32g4xx_hal_tim.c ****   __HAL_TIM_DISABLE(htim);
 461:Drivers/STM32G4xx_HAL_Driver/Src/stm32g4xx_hal_tim.c **** 
 462:Drivers/STM32G4xx_HAL_Driver/Src/stm32g4xx_hal_tim.c ****   /* Set the TIM state */
 463:Drivers/STM32G4xx_HAL_Driver/Src/stm32g4xx_hal_tim.c ****   htim->State = HAL_TIM_STATE_READY;
 464:Drivers/STM32G4xx_HAL_Driver/Src/stm32g4xx_hal_tim.c **** 
 465:Drivers/STM32G4xx_HAL_Driver/Src/stm32g4xx_hal_tim.c ****   /* Return function status */
 466:Drivers/STM32G4xx_HAL_Driver/Src/stm32g4xx_hal_tim.c ****   return HAL_OK;
 467:Drivers/STM32G4xx_HAL_Driver/Src/stm32g4xx_hal_tim.c **** }
 468:Drivers/STM32G4xx_HAL_Driver/Src/stm32g4xx_hal_tim.c **** 
 469:Drivers/STM32G4xx_HAL_Driver/Src/stm32g4xx_hal_tim.c **** /**
 470:Drivers/STM32G4xx_HAL_Driver/Src/stm32g4xx_hal_tim.c ****   * @brief  Starts the TIM Base generation in interrupt mode.
 471:Drivers/STM32G4xx_HAL_Driver/Src/stm32g4xx_hal_tim.c ****   * @param  htim TIM Base handle
 472:Drivers/STM32G4xx_HAL_Driver/Src/stm32g4xx_hal_tim.c ****   * @retval HAL status
 473:Drivers/STM32G4xx_HAL_Driver/Src/stm32g4xx_hal_tim.c ****   */
 474:Drivers/STM32G4xx_HAL_Driver/Src/stm32g4xx_hal_tim.c **** HAL_StatusTypeDef HAL_TIM_Base_Start_IT(TIM_HandleTypeDef *htim)
 475:Drivers/STM32G4xx_HAL_Driver/Src/stm32g4xx_hal_tim.c **** {
 476:Drivers/STM32G4xx_HAL_Driver/Src/stm32g4xx_hal_tim.c ****   uint32_t tmpsmcr;
 477:Drivers/STM32G4xx_HAL_Driver/Src/stm32g4xx_hal_tim.c **** 
 478:Drivers/STM32G4xx_HAL_Driver/Src/stm32g4xx_hal_tim.c ****   /* Check the parameters */
 479:Drivers/STM32G4xx_HAL_Driver/Src/stm32g4xx_hal_tim.c ****   assert_param(IS_TIM_INSTANCE(htim->Instance));
 480:Drivers/STM32G4xx_HAL_Driver/Src/stm32g4xx_hal_tim.c **** 
 481:Drivers/STM32G4xx_HAL_Driver/Src/stm32g4xx_hal_tim.c ****   /* Check the TIM state */
 482:Drivers/STM32G4xx_HAL_Driver/Src/stm32g4xx_hal_tim.c ****   if (htim->State != HAL_TIM_STATE_READY)
 483:Drivers/STM32G4xx_HAL_Driver/Src/stm32g4xx_hal_tim.c ****   {
 484:Drivers/STM32G4xx_HAL_Driver/Src/stm32g4xx_hal_tim.c ****     return HAL_ERROR;
 485:Drivers/STM32G4xx_HAL_Driver/Src/stm32g4xx_hal_tim.c ****   }
 486:Drivers/STM32G4xx_HAL_Driver/Src/stm32g4xx_hal_tim.c **** 
 487:Drivers/STM32G4xx_HAL_Driver/Src/stm32g4xx_hal_tim.c ****   /* Set the TIM state */
 488:Drivers/STM32G4xx_HAL_Driver/Src/stm32g4xx_hal_tim.c ****   htim->State = HAL_TIM_STATE_BUSY;
 489:Drivers/STM32G4xx_HAL_Driver/Src/stm32g4xx_hal_tim.c **** 
 490:Drivers/STM32G4xx_HAL_Driver/Src/stm32g4xx_hal_tim.c ****   /* Enable the TIM Update interrupt */
 491:Drivers/STM32G4xx_HAL_Driver/Src/stm32g4xx_hal_tim.c ****   __HAL_TIM_ENABLE_IT(htim, TIM_IT_UPDATE);
 492:Drivers/STM32G4xx_HAL_Driver/Src/stm32g4xx_hal_tim.c **** 
 493:Drivers/STM32G4xx_HAL_Driver/Src/stm32g4xx_hal_tim.c ****   /* Enable the Peripheral, except in trigger mode where enable is automatically done with trigger 
 494:Drivers/STM32G4xx_HAL_Driver/Src/stm32g4xx_hal_tim.c ****   if (IS_TIM_SLAVE_INSTANCE(htim->Instance))
 495:Drivers/STM32G4xx_HAL_Driver/Src/stm32g4xx_hal_tim.c ****   {
 496:Drivers/STM32G4xx_HAL_Driver/Src/stm32g4xx_hal_tim.c ****     tmpsmcr = htim->Instance->SMCR & TIM_SMCR_SMS;
 497:Drivers/STM32G4xx_HAL_Driver/Src/stm32g4xx_hal_tim.c ****     if (!IS_TIM_SLAVEMODE_TRIGGER_ENABLED(tmpsmcr))
 498:Drivers/STM32G4xx_HAL_Driver/Src/stm32g4xx_hal_tim.c ****     {
 499:Drivers/STM32G4xx_HAL_Driver/Src/stm32g4xx_hal_tim.c ****       __HAL_TIM_ENABLE(htim);
 500:Drivers/STM32G4xx_HAL_Driver/Src/stm32g4xx_hal_tim.c ****     }
 501:Drivers/STM32G4xx_HAL_Driver/Src/stm32g4xx_hal_tim.c ****   }
 502:Drivers/STM32G4xx_HAL_Driver/Src/stm32g4xx_hal_tim.c ****   else
 503:Drivers/STM32G4xx_HAL_Driver/Src/stm32g4xx_hal_tim.c ****   {
 504:Drivers/STM32G4xx_HAL_Driver/Src/stm32g4xx_hal_tim.c ****     __HAL_TIM_ENABLE(htim);
ARM GAS  /tmp/ccKRAx5z.s 			page 11


 505:Drivers/STM32G4xx_HAL_Driver/Src/stm32g4xx_hal_tim.c ****   }
 506:Drivers/STM32G4xx_HAL_Driver/Src/stm32g4xx_hal_tim.c **** 
 507:Drivers/STM32G4xx_HAL_Driver/Src/stm32g4xx_hal_tim.c ****   /* Return function status */
 508:Drivers/STM32G4xx_HAL_Driver/Src/stm32g4xx_hal_tim.c ****   return HAL_OK;
 509:Drivers/STM32G4xx_HAL_Driver/Src/stm32g4xx_hal_tim.c **** }
 510:Drivers/STM32G4xx_HAL_Driver/Src/stm32g4xx_hal_tim.c **** 
 511:Drivers/STM32G4xx_HAL_Driver/Src/stm32g4xx_hal_tim.c **** /**
 512:Drivers/STM32G4xx_HAL_Driver/Src/stm32g4xx_hal_tim.c ****   * @brief  Stops the TIM Base generation in interrupt mode.
 513:Drivers/STM32G4xx_HAL_Driver/Src/stm32g4xx_hal_tim.c ****   * @param  htim TIM Base handle
 514:Drivers/STM32G4xx_HAL_Driver/Src/stm32g4xx_hal_tim.c ****   * @retval HAL status
 515:Drivers/STM32G4xx_HAL_Driver/Src/stm32g4xx_hal_tim.c ****   */
 516:Drivers/STM32G4xx_HAL_Driver/Src/stm32g4xx_hal_tim.c **** HAL_StatusTypeDef HAL_TIM_Base_Stop_IT(TIM_HandleTypeDef *htim)
 517:Drivers/STM32G4xx_HAL_Driver/Src/stm32g4xx_hal_tim.c **** {
 518:Drivers/STM32G4xx_HAL_Driver/Src/stm32g4xx_hal_tim.c ****   /* Check the parameters */
 519:Drivers/STM32G4xx_HAL_Driver/Src/stm32g4xx_hal_tim.c ****   assert_param(IS_TIM_INSTANCE(htim->Instance));
 520:Drivers/STM32G4xx_HAL_Driver/Src/stm32g4xx_hal_tim.c **** 
 521:Drivers/STM32G4xx_HAL_Driver/Src/stm32g4xx_hal_tim.c ****   /* Disable the TIM Update interrupt */
 522:Drivers/STM32G4xx_HAL_Driver/Src/stm32g4xx_hal_tim.c ****   __HAL_TIM_DISABLE_IT(htim, TIM_IT_UPDATE);
 523:Drivers/STM32G4xx_HAL_Driver/Src/stm32g4xx_hal_tim.c **** 
 524:Drivers/STM32G4xx_HAL_Driver/Src/stm32g4xx_hal_tim.c ****   /* Disable the Peripheral */
 525:Drivers/STM32G4xx_HAL_Driver/Src/stm32g4xx_hal_tim.c ****   __HAL_TIM_DISABLE(htim);
 526:Drivers/STM32G4xx_HAL_Driver/Src/stm32g4xx_hal_tim.c **** 
 527:Drivers/STM32G4xx_HAL_Driver/Src/stm32g4xx_hal_tim.c ****   /* Set the TIM state */
 528:Drivers/STM32G4xx_HAL_Driver/Src/stm32g4xx_hal_tim.c ****   htim->State = HAL_TIM_STATE_READY;
 529:Drivers/STM32G4xx_HAL_Driver/Src/stm32g4xx_hal_tim.c **** 
 530:Drivers/STM32G4xx_HAL_Driver/Src/stm32g4xx_hal_tim.c ****   /* Return function status */
 531:Drivers/STM32G4xx_HAL_Driver/Src/stm32g4xx_hal_tim.c ****   return HAL_OK;
 532:Drivers/STM32G4xx_HAL_Driver/Src/stm32g4xx_hal_tim.c **** }
 533:Drivers/STM32G4xx_HAL_Driver/Src/stm32g4xx_hal_tim.c **** 
 534:Drivers/STM32G4xx_HAL_Driver/Src/stm32g4xx_hal_tim.c **** /**
 535:Drivers/STM32G4xx_HAL_Driver/Src/stm32g4xx_hal_tim.c ****   * @brief  Starts the TIM Base generation in DMA mode.
 536:Drivers/STM32G4xx_HAL_Driver/Src/stm32g4xx_hal_tim.c ****   * @param  htim TIM Base handle
 537:Drivers/STM32G4xx_HAL_Driver/Src/stm32g4xx_hal_tim.c ****   * @param  pData The source Buffer address.
 538:Drivers/STM32G4xx_HAL_Driver/Src/stm32g4xx_hal_tim.c ****   * @param  Length The length of data to be transferred from memory to peripheral.
 539:Drivers/STM32G4xx_HAL_Driver/Src/stm32g4xx_hal_tim.c ****   * @retval HAL status
 540:Drivers/STM32G4xx_HAL_Driver/Src/stm32g4xx_hal_tim.c ****   */
 541:Drivers/STM32G4xx_HAL_Driver/Src/stm32g4xx_hal_tim.c **** HAL_StatusTypeDef HAL_TIM_Base_Start_DMA(TIM_HandleTypeDef *htim, const uint32_t *pData, uint16_t L
 542:Drivers/STM32G4xx_HAL_Driver/Src/stm32g4xx_hal_tim.c **** {
 543:Drivers/STM32G4xx_HAL_Driver/Src/stm32g4xx_hal_tim.c ****   uint32_t tmpsmcr;
 544:Drivers/STM32G4xx_HAL_Driver/Src/stm32g4xx_hal_tim.c **** 
 545:Drivers/STM32G4xx_HAL_Driver/Src/stm32g4xx_hal_tim.c ****   /* Check the parameters */
 546:Drivers/STM32G4xx_HAL_Driver/Src/stm32g4xx_hal_tim.c ****   assert_param(IS_TIM_DMA_INSTANCE(htim->Instance));
 547:Drivers/STM32G4xx_HAL_Driver/Src/stm32g4xx_hal_tim.c **** 
 548:Drivers/STM32G4xx_HAL_Driver/Src/stm32g4xx_hal_tim.c ****   /* Set the TIM state */
 549:Drivers/STM32G4xx_HAL_Driver/Src/stm32g4xx_hal_tim.c ****   if (htim->State == HAL_TIM_STATE_BUSY)
 550:Drivers/STM32G4xx_HAL_Driver/Src/stm32g4xx_hal_tim.c ****   {
 551:Drivers/STM32G4xx_HAL_Driver/Src/stm32g4xx_hal_tim.c ****     return HAL_BUSY;
 552:Drivers/STM32G4xx_HAL_Driver/Src/stm32g4xx_hal_tim.c ****   }
 553:Drivers/STM32G4xx_HAL_Driver/Src/stm32g4xx_hal_tim.c ****   else if (htim->State == HAL_TIM_STATE_READY)
 554:Drivers/STM32G4xx_HAL_Driver/Src/stm32g4xx_hal_tim.c ****   {
 555:Drivers/STM32G4xx_HAL_Driver/Src/stm32g4xx_hal_tim.c ****     if ((pData == NULL) || (Length == 0U))
 556:Drivers/STM32G4xx_HAL_Driver/Src/stm32g4xx_hal_tim.c ****     {
 557:Drivers/STM32G4xx_HAL_Driver/Src/stm32g4xx_hal_tim.c ****       return HAL_ERROR;
 558:Drivers/STM32G4xx_HAL_Driver/Src/stm32g4xx_hal_tim.c ****     }
 559:Drivers/STM32G4xx_HAL_Driver/Src/stm32g4xx_hal_tim.c ****     else
 560:Drivers/STM32G4xx_HAL_Driver/Src/stm32g4xx_hal_tim.c ****     {
 561:Drivers/STM32G4xx_HAL_Driver/Src/stm32g4xx_hal_tim.c ****       htim->State = HAL_TIM_STATE_BUSY;
ARM GAS  /tmp/ccKRAx5z.s 			page 12


 562:Drivers/STM32G4xx_HAL_Driver/Src/stm32g4xx_hal_tim.c ****     }
 563:Drivers/STM32G4xx_HAL_Driver/Src/stm32g4xx_hal_tim.c ****   }
 564:Drivers/STM32G4xx_HAL_Driver/Src/stm32g4xx_hal_tim.c ****   else
 565:Drivers/STM32G4xx_HAL_Driver/Src/stm32g4xx_hal_tim.c ****   {
 566:Drivers/STM32G4xx_HAL_Driver/Src/stm32g4xx_hal_tim.c ****     return HAL_ERROR;
 567:Drivers/STM32G4xx_HAL_Driver/Src/stm32g4xx_hal_tim.c ****   }
 568:Drivers/STM32G4xx_HAL_Driver/Src/stm32g4xx_hal_tim.c **** 
 569:Drivers/STM32G4xx_HAL_Driver/Src/stm32g4xx_hal_tim.c ****   /* Set the DMA Period elapsed callbacks */
 570:Drivers/STM32G4xx_HAL_Driver/Src/stm32g4xx_hal_tim.c ****   htim->hdma[TIM_DMA_ID_UPDATE]->XferCpltCallback = TIM_DMAPeriodElapsedCplt;
 571:Drivers/STM32G4xx_HAL_Driver/Src/stm32g4xx_hal_tim.c ****   htim->hdma[TIM_DMA_ID_UPDATE]->XferHalfCpltCallback = TIM_DMAPeriodElapsedHalfCplt;
 572:Drivers/STM32G4xx_HAL_Driver/Src/stm32g4xx_hal_tim.c **** 
 573:Drivers/STM32G4xx_HAL_Driver/Src/stm32g4xx_hal_tim.c ****   /* Set the DMA error callback */
 574:Drivers/STM32G4xx_HAL_Driver/Src/stm32g4xx_hal_tim.c ****   htim->hdma[TIM_DMA_ID_UPDATE]->XferErrorCallback = TIM_DMAError ;
 575:Drivers/STM32G4xx_HAL_Driver/Src/stm32g4xx_hal_tim.c **** 
 576:Drivers/STM32G4xx_HAL_Driver/Src/stm32g4xx_hal_tim.c ****   /* Enable the DMA channel */
 577:Drivers/STM32G4xx_HAL_Driver/Src/stm32g4xx_hal_tim.c ****   if (HAL_DMA_Start_IT(htim->hdma[TIM_DMA_ID_UPDATE], (uint32_t)pData, (uint32_t)&htim->Instance->A
 578:Drivers/STM32G4xx_HAL_Driver/Src/stm32g4xx_hal_tim.c ****                        Length) != HAL_OK)
 579:Drivers/STM32G4xx_HAL_Driver/Src/stm32g4xx_hal_tim.c ****   {
 580:Drivers/STM32G4xx_HAL_Driver/Src/stm32g4xx_hal_tim.c ****     /* Return error status */
 581:Drivers/STM32G4xx_HAL_Driver/Src/stm32g4xx_hal_tim.c ****     return HAL_ERROR;
 582:Drivers/STM32G4xx_HAL_Driver/Src/stm32g4xx_hal_tim.c ****   }
 583:Drivers/STM32G4xx_HAL_Driver/Src/stm32g4xx_hal_tim.c **** 
 584:Drivers/STM32G4xx_HAL_Driver/Src/stm32g4xx_hal_tim.c ****   /* Enable the TIM Update DMA request */
 585:Drivers/STM32G4xx_HAL_Driver/Src/stm32g4xx_hal_tim.c ****   __HAL_TIM_ENABLE_DMA(htim, TIM_DMA_UPDATE);
 586:Drivers/STM32G4xx_HAL_Driver/Src/stm32g4xx_hal_tim.c **** 
 587:Drivers/STM32G4xx_HAL_Driver/Src/stm32g4xx_hal_tim.c ****   /* Enable the Peripheral, except in trigger mode where enable is automatically done with trigger 
 588:Drivers/STM32G4xx_HAL_Driver/Src/stm32g4xx_hal_tim.c ****   if (IS_TIM_SLAVE_INSTANCE(htim->Instance))
 589:Drivers/STM32G4xx_HAL_Driver/Src/stm32g4xx_hal_tim.c ****   {
 590:Drivers/STM32G4xx_HAL_Driver/Src/stm32g4xx_hal_tim.c ****     tmpsmcr = htim->Instance->SMCR & TIM_SMCR_SMS;
 591:Drivers/STM32G4xx_HAL_Driver/Src/stm32g4xx_hal_tim.c ****     if (!IS_TIM_SLAVEMODE_TRIGGER_ENABLED(tmpsmcr))
 592:Drivers/STM32G4xx_HAL_Driver/Src/stm32g4xx_hal_tim.c ****     {
 593:Drivers/STM32G4xx_HAL_Driver/Src/stm32g4xx_hal_tim.c ****       __HAL_TIM_ENABLE(htim);
 594:Drivers/STM32G4xx_HAL_Driver/Src/stm32g4xx_hal_tim.c ****     }
 595:Drivers/STM32G4xx_HAL_Driver/Src/stm32g4xx_hal_tim.c ****   }
 596:Drivers/STM32G4xx_HAL_Driver/Src/stm32g4xx_hal_tim.c ****   else
 597:Drivers/STM32G4xx_HAL_Driver/Src/stm32g4xx_hal_tim.c ****   {
 598:Drivers/STM32G4xx_HAL_Driver/Src/stm32g4xx_hal_tim.c ****     __HAL_TIM_ENABLE(htim);
 599:Drivers/STM32G4xx_HAL_Driver/Src/stm32g4xx_hal_tim.c ****   }
 600:Drivers/STM32G4xx_HAL_Driver/Src/stm32g4xx_hal_tim.c **** 
 601:Drivers/STM32G4xx_HAL_Driver/Src/stm32g4xx_hal_tim.c ****   /* Return function status */
 602:Drivers/STM32G4xx_HAL_Driver/Src/stm32g4xx_hal_tim.c ****   return HAL_OK;
 603:Drivers/STM32G4xx_HAL_Driver/Src/stm32g4xx_hal_tim.c **** }
 604:Drivers/STM32G4xx_HAL_Driver/Src/stm32g4xx_hal_tim.c **** 
 605:Drivers/STM32G4xx_HAL_Driver/Src/stm32g4xx_hal_tim.c **** /**
 606:Drivers/STM32G4xx_HAL_Driver/Src/stm32g4xx_hal_tim.c ****   * @brief  Stops the TIM Base generation in DMA mode.
 607:Drivers/STM32G4xx_HAL_Driver/Src/stm32g4xx_hal_tim.c ****   * @param  htim TIM Base handle
 608:Drivers/STM32G4xx_HAL_Driver/Src/stm32g4xx_hal_tim.c ****   * @retval HAL status
 609:Drivers/STM32G4xx_HAL_Driver/Src/stm32g4xx_hal_tim.c ****   */
 610:Drivers/STM32G4xx_HAL_Driver/Src/stm32g4xx_hal_tim.c **** HAL_StatusTypeDef HAL_TIM_Base_Stop_DMA(TIM_HandleTypeDef *htim)
 611:Drivers/STM32G4xx_HAL_Driver/Src/stm32g4xx_hal_tim.c **** {
 612:Drivers/STM32G4xx_HAL_Driver/Src/stm32g4xx_hal_tim.c ****   /* Check the parameters */
 613:Drivers/STM32G4xx_HAL_Driver/Src/stm32g4xx_hal_tim.c ****   assert_param(IS_TIM_DMA_INSTANCE(htim->Instance));
 614:Drivers/STM32G4xx_HAL_Driver/Src/stm32g4xx_hal_tim.c **** 
 615:Drivers/STM32G4xx_HAL_Driver/Src/stm32g4xx_hal_tim.c ****   /* Disable the TIM Update DMA request */
 616:Drivers/STM32G4xx_HAL_Driver/Src/stm32g4xx_hal_tim.c ****   __HAL_TIM_DISABLE_DMA(htim, TIM_DMA_UPDATE);
 617:Drivers/STM32G4xx_HAL_Driver/Src/stm32g4xx_hal_tim.c **** 
 618:Drivers/STM32G4xx_HAL_Driver/Src/stm32g4xx_hal_tim.c ****   (void)HAL_DMA_Abort_IT(htim->hdma[TIM_DMA_ID_UPDATE]);
ARM GAS  /tmp/ccKRAx5z.s 			page 13


 619:Drivers/STM32G4xx_HAL_Driver/Src/stm32g4xx_hal_tim.c **** 
 620:Drivers/STM32G4xx_HAL_Driver/Src/stm32g4xx_hal_tim.c ****   /* Disable the Peripheral */
 621:Drivers/STM32G4xx_HAL_Driver/Src/stm32g4xx_hal_tim.c ****   __HAL_TIM_DISABLE(htim);
 622:Drivers/STM32G4xx_HAL_Driver/Src/stm32g4xx_hal_tim.c **** 
 623:Drivers/STM32G4xx_HAL_Driver/Src/stm32g4xx_hal_tim.c ****   /* Set the TIM state */
 624:Drivers/STM32G4xx_HAL_Driver/Src/stm32g4xx_hal_tim.c ****   htim->State = HAL_TIM_STATE_READY;
 625:Drivers/STM32G4xx_HAL_Driver/Src/stm32g4xx_hal_tim.c **** 
 626:Drivers/STM32G4xx_HAL_Driver/Src/stm32g4xx_hal_tim.c ****   /* Return function status */
 627:Drivers/STM32G4xx_HAL_Driver/Src/stm32g4xx_hal_tim.c ****   return HAL_OK;
 628:Drivers/STM32G4xx_HAL_Driver/Src/stm32g4xx_hal_tim.c **** }
 629:Drivers/STM32G4xx_HAL_Driver/Src/stm32g4xx_hal_tim.c **** 
 630:Drivers/STM32G4xx_HAL_Driver/Src/stm32g4xx_hal_tim.c **** /**
 631:Drivers/STM32G4xx_HAL_Driver/Src/stm32g4xx_hal_tim.c ****   * @}
 632:Drivers/STM32G4xx_HAL_Driver/Src/stm32g4xx_hal_tim.c ****   */
 633:Drivers/STM32G4xx_HAL_Driver/Src/stm32g4xx_hal_tim.c **** 
 634:Drivers/STM32G4xx_HAL_Driver/Src/stm32g4xx_hal_tim.c **** /** @defgroup TIM_Exported_Functions_Group2 TIM Output Compare functions
 635:Drivers/STM32G4xx_HAL_Driver/Src/stm32g4xx_hal_tim.c ****   *  @brief    TIM Output Compare functions
 636:Drivers/STM32G4xx_HAL_Driver/Src/stm32g4xx_hal_tim.c ****   *
 637:Drivers/STM32G4xx_HAL_Driver/Src/stm32g4xx_hal_tim.c **** @verbatim
 638:Drivers/STM32G4xx_HAL_Driver/Src/stm32g4xx_hal_tim.c ****   ==============================================================================
 639:Drivers/STM32G4xx_HAL_Driver/Src/stm32g4xx_hal_tim.c ****                   ##### TIM Output Compare functions #####
 640:Drivers/STM32G4xx_HAL_Driver/Src/stm32g4xx_hal_tim.c ****   ==============================================================================
 641:Drivers/STM32G4xx_HAL_Driver/Src/stm32g4xx_hal_tim.c ****   [..]
 642:Drivers/STM32G4xx_HAL_Driver/Src/stm32g4xx_hal_tim.c ****     This section provides functions allowing to:
 643:Drivers/STM32G4xx_HAL_Driver/Src/stm32g4xx_hal_tim.c ****     (+) Initialize and configure the TIM Output Compare.
 644:Drivers/STM32G4xx_HAL_Driver/Src/stm32g4xx_hal_tim.c ****     (+) De-initialize the TIM Output Compare.
 645:Drivers/STM32G4xx_HAL_Driver/Src/stm32g4xx_hal_tim.c ****     (+) Start the TIM Output Compare.
 646:Drivers/STM32G4xx_HAL_Driver/Src/stm32g4xx_hal_tim.c ****     (+) Stop the TIM Output Compare.
 647:Drivers/STM32G4xx_HAL_Driver/Src/stm32g4xx_hal_tim.c ****     (+) Start the TIM Output Compare and enable interrupt.
 648:Drivers/STM32G4xx_HAL_Driver/Src/stm32g4xx_hal_tim.c ****     (+) Stop the TIM Output Compare and disable interrupt.
 649:Drivers/STM32G4xx_HAL_Driver/Src/stm32g4xx_hal_tim.c ****     (+) Start the TIM Output Compare and enable DMA transfer.
 650:Drivers/STM32G4xx_HAL_Driver/Src/stm32g4xx_hal_tim.c ****     (+) Stop the TIM Output Compare and disable DMA transfer.
 651:Drivers/STM32G4xx_HAL_Driver/Src/stm32g4xx_hal_tim.c **** 
 652:Drivers/STM32G4xx_HAL_Driver/Src/stm32g4xx_hal_tim.c **** @endverbatim
 653:Drivers/STM32G4xx_HAL_Driver/Src/stm32g4xx_hal_tim.c ****   * @{
 654:Drivers/STM32G4xx_HAL_Driver/Src/stm32g4xx_hal_tim.c ****   */
 655:Drivers/STM32G4xx_HAL_Driver/Src/stm32g4xx_hal_tim.c **** /**
 656:Drivers/STM32G4xx_HAL_Driver/Src/stm32g4xx_hal_tim.c ****   * @brief  Initializes the TIM Output Compare according to the specified
 657:Drivers/STM32G4xx_HAL_Driver/Src/stm32g4xx_hal_tim.c ****   *         parameters in the TIM_HandleTypeDef and initializes the associated handle.
 658:Drivers/STM32G4xx_HAL_Driver/Src/stm32g4xx_hal_tim.c ****   * @note   Switching from Center Aligned counter mode to Edge counter mode (or reverse)
 659:Drivers/STM32G4xx_HAL_Driver/Src/stm32g4xx_hal_tim.c ****   *         requires a timer reset to avoid unexpected direction
 660:Drivers/STM32G4xx_HAL_Driver/Src/stm32g4xx_hal_tim.c ****   *         due to DIR bit readonly in center aligned mode.
 661:Drivers/STM32G4xx_HAL_Driver/Src/stm32g4xx_hal_tim.c ****   *         Ex: call @ref HAL_TIM_OC_DeInit() before HAL_TIM_OC_Init()
 662:Drivers/STM32G4xx_HAL_Driver/Src/stm32g4xx_hal_tim.c ****   * @param  htim TIM Output Compare handle
 663:Drivers/STM32G4xx_HAL_Driver/Src/stm32g4xx_hal_tim.c ****   * @retval HAL status
 664:Drivers/STM32G4xx_HAL_Driver/Src/stm32g4xx_hal_tim.c ****   */
 665:Drivers/STM32G4xx_HAL_Driver/Src/stm32g4xx_hal_tim.c **** HAL_StatusTypeDef HAL_TIM_OC_Init(TIM_HandleTypeDef *htim)
 666:Drivers/STM32G4xx_HAL_Driver/Src/stm32g4xx_hal_tim.c **** {
 667:Drivers/STM32G4xx_HAL_Driver/Src/stm32g4xx_hal_tim.c ****   /* Check the TIM handle allocation */
 668:Drivers/STM32G4xx_HAL_Driver/Src/stm32g4xx_hal_tim.c ****   if (htim == NULL)
 669:Drivers/STM32G4xx_HAL_Driver/Src/stm32g4xx_hal_tim.c ****   {
 670:Drivers/STM32G4xx_HAL_Driver/Src/stm32g4xx_hal_tim.c ****     return HAL_ERROR;
 671:Drivers/STM32G4xx_HAL_Driver/Src/stm32g4xx_hal_tim.c ****   }
 672:Drivers/STM32G4xx_HAL_Driver/Src/stm32g4xx_hal_tim.c **** 
 673:Drivers/STM32G4xx_HAL_Driver/Src/stm32g4xx_hal_tim.c ****   /* Check the parameters */
 674:Drivers/STM32G4xx_HAL_Driver/Src/stm32g4xx_hal_tim.c ****   assert_param(IS_TIM_INSTANCE(htim->Instance));
 675:Drivers/STM32G4xx_HAL_Driver/Src/stm32g4xx_hal_tim.c ****   assert_param(IS_TIM_COUNTER_MODE(htim->Init.CounterMode));
ARM GAS  /tmp/ccKRAx5z.s 			page 14


 676:Drivers/STM32G4xx_HAL_Driver/Src/stm32g4xx_hal_tim.c ****   assert_param(IS_TIM_CLOCKDIVISION_DIV(htim->Init.ClockDivision));
 677:Drivers/STM32G4xx_HAL_Driver/Src/stm32g4xx_hal_tim.c ****   assert_param(IS_TIM_PERIOD(htim, htim->Init.Period));
 678:Drivers/STM32G4xx_HAL_Driver/Src/stm32g4xx_hal_tim.c ****   assert_param(IS_TIM_AUTORELOAD_PRELOAD(htim->Init.AutoReloadPreload));
 679:Drivers/STM32G4xx_HAL_Driver/Src/stm32g4xx_hal_tim.c **** 
 680:Drivers/STM32G4xx_HAL_Driver/Src/stm32g4xx_hal_tim.c ****   if (htim->State == HAL_TIM_STATE_RESET)
 681:Drivers/STM32G4xx_HAL_Driver/Src/stm32g4xx_hal_tim.c ****   {
 682:Drivers/STM32G4xx_HAL_Driver/Src/stm32g4xx_hal_tim.c ****     /* Allocate lock resource and initialize it */
 683:Drivers/STM32G4xx_HAL_Driver/Src/stm32g4xx_hal_tim.c ****     htim->Lock = HAL_UNLOCKED;
 684:Drivers/STM32G4xx_HAL_Driver/Src/stm32g4xx_hal_tim.c **** 
 685:Drivers/STM32G4xx_HAL_Driver/Src/stm32g4xx_hal_tim.c **** #if (USE_HAL_TIM_REGISTER_CALLBACKS == 1)
 686:Drivers/STM32G4xx_HAL_Driver/Src/stm32g4xx_hal_tim.c ****     /* Reset interrupt callbacks to legacy weak callbacks */
 687:Drivers/STM32G4xx_HAL_Driver/Src/stm32g4xx_hal_tim.c ****     TIM_ResetCallback(htim);
 688:Drivers/STM32G4xx_HAL_Driver/Src/stm32g4xx_hal_tim.c **** 
 689:Drivers/STM32G4xx_HAL_Driver/Src/stm32g4xx_hal_tim.c ****     if (htim->OC_MspInitCallback == NULL)
 690:Drivers/STM32G4xx_HAL_Driver/Src/stm32g4xx_hal_tim.c ****     {
 691:Drivers/STM32G4xx_HAL_Driver/Src/stm32g4xx_hal_tim.c ****       htim->OC_MspInitCallback = HAL_TIM_OC_MspInit;
 692:Drivers/STM32G4xx_HAL_Driver/Src/stm32g4xx_hal_tim.c ****     }
 693:Drivers/STM32G4xx_HAL_Driver/Src/stm32g4xx_hal_tim.c ****     /* Init the low level hardware : GPIO, CLOCK, NVIC */
 694:Drivers/STM32G4xx_HAL_Driver/Src/stm32g4xx_hal_tim.c ****     htim->OC_MspInitCallback(htim);
 695:Drivers/STM32G4xx_HAL_Driver/Src/stm32g4xx_hal_tim.c **** #else
 696:Drivers/STM32G4xx_HAL_Driver/Src/stm32g4xx_hal_tim.c ****     /* Init the low level hardware : GPIO, CLOCK, NVIC and DMA */
 697:Drivers/STM32G4xx_HAL_Driver/Src/stm32g4xx_hal_tim.c ****     HAL_TIM_OC_MspInit(htim);
 698:Drivers/STM32G4xx_HAL_Driver/Src/stm32g4xx_hal_tim.c **** #endif /* USE_HAL_TIM_REGISTER_CALLBACKS */
 699:Drivers/STM32G4xx_HAL_Driver/Src/stm32g4xx_hal_tim.c ****   }
 700:Drivers/STM32G4xx_HAL_Driver/Src/stm32g4xx_hal_tim.c **** 
 701:Drivers/STM32G4xx_HAL_Driver/Src/stm32g4xx_hal_tim.c ****   /* Set the TIM state */
 702:Drivers/STM32G4xx_HAL_Driver/Src/stm32g4xx_hal_tim.c ****   htim->State = HAL_TIM_STATE_BUSY;
 703:Drivers/STM32G4xx_HAL_Driver/Src/stm32g4xx_hal_tim.c **** 
 704:Drivers/STM32G4xx_HAL_Driver/Src/stm32g4xx_hal_tim.c ****   /* Init the base time for the Output Compare */
 705:Drivers/STM32G4xx_HAL_Driver/Src/stm32g4xx_hal_tim.c ****   TIM_Base_SetConfig(htim->Instance,  &htim->Init);
 706:Drivers/STM32G4xx_HAL_Driver/Src/stm32g4xx_hal_tim.c **** 
 707:Drivers/STM32G4xx_HAL_Driver/Src/stm32g4xx_hal_tim.c ****   /* Initialize the DMA burst operation state */
 708:Drivers/STM32G4xx_HAL_Driver/Src/stm32g4xx_hal_tim.c ****   htim->DMABurstState = HAL_DMA_BURST_STATE_READY;
 709:Drivers/STM32G4xx_HAL_Driver/Src/stm32g4xx_hal_tim.c **** 
 710:Drivers/STM32G4xx_HAL_Driver/Src/stm32g4xx_hal_tim.c ****   /* Initialize the TIM channels state */
 711:Drivers/STM32G4xx_HAL_Driver/Src/stm32g4xx_hal_tim.c ****   TIM_CHANNEL_STATE_SET_ALL(htim, HAL_TIM_CHANNEL_STATE_READY);
 712:Drivers/STM32G4xx_HAL_Driver/Src/stm32g4xx_hal_tim.c ****   TIM_CHANNEL_N_STATE_SET_ALL(htim, HAL_TIM_CHANNEL_STATE_READY);
 713:Drivers/STM32G4xx_HAL_Driver/Src/stm32g4xx_hal_tim.c **** 
 714:Drivers/STM32G4xx_HAL_Driver/Src/stm32g4xx_hal_tim.c ****   /* Initialize the TIM state*/
 715:Drivers/STM32G4xx_HAL_Driver/Src/stm32g4xx_hal_tim.c ****   htim->State = HAL_TIM_STATE_READY;
 716:Drivers/STM32G4xx_HAL_Driver/Src/stm32g4xx_hal_tim.c **** 
 717:Drivers/STM32G4xx_HAL_Driver/Src/stm32g4xx_hal_tim.c ****   return HAL_OK;
 718:Drivers/STM32G4xx_HAL_Driver/Src/stm32g4xx_hal_tim.c **** }
 719:Drivers/STM32G4xx_HAL_Driver/Src/stm32g4xx_hal_tim.c **** 
 720:Drivers/STM32G4xx_HAL_Driver/Src/stm32g4xx_hal_tim.c **** /**
 721:Drivers/STM32G4xx_HAL_Driver/Src/stm32g4xx_hal_tim.c ****   * @brief  DeInitializes the TIM peripheral
 722:Drivers/STM32G4xx_HAL_Driver/Src/stm32g4xx_hal_tim.c ****   * @param  htim TIM Output Compare handle
 723:Drivers/STM32G4xx_HAL_Driver/Src/stm32g4xx_hal_tim.c ****   * @retval HAL status
 724:Drivers/STM32G4xx_HAL_Driver/Src/stm32g4xx_hal_tim.c ****   */
 725:Drivers/STM32G4xx_HAL_Driver/Src/stm32g4xx_hal_tim.c **** HAL_StatusTypeDef HAL_TIM_OC_DeInit(TIM_HandleTypeDef *htim)
 726:Drivers/STM32G4xx_HAL_Driver/Src/stm32g4xx_hal_tim.c **** {
 727:Drivers/STM32G4xx_HAL_Driver/Src/stm32g4xx_hal_tim.c ****   /* Check the parameters */
 728:Drivers/STM32G4xx_HAL_Driver/Src/stm32g4xx_hal_tim.c ****   assert_param(IS_TIM_INSTANCE(htim->Instance));
 729:Drivers/STM32G4xx_HAL_Driver/Src/stm32g4xx_hal_tim.c **** 
 730:Drivers/STM32G4xx_HAL_Driver/Src/stm32g4xx_hal_tim.c ****   htim->State = HAL_TIM_STATE_BUSY;
 731:Drivers/STM32G4xx_HAL_Driver/Src/stm32g4xx_hal_tim.c **** 
 732:Drivers/STM32G4xx_HAL_Driver/Src/stm32g4xx_hal_tim.c ****   /* Disable the TIM Peripheral Clock */
ARM GAS  /tmp/ccKRAx5z.s 			page 15


 733:Drivers/STM32G4xx_HAL_Driver/Src/stm32g4xx_hal_tim.c ****   __HAL_TIM_DISABLE(htim);
 734:Drivers/STM32G4xx_HAL_Driver/Src/stm32g4xx_hal_tim.c **** 
 735:Drivers/STM32G4xx_HAL_Driver/Src/stm32g4xx_hal_tim.c **** #if (USE_HAL_TIM_REGISTER_CALLBACKS == 1)
 736:Drivers/STM32G4xx_HAL_Driver/Src/stm32g4xx_hal_tim.c ****   if (htim->OC_MspDeInitCallback == NULL)
 737:Drivers/STM32G4xx_HAL_Driver/Src/stm32g4xx_hal_tim.c ****   {
 738:Drivers/STM32G4xx_HAL_Driver/Src/stm32g4xx_hal_tim.c ****     htim->OC_MspDeInitCallback = HAL_TIM_OC_MspDeInit;
 739:Drivers/STM32G4xx_HAL_Driver/Src/stm32g4xx_hal_tim.c ****   }
 740:Drivers/STM32G4xx_HAL_Driver/Src/stm32g4xx_hal_tim.c ****   /* DeInit the low level hardware */
 741:Drivers/STM32G4xx_HAL_Driver/Src/stm32g4xx_hal_tim.c ****   htim->OC_MspDeInitCallback(htim);
 742:Drivers/STM32G4xx_HAL_Driver/Src/stm32g4xx_hal_tim.c **** #else
 743:Drivers/STM32G4xx_HAL_Driver/Src/stm32g4xx_hal_tim.c ****   /* DeInit the low level hardware: GPIO, CLOCK, NVIC and DMA */
 744:Drivers/STM32G4xx_HAL_Driver/Src/stm32g4xx_hal_tim.c ****   HAL_TIM_OC_MspDeInit(htim);
 745:Drivers/STM32G4xx_HAL_Driver/Src/stm32g4xx_hal_tim.c **** #endif /* USE_HAL_TIM_REGISTER_CALLBACKS */
 746:Drivers/STM32G4xx_HAL_Driver/Src/stm32g4xx_hal_tim.c **** 
 747:Drivers/STM32G4xx_HAL_Driver/Src/stm32g4xx_hal_tim.c ****   /* Change the DMA burst operation state */
 748:Drivers/STM32G4xx_HAL_Driver/Src/stm32g4xx_hal_tim.c ****   htim->DMABurstState = HAL_DMA_BURST_STATE_RESET;
 749:Drivers/STM32G4xx_HAL_Driver/Src/stm32g4xx_hal_tim.c **** 
 750:Drivers/STM32G4xx_HAL_Driver/Src/stm32g4xx_hal_tim.c ****   /* Change the TIM channels state */
 751:Drivers/STM32G4xx_HAL_Driver/Src/stm32g4xx_hal_tim.c ****   TIM_CHANNEL_STATE_SET_ALL(htim, HAL_TIM_CHANNEL_STATE_RESET);
 752:Drivers/STM32G4xx_HAL_Driver/Src/stm32g4xx_hal_tim.c ****   TIM_CHANNEL_N_STATE_SET_ALL(htim, HAL_TIM_CHANNEL_STATE_RESET);
 753:Drivers/STM32G4xx_HAL_Driver/Src/stm32g4xx_hal_tim.c **** 
 754:Drivers/STM32G4xx_HAL_Driver/Src/stm32g4xx_hal_tim.c ****   /* Change TIM state */
 755:Drivers/STM32G4xx_HAL_Driver/Src/stm32g4xx_hal_tim.c ****   htim->State = HAL_TIM_STATE_RESET;
 756:Drivers/STM32G4xx_HAL_Driver/Src/stm32g4xx_hal_tim.c **** 
 757:Drivers/STM32G4xx_HAL_Driver/Src/stm32g4xx_hal_tim.c ****   /* Release Lock */
 758:Drivers/STM32G4xx_HAL_Driver/Src/stm32g4xx_hal_tim.c ****   __HAL_UNLOCK(htim);
 759:Drivers/STM32G4xx_HAL_Driver/Src/stm32g4xx_hal_tim.c **** 
 760:Drivers/STM32G4xx_HAL_Driver/Src/stm32g4xx_hal_tim.c ****   return HAL_OK;
 761:Drivers/STM32G4xx_HAL_Driver/Src/stm32g4xx_hal_tim.c **** }
 762:Drivers/STM32G4xx_HAL_Driver/Src/stm32g4xx_hal_tim.c **** 
 763:Drivers/STM32G4xx_HAL_Driver/Src/stm32g4xx_hal_tim.c **** /**
 764:Drivers/STM32G4xx_HAL_Driver/Src/stm32g4xx_hal_tim.c ****   * @brief  Initializes the TIM Output Compare MSP.
 765:Drivers/STM32G4xx_HAL_Driver/Src/stm32g4xx_hal_tim.c ****   * @param  htim TIM Output Compare handle
 766:Drivers/STM32G4xx_HAL_Driver/Src/stm32g4xx_hal_tim.c ****   * @retval None
 767:Drivers/STM32G4xx_HAL_Driver/Src/stm32g4xx_hal_tim.c ****   */
 768:Drivers/STM32G4xx_HAL_Driver/Src/stm32g4xx_hal_tim.c **** __weak void HAL_TIM_OC_MspInit(TIM_HandleTypeDef *htim)
 769:Drivers/STM32G4xx_HAL_Driver/Src/stm32g4xx_hal_tim.c **** {
  72              		.loc 1 769 1 is_stmt 1 view -0
  73              		.cfi_startproc
  74              		@ args = 0, pretend = 0, frame = 0
  75              		@ frame_needed = 0, uses_anonymous_args = 0
  76              		@ link register save eliminated.
 770:Drivers/STM32G4xx_HAL_Driver/Src/stm32g4xx_hal_tim.c ****   /* Prevent unused argument(s) compilation warning */
 771:Drivers/STM32G4xx_HAL_Driver/Src/stm32g4xx_hal_tim.c ****   UNUSED(htim);
  77              		.loc 1 771 3 view .LVU7
 772:Drivers/STM32G4xx_HAL_Driver/Src/stm32g4xx_hal_tim.c **** 
 773:Drivers/STM32G4xx_HAL_Driver/Src/stm32g4xx_hal_tim.c ****   /* NOTE : This function should not be modified, when the callback is needed,
 774:Drivers/STM32G4xx_HAL_Driver/Src/stm32g4xx_hal_tim.c ****             the HAL_TIM_OC_MspInit could be implemented in the user file
 775:Drivers/STM32G4xx_HAL_Driver/Src/stm32g4xx_hal_tim.c ****    */
 776:Drivers/STM32G4xx_HAL_Driver/Src/stm32g4xx_hal_tim.c **** }
  78              		.loc 1 776 1 is_stmt 0 view .LVU8
  79 0000 7047     		bx	lr
  80              		.cfi_endproc
  81              	.LFE341:
  83              		.section	.text.HAL_TIM_OC_MspDeInit,"ax",%progbits
  84              		.align	1
  85              		.weak	HAL_TIM_OC_MspDeInit
ARM GAS  /tmp/ccKRAx5z.s 			page 16


  86              		.syntax unified
  87              		.thumb
  88              		.thumb_func
  90              	HAL_TIM_OC_MspDeInit:
  91              	.LVL3:
  92              	.LFB342:
 777:Drivers/STM32G4xx_HAL_Driver/Src/stm32g4xx_hal_tim.c **** 
 778:Drivers/STM32G4xx_HAL_Driver/Src/stm32g4xx_hal_tim.c **** /**
 779:Drivers/STM32G4xx_HAL_Driver/Src/stm32g4xx_hal_tim.c ****   * @brief  DeInitializes TIM Output Compare MSP.
 780:Drivers/STM32G4xx_HAL_Driver/Src/stm32g4xx_hal_tim.c ****   * @param  htim TIM Output Compare handle
 781:Drivers/STM32G4xx_HAL_Driver/Src/stm32g4xx_hal_tim.c ****   * @retval None
 782:Drivers/STM32G4xx_HAL_Driver/Src/stm32g4xx_hal_tim.c ****   */
 783:Drivers/STM32G4xx_HAL_Driver/Src/stm32g4xx_hal_tim.c **** __weak void HAL_TIM_OC_MspDeInit(TIM_HandleTypeDef *htim)
 784:Drivers/STM32G4xx_HAL_Driver/Src/stm32g4xx_hal_tim.c **** {
  93              		.loc 1 784 1 is_stmt 1 view -0
  94              		.cfi_startproc
  95              		@ args = 0, pretend = 0, frame = 0
  96              		@ frame_needed = 0, uses_anonymous_args = 0
  97              		@ link register save eliminated.
 785:Drivers/STM32G4xx_HAL_Driver/Src/stm32g4xx_hal_tim.c ****   /* Prevent unused argument(s) compilation warning */
 786:Drivers/STM32G4xx_HAL_Driver/Src/stm32g4xx_hal_tim.c ****   UNUSED(htim);
  98              		.loc 1 786 3 view .LVU10
 787:Drivers/STM32G4xx_HAL_Driver/Src/stm32g4xx_hal_tim.c **** 
 788:Drivers/STM32G4xx_HAL_Driver/Src/stm32g4xx_hal_tim.c ****   /* NOTE : This function should not be modified, when the callback is needed,
 789:Drivers/STM32G4xx_HAL_Driver/Src/stm32g4xx_hal_tim.c ****             the HAL_TIM_OC_MspDeInit could be implemented in the user file
 790:Drivers/STM32G4xx_HAL_Driver/Src/stm32g4xx_hal_tim.c ****    */
 791:Drivers/STM32G4xx_HAL_Driver/Src/stm32g4xx_hal_tim.c **** }
  99              		.loc 1 791 1 is_stmt 0 view .LVU11
 100 0000 7047     		bx	lr
 101              		.cfi_endproc
 102              	.LFE342:
 104              		.section	.text.HAL_TIM_PWM_MspInit,"ax",%progbits
 105              		.align	1
 106              		.weak	HAL_TIM_PWM_MspInit
 107              		.syntax unified
 108              		.thumb
 109              		.thumb_func
 111              	HAL_TIM_PWM_MspInit:
 112              	.LVL4:
 113              	.LFB351:
 792:Drivers/STM32G4xx_HAL_Driver/Src/stm32g4xx_hal_tim.c **** 
 793:Drivers/STM32G4xx_HAL_Driver/Src/stm32g4xx_hal_tim.c **** /**
 794:Drivers/STM32G4xx_HAL_Driver/Src/stm32g4xx_hal_tim.c ****   * @brief  Starts the TIM Output Compare signal generation.
 795:Drivers/STM32G4xx_HAL_Driver/Src/stm32g4xx_hal_tim.c ****   * @param  htim TIM Output Compare handle
 796:Drivers/STM32G4xx_HAL_Driver/Src/stm32g4xx_hal_tim.c ****   * @param  Channel TIM Channel to be enabled
 797:Drivers/STM32G4xx_HAL_Driver/Src/stm32g4xx_hal_tim.c ****   *          This parameter can be one of the following values:
 798:Drivers/STM32G4xx_HAL_Driver/Src/stm32g4xx_hal_tim.c ****   *            @arg TIM_CHANNEL_1: TIM Channel 1 selected
 799:Drivers/STM32G4xx_HAL_Driver/Src/stm32g4xx_hal_tim.c ****   *            @arg TIM_CHANNEL_2: TIM Channel 2 selected
 800:Drivers/STM32G4xx_HAL_Driver/Src/stm32g4xx_hal_tim.c ****   *            @arg TIM_CHANNEL_3: TIM Channel 3 selected
 801:Drivers/STM32G4xx_HAL_Driver/Src/stm32g4xx_hal_tim.c ****   *            @arg TIM_CHANNEL_4: TIM Channel 4 selected
 802:Drivers/STM32G4xx_HAL_Driver/Src/stm32g4xx_hal_tim.c ****   *            @arg TIM_CHANNEL_5: TIM Channel 5 selected
 803:Drivers/STM32G4xx_HAL_Driver/Src/stm32g4xx_hal_tim.c ****   *            @arg TIM_CHANNEL_6: TIM Channel 6 selected
 804:Drivers/STM32G4xx_HAL_Driver/Src/stm32g4xx_hal_tim.c ****   * @retval HAL status
 805:Drivers/STM32G4xx_HAL_Driver/Src/stm32g4xx_hal_tim.c ****   */
 806:Drivers/STM32G4xx_HAL_Driver/Src/stm32g4xx_hal_tim.c **** HAL_StatusTypeDef HAL_TIM_OC_Start(TIM_HandleTypeDef *htim, uint32_t Channel)
 807:Drivers/STM32G4xx_HAL_Driver/Src/stm32g4xx_hal_tim.c **** {
 808:Drivers/STM32G4xx_HAL_Driver/Src/stm32g4xx_hal_tim.c ****   uint32_t tmpsmcr;
ARM GAS  /tmp/ccKRAx5z.s 			page 17


 809:Drivers/STM32G4xx_HAL_Driver/Src/stm32g4xx_hal_tim.c **** 
 810:Drivers/STM32G4xx_HAL_Driver/Src/stm32g4xx_hal_tim.c ****   /* Check the parameters */
 811:Drivers/STM32G4xx_HAL_Driver/Src/stm32g4xx_hal_tim.c ****   assert_param(IS_TIM_CCX_INSTANCE(htim->Instance, Channel));
 812:Drivers/STM32G4xx_HAL_Driver/Src/stm32g4xx_hal_tim.c **** 
 813:Drivers/STM32G4xx_HAL_Driver/Src/stm32g4xx_hal_tim.c ****   /* Check the TIM channel state */
 814:Drivers/STM32G4xx_HAL_Driver/Src/stm32g4xx_hal_tim.c ****   if (TIM_CHANNEL_STATE_GET(htim, Channel) != HAL_TIM_CHANNEL_STATE_READY)
 815:Drivers/STM32G4xx_HAL_Driver/Src/stm32g4xx_hal_tim.c ****   {
 816:Drivers/STM32G4xx_HAL_Driver/Src/stm32g4xx_hal_tim.c ****     return HAL_ERROR;
 817:Drivers/STM32G4xx_HAL_Driver/Src/stm32g4xx_hal_tim.c ****   }
 818:Drivers/STM32G4xx_HAL_Driver/Src/stm32g4xx_hal_tim.c **** 
 819:Drivers/STM32G4xx_HAL_Driver/Src/stm32g4xx_hal_tim.c ****   /* Set the TIM channel state */
 820:Drivers/STM32G4xx_HAL_Driver/Src/stm32g4xx_hal_tim.c ****   TIM_CHANNEL_STATE_SET(htim, Channel, HAL_TIM_CHANNEL_STATE_BUSY);
 821:Drivers/STM32G4xx_HAL_Driver/Src/stm32g4xx_hal_tim.c **** 
 822:Drivers/STM32G4xx_HAL_Driver/Src/stm32g4xx_hal_tim.c ****   /* Enable the Output compare channel */
 823:Drivers/STM32G4xx_HAL_Driver/Src/stm32g4xx_hal_tim.c ****   TIM_CCxChannelCmd(htim->Instance, Channel, TIM_CCx_ENABLE);
 824:Drivers/STM32G4xx_HAL_Driver/Src/stm32g4xx_hal_tim.c **** 
 825:Drivers/STM32G4xx_HAL_Driver/Src/stm32g4xx_hal_tim.c ****   if (IS_TIM_BREAK_INSTANCE(htim->Instance) != RESET)
 826:Drivers/STM32G4xx_HAL_Driver/Src/stm32g4xx_hal_tim.c ****   {
 827:Drivers/STM32G4xx_HAL_Driver/Src/stm32g4xx_hal_tim.c ****     /* Enable the main output */
 828:Drivers/STM32G4xx_HAL_Driver/Src/stm32g4xx_hal_tim.c ****     __HAL_TIM_MOE_ENABLE(htim);
 829:Drivers/STM32G4xx_HAL_Driver/Src/stm32g4xx_hal_tim.c ****   }
 830:Drivers/STM32G4xx_HAL_Driver/Src/stm32g4xx_hal_tim.c **** 
 831:Drivers/STM32G4xx_HAL_Driver/Src/stm32g4xx_hal_tim.c ****   /* Enable the Peripheral, except in trigger mode where enable is automatically done with trigger 
 832:Drivers/STM32G4xx_HAL_Driver/Src/stm32g4xx_hal_tim.c ****   if (IS_TIM_SLAVE_INSTANCE(htim->Instance))
 833:Drivers/STM32G4xx_HAL_Driver/Src/stm32g4xx_hal_tim.c ****   {
 834:Drivers/STM32G4xx_HAL_Driver/Src/stm32g4xx_hal_tim.c ****     tmpsmcr = htim->Instance->SMCR & TIM_SMCR_SMS;
 835:Drivers/STM32G4xx_HAL_Driver/Src/stm32g4xx_hal_tim.c ****     if (!IS_TIM_SLAVEMODE_TRIGGER_ENABLED(tmpsmcr))
 836:Drivers/STM32G4xx_HAL_Driver/Src/stm32g4xx_hal_tim.c ****     {
 837:Drivers/STM32G4xx_HAL_Driver/Src/stm32g4xx_hal_tim.c ****       __HAL_TIM_ENABLE(htim);
 838:Drivers/STM32G4xx_HAL_Driver/Src/stm32g4xx_hal_tim.c ****     }
 839:Drivers/STM32G4xx_HAL_Driver/Src/stm32g4xx_hal_tim.c ****   }
 840:Drivers/STM32G4xx_HAL_Driver/Src/stm32g4xx_hal_tim.c ****   else
 841:Drivers/STM32G4xx_HAL_Driver/Src/stm32g4xx_hal_tim.c ****   {
 842:Drivers/STM32G4xx_HAL_Driver/Src/stm32g4xx_hal_tim.c ****     __HAL_TIM_ENABLE(htim);
 843:Drivers/STM32G4xx_HAL_Driver/Src/stm32g4xx_hal_tim.c ****   }
 844:Drivers/STM32G4xx_HAL_Driver/Src/stm32g4xx_hal_tim.c **** 
 845:Drivers/STM32G4xx_HAL_Driver/Src/stm32g4xx_hal_tim.c ****   /* Return function status */
 846:Drivers/STM32G4xx_HAL_Driver/Src/stm32g4xx_hal_tim.c ****   return HAL_OK;
 847:Drivers/STM32G4xx_HAL_Driver/Src/stm32g4xx_hal_tim.c **** }
 848:Drivers/STM32G4xx_HAL_Driver/Src/stm32g4xx_hal_tim.c **** 
 849:Drivers/STM32G4xx_HAL_Driver/Src/stm32g4xx_hal_tim.c **** /**
 850:Drivers/STM32G4xx_HAL_Driver/Src/stm32g4xx_hal_tim.c ****   * @brief  Stops the TIM Output Compare signal generation.
 851:Drivers/STM32G4xx_HAL_Driver/Src/stm32g4xx_hal_tim.c ****   * @param  htim TIM Output Compare handle
 852:Drivers/STM32G4xx_HAL_Driver/Src/stm32g4xx_hal_tim.c ****   * @param  Channel TIM Channel to be disabled
 853:Drivers/STM32G4xx_HAL_Driver/Src/stm32g4xx_hal_tim.c ****   *          This parameter can be one of the following values:
 854:Drivers/STM32G4xx_HAL_Driver/Src/stm32g4xx_hal_tim.c ****   *            @arg TIM_CHANNEL_1: TIM Channel 1 selected
 855:Drivers/STM32G4xx_HAL_Driver/Src/stm32g4xx_hal_tim.c ****   *            @arg TIM_CHANNEL_2: TIM Channel 2 selected
 856:Drivers/STM32G4xx_HAL_Driver/Src/stm32g4xx_hal_tim.c ****   *            @arg TIM_CHANNEL_3: TIM Channel 3 selected
 857:Drivers/STM32G4xx_HAL_Driver/Src/stm32g4xx_hal_tim.c ****   *            @arg TIM_CHANNEL_4: TIM Channel 4 selected
 858:Drivers/STM32G4xx_HAL_Driver/Src/stm32g4xx_hal_tim.c ****   *            @arg TIM_CHANNEL_5: TIM Channel 5 selected
 859:Drivers/STM32G4xx_HAL_Driver/Src/stm32g4xx_hal_tim.c ****   *            @arg TIM_CHANNEL_6: TIM Channel 6 selected
 860:Drivers/STM32G4xx_HAL_Driver/Src/stm32g4xx_hal_tim.c ****   * @retval HAL status
 861:Drivers/STM32G4xx_HAL_Driver/Src/stm32g4xx_hal_tim.c ****   */
 862:Drivers/STM32G4xx_HAL_Driver/Src/stm32g4xx_hal_tim.c **** HAL_StatusTypeDef HAL_TIM_OC_Stop(TIM_HandleTypeDef *htim, uint32_t Channel)
 863:Drivers/STM32G4xx_HAL_Driver/Src/stm32g4xx_hal_tim.c **** {
 864:Drivers/STM32G4xx_HAL_Driver/Src/stm32g4xx_hal_tim.c ****   /* Check the parameters */
 865:Drivers/STM32G4xx_HAL_Driver/Src/stm32g4xx_hal_tim.c ****   assert_param(IS_TIM_CCX_INSTANCE(htim->Instance, Channel));
ARM GAS  /tmp/ccKRAx5z.s 			page 18


 866:Drivers/STM32G4xx_HAL_Driver/Src/stm32g4xx_hal_tim.c **** 
 867:Drivers/STM32G4xx_HAL_Driver/Src/stm32g4xx_hal_tim.c ****   /* Disable the Output compare channel */
 868:Drivers/STM32G4xx_HAL_Driver/Src/stm32g4xx_hal_tim.c ****   TIM_CCxChannelCmd(htim->Instance, Channel, TIM_CCx_DISABLE);
 869:Drivers/STM32G4xx_HAL_Driver/Src/stm32g4xx_hal_tim.c **** 
 870:Drivers/STM32G4xx_HAL_Driver/Src/stm32g4xx_hal_tim.c ****   if (IS_TIM_BREAK_INSTANCE(htim->Instance) != RESET)
 871:Drivers/STM32G4xx_HAL_Driver/Src/stm32g4xx_hal_tim.c ****   {
 872:Drivers/STM32G4xx_HAL_Driver/Src/stm32g4xx_hal_tim.c ****     /* Disable the Main Output */
 873:Drivers/STM32G4xx_HAL_Driver/Src/stm32g4xx_hal_tim.c ****     __HAL_TIM_MOE_DISABLE(htim);
 874:Drivers/STM32G4xx_HAL_Driver/Src/stm32g4xx_hal_tim.c ****   }
 875:Drivers/STM32G4xx_HAL_Driver/Src/stm32g4xx_hal_tim.c **** 
 876:Drivers/STM32G4xx_HAL_Driver/Src/stm32g4xx_hal_tim.c ****   /* Disable the Peripheral */
 877:Drivers/STM32G4xx_HAL_Driver/Src/stm32g4xx_hal_tim.c ****   __HAL_TIM_DISABLE(htim);
 878:Drivers/STM32G4xx_HAL_Driver/Src/stm32g4xx_hal_tim.c **** 
 879:Drivers/STM32G4xx_HAL_Driver/Src/stm32g4xx_hal_tim.c ****   /* Set the TIM channel state */
 880:Drivers/STM32G4xx_HAL_Driver/Src/stm32g4xx_hal_tim.c ****   TIM_CHANNEL_STATE_SET(htim, Channel, HAL_TIM_CHANNEL_STATE_READY);
 881:Drivers/STM32G4xx_HAL_Driver/Src/stm32g4xx_hal_tim.c **** 
 882:Drivers/STM32G4xx_HAL_Driver/Src/stm32g4xx_hal_tim.c ****   /* Return function status */
 883:Drivers/STM32G4xx_HAL_Driver/Src/stm32g4xx_hal_tim.c ****   return HAL_OK;
 884:Drivers/STM32G4xx_HAL_Driver/Src/stm32g4xx_hal_tim.c **** }
 885:Drivers/STM32G4xx_HAL_Driver/Src/stm32g4xx_hal_tim.c **** 
 886:Drivers/STM32G4xx_HAL_Driver/Src/stm32g4xx_hal_tim.c **** /**
 887:Drivers/STM32G4xx_HAL_Driver/Src/stm32g4xx_hal_tim.c ****   * @brief  Starts the TIM Output Compare signal generation in interrupt mode.
 888:Drivers/STM32G4xx_HAL_Driver/Src/stm32g4xx_hal_tim.c ****   * @param  htim TIM Output Compare handle
 889:Drivers/STM32G4xx_HAL_Driver/Src/stm32g4xx_hal_tim.c ****   * @param  Channel TIM Channel to be enabled
 890:Drivers/STM32G4xx_HAL_Driver/Src/stm32g4xx_hal_tim.c ****   *          This parameter can be one of the following values:
 891:Drivers/STM32G4xx_HAL_Driver/Src/stm32g4xx_hal_tim.c ****   *            @arg TIM_CHANNEL_1: TIM Channel 1 selected
 892:Drivers/STM32G4xx_HAL_Driver/Src/stm32g4xx_hal_tim.c ****   *            @arg TIM_CHANNEL_2: TIM Channel 2 selected
 893:Drivers/STM32G4xx_HAL_Driver/Src/stm32g4xx_hal_tim.c ****   *            @arg TIM_CHANNEL_3: TIM Channel 3 selected
 894:Drivers/STM32G4xx_HAL_Driver/Src/stm32g4xx_hal_tim.c ****   *            @arg TIM_CHANNEL_4: TIM Channel 4 selected
 895:Drivers/STM32G4xx_HAL_Driver/Src/stm32g4xx_hal_tim.c ****   * @retval HAL status
 896:Drivers/STM32G4xx_HAL_Driver/Src/stm32g4xx_hal_tim.c ****   */
 897:Drivers/STM32G4xx_HAL_Driver/Src/stm32g4xx_hal_tim.c **** HAL_StatusTypeDef HAL_TIM_OC_Start_IT(TIM_HandleTypeDef *htim, uint32_t Channel)
 898:Drivers/STM32G4xx_HAL_Driver/Src/stm32g4xx_hal_tim.c **** {
 899:Drivers/STM32G4xx_HAL_Driver/Src/stm32g4xx_hal_tim.c ****   HAL_StatusTypeDef status = HAL_OK;
 900:Drivers/STM32G4xx_HAL_Driver/Src/stm32g4xx_hal_tim.c ****   uint32_t tmpsmcr;
 901:Drivers/STM32G4xx_HAL_Driver/Src/stm32g4xx_hal_tim.c **** 
 902:Drivers/STM32G4xx_HAL_Driver/Src/stm32g4xx_hal_tim.c ****   /* Check the parameters */
 903:Drivers/STM32G4xx_HAL_Driver/Src/stm32g4xx_hal_tim.c ****   assert_param(IS_TIM_CCX_CHANNEL(htim->Instance, Channel));
 904:Drivers/STM32G4xx_HAL_Driver/Src/stm32g4xx_hal_tim.c **** 
 905:Drivers/STM32G4xx_HAL_Driver/Src/stm32g4xx_hal_tim.c ****   /* Check the TIM channel state */
 906:Drivers/STM32G4xx_HAL_Driver/Src/stm32g4xx_hal_tim.c ****   if (TIM_CHANNEL_STATE_GET(htim, Channel) != HAL_TIM_CHANNEL_STATE_READY)
 907:Drivers/STM32G4xx_HAL_Driver/Src/stm32g4xx_hal_tim.c ****   {
 908:Drivers/STM32G4xx_HAL_Driver/Src/stm32g4xx_hal_tim.c ****     return HAL_ERROR;
 909:Drivers/STM32G4xx_HAL_Driver/Src/stm32g4xx_hal_tim.c ****   }
 910:Drivers/STM32G4xx_HAL_Driver/Src/stm32g4xx_hal_tim.c **** 
 911:Drivers/STM32G4xx_HAL_Driver/Src/stm32g4xx_hal_tim.c ****   /* Set the TIM channel state */
 912:Drivers/STM32G4xx_HAL_Driver/Src/stm32g4xx_hal_tim.c ****   TIM_CHANNEL_STATE_SET(htim, Channel, HAL_TIM_CHANNEL_STATE_BUSY);
 913:Drivers/STM32G4xx_HAL_Driver/Src/stm32g4xx_hal_tim.c **** 
 914:Drivers/STM32G4xx_HAL_Driver/Src/stm32g4xx_hal_tim.c ****   switch (Channel)
 915:Drivers/STM32G4xx_HAL_Driver/Src/stm32g4xx_hal_tim.c ****   {
 916:Drivers/STM32G4xx_HAL_Driver/Src/stm32g4xx_hal_tim.c ****     case TIM_CHANNEL_1:
 917:Drivers/STM32G4xx_HAL_Driver/Src/stm32g4xx_hal_tim.c ****     {
 918:Drivers/STM32G4xx_HAL_Driver/Src/stm32g4xx_hal_tim.c ****       /* Enable the TIM Capture/Compare 1 interrupt */
 919:Drivers/STM32G4xx_HAL_Driver/Src/stm32g4xx_hal_tim.c ****       __HAL_TIM_ENABLE_IT(htim, TIM_IT_CC1);
 920:Drivers/STM32G4xx_HAL_Driver/Src/stm32g4xx_hal_tim.c ****       break;
 921:Drivers/STM32G4xx_HAL_Driver/Src/stm32g4xx_hal_tim.c ****     }
 922:Drivers/STM32G4xx_HAL_Driver/Src/stm32g4xx_hal_tim.c **** 
ARM GAS  /tmp/ccKRAx5z.s 			page 19


 923:Drivers/STM32G4xx_HAL_Driver/Src/stm32g4xx_hal_tim.c ****     case TIM_CHANNEL_2:
 924:Drivers/STM32G4xx_HAL_Driver/Src/stm32g4xx_hal_tim.c ****     {
 925:Drivers/STM32G4xx_HAL_Driver/Src/stm32g4xx_hal_tim.c ****       /* Enable the TIM Capture/Compare 2 interrupt */
 926:Drivers/STM32G4xx_HAL_Driver/Src/stm32g4xx_hal_tim.c ****       __HAL_TIM_ENABLE_IT(htim, TIM_IT_CC2);
 927:Drivers/STM32G4xx_HAL_Driver/Src/stm32g4xx_hal_tim.c ****       break;
 928:Drivers/STM32G4xx_HAL_Driver/Src/stm32g4xx_hal_tim.c ****     }
 929:Drivers/STM32G4xx_HAL_Driver/Src/stm32g4xx_hal_tim.c **** 
 930:Drivers/STM32G4xx_HAL_Driver/Src/stm32g4xx_hal_tim.c ****     case TIM_CHANNEL_3:
 931:Drivers/STM32G4xx_HAL_Driver/Src/stm32g4xx_hal_tim.c ****     {
 932:Drivers/STM32G4xx_HAL_Driver/Src/stm32g4xx_hal_tim.c ****       /* Enable the TIM Capture/Compare 3 interrupt */
 933:Drivers/STM32G4xx_HAL_Driver/Src/stm32g4xx_hal_tim.c ****       __HAL_TIM_ENABLE_IT(htim, TIM_IT_CC3);
 934:Drivers/STM32G4xx_HAL_Driver/Src/stm32g4xx_hal_tim.c ****       break;
 935:Drivers/STM32G4xx_HAL_Driver/Src/stm32g4xx_hal_tim.c ****     }
 936:Drivers/STM32G4xx_HAL_Driver/Src/stm32g4xx_hal_tim.c **** 
 937:Drivers/STM32G4xx_HAL_Driver/Src/stm32g4xx_hal_tim.c ****     case TIM_CHANNEL_4:
 938:Drivers/STM32G4xx_HAL_Driver/Src/stm32g4xx_hal_tim.c ****     {
 939:Drivers/STM32G4xx_HAL_Driver/Src/stm32g4xx_hal_tim.c ****       /* Enable the TIM Capture/Compare 4 interrupt */
 940:Drivers/STM32G4xx_HAL_Driver/Src/stm32g4xx_hal_tim.c ****       __HAL_TIM_ENABLE_IT(htim, TIM_IT_CC4);
 941:Drivers/STM32G4xx_HAL_Driver/Src/stm32g4xx_hal_tim.c ****       break;
 942:Drivers/STM32G4xx_HAL_Driver/Src/stm32g4xx_hal_tim.c ****     }
 943:Drivers/STM32G4xx_HAL_Driver/Src/stm32g4xx_hal_tim.c **** 
 944:Drivers/STM32G4xx_HAL_Driver/Src/stm32g4xx_hal_tim.c ****     default:
 945:Drivers/STM32G4xx_HAL_Driver/Src/stm32g4xx_hal_tim.c ****       status = HAL_ERROR;
 946:Drivers/STM32G4xx_HAL_Driver/Src/stm32g4xx_hal_tim.c ****       break;
 947:Drivers/STM32G4xx_HAL_Driver/Src/stm32g4xx_hal_tim.c ****   }
 948:Drivers/STM32G4xx_HAL_Driver/Src/stm32g4xx_hal_tim.c **** 
 949:Drivers/STM32G4xx_HAL_Driver/Src/stm32g4xx_hal_tim.c ****   if (status == HAL_OK)
 950:Drivers/STM32G4xx_HAL_Driver/Src/stm32g4xx_hal_tim.c ****   {
 951:Drivers/STM32G4xx_HAL_Driver/Src/stm32g4xx_hal_tim.c ****     /* Enable the Output compare channel */
 952:Drivers/STM32G4xx_HAL_Driver/Src/stm32g4xx_hal_tim.c ****     TIM_CCxChannelCmd(htim->Instance, Channel, TIM_CCx_ENABLE);
 953:Drivers/STM32G4xx_HAL_Driver/Src/stm32g4xx_hal_tim.c **** 
 954:Drivers/STM32G4xx_HAL_Driver/Src/stm32g4xx_hal_tim.c ****     if (IS_TIM_BREAK_INSTANCE(htim->Instance) != RESET)
 955:Drivers/STM32G4xx_HAL_Driver/Src/stm32g4xx_hal_tim.c ****     {
 956:Drivers/STM32G4xx_HAL_Driver/Src/stm32g4xx_hal_tim.c ****       /* Enable the main output */
 957:Drivers/STM32G4xx_HAL_Driver/Src/stm32g4xx_hal_tim.c ****       __HAL_TIM_MOE_ENABLE(htim);
 958:Drivers/STM32G4xx_HAL_Driver/Src/stm32g4xx_hal_tim.c ****     }
 959:Drivers/STM32G4xx_HAL_Driver/Src/stm32g4xx_hal_tim.c **** 
 960:Drivers/STM32G4xx_HAL_Driver/Src/stm32g4xx_hal_tim.c ****     /* Enable the Peripheral, except in trigger mode where enable is automatically done with trigge
 961:Drivers/STM32G4xx_HAL_Driver/Src/stm32g4xx_hal_tim.c ****     if (IS_TIM_SLAVE_INSTANCE(htim->Instance))
 962:Drivers/STM32G4xx_HAL_Driver/Src/stm32g4xx_hal_tim.c ****     {
 963:Drivers/STM32G4xx_HAL_Driver/Src/stm32g4xx_hal_tim.c ****       tmpsmcr = htim->Instance->SMCR & TIM_SMCR_SMS;
 964:Drivers/STM32G4xx_HAL_Driver/Src/stm32g4xx_hal_tim.c ****       if (!IS_TIM_SLAVEMODE_TRIGGER_ENABLED(tmpsmcr))
 965:Drivers/STM32G4xx_HAL_Driver/Src/stm32g4xx_hal_tim.c ****       {
 966:Drivers/STM32G4xx_HAL_Driver/Src/stm32g4xx_hal_tim.c ****         __HAL_TIM_ENABLE(htim);
 967:Drivers/STM32G4xx_HAL_Driver/Src/stm32g4xx_hal_tim.c ****       }
 968:Drivers/STM32G4xx_HAL_Driver/Src/stm32g4xx_hal_tim.c ****     }
 969:Drivers/STM32G4xx_HAL_Driver/Src/stm32g4xx_hal_tim.c ****     else
 970:Drivers/STM32G4xx_HAL_Driver/Src/stm32g4xx_hal_tim.c ****     {
 971:Drivers/STM32G4xx_HAL_Driver/Src/stm32g4xx_hal_tim.c ****       __HAL_TIM_ENABLE(htim);
 972:Drivers/STM32G4xx_HAL_Driver/Src/stm32g4xx_hal_tim.c ****     }
 973:Drivers/STM32G4xx_HAL_Driver/Src/stm32g4xx_hal_tim.c ****   }
 974:Drivers/STM32G4xx_HAL_Driver/Src/stm32g4xx_hal_tim.c **** 
 975:Drivers/STM32G4xx_HAL_Driver/Src/stm32g4xx_hal_tim.c ****   /* Return function status */
 976:Drivers/STM32G4xx_HAL_Driver/Src/stm32g4xx_hal_tim.c ****   return status;
 977:Drivers/STM32G4xx_HAL_Driver/Src/stm32g4xx_hal_tim.c **** }
 978:Drivers/STM32G4xx_HAL_Driver/Src/stm32g4xx_hal_tim.c **** 
 979:Drivers/STM32G4xx_HAL_Driver/Src/stm32g4xx_hal_tim.c **** /**
ARM GAS  /tmp/ccKRAx5z.s 			page 20


 980:Drivers/STM32G4xx_HAL_Driver/Src/stm32g4xx_hal_tim.c ****   * @brief  Stops the TIM Output Compare signal generation in interrupt mode.
 981:Drivers/STM32G4xx_HAL_Driver/Src/stm32g4xx_hal_tim.c ****   * @param  htim TIM Output Compare handle
 982:Drivers/STM32G4xx_HAL_Driver/Src/stm32g4xx_hal_tim.c ****   * @param  Channel TIM Channel to be disabled
 983:Drivers/STM32G4xx_HAL_Driver/Src/stm32g4xx_hal_tim.c ****   *          This parameter can be one of the following values:
 984:Drivers/STM32G4xx_HAL_Driver/Src/stm32g4xx_hal_tim.c ****   *            @arg TIM_CHANNEL_1: TIM Channel 1 selected
 985:Drivers/STM32G4xx_HAL_Driver/Src/stm32g4xx_hal_tim.c ****   *            @arg TIM_CHANNEL_2: TIM Channel 2 selected
 986:Drivers/STM32G4xx_HAL_Driver/Src/stm32g4xx_hal_tim.c ****   *            @arg TIM_CHANNEL_3: TIM Channel 3 selected
 987:Drivers/STM32G4xx_HAL_Driver/Src/stm32g4xx_hal_tim.c ****   *            @arg TIM_CHANNEL_4: TIM Channel 4 selected
 988:Drivers/STM32G4xx_HAL_Driver/Src/stm32g4xx_hal_tim.c ****   * @retval HAL status
 989:Drivers/STM32G4xx_HAL_Driver/Src/stm32g4xx_hal_tim.c ****   */
 990:Drivers/STM32G4xx_HAL_Driver/Src/stm32g4xx_hal_tim.c **** HAL_StatusTypeDef HAL_TIM_OC_Stop_IT(TIM_HandleTypeDef *htim, uint32_t Channel)
 991:Drivers/STM32G4xx_HAL_Driver/Src/stm32g4xx_hal_tim.c **** {
 992:Drivers/STM32G4xx_HAL_Driver/Src/stm32g4xx_hal_tim.c ****   HAL_StatusTypeDef status = HAL_OK;
 993:Drivers/STM32G4xx_HAL_Driver/Src/stm32g4xx_hal_tim.c **** 
 994:Drivers/STM32G4xx_HAL_Driver/Src/stm32g4xx_hal_tim.c ****   /* Check the parameters */
 995:Drivers/STM32G4xx_HAL_Driver/Src/stm32g4xx_hal_tim.c ****   assert_param(IS_TIM_CCX_CHANNEL(htim->Instance, Channel));
 996:Drivers/STM32G4xx_HAL_Driver/Src/stm32g4xx_hal_tim.c **** 
 997:Drivers/STM32G4xx_HAL_Driver/Src/stm32g4xx_hal_tim.c ****   switch (Channel)
 998:Drivers/STM32G4xx_HAL_Driver/Src/stm32g4xx_hal_tim.c ****   {
 999:Drivers/STM32G4xx_HAL_Driver/Src/stm32g4xx_hal_tim.c ****     case TIM_CHANNEL_1:
1000:Drivers/STM32G4xx_HAL_Driver/Src/stm32g4xx_hal_tim.c ****     {
1001:Drivers/STM32G4xx_HAL_Driver/Src/stm32g4xx_hal_tim.c ****       /* Disable the TIM Capture/Compare 1 interrupt */
1002:Drivers/STM32G4xx_HAL_Driver/Src/stm32g4xx_hal_tim.c ****       __HAL_TIM_DISABLE_IT(htim, TIM_IT_CC1);
1003:Drivers/STM32G4xx_HAL_Driver/Src/stm32g4xx_hal_tim.c ****       break;
1004:Drivers/STM32G4xx_HAL_Driver/Src/stm32g4xx_hal_tim.c ****     }
1005:Drivers/STM32G4xx_HAL_Driver/Src/stm32g4xx_hal_tim.c **** 
1006:Drivers/STM32G4xx_HAL_Driver/Src/stm32g4xx_hal_tim.c ****     case TIM_CHANNEL_2:
1007:Drivers/STM32G4xx_HAL_Driver/Src/stm32g4xx_hal_tim.c ****     {
1008:Drivers/STM32G4xx_HAL_Driver/Src/stm32g4xx_hal_tim.c ****       /* Disable the TIM Capture/Compare 2 interrupt */
1009:Drivers/STM32G4xx_HAL_Driver/Src/stm32g4xx_hal_tim.c ****       __HAL_TIM_DISABLE_IT(htim, TIM_IT_CC2);
1010:Drivers/STM32G4xx_HAL_Driver/Src/stm32g4xx_hal_tim.c ****       break;
1011:Drivers/STM32G4xx_HAL_Driver/Src/stm32g4xx_hal_tim.c ****     }
1012:Drivers/STM32G4xx_HAL_Driver/Src/stm32g4xx_hal_tim.c **** 
1013:Drivers/STM32G4xx_HAL_Driver/Src/stm32g4xx_hal_tim.c ****     case TIM_CHANNEL_3:
1014:Drivers/STM32G4xx_HAL_Driver/Src/stm32g4xx_hal_tim.c ****     {
1015:Drivers/STM32G4xx_HAL_Driver/Src/stm32g4xx_hal_tim.c ****       /* Disable the TIM Capture/Compare 3 interrupt */
1016:Drivers/STM32G4xx_HAL_Driver/Src/stm32g4xx_hal_tim.c ****       __HAL_TIM_DISABLE_IT(htim, TIM_IT_CC3);
1017:Drivers/STM32G4xx_HAL_Driver/Src/stm32g4xx_hal_tim.c ****       break;
1018:Drivers/STM32G4xx_HAL_Driver/Src/stm32g4xx_hal_tim.c ****     }
1019:Drivers/STM32G4xx_HAL_Driver/Src/stm32g4xx_hal_tim.c **** 
1020:Drivers/STM32G4xx_HAL_Driver/Src/stm32g4xx_hal_tim.c ****     case TIM_CHANNEL_4:
1021:Drivers/STM32G4xx_HAL_Driver/Src/stm32g4xx_hal_tim.c ****     {
1022:Drivers/STM32G4xx_HAL_Driver/Src/stm32g4xx_hal_tim.c ****       /* Disable the TIM Capture/Compare 4 interrupt */
1023:Drivers/STM32G4xx_HAL_Driver/Src/stm32g4xx_hal_tim.c ****       __HAL_TIM_DISABLE_IT(htim, TIM_IT_CC4);
1024:Drivers/STM32G4xx_HAL_Driver/Src/stm32g4xx_hal_tim.c ****       break;
1025:Drivers/STM32G4xx_HAL_Driver/Src/stm32g4xx_hal_tim.c ****     }
1026:Drivers/STM32G4xx_HAL_Driver/Src/stm32g4xx_hal_tim.c **** 
1027:Drivers/STM32G4xx_HAL_Driver/Src/stm32g4xx_hal_tim.c ****     default:
1028:Drivers/STM32G4xx_HAL_Driver/Src/stm32g4xx_hal_tim.c ****       status = HAL_ERROR;
1029:Drivers/STM32G4xx_HAL_Driver/Src/stm32g4xx_hal_tim.c ****       break;
1030:Drivers/STM32G4xx_HAL_Driver/Src/stm32g4xx_hal_tim.c ****   }
1031:Drivers/STM32G4xx_HAL_Driver/Src/stm32g4xx_hal_tim.c **** 
1032:Drivers/STM32G4xx_HAL_Driver/Src/stm32g4xx_hal_tim.c ****   if (status == HAL_OK)
1033:Drivers/STM32G4xx_HAL_Driver/Src/stm32g4xx_hal_tim.c ****   {
1034:Drivers/STM32G4xx_HAL_Driver/Src/stm32g4xx_hal_tim.c ****     /* Disable the Output compare channel */
1035:Drivers/STM32G4xx_HAL_Driver/Src/stm32g4xx_hal_tim.c ****     TIM_CCxChannelCmd(htim->Instance, Channel, TIM_CCx_DISABLE);
1036:Drivers/STM32G4xx_HAL_Driver/Src/stm32g4xx_hal_tim.c **** 
ARM GAS  /tmp/ccKRAx5z.s 			page 21


1037:Drivers/STM32G4xx_HAL_Driver/Src/stm32g4xx_hal_tim.c ****     if (IS_TIM_BREAK_INSTANCE(htim->Instance) != RESET)
1038:Drivers/STM32G4xx_HAL_Driver/Src/stm32g4xx_hal_tim.c ****     {
1039:Drivers/STM32G4xx_HAL_Driver/Src/stm32g4xx_hal_tim.c ****       /* Disable the Main Output */
1040:Drivers/STM32G4xx_HAL_Driver/Src/stm32g4xx_hal_tim.c ****       __HAL_TIM_MOE_DISABLE(htim);
1041:Drivers/STM32G4xx_HAL_Driver/Src/stm32g4xx_hal_tim.c ****     }
1042:Drivers/STM32G4xx_HAL_Driver/Src/stm32g4xx_hal_tim.c **** 
1043:Drivers/STM32G4xx_HAL_Driver/Src/stm32g4xx_hal_tim.c ****     /* Disable the Peripheral */
1044:Drivers/STM32G4xx_HAL_Driver/Src/stm32g4xx_hal_tim.c ****     __HAL_TIM_DISABLE(htim);
1045:Drivers/STM32G4xx_HAL_Driver/Src/stm32g4xx_hal_tim.c **** 
1046:Drivers/STM32G4xx_HAL_Driver/Src/stm32g4xx_hal_tim.c ****     /* Set the TIM channel state */
1047:Drivers/STM32G4xx_HAL_Driver/Src/stm32g4xx_hal_tim.c ****     TIM_CHANNEL_STATE_SET(htim, Channel, HAL_TIM_CHANNEL_STATE_READY);
1048:Drivers/STM32G4xx_HAL_Driver/Src/stm32g4xx_hal_tim.c ****   }
1049:Drivers/STM32G4xx_HAL_Driver/Src/stm32g4xx_hal_tim.c **** 
1050:Drivers/STM32G4xx_HAL_Driver/Src/stm32g4xx_hal_tim.c ****   /* Return function status */
1051:Drivers/STM32G4xx_HAL_Driver/Src/stm32g4xx_hal_tim.c ****   return status;
1052:Drivers/STM32G4xx_HAL_Driver/Src/stm32g4xx_hal_tim.c **** }
1053:Drivers/STM32G4xx_HAL_Driver/Src/stm32g4xx_hal_tim.c **** 
1054:Drivers/STM32G4xx_HAL_Driver/Src/stm32g4xx_hal_tim.c **** /**
1055:Drivers/STM32G4xx_HAL_Driver/Src/stm32g4xx_hal_tim.c ****   * @brief  Starts the TIM Output Compare signal generation in DMA mode.
1056:Drivers/STM32G4xx_HAL_Driver/Src/stm32g4xx_hal_tim.c ****   * @param  htim TIM Output Compare handle
1057:Drivers/STM32G4xx_HAL_Driver/Src/stm32g4xx_hal_tim.c ****   * @param  Channel TIM Channel to be enabled
1058:Drivers/STM32G4xx_HAL_Driver/Src/stm32g4xx_hal_tim.c ****   *          This parameter can be one of the following values:
1059:Drivers/STM32G4xx_HAL_Driver/Src/stm32g4xx_hal_tim.c ****   *            @arg TIM_CHANNEL_1: TIM Channel 1 selected
1060:Drivers/STM32G4xx_HAL_Driver/Src/stm32g4xx_hal_tim.c ****   *            @arg TIM_CHANNEL_2: TIM Channel 2 selected
1061:Drivers/STM32G4xx_HAL_Driver/Src/stm32g4xx_hal_tim.c ****   *            @arg TIM_CHANNEL_3: TIM Channel 3 selected
1062:Drivers/STM32G4xx_HAL_Driver/Src/stm32g4xx_hal_tim.c ****   *            @arg TIM_CHANNEL_4: TIM Channel 4 selected
1063:Drivers/STM32G4xx_HAL_Driver/Src/stm32g4xx_hal_tim.c ****   * @param  pData The source Buffer address.
1064:Drivers/STM32G4xx_HAL_Driver/Src/stm32g4xx_hal_tim.c ****   * @param  Length The length of data to be transferred from memory to TIM peripheral
1065:Drivers/STM32G4xx_HAL_Driver/Src/stm32g4xx_hal_tim.c ****   * @retval HAL status
1066:Drivers/STM32G4xx_HAL_Driver/Src/stm32g4xx_hal_tim.c ****   */
1067:Drivers/STM32G4xx_HAL_Driver/Src/stm32g4xx_hal_tim.c **** HAL_StatusTypeDef HAL_TIM_OC_Start_DMA(TIM_HandleTypeDef *htim, uint32_t Channel, const uint32_t *p
1068:Drivers/STM32G4xx_HAL_Driver/Src/stm32g4xx_hal_tim.c ****                                        uint16_t Length)
1069:Drivers/STM32G4xx_HAL_Driver/Src/stm32g4xx_hal_tim.c **** {
1070:Drivers/STM32G4xx_HAL_Driver/Src/stm32g4xx_hal_tim.c ****   HAL_StatusTypeDef status = HAL_OK;
1071:Drivers/STM32G4xx_HAL_Driver/Src/stm32g4xx_hal_tim.c ****   uint32_t tmpsmcr;
1072:Drivers/STM32G4xx_HAL_Driver/Src/stm32g4xx_hal_tim.c **** 
1073:Drivers/STM32G4xx_HAL_Driver/Src/stm32g4xx_hal_tim.c ****   /* Check the parameters */
1074:Drivers/STM32G4xx_HAL_Driver/Src/stm32g4xx_hal_tim.c ****   assert_param(IS_TIM_CCX_CHANNEL(htim->Instance, Channel));
1075:Drivers/STM32G4xx_HAL_Driver/Src/stm32g4xx_hal_tim.c **** 
1076:Drivers/STM32G4xx_HAL_Driver/Src/stm32g4xx_hal_tim.c ****   /* Set the TIM channel state */
1077:Drivers/STM32G4xx_HAL_Driver/Src/stm32g4xx_hal_tim.c ****   if (TIM_CHANNEL_STATE_GET(htim, Channel) == HAL_TIM_CHANNEL_STATE_BUSY)
1078:Drivers/STM32G4xx_HAL_Driver/Src/stm32g4xx_hal_tim.c ****   {
1079:Drivers/STM32G4xx_HAL_Driver/Src/stm32g4xx_hal_tim.c ****     return HAL_BUSY;
1080:Drivers/STM32G4xx_HAL_Driver/Src/stm32g4xx_hal_tim.c ****   }
1081:Drivers/STM32G4xx_HAL_Driver/Src/stm32g4xx_hal_tim.c ****   else if (TIM_CHANNEL_STATE_GET(htim, Channel) == HAL_TIM_CHANNEL_STATE_READY)
1082:Drivers/STM32G4xx_HAL_Driver/Src/stm32g4xx_hal_tim.c ****   {
1083:Drivers/STM32G4xx_HAL_Driver/Src/stm32g4xx_hal_tim.c ****     if ((pData == NULL) || (Length == 0U))
1084:Drivers/STM32G4xx_HAL_Driver/Src/stm32g4xx_hal_tim.c ****     {
1085:Drivers/STM32G4xx_HAL_Driver/Src/stm32g4xx_hal_tim.c ****       return HAL_ERROR;
1086:Drivers/STM32G4xx_HAL_Driver/Src/stm32g4xx_hal_tim.c ****     }
1087:Drivers/STM32G4xx_HAL_Driver/Src/stm32g4xx_hal_tim.c ****     else
1088:Drivers/STM32G4xx_HAL_Driver/Src/stm32g4xx_hal_tim.c ****     {
1089:Drivers/STM32G4xx_HAL_Driver/Src/stm32g4xx_hal_tim.c ****       TIM_CHANNEL_STATE_SET(htim, Channel, HAL_TIM_CHANNEL_STATE_BUSY);
1090:Drivers/STM32G4xx_HAL_Driver/Src/stm32g4xx_hal_tim.c ****     }
1091:Drivers/STM32G4xx_HAL_Driver/Src/stm32g4xx_hal_tim.c ****   }
1092:Drivers/STM32G4xx_HAL_Driver/Src/stm32g4xx_hal_tim.c ****   else
1093:Drivers/STM32G4xx_HAL_Driver/Src/stm32g4xx_hal_tim.c ****   {
ARM GAS  /tmp/ccKRAx5z.s 			page 22


1094:Drivers/STM32G4xx_HAL_Driver/Src/stm32g4xx_hal_tim.c ****     return HAL_ERROR;
1095:Drivers/STM32G4xx_HAL_Driver/Src/stm32g4xx_hal_tim.c ****   }
1096:Drivers/STM32G4xx_HAL_Driver/Src/stm32g4xx_hal_tim.c **** 
1097:Drivers/STM32G4xx_HAL_Driver/Src/stm32g4xx_hal_tim.c ****   switch (Channel)
1098:Drivers/STM32G4xx_HAL_Driver/Src/stm32g4xx_hal_tim.c ****   {
1099:Drivers/STM32G4xx_HAL_Driver/Src/stm32g4xx_hal_tim.c ****     case TIM_CHANNEL_1:
1100:Drivers/STM32G4xx_HAL_Driver/Src/stm32g4xx_hal_tim.c ****     {
1101:Drivers/STM32G4xx_HAL_Driver/Src/stm32g4xx_hal_tim.c ****       /* Set the DMA compare callbacks */
1102:Drivers/STM32G4xx_HAL_Driver/Src/stm32g4xx_hal_tim.c ****       htim->hdma[TIM_DMA_ID_CC1]->XferCpltCallback = TIM_DMADelayPulseCplt;
1103:Drivers/STM32G4xx_HAL_Driver/Src/stm32g4xx_hal_tim.c ****       htim->hdma[TIM_DMA_ID_CC1]->XferHalfCpltCallback = TIM_DMADelayPulseHalfCplt;
1104:Drivers/STM32G4xx_HAL_Driver/Src/stm32g4xx_hal_tim.c **** 
1105:Drivers/STM32G4xx_HAL_Driver/Src/stm32g4xx_hal_tim.c ****       /* Set the DMA error callback */
1106:Drivers/STM32G4xx_HAL_Driver/Src/stm32g4xx_hal_tim.c ****       htim->hdma[TIM_DMA_ID_CC1]->XferErrorCallback = TIM_DMAError ;
1107:Drivers/STM32G4xx_HAL_Driver/Src/stm32g4xx_hal_tim.c **** 
1108:Drivers/STM32G4xx_HAL_Driver/Src/stm32g4xx_hal_tim.c ****       /* Enable the DMA channel */
1109:Drivers/STM32G4xx_HAL_Driver/Src/stm32g4xx_hal_tim.c ****       if (HAL_DMA_Start_IT(htim->hdma[TIM_DMA_ID_CC1], (uint32_t)pData, (uint32_t)&htim->Instance->
1110:Drivers/STM32G4xx_HAL_Driver/Src/stm32g4xx_hal_tim.c ****                            Length) != HAL_OK)
1111:Drivers/STM32G4xx_HAL_Driver/Src/stm32g4xx_hal_tim.c ****       {
1112:Drivers/STM32G4xx_HAL_Driver/Src/stm32g4xx_hal_tim.c ****         /* Return error status */
1113:Drivers/STM32G4xx_HAL_Driver/Src/stm32g4xx_hal_tim.c ****         return HAL_ERROR;
1114:Drivers/STM32G4xx_HAL_Driver/Src/stm32g4xx_hal_tim.c ****       }
1115:Drivers/STM32G4xx_HAL_Driver/Src/stm32g4xx_hal_tim.c **** 
1116:Drivers/STM32G4xx_HAL_Driver/Src/stm32g4xx_hal_tim.c ****       /* Enable the TIM Capture/Compare 1 DMA request */
1117:Drivers/STM32G4xx_HAL_Driver/Src/stm32g4xx_hal_tim.c ****       __HAL_TIM_ENABLE_DMA(htim, TIM_DMA_CC1);
1118:Drivers/STM32G4xx_HAL_Driver/Src/stm32g4xx_hal_tim.c ****       break;
1119:Drivers/STM32G4xx_HAL_Driver/Src/stm32g4xx_hal_tim.c ****     }
1120:Drivers/STM32G4xx_HAL_Driver/Src/stm32g4xx_hal_tim.c **** 
1121:Drivers/STM32G4xx_HAL_Driver/Src/stm32g4xx_hal_tim.c ****     case TIM_CHANNEL_2:
1122:Drivers/STM32G4xx_HAL_Driver/Src/stm32g4xx_hal_tim.c ****     {
1123:Drivers/STM32G4xx_HAL_Driver/Src/stm32g4xx_hal_tim.c ****       /* Set the DMA compare callbacks */
1124:Drivers/STM32G4xx_HAL_Driver/Src/stm32g4xx_hal_tim.c ****       htim->hdma[TIM_DMA_ID_CC2]->XferCpltCallback = TIM_DMADelayPulseCplt;
1125:Drivers/STM32G4xx_HAL_Driver/Src/stm32g4xx_hal_tim.c ****       htim->hdma[TIM_DMA_ID_CC2]->XferHalfCpltCallback = TIM_DMADelayPulseHalfCplt;
1126:Drivers/STM32G4xx_HAL_Driver/Src/stm32g4xx_hal_tim.c **** 
1127:Drivers/STM32G4xx_HAL_Driver/Src/stm32g4xx_hal_tim.c ****       /* Set the DMA error callback */
1128:Drivers/STM32G4xx_HAL_Driver/Src/stm32g4xx_hal_tim.c ****       htim->hdma[TIM_DMA_ID_CC2]->XferErrorCallback = TIM_DMAError ;
1129:Drivers/STM32G4xx_HAL_Driver/Src/stm32g4xx_hal_tim.c **** 
1130:Drivers/STM32G4xx_HAL_Driver/Src/stm32g4xx_hal_tim.c ****       /* Enable the DMA channel */
1131:Drivers/STM32G4xx_HAL_Driver/Src/stm32g4xx_hal_tim.c ****       if (HAL_DMA_Start_IT(htim->hdma[TIM_DMA_ID_CC2], (uint32_t)pData, (uint32_t)&htim->Instance->
1132:Drivers/STM32G4xx_HAL_Driver/Src/stm32g4xx_hal_tim.c ****                            Length) != HAL_OK)
1133:Drivers/STM32G4xx_HAL_Driver/Src/stm32g4xx_hal_tim.c ****       {
1134:Drivers/STM32G4xx_HAL_Driver/Src/stm32g4xx_hal_tim.c ****         /* Return error status */
1135:Drivers/STM32G4xx_HAL_Driver/Src/stm32g4xx_hal_tim.c ****         return HAL_ERROR;
1136:Drivers/STM32G4xx_HAL_Driver/Src/stm32g4xx_hal_tim.c ****       }
1137:Drivers/STM32G4xx_HAL_Driver/Src/stm32g4xx_hal_tim.c **** 
1138:Drivers/STM32G4xx_HAL_Driver/Src/stm32g4xx_hal_tim.c ****       /* Enable the TIM Capture/Compare 2 DMA request */
1139:Drivers/STM32G4xx_HAL_Driver/Src/stm32g4xx_hal_tim.c ****       __HAL_TIM_ENABLE_DMA(htim, TIM_DMA_CC2);
1140:Drivers/STM32G4xx_HAL_Driver/Src/stm32g4xx_hal_tim.c ****       break;
1141:Drivers/STM32G4xx_HAL_Driver/Src/stm32g4xx_hal_tim.c ****     }
1142:Drivers/STM32G4xx_HAL_Driver/Src/stm32g4xx_hal_tim.c **** 
1143:Drivers/STM32G4xx_HAL_Driver/Src/stm32g4xx_hal_tim.c ****     case TIM_CHANNEL_3:
1144:Drivers/STM32G4xx_HAL_Driver/Src/stm32g4xx_hal_tim.c ****     {
1145:Drivers/STM32G4xx_HAL_Driver/Src/stm32g4xx_hal_tim.c ****       /* Set the DMA compare callbacks */
1146:Drivers/STM32G4xx_HAL_Driver/Src/stm32g4xx_hal_tim.c ****       htim->hdma[TIM_DMA_ID_CC3]->XferCpltCallback = TIM_DMADelayPulseCplt;
1147:Drivers/STM32G4xx_HAL_Driver/Src/stm32g4xx_hal_tim.c ****       htim->hdma[TIM_DMA_ID_CC3]->XferHalfCpltCallback = TIM_DMADelayPulseHalfCplt;
1148:Drivers/STM32G4xx_HAL_Driver/Src/stm32g4xx_hal_tim.c **** 
1149:Drivers/STM32G4xx_HAL_Driver/Src/stm32g4xx_hal_tim.c ****       /* Set the DMA error callback */
1150:Drivers/STM32G4xx_HAL_Driver/Src/stm32g4xx_hal_tim.c ****       htim->hdma[TIM_DMA_ID_CC3]->XferErrorCallback = TIM_DMAError ;
ARM GAS  /tmp/ccKRAx5z.s 			page 23


1151:Drivers/STM32G4xx_HAL_Driver/Src/stm32g4xx_hal_tim.c **** 
1152:Drivers/STM32G4xx_HAL_Driver/Src/stm32g4xx_hal_tim.c ****       /* Enable the DMA channel */
1153:Drivers/STM32G4xx_HAL_Driver/Src/stm32g4xx_hal_tim.c ****       if (HAL_DMA_Start_IT(htim->hdma[TIM_DMA_ID_CC3], (uint32_t)pData, (uint32_t)&htim->Instance->
1154:Drivers/STM32G4xx_HAL_Driver/Src/stm32g4xx_hal_tim.c ****                            Length) != HAL_OK)
1155:Drivers/STM32G4xx_HAL_Driver/Src/stm32g4xx_hal_tim.c ****       {
1156:Drivers/STM32G4xx_HAL_Driver/Src/stm32g4xx_hal_tim.c ****         /* Return error status */
1157:Drivers/STM32G4xx_HAL_Driver/Src/stm32g4xx_hal_tim.c ****         return HAL_ERROR;
1158:Drivers/STM32G4xx_HAL_Driver/Src/stm32g4xx_hal_tim.c ****       }
1159:Drivers/STM32G4xx_HAL_Driver/Src/stm32g4xx_hal_tim.c ****       /* Enable the TIM Capture/Compare 3 DMA request */
1160:Drivers/STM32G4xx_HAL_Driver/Src/stm32g4xx_hal_tim.c ****       __HAL_TIM_ENABLE_DMA(htim, TIM_DMA_CC3);
1161:Drivers/STM32G4xx_HAL_Driver/Src/stm32g4xx_hal_tim.c ****       break;
1162:Drivers/STM32G4xx_HAL_Driver/Src/stm32g4xx_hal_tim.c ****     }
1163:Drivers/STM32G4xx_HAL_Driver/Src/stm32g4xx_hal_tim.c **** 
1164:Drivers/STM32G4xx_HAL_Driver/Src/stm32g4xx_hal_tim.c ****     case TIM_CHANNEL_4:
1165:Drivers/STM32G4xx_HAL_Driver/Src/stm32g4xx_hal_tim.c ****     {
1166:Drivers/STM32G4xx_HAL_Driver/Src/stm32g4xx_hal_tim.c ****       /* Set the DMA compare callbacks */
1167:Drivers/STM32G4xx_HAL_Driver/Src/stm32g4xx_hal_tim.c ****       htim->hdma[TIM_DMA_ID_CC4]->XferCpltCallback = TIM_DMADelayPulseCplt;
1168:Drivers/STM32G4xx_HAL_Driver/Src/stm32g4xx_hal_tim.c ****       htim->hdma[TIM_DMA_ID_CC4]->XferHalfCpltCallback = TIM_DMADelayPulseHalfCplt;
1169:Drivers/STM32G4xx_HAL_Driver/Src/stm32g4xx_hal_tim.c **** 
1170:Drivers/STM32G4xx_HAL_Driver/Src/stm32g4xx_hal_tim.c ****       /* Set the DMA error callback */
1171:Drivers/STM32G4xx_HAL_Driver/Src/stm32g4xx_hal_tim.c ****       htim->hdma[TIM_DMA_ID_CC4]->XferErrorCallback = TIM_DMAError ;
1172:Drivers/STM32G4xx_HAL_Driver/Src/stm32g4xx_hal_tim.c **** 
1173:Drivers/STM32G4xx_HAL_Driver/Src/stm32g4xx_hal_tim.c ****       /* Enable the DMA channel */
1174:Drivers/STM32G4xx_HAL_Driver/Src/stm32g4xx_hal_tim.c ****       if (HAL_DMA_Start_IT(htim->hdma[TIM_DMA_ID_CC4], (uint32_t)pData, (uint32_t)&htim->Instance->
1175:Drivers/STM32G4xx_HAL_Driver/Src/stm32g4xx_hal_tim.c ****                            Length) != HAL_OK)
1176:Drivers/STM32G4xx_HAL_Driver/Src/stm32g4xx_hal_tim.c ****       {
1177:Drivers/STM32G4xx_HAL_Driver/Src/stm32g4xx_hal_tim.c ****         /* Return error status */
1178:Drivers/STM32G4xx_HAL_Driver/Src/stm32g4xx_hal_tim.c ****         return HAL_ERROR;
1179:Drivers/STM32G4xx_HAL_Driver/Src/stm32g4xx_hal_tim.c ****       }
1180:Drivers/STM32G4xx_HAL_Driver/Src/stm32g4xx_hal_tim.c ****       /* Enable the TIM Capture/Compare 4 DMA request */
1181:Drivers/STM32G4xx_HAL_Driver/Src/stm32g4xx_hal_tim.c ****       __HAL_TIM_ENABLE_DMA(htim, TIM_DMA_CC4);
1182:Drivers/STM32G4xx_HAL_Driver/Src/stm32g4xx_hal_tim.c ****       break;
1183:Drivers/STM32G4xx_HAL_Driver/Src/stm32g4xx_hal_tim.c ****     }
1184:Drivers/STM32G4xx_HAL_Driver/Src/stm32g4xx_hal_tim.c **** 
1185:Drivers/STM32G4xx_HAL_Driver/Src/stm32g4xx_hal_tim.c ****     default:
1186:Drivers/STM32G4xx_HAL_Driver/Src/stm32g4xx_hal_tim.c ****       status = HAL_ERROR;
1187:Drivers/STM32G4xx_HAL_Driver/Src/stm32g4xx_hal_tim.c ****       break;
1188:Drivers/STM32G4xx_HAL_Driver/Src/stm32g4xx_hal_tim.c ****   }
1189:Drivers/STM32G4xx_HAL_Driver/Src/stm32g4xx_hal_tim.c **** 
1190:Drivers/STM32G4xx_HAL_Driver/Src/stm32g4xx_hal_tim.c ****   if (status == HAL_OK)
1191:Drivers/STM32G4xx_HAL_Driver/Src/stm32g4xx_hal_tim.c ****   {
1192:Drivers/STM32G4xx_HAL_Driver/Src/stm32g4xx_hal_tim.c ****     /* Enable the Output compare channel */
1193:Drivers/STM32G4xx_HAL_Driver/Src/stm32g4xx_hal_tim.c ****     TIM_CCxChannelCmd(htim->Instance, Channel, TIM_CCx_ENABLE);
1194:Drivers/STM32G4xx_HAL_Driver/Src/stm32g4xx_hal_tim.c **** 
1195:Drivers/STM32G4xx_HAL_Driver/Src/stm32g4xx_hal_tim.c ****     if (IS_TIM_BREAK_INSTANCE(htim->Instance) != RESET)
1196:Drivers/STM32G4xx_HAL_Driver/Src/stm32g4xx_hal_tim.c ****     {
1197:Drivers/STM32G4xx_HAL_Driver/Src/stm32g4xx_hal_tim.c ****       /* Enable the main output */
1198:Drivers/STM32G4xx_HAL_Driver/Src/stm32g4xx_hal_tim.c ****       __HAL_TIM_MOE_ENABLE(htim);
1199:Drivers/STM32G4xx_HAL_Driver/Src/stm32g4xx_hal_tim.c ****     }
1200:Drivers/STM32G4xx_HAL_Driver/Src/stm32g4xx_hal_tim.c **** 
1201:Drivers/STM32G4xx_HAL_Driver/Src/stm32g4xx_hal_tim.c ****     /* Enable the Peripheral, except in trigger mode where enable is automatically done with trigge
1202:Drivers/STM32G4xx_HAL_Driver/Src/stm32g4xx_hal_tim.c ****     if (IS_TIM_SLAVE_INSTANCE(htim->Instance))
1203:Drivers/STM32G4xx_HAL_Driver/Src/stm32g4xx_hal_tim.c ****     {
1204:Drivers/STM32G4xx_HAL_Driver/Src/stm32g4xx_hal_tim.c ****       tmpsmcr = htim->Instance->SMCR & TIM_SMCR_SMS;
1205:Drivers/STM32G4xx_HAL_Driver/Src/stm32g4xx_hal_tim.c ****       if (!IS_TIM_SLAVEMODE_TRIGGER_ENABLED(tmpsmcr))
1206:Drivers/STM32G4xx_HAL_Driver/Src/stm32g4xx_hal_tim.c ****       {
1207:Drivers/STM32G4xx_HAL_Driver/Src/stm32g4xx_hal_tim.c ****         __HAL_TIM_ENABLE(htim);
ARM GAS  /tmp/ccKRAx5z.s 			page 24


1208:Drivers/STM32G4xx_HAL_Driver/Src/stm32g4xx_hal_tim.c ****       }
1209:Drivers/STM32G4xx_HAL_Driver/Src/stm32g4xx_hal_tim.c ****     }
1210:Drivers/STM32G4xx_HAL_Driver/Src/stm32g4xx_hal_tim.c ****     else
1211:Drivers/STM32G4xx_HAL_Driver/Src/stm32g4xx_hal_tim.c ****     {
1212:Drivers/STM32G4xx_HAL_Driver/Src/stm32g4xx_hal_tim.c ****       __HAL_TIM_ENABLE(htim);
1213:Drivers/STM32G4xx_HAL_Driver/Src/stm32g4xx_hal_tim.c ****     }
1214:Drivers/STM32G4xx_HAL_Driver/Src/stm32g4xx_hal_tim.c ****   }
1215:Drivers/STM32G4xx_HAL_Driver/Src/stm32g4xx_hal_tim.c **** 
1216:Drivers/STM32G4xx_HAL_Driver/Src/stm32g4xx_hal_tim.c ****   /* Return function status */
1217:Drivers/STM32G4xx_HAL_Driver/Src/stm32g4xx_hal_tim.c ****   return status;
1218:Drivers/STM32G4xx_HAL_Driver/Src/stm32g4xx_hal_tim.c **** }
1219:Drivers/STM32G4xx_HAL_Driver/Src/stm32g4xx_hal_tim.c **** 
1220:Drivers/STM32G4xx_HAL_Driver/Src/stm32g4xx_hal_tim.c **** /**
1221:Drivers/STM32G4xx_HAL_Driver/Src/stm32g4xx_hal_tim.c ****   * @brief  Stops the TIM Output Compare signal generation in DMA mode.
1222:Drivers/STM32G4xx_HAL_Driver/Src/stm32g4xx_hal_tim.c ****   * @param  htim TIM Output Compare handle
1223:Drivers/STM32G4xx_HAL_Driver/Src/stm32g4xx_hal_tim.c ****   * @param  Channel TIM Channel to be disabled
1224:Drivers/STM32G4xx_HAL_Driver/Src/stm32g4xx_hal_tim.c ****   *          This parameter can be one of the following values:
1225:Drivers/STM32G4xx_HAL_Driver/Src/stm32g4xx_hal_tim.c ****   *            @arg TIM_CHANNEL_1: TIM Channel 1 selected
1226:Drivers/STM32G4xx_HAL_Driver/Src/stm32g4xx_hal_tim.c ****   *            @arg TIM_CHANNEL_2: TIM Channel 2 selected
1227:Drivers/STM32G4xx_HAL_Driver/Src/stm32g4xx_hal_tim.c ****   *            @arg TIM_CHANNEL_3: TIM Channel 3 selected
1228:Drivers/STM32G4xx_HAL_Driver/Src/stm32g4xx_hal_tim.c ****   *            @arg TIM_CHANNEL_4: TIM Channel 4 selected
1229:Drivers/STM32G4xx_HAL_Driver/Src/stm32g4xx_hal_tim.c ****   * @retval HAL status
1230:Drivers/STM32G4xx_HAL_Driver/Src/stm32g4xx_hal_tim.c ****   */
1231:Drivers/STM32G4xx_HAL_Driver/Src/stm32g4xx_hal_tim.c **** HAL_StatusTypeDef HAL_TIM_OC_Stop_DMA(TIM_HandleTypeDef *htim, uint32_t Channel)
1232:Drivers/STM32G4xx_HAL_Driver/Src/stm32g4xx_hal_tim.c **** {
1233:Drivers/STM32G4xx_HAL_Driver/Src/stm32g4xx_hal_tim.c ****   HAL_StatusTypeDef status = HAL_OK;
1234:Drivers/STM32G4xx_HAL_Driver/Src/stm32g4xx_hal_tim.c **** 
1235:Drivers/STM32G4xx_HAL_Driver/Src/stm32g4xx_hal_tim.c ****   /* Check the parameters */
1236:Drivers/STM32G4xx_HAL_Driver/Src/stm32g4xx_hal_tim.c ****   assert_param(IS_TIM_CCX_CHANNEL(htim->Instance, Channel));
1237:Drivers/STM32G4xx_HAL_Driver/Src/stm32g4xx_hal_tim.c **** 
1238:Drivers/STM32G4xx_HAL_Driver/Src/stm32g4xx_hal_tim.c ****   switch (Channel)
1239:Drivers/STM32G4xx_HAL_Driver/Src/stm32g4xx_hal_tim.c ****   {
1240:Drivers/STM32G4xx_HAL_Driver/Src/stm32g4xx_hal_tim.c ****     case TIM_CHANNEL_1:
1241:Drivers/STM32G4xx_HAL_Driver/Src/stm32g4xx_hal_tim.c ****     {
1242:Drivers/STM32G4xx_HAL_Driver/Src/stm32g4xx_hal_tim.c ****       /* Disable the TIM Capture/Compare 1 DMA request */
1243:Drivers/STM32G4xx_HAL_Driver/Src/stm32g4xx_hal_tim.c ****       __HAL_TIM_DISABLE_DMA(htim, TIM_DMA_CC1);
1244:Drivers/STM32G4xx_HAL_Driver/Src/stm32g4xx_hal_tim.c ****       (void)HAL_DMA_Abort_IT(htim->hdma[TIM_DMA_ID_CC1]);
1245:Drivers/STM32G4xx_HAL_Driver/Src/stm32g4xx_hal_tim.c ****       break;
1246:Drivers/STM32G4xx_HAL_Driver/Src/stm32g4xx_hal_tim.c ****     }
1247:Drivers/STM32G4xx_HAL_Driver/Src/stm32g4xx_hal_tim.c **** 
1248:Drivers/STM32G4xx_HAL_Driver/Src/stm32g4xx_hal_tim.c ****     case TIM_CHANNEL_2:
1249:Drivers/STM32G4xx_HAL_Driver/Src/stm32g4xx_hal_tim.c ****     {
1250:Drivers/STM32G4xx_HAL_Driver/Src/stm32g4xx_hal_tim.c ****       /* Disable the TIM Capture/Compare 2 DMA request */
1251:Drivers/STM32G4xx_HAL_Driver/Src/stm32g4xx_hal_tim.c ****       __HAL_TIM_DISABLE_DMA(htim, TIM_DMA_CC2);
1252:Drivers/STM32G4xx_HAL_Driver/Src/stm32g4xx_hal_tim.c ****       (void)HAL_DMA_Abort_IT(htim->hdma[TIM_DMA_ID_CC2]);
1253:Drivers/STM32G4xx_HAL_Driver/Src/stm32g4xx_hal_tim.c ****       break;
1254:Drivers/STM32G4xx_HAL_Driver/Src/stm32g4xx_hal_tim.c ****     }
1255:Drivers/STM32G4xx_HAL_Driver/Src/stm32g4xx_hal_tim.c **** 
1256:Drivers/STM32G4xx_HAL_Driver/Src/stm32g4xx_hal_tim.c ****     case TIM_CHANNEL_3:
1257:Drivers/STM32G4xx_HAL_Driver/Src/stm32g4xx_hal_tim.c ****     {
1258:Drivers/STM32G4xx_HAL_Driver/Src/stm32g4xx_hal_tim.c ****       /* Disable the TIM Capture/Compare 3 DMA request */
1259:Drivers/STM32G4xx_HAL_Driver/Src/stm32g4xx_hal_tim.c ****       __HAL_TIM_DISABLE_DMA(htim, TIM_DMA_CC3);
1260:Drivers/STM32G4xx_HAL_Driver/Src/stm32g4xx_hal_tim.c ****       (void)HAL_DMA_Abort_IT(htim->hdma[TIM_DMA_ID_CC3]);
1261:Drivers/STM32G4xx_HAL_Driver/Src/stm32g4xx_hal_tim.c ****       break;
1262:Drivers/STM32G4xx_HAL_Driver/Src/stm32g4xx_hal_tim.c ****     }
1263:Drivers/STM32G4xx_HAL_Driver/Src/stm32g4xx_hal_tim.c **** 
1264:Drivers/STM32G4xx_HAL_Driver/Src/stm32g4xx_hal_tim.c ****     case TIM_CHANNEL_4:
ARM GAS  /tmp/ccKRAx5z.s 			page 25


1265:Drivers/STM32G4xx_HAL_Driver/Src/stm32g4xx_hal_tim.c ****     {
1266:Drivers/STM32G4xx_HAL_Driver/Src/stm32g4xx_hal_tim.c ****       /* Disable the TIM Capture/Compare 4 interrupt */
1267:Drivers/STM32G4xx_HAL_Driver/Src/stm32g4xx_hal_tim.c ****       __HAL_TIM_DISABLE_DMA(htim, TIM_DMA_CC4);
1268:Drivers/STM32G4xx_HAL_Driver/Src/stm32g4xx_hal_tim.c ****       (void)HAL_DMA_Abort_IT(htim->hdma[TIM_DMA_ID_CC4]);
1269:Drivers/STM32G4xx_HAL_Driver/Src/stm32g4xx_hal_tim.c ****       break;
1270:Drivers/STM32G4xx_HAL_Driver/Src/stm32g4xx_hal_tim.c ****     }
1271:Drivers/STM32G4xx_HAL_Driver/Src/stm32g4xx_hal_tim.c **** 
1272:Drivers/STM32G4xx_HAL_Driver/Src/stm32g4xx_hal_tim.c ****     default:
1273:Drivers/STM32G4xx_HAL_Driver/Src/stm32g4xx_hal_tim.c ****       status = HAL_ERROR;
1274:Drivers/STM32G4xx_HAL_Driver/Src/stm32g4xx_hal_tim.c ****       break;
1275:Drivers/STM32G4xx_HAL_Driver/Src/stm32g4xx_hal_tim.c ****   }
1276:Drivers/STM32G4xx_HAL_Driver/Src/stm32g4xx_hal_tim.c **** 
1277:Drivers/STM32G4xx_HAL_Driver/Src/stm32g4xx_hal_tim.c ****   if (status == HAL_OK)
1278:Drivers/STM32G4xx_HAL_Driver/Src/stm32g4xx_hal_tim.c ****   {
1279:Drivers/STM32G4xx_HAL_Driver/Src/stm32g4xx_hal_tim.c ****     /* Disable the Output compare channel */
1280:Drivers/STM32G4xx_HAL_Driver/Src/stm32g4xx_hal_tim.c ****     TIM_CCxChannelCmd(htim->Instance, Channel, TIM_CCx_DISABLE);
1281:Drivers/STM32G4xx_HAL_Driver/Src/stm32g4xx_hal_tim.c **** 
1282:Drivers/STM32G4xx_HAL_Driver/Src/stm32g4xx_hal_tim.c ****     if (IS_TIM_BREAK_INSTANCE(htim->Instance) != RESET)
1283:Drivers/STM32G4xx_HAL_Driver/Src/stm32g4xx_hal_tim.c ****     {
1284:Drivers/STM32G4xx_HAL_Driver/Src/stm32g4xx_hal_tim.c ****       /* Disable the Main Output */
1285:Drivers/STM32G4xx_HAL_Driver/Src/stm32g4xx_hal_tim.c ****       __HAL_TIM_MOE_DISABLE(htim);
1286:Drivers/STM32G4xx_HAL_Driver/Src/stm32g4xx_hal_tim.c ****     }
1287:Drivers/STM32G4xx_HAL_Driver/Src/stm32g4xx_hal_tim.c **** 
1288:Drivers/STM32G4xx_HAL_Driver/Src/stm32g4xx_hal_tim.c ****     /* Disable the Peripheral */
1289:Drivers/STM32G4xx_HAL_Driver/Src/stm32g4xx_hal_tim.c ****     __HAL_TIM_DISABLE(htim);
1290:Drivers/STM32G4xx_HAL_Driver/Src/stm32g4xx_hal_tim.c **** 
1291:Drivers/STM32G4xx_HAL_Driver/Src/stm32g4xx_hal_tim.c ****     /* Set the TIM channel state */
1292:Drivers/STM32G4xx_HAL_Driver/Src/stm32g4xx_hal_tim.c ****     TIM_CHANNEL_STATE_SET(htim, Channel, HAL_TIM_CHANNEL_STATE_READY);
1293:Drivers/STM32G4xx_HAL_Driver/Src/stm32g4xx_hal_tim.c ****   }
1294:Drivers/STM32G4xx_HAL_Driver/Src/stm32g4xx_hal_tim.c **** 
1295:Drivers/STM32G4xx_HAL_Driver/Src/stm32g4xx_hal_tim.c ****   /* Return function status */
1296:Drivers/STM32G4xx_HAL_Driver/Src/stm32g4xx_hal_tim.c ****   return status;
1297:Drivers/STM32G4xx_HAL_Driver/Src/stm32g4xx_hal_tim.c **** }
1298:Drivers/STM32G4xx_HAL_Driver/Src/stm32g4xx_hal_tim.c **** 
1299:Drivers/STM32G4xx_HAL_Driver/Src/stm32g4xx_hal_tim.c **** /**
1300:Drivers/STM32G4xx_HAL_Driver/Src/stm32g4xx_hal_tim.c ****   * @}
1301:Drivers/STM32G4xx_HAL_Driver/Src/stm32g4xx_hal_tim.c ****   */
1302:Drivers/STM32G4xx_HAL_Driver/Src/stm32g4xx_hal_tim.c **** 
1303:Drivers/STM32G4xx_HAL_Driver/Src/stm32g4xx_hal_tim.c **** /** @defgroup TIM_Exported_Functions_Group3 TIM PWM functions
1304:Drivers/STM32G4xx_HAL_Driver/Src/stm32g4xx_hal_tim.c ****   *  @brief    TIM PWM functions
1305:Drivers/STM32G4xx_HAL_Driver/Src/stm32g4xx_hal_tim.c ****   *
1306:Drivers/STM32G4xx_HAL_Driver/Src/stm32g4xx_hal_tim.c **** @verbatim
1307:Drivers/STM32G4xx_HAL_Driver/Src/stm32g4xx_hal_tim.c ****   ==============================================================================
1308:Drivers/STM32G4xx_HAL_Driver/Src/stm32g4xx_hal_tim.c ****                           ##### TIM PWM functions #####
1309:Drivers/STM32G4xx_HAL_Driver/Src/stm32g4xx_hal_tim.c ****   ==============================================================================
1310:Drivers/STM32G4xx_HAL_Driver/Src/stm32g4xx_hal_tim.c ****   [..]
1311:Drivers/STM32G4xx_HAL_Driver/Src/stm32g4xx_hal_tim.c ****     This section provides functions allowing to:
1312:Drivers/STM32G4xx_HAL_Driver/Src/stm32g4xx_hal_tim.c ****     (+) Initialize and configure the TIM PWM.
1313:Drivers/STM32G4xx_HAL_Driver/Src/stm32g4xx_hal_tim.c ****     (+) De-initialize the TIM PWM.
1314:Drivers/STM32G4xx_HAL_Driver/Src/stm32g4xx_hal_tim.c ****     (+) Start the TIM PWM.
1315:Drivers/STM32G4xx_HAL_Driver/Src/stm32g4xx_hal_tim.c ****     (+) Stop the TIM PWM.
1316:Drivers/STM32G4xx_HAL_Driver/Src/stm32g4xx_hal_tim.c ****     (+) Start the TIM PWM and enable interrupt.
1317:Drivers/STM32G4xx_HAL_Driver/Src/stm32g4xx_hal_tim.c ****     (+) Stop the TIM PWM and disable interrupt.
1318:Drivers/STM32G4xx_HAL_Driver/Src/stm32g4xx_hal_tim.c ****     (+) Start the TIM PWM and enable DMA transfer.
1319:Drivers/STM32G4xx_HAL_Driver/Src/stm32g4xx_hal_tim.c ****     (+) Stop the TIM PWM and disable DMA transfer.
1320:Drivers/STM32G4xx_HAL_Driver/Src/stm32g4xx_hal_tim.c **** 
1321:Drivers/STM32G4xx_HAL_Driver/Src/stm32g4xx_hal_tim.c **** @endverbatim
ARM GAS  /tmp/ccKRAx5z.s 			page 26


1322:Drivers/STM32G4xx_HAL_Driver/Src/stm32g4xx_hal_tim.c ****   * @{
1323:Drivers/STM32G4xx_HAL_Driver/Src/stm32g4xx_hal_tim.c ****   */
1324:Drivers/STM32G4xx_HAL_Driver/Src/stm32g4xx_hal_tim.c **** /**
1325:Drivers/STM32G4xx_HAL_Driver/Src/stm32g4xx_hal_tim.c ****   * @brief  Initializes the TIM PWM Time Base according to the specified
1326:Drivers/STM32G4xx_HAL_Driver/Src/stm32g4xx_hal_tim.c ****   *         parameters in the TIM_HandleTypeDef and initializes the associated handle.
1327:Drivers/STM32G4xx_HAL_Driver/Src/stm32g4xx_hal_tim.c ****   * @note   Switching from Center Aligned counter mode to Edge counter mode (or reverse)
1328:Drivers/STM32G4xx_HAL_Driver/Src/stm32g4xx_hal_tim.c ****   *         requires a timer reset to avoid unexpected direction
1329:Drivers/STM32G4xx_HAL_Driver/Src/stm32g4xx_hal_tim.c ****   *         due to DIR bit readonly in center aligned mode.
1330:Drivers/STM32G4xx_HAL_Driver/Src/stm32g4xx_hal_tim.c ****   *         Ex: call @ref HAL_TIM_PWM_DeInit() before HAL_TIM_PWM_Init()
1331:Drivers/STM32G4xx_HAL_Driver/Src/stm32g4xx_hal_tim.c ****   * @param  htim TIM PWM handle
1332:Drivers/STM32G4xx_HAL_Driver/Src/stm32g4xx_hal_tim.c ****   * @retval HAL status
1333:Drivers/STM32G4xx_HAL_Driver/Src/stm32g4xx_hal_tim.c ****   */
1334:Drivers/STM32G4xx_HAL_Driver/Src/stm32g4xx_hal_tim.c **** HAL_StatusTypeDef HAL_TIM_PWM_Init(TIM_HandleTypeDef *htim)
1335:Drivers/STM32G4xx_HAL_Driver/Src/stm32g4xx_hal_tim.c **** {
1336:Drivers/STM32G4xx_HAL_Driver/Src/stm32g4xx_hal_tim.c ****   /* Check the TIM handle allocation */
1337:Drivers/STM32G4xx_HAL_Driver/Src/stm32g4xx_hal_tim.c ****   if (htim == NULL)
1338:Drivers/STM32G4xx_HAL_Driver/Src/stm32g4xx_hal_tim.c ****   {
1339:Drivers/STM32G4xx_HAL_Driver/Src/stm32g4xx_hal_tim.c ****     return HAL_ERROR;
1340:Drivers/STM32G4xx_HAL_Driver/Src/stm32g4xx_hal_tim.c ****   }
1341:Drivers/STM32G4xx_HAL_Driver/Src/stm32g4xx_hal_tim.c **** 
1342:Drivers/STM32G4xx_HAL_Driver/Src/stm32g4xx_hal_tim.c ****   /* Check the parameters */
1343:Drivers/STM32G4xx_HAL_Driver/Src/stm32g4xx_hal_tim.c ****   assert_param(IS_TIM_INSTANCE(htim->Instance));
1344:Drivers/STM32G4xx_HAL_Driver/Src/stm32g4xx_hal_tim.c ****   assert_param(IS_TIM_COUNTER_MODE(htim->Init.CounterMode));
1345:Drivers/STM32G4xx_HAL_Driver/Src/stm32g4xx_hal_tim.c ****   assert_param(IS_TIM_CLOCKDIVISION_DIV(htim->Init.ClockDivision));
1346:Drivers/STM32G4xx_HAL_Driver/Src/stm32g4xx_hal_tim.c ****   assert_param(IS_TIM_PERIOD(htim, htim->Init.Period));
1347:Drivers/STM32G4xx_HAL_Driver/Src/stm32g4xx_hal_tim.c ****   assert_param(IS_TIM_AUTORELOAD_PRELOAD(htim->Init.AutoReloadPreload));
1348:Drivers/STM32G4xx_HAL_Driver/Src/stm32g4xx_hal_tim.c **** 
1349:Drivers/STM32G4xx_HAL_Driver/Src/stm32g4xx_hal_tim.c ****   if (htim->State == HAL_TIM_STATE_RESET)
1350:Drivers/STM32G4xx_HAL_Driver/Src/stm32g4xx_hal_tim.c ****   {
1351:Drivers/STM32G4xx_HAL_Driver/Src/stm32g4xx_hal_tim.c ****     /* Allocate lock resource and initialize it */
1352:Drivers/STM32G4xx_HAL_Driver/Src/stm32g4xx_hal_tim.c ****     htim->Lock = HAL_UNLOCKED;
1353:Drivers/STM32G4xx_HAL_Driver/Src/stm32g4xx_hal_tim.c **** 
1354:Drivers/STM32G4xx_HAL_Driver/Src/stm32g4xx_hal_tim.c **** #if (USE_HAL_TIM_REGISTER_CALLBACKS == 1)
1355:Drivers/STM32G4xx_HAL_Driver/Src/stm32g4xx_hal_tim.c ****     /* Reset interrupt callbacks to legacy weak callbacks */
1356:Drivers/STM32G4xx_HAL_Driver/Src/stm32g4xx_hal_tim.c ****     TIM_ResetCallback(htim);
1357:Drivers/STM32G4xx_HAL_Driver/Src/stm32g4xx_hal_tim.c **** 
1358:Drivers/STM32G4xx_HAL_Driver/Src/stm32g4xx_hal_tim.c ****     if (htim->PWM_MspInitCallback == NULL)
1359:Drivers/STM32G4xx_HAL_Driver/Src/stm32g4xx_hal_tim.c ****     {
1360:Drivers/STM32G4xx_HAL_Driver/Src/stm32g4xx_hal_tim.c ****       htim->PWM_MspInitCallback = HAL_TIM_PWM_MspInit;
1361:Drivers/STM32G4xx_HAL_Driver/Src/stm32g4xx_hal_tim.c ****     }
1362:Drivers/STM32G4xx_HAL_Driver/Src/stm32g4xx_hal_tim.c ****     /* Init the low level hardware : GPIO, CLOCK, NVIC */
1363:Drivers/STM32G4xx_HAL_Driver/Src/stm32g4xx_hal_tim.c ****     htim->PWM_MspInitCallback(htim);
1364:Drivers/STM32G4xx_HAL_Driver/Src/stm32g4xx_hal_tim.c **** #else
1365:Drivers/STM32G4xx_HAL_Driver/Src/stm32g4xx_hal_tim.c ****     /* Init the low level hardware : GPIO, CLOCK, NVIC and DMA */
1366:Drivers/STM32G4xx_HAL_Driver/Src/stm32g4xx_hal_tim.c ****     HAL_TIM_PWM_MspInit(htim);
1367:Drivers/STM32G4xx_HAL_Driver/Src/stm32g4xx_hal_tim.c **** #endif /* USE_HAL_TIM_REGISTER_CALLBACKS */
1368:Drivers/STM32G4xx_HAL_Driver/Src/stm32g4xx_hal_tim.c ****   }
1369:Drivers/STM32G4xx_HAL_Driver/Src/stm32g4xx_hal_tim.c **** 
1370:Drivers/STM32G4xx_HAL_Driver/Src/stm32g4xx_hal_tim.c ****   /* Set the TIM state */
1371:Drivers/STM32G4xx_HAL_Driver/Src/stm32g4xx_hal_tim.c ****   htim->State = HAL_TIM_STATE_BUSY;
1372:Drivers/STM32G4xx_HAL_Driver/Src/stm32g4xx_hal_tim.c **** 
1373:Drivers/STM32G4xx_HAL_Driver/Src/stm32g4xx_hal_tim.c ****   /* Init the base time for the PWM */
1374:Drivers/STM32G4xx_HAL_Driver/Src/stm32g4xx_hal_tim.c ****   TIM_Base_SetConfig(htim->Instance, &htim->Init);
1375:Drivers/STM32G4xx_HAL_Driver/Src/stm32g4xx_hal_tim.c **** 
1376:Drivers/STM32G4xx_HAL_Driver/Src/stm32g4xx_hal_tim.c ****   /* Initialize the DMA burst operation state */
1377:Drivers/STM32G4xx_HAL_Driver/Src/stm32g4xx_hal_tim.c ****   htim->DMABurstState = HAL_DMA_BURST_STATE_READY;
1378:Drivers/STM32G4xx_HAL_Driver/Src/stm32g4xx_hal_tim.c **** 
ARM GAS  /tmp/ccKRAx5z.s 			page 27


1379:Drivers/STM32G4xx_HAL_Driver/Src/stm32g4xx_hal_tim.c ****   /* Initialize the TIM channels state */
1380:Drivers/STM32G4xx_HAL_Driver/Src/stm32g4xx_hal_tim.c ****   TIM_CHANNEL_STATE_SET_ALL(htim, HAL_TIM_CHANNEL_STATE_READY);
1381:Drivers/STM32G4xx_HAL_Driver/Src/stm32g4xx_hal_tim.c ****   TIM_CHANNEL_N_STATE_SET_ALL(htim, HAL_TIM_CHANNEL_STATE_READY);
1382:Drivers/STM32G4xx_HAL_Driver/Src/stm32g4xx_hal_tim.c **** 
1383:Drivers/STM32G4xx_HAL_Driver/Src/stm32g4xx_hal_tim.c ****   /* Initialize the TIM state*/
1384:Drivers/STM32G4xx_HAL_Driver/Src/stm32g4xx_hal_tim.c ****   htim->State = HAL_TIM_STATE_READY;
1385:Drivers/STM32G4xx_HAL_Driver/Src/stm32g4xx_hal_tim.c **** 
1386:Drivers/STM32G4xx_HAL_Driver/Src/stm32g4xx_hal_tim.c ****   return HAL_OK;
1387:Drivers/STM32G4xx_HAL_Driver/Src/stm32g4xx_hal_tim.c **** }
1388:Drivers/STM32G4xx_HAL_Driver/Src/stm32g4xx_hal_tim.c **** 
1389:Drivers/STM32G4xx_HAL_Driver/Src/stm32g4xx_hal_tim.c **** /**
1390:Drivers/STM32G4xx_HAL_Driver/Src/stm32g4xx_hal_tim.c ****   * @brief  DeInitializes the TIM peripheral
1391:Drivers/STM32G4xx_HAL_Driver/Src/stm32g4xx_hal_tim.c ****   * @param  htim TIM PWM handle
1392:Drivers/STM32G4xx_HAL_Driver/Src/stm32g4xx_hal_tim.c ****   * @retval HAL status
1393:Drivers/STM32G4xx_HAL_Driver/Src/stm32g4xx_hal_tim.c ****   */
1394:Drivers/STM32G4xx_HAL_Driver/Src/stm32g4xx_hal_tim.c **** HAL_StatusTypeDef HAL_TIM_PWM_DeInit(TIM_HandleTypeDef *htim)
1395:Drivers/STM32G4xx_HAL_Driver/Src/stm32g4xx_hal_tim.c **** {
1396:Drivers/STM32G4xx_HAL_Driver/Src/stm32g4xx_hal_tim.c ****   /* Check the parameters */
1397:Drivers/STM32G4xx_HAL_Driver/Src/stm32g4xx_hal_tim.c ****   assert_param(IS_TIM_INSTANCE(htim->Instance));
1398:Drivers/STM32G4xx_HAL_Driver/Src/stm32g4xx_hal_tim.c **** 
1399:Drivers/STM32G4xx_HAL_Driver/Src/stm32g4xx_hal_tim.c ****   htim->State = HAL_TIM_STATE_BUSY;
1400:Drivers/STM32G4xx_HAL_Driver/Src/stm32g4xx_hal_tim.c **** 
1401:Drivers/STM32G4xx_HAL_Driver/Src/stm32g4xx_hal_tim.c ****   /* Disable the TIM Peripheral Clock */
1402:Drivers/STM32G4xx_HAL_Driver/Src/stm32g4xx_hal_tim.c ****   __HAL_TIM_DISABLE(htim);
1403:Drivers/STM32G4xx_HAL_Driver/Src/stm32g4xx_hal_tim.c **** 
1404:Drivers/STM32G4xx_HAL_Driver/Src/stm32g4xx_hal_tim.c **** #if (USE_HAL_TIM_REGISTER_CALLBACKS == 1)
1405:Drivers/STM32G4xx_HAL_Driver/Src/stm32g4xx_hal_tim.c ****   if (htim->PWM_MspDeInitCallback == NULL)
1406:Drivers/STM32G4xx_HAL_Driver/Src/stm32g4xx_hal_tim.c ****   {
1407:Drivers/STM32G4xx_HAL_Driver/Src/stm32g4xx_hal_tim.c ****     htim->PWM_MspDeInitCallback = HAL_TIM_PWM_MspDeInit;
1408:Drivers/STM32G4xx_HAL_Driver/Src/stm32g4xx_hal_tim.c ****   }
1409:Drivers/STM32G4xx_HAL_Driver/Src/stm32g4xx_hal_tim.c ****   /* DeInit the low level hardware */
1410:Drivers/STM32G4xx_HAL_Driver/Src/stm32g4xx_hal_tim.c ****   htim->PWM_MspDeInitCallback(htim);
1411:Drivers/STM32G4xx_HAL_Driver/Src/stm32g4xx_hal_tim.c **** #else
1412:Drivers/STM32G4xx_HAL_Driver/Src/stm32g4xx_hal_tim.c ****   /* DeInit the low level hardware: GPIO, CLOCK, NVIC and DMA */
1413:Drivers/STM32G4xx_HAL_Driver/Src/stm32g4xx_hal_tim.c ****   HAL_TIM_PWM_MspDeInit(htim);
1414:Drivers/STM32G4xx_HAL_Driver/Src/stm32g4xx_hal_tim.c **** #endif /* USE_HAL_TIM_REGISTER_CALLBACKS */
1415:Drivers/STM32G4xx_HAL_Driver/Src/stm32g4xx_hal_tim.c **** 
1416:Drivers/STM32G4xx_HAL_Driver/Src/stm32g4xx_hal_tim.c ****   /* Change the DMA burst operation state */
1417:Drivers/STM32G4xx_HAL_Driver/Src/stm32g4xx_hal_tim.c ****   htim->DMABurstState = HAL_DMA_BURST_STATE_RESET;
1418:Drivers/STM32G4xx_HAL_Driver/Src/stm32g4xx_hal_tim.c **** 
1419:Drivers/STM32G4xx_HAL_Driver/Src/stm32g4xx_hal_tim.c ****   /* Change the TIM channels state */
1420:Drivers/STM32G4xx_HAL_Driver/Src/stm32g4xx_hal_tim.c ****   TIM_CHANNEL_STATE_SET_ALL(htim, HAL_TIM_CHANNEL_STATE_RESET);
1421:Drivers/STM32G4xx_HAL_Driver/Src/stm32g4xx_hal_tim.c ****   TIM_CHANNEL_N_STATE_SET_ALL(htim, HAL_TIM_CHANNEL_STATE_RESET);
1422:Drivers/STM32G4xx_HAL_Driver/Src/stm32g4xx_hal_tim.c **** 
1423:Drivers/STM32G4xx_HAL_Driver/Src/stm32g4xx_hal_tim.c ****   /* Change TIM state */
1424:Drivers/STM32G4xx_HAL_Driver/Src/stm32g4xx_hal_tim.c ****   htim->State = HAL_TIM_STATE_RESET;
1425:Drivers/STM32G4xx_HAL_Driver/Src/stm32g4xx_hal_tim.c **** 
1426:Drivers/STM32G4xx_HAL_Driver/Src/stm32g4xx_hal_tim.c ****   /* Release Lock */
1427:Drivers/STM32G4xx_HAL_Driver/Src/stm32g4xx_hal_tim.c ****   __HAL_UNLOCK(htim);
1428:Drivers/STM32G4xx_HAL_Driver/Src/stm32g4xx_hal_tim.c **** 
1429:Drivers/STM32G4xx_HAL_Driver/Src/stm32g4xx_hal_tim.c ****   return HAL_OK;
1430:Drivers/STM32G4xx_HAL_Driver/Src/stm32g4xx_hal_tim.c **** }
1431:Drivers/STM32G4xx_HAL_Driver/Src/stm32g4xx_hal_tim.c **** 
1432:Drivers/STM32G4xx_HAL_Driver/Src/stm32g4xx_hal_tim.c **** /**
1433:Drivers/STM32G4xx_HAL_Driver/Src/stm32g4xx_hal_tim.c ****   * @brief  Initializes the TIM PWM MSP.
1434:Drivers/STM32G4xx_HAL_Driver/Src/stm32g4xx_hal_tim.c ****   * @param  htim TIM PWM handle
1435:Drivers/STM32G4xx_HAL_Driver/Src/stm32g4xx_hal_tim.c ****   * @retval None
ARM GAS  /tmp/ccKRAx5z.s 			page 28


1436:Drivers/STM32G4xx_HAL_Driver/Src/stm32g4xx_hal_tim.c ****   */
1437:Drivers/STM32G4xx_HAL_Driver/Src/stm32g4xx_hal_tim.c **** __weak void HAL_TIM_PWM_MspInit(TIM_HandleTypeDef *htim)
1438:Drivers/STM32G4xx_HAL_Driver/Src/stm32g4xx_hal_tim.c **** {
 114              		.loc 1 1438 1 is_stmt 1 view -0
 115              		.cfi_startproc
 116              		@ args = 0, pretend = 0, frame = 0
 117              		@ frame_needed = 0, uses_anonymous_args = 0
 118              		@ link register save eliminated.
1439:Drivers/STM32G4xx_HAL_Driver/Src/stm32g4xx_hal_tim.c ****   /* Prevent unused argument(s) compilation warning */
1440:Drivers/STM32G4xx_HAL_Driver/Src/stm32g4xx_hal_tim.c ****   UNUSED(htim);
 119              		.loc 1 1440 3 view .LVU13
1441:Drivers/STM32G4xx_HAL_Driver/Src/stm32g4xx_hal_tim.c **** 
1442:Drivers/STM32G4xx_HAL_Driver/Src/stm32g4xx_hal_tim.c ****   /* NOTE : This function should not be modified, when the callback is needed,
1443:Drivers/STM32G4xx_HAL_Driver/Src/stm32g4xx_hal_tim.c ****             the HAL_TIM_PWM_MspInit could be implemented in the user file
1444:Drivers/STM32G4xx_HAL_Driver/Src/stm32g4xx_hal_tim.c ****    */
1445:Drivers/STM32G4xx_HAL_Driver/Src/stm32g4xx_hal_tim.c **** }
 120              		.loc 1 1445 1 is_stmt 0 view .LVU14
 121 0000 7047     		bx	lr
 122              		.cfi_endproc
 123              	.LFE351:
 125              		.section	.text.HAL_TIM_PWM_MspDeInit,"ax",%progbits
 126              		.align	1
 127              		.weak	HAL_TIM_PWM_MspDeInit
 128              		.syntax unified
 129              		.thumb
 130              		.thumb_func
 132              	HAL_TIM_PWM_MspDeInit:
 133              	.LVL5:
 134              	.LFB352:
1446:Drivers/STM32G4xx_HAL_Driver/Src/stm32g4xx_hal_tim.c **** 
1447:Drivers/STM32G4xx_HAL_Driver/Src/stm32g4xx_hal_tim.c **** /**
1448:Drivers/STM32G4xx_HAL_Driver/Src/stm32g4xx_hal_tim.c ****   * @brief  DeInitializes TIM PWM MSP.
1449:Drivers/STM32G4xx_HAL_Driver/Src/stm32g4xx_hal_tim.c ****   * @param  htim TIM PWM handle
1450:Drivers/STM32G4xx_HAL_Driver/Src/stm32g4xx_hal_tim.c ****   * @retval None
1451:Drivers/STM32G4xx_HAL_Driver/Src/stm32g4xx_hal_tim.c ****   */
1452:Drivers/STM32G4xx_HAL_Driver/Src/stm32g4xx_hal_tim.c **** __weak void HAL_TIM_PWM_MspDeInit(TIM_HandleTypeDef *htim)
1453:Drivers/STM32G4xx_HAL_Driver/Src/stm32g4xx_hal_tim.c **** {
 135              		.loc 1 1453 1 is_stmt 1 view -0
 136              		.cfi_startproc
 137              		@ args = 0, pretend = 0, frame = 0
 138              		@ frame_needed = 0, uses_anonymous_args = 0
 139              		@ link register save eliminated.
1454:Drivers/STM32G4xx_HAL_Driver/Src/stm32g4xx_hal_tim.c ****   /* Prevent unused argument(s) compilation warning */
1455:Drivers/STM32G4xx_HAL_Driver/Src/stm32g4xx_hal_tim.c ****   UNUSED(htim);
 140              		.loc 1 1455 3 view .LVU16
1456:Drivers/STM32G4xx_HAL_Driver/Src/stm32g4xx_hal_tim.c **** 
1457:Drivers/STM32G4xx_HAL_Driver/Src/stm32g4xx_hal_tim.c ****   /* NOTE : This function should not be modified, when the callback is needed,
1458:Drivers/STM32G4xx_HAL_Driver/Src/stm32g4xx_hal_tim.c ****             the HAL_TIM_PWM_MspDeInit could be implemented in the user file
1459:Drivers/STM32G4xx_HAL_Driver/Src/stm32g4xx_hal_tim.c ****    */
1460:Drivers/STM32G4xx_HAL_Driver/Src/stm32g4xx_hal_tim.c **** }
 141              		.loc 1 1460 1 is_stmt 0 view .LVU17
 142 0000 7047     		bx	lr
 143              		.cfi_endproc
 144              	.LFE352:
 146              		.section	.text.HAL_TIM_IC_MspInit,"ax",%progbits
 147              		.align	1
 148              		.weak	HAL_TIM_IC_MspInit
ARM GAS  /tmp/ccKRAx5z.s 			page 29


 149              		.syntax unified
 150              		.thumb
 151              		.thumb_func
 153              	HAL_TIM_IC_MspInit:
 154              	.LVL6:
 155              	.LFB361:
1461:Drivers/STM32G4xx_HAL_Driver/Src/stm32g4xx_hal_tim.c **** 
1462:Drivers/STM32G4xx_HAL_Driver/Src/stm32g4xx_hal_tim.c **** /**
1463:Drivers/STM32G4xx_HAL_Driver/Src/stm32g4xx_hal_tim.c ****   * @brief  Starts the PWM signal generation.
1464:Drivers/STM32G4xx_HAL_Driver/Src/stm32g4xx_hal_tim.c ****   * @param  htim TIM handle
1465:Drivers/STM32G4xx_HAL_Driver/Src/stm32g4xx_hal_tim.c ****   * @param  Channel TIM Channels to be enabled
1466:Drivers/STM32G4xx_HAL_Driver/Src/stm32g4xx_hal_tim.c ****   *          This parameter can be one of the following values:
1467:Drivers/STM32G4xx_HAL_Driver/Src/stm32g4xx_hal_tim.c ****   *            @arg TIM_CHANNEL_1: TIM Channel 1 selected
1468:Drivers/STM32G4xx_HAL_Driver/Src/stm32g4xx_hal_tim.c ****   *            @arg TIM_CHANNEL_2: TIM Channel 2 selected
1469:Drivers/STM32G4xx_HAL_Driver/Src/stm32g4xx_hal_tim.c ****   *            @arg TIM_CHANNEL_3: TIM Channel 3 selected
1470:Drivers/STM32G4xx_HAL_Driver/Src/stm32g4xx_hal_tim.c ****   *            @arg TIM_CHANNEL_4: TIM Channel 4 selected
1471:Drivers/STM32G4xx_HAL_Driver/Src/stm32g4xx_hal_tim.c ****   *            @arg TIM_CHANNEL_5: TIM Channel 5 selected
1472:Drivers/STM32G4xx_HAL_Driver/Src/stm32g4xx_hal_tim.c ****   *            @arg TIM_CHANNEL_6: TIM Channel 6 selected
1473:Drivers/STM32G4xx_HAL_Driver/Src/stm32g4xx_hal_tim.c ****   * @retval HAL status
1474:Drivers/STM32G4xx_HAL_Driver/Src/stm32g4xx_hal_tim.c ****   */
1475:Drivers/STM32G4xx_HAL_Driver/Src/stm32g4xx_hal_tim.c **** HAL_StatusTypeDef HAL_TIM_PWM_Start(TIM_HandleTypeDef *htim, uint32_t Channel)
1476:Drivers/STM32G4xx_HAL_Driver/Src/stm32g4xx_hal_tim.c **** {
1477:Drivers/STM32G4xx_HAL_Driver/Src/stm32g4xx_hal_tim.c ****   uint32_t tmpsmcr;
1478:Drivers/STM32G4xx_HAL_Driver/Src/stm32g4xx_hal_tim.c **** 
1479:Drivers/STM32G4xx_HAL_Driver/Src/stm32g4xx_hal_tim.c ****   /* Check the parameters */
1480:Drivers/STM32G4xx_HAL_Driver/Src/stm32g4xx_hal_tim.c ****   assert_param(IS_TIM_CCX_INSTANCE(htim->Instance, Channel));
1481:Drivers/STM32G4xx_HAL_Driver/Src/stm32g4xx_hal_tim.c **** 
1482:Drivers/STM32G4xx_HAL_Driver/Src/stm32g4xx_hal_tim.c ****   /* Check the TIM channel state */
1483:Drivers/STM32G4xx_HAL_Driver/Src/stm32g4xx_hal_tim.c ****   if (TIM_CHANNEL_STATE_GET(htim, Channel) != HAL_TIM_CHANNEL_STATE_READY)
1484:Drivers/STM32G4xx_HAL_Driver/Src/stm32g4xx_hal_tim.c ****   {
1485:Drivers/STM32G4xx_HAL_Driver/Src/stm32g4xx_hal_tim.c ****     return HAL_ERROR;
1486:Drivers/STM32G4xx_HAL_Driver/Src/stm32g4xx_hal_tim.c ****   }
1487:Drivers/STM32G4xx_HAL_Driver/Src/stm32g4xx_hal_tim.c **** 
1488:Drivers/STM32G4xx_HAL_Driver/Src/stm32g4xx_hal_tim.c ****   /* Set the TIM channel state */
1489:Drivers/STM32G4xx_HAL_Driver/Src/stm32g4xx_hal_tim.c ****   TIM_CHANNEL_STATE_SET(htim, Channel, HAL_TIM_CHANNEL_STATE_BUSY);
1490:Drivers/STM32G4xx_HAL_Driver/Src/stm32g4xx_hal_tim.c **** 
1491:Drivers/STM32G4xx_HAL_Driver/Src/stm32g4xx_hal_tim.c ****   /* Enable the Capture compare channel */
1492:Drivers/STM32G4xx_HAL_Driver/Src/stm32g4xx_hal_tim.c ****   TIM_CCxChannelCmd(htim->Instance, Channel, TIM_CCx_ENABLE);
1493:Drivers/STM32G4xx_HAL_Driver/Src/stm32g4xx_hal_tim.c **** 
1494:Drivers/STM32G4xx_HAL_Driver/Src/stm32g4xx_hal_tim.c ****   if (IS_TIM_BREAK_INSTANCE(htim->Instance) != RESET)
1495:Drivers/STM32G4xx_HAL_Driver/Src/stm32g4xx_hal_tim.c ****   {
1496:Drivers/STM32G4xx_HAL_Driver/Src/stm32g4xx_hal_tim.c ****     /* Enable the main output */
1497:Drivers/STM32G4xx_HAL_Driver/Src/stm32g4xx_hal_tim.c ****     __HAL_TIM_MOE_ENABLE(htim);
1498:Drivers/STM32G4xx_HAL_Driver/Src/stm32g4xx_hal_tim.c ****   }
1499:Drivers/STM32G4xx_HAL_Driver/Src/stm32g4xx_hal_tim.c **** 
1500:Drivers/STM32G4xx_HAL_Driver/Src/stm32g4xx_hal_tim.c ****   /* Enable the Peripheral, except in trigger mode where enable is automatically done with trigger 
1501:Drivers/STM32G4xx_HAL_Driver/Src/stm32g4xx_hal_tim.c ****   if (IS_TIM_SLAVE_INSTANCE(htim->Instance))
1502:Drivers/STM32G4xx_HAL_Driver/Src/stm32g4xx_hal_tim.c ****   {
1503:Drivers/STM32G4xx_HAL_Driver/Src/stm32g4xx_hal_tim.c ****     tmpsmcr = htim->Instance->SMCR & TIM_SMCR_SMS;
1504:Drivers/STM32G4xx_HAL_Driver/Src/stm32g4xx_hal_tim.c ****     if (!IS_TIM_SLAVEMODE_TRIGGER_ENABLED(tmpsmcr))
1505:Drivers/STM32G4xx_HAL_Driver/Src/stm32g4xx_hal_tim.c ****     {
1506:Drivers/STM32G4xx_HAL_Driver/Src/stm32g4xx_hal_tim.c ****       __HAL_TIM_ENABLE(htim);
1507:Drivers/STM32G4xx_HAL_Driver/Src/stm32g4xx_hal_tim.c ****     }
1508:Drivers/STM32G4xx_HAL_Driver/Src/stm32g4xx_hal_tim.c ****   }
1509:Drivers/STM32G4xx_HAL_Driver/Src/stm32g4xx_hal_tim.c ****   else
1510:Drivers/STM32G4xx_HAL_Driver/Src/stm32g4xx_hal_tim.c ****   {
1511:Drivers/STM32G4xx_HAL_Driver/Src/stm32g4xx_hal_tim.c ****     __HAL_TIM_ENABLE(htim);
ARM GAS  /tmp/ccKRAx5z.s 			page 30


1512:Drivers/STM32G4xx_HAL_Driver/Src/stm32g4xx_hal_tim.c ****   }
1513:Drivers/STM32G4xx_HAL_Driver/Src/stm32g4xx_hal_tim.c **** 
1514:Drivers/STM32G4xx_HAL_Driver/Src/stm32g4xx_hal_tim.c ****   /* Return function status */
1515:Drivers/STM32G4xx_HAL_Driver/Src/stm32g4xx_hal_tim.c ****   return HAL_OK;
1516:Drivers/STM32G4xx_HAL_Driver/Src/stm32g4xx_hal_tim.c **** }
1517:Drivers/STM32G4xx_HAL_Driver/Src/stm32g4xx_hal_tim.c **** 
1518:Drivers/STM32G4xx_HAL_Driver/Src/stm32g4xx_hal_tim.c **** /**
1519:Drivers/STM32G4xx_HAL_Driver/Src/stm32g4xx_hal_tim.c ****   * @brief  Stops the PWM signal generation.
1520:Drivers/STM32G4xx_HAL_Driver/Src/stm32g4xx_hal_tim.c ****   * @param  htim TIM PWM handle
1521:Drivers/STM32G4xx_HAL_Driver/Src/stm32g4xx_hal_tim.c ****   * @param  Channel TIM Channels to be disabled
1522:Drivers/STM32G4xx_HAL_Driver/Src/stm32g4xx_hal_tim.c ****   *          This parameter can be one of the following values:
1523:Drivers/STM32G4xx_HAL_Driver/Src/stm32g4xx_hal_tim.c ****   *            @arg TIM_CHANNEL_1: TIM Channel 1 selected
1524:Drivers/STM32G4xx_HAL_Driver/Src/stm32g4xx_hal_tim.c ****   *            @arg TIM_CHANNEL_2: TIM Channel 2 selected
1525:Drivers/STM32G4xx_HAL_Driver/Src/stm32g4xx_hal_tim.c ****   *            @arg TIM_CHANNEL_3: TIM Channel 3 selected
1526:Drivers/STM32G4xx_HAL_Driver/Src/stm32g4xx_hal_tim.c ****   *            @arg TIM_CHANNEL_4: TIM Channel 4 selected
1527:Drivers/STM32G4xx_HAL_Driver/Src/stm32g4xx_hal_tim.c ****   *            @arg TIM_CHANNEL_5: TIM Channel 5 selected
1528:Drivers/STM32G4xx_HAL_Driver/Src/stm32g4xx_hal_tim.c ****   *            @arg TIM_CHANNEL_6: TIM Channel 6 selected
1529:Drivers/STM32G4xx_HAL_Driver/Src/stm32g4xx_hal_tim.c ****   * @retval HAL status
1530:Drivers/STM32G4xx_HAL_Driver/Src/stm32g4xx_hal_tim.c ****   */
1531:Drivers/STM32G4xx_HAL_Driver/Src/stm32g4xx_hal_tim.c **** HAL_StatusTypeDef HAL_TIM_PWM_Stop(TIM_HandleTypeDef *htim, uint32_t Channel)
1532:Drivers/STM32G4xx_HAL_Driver/Src/stm32g4xx_hal_tim.c **** {
1533:Drivers/STM32G4xx_HAL_Driver/Src/stm32g4xx_hal_tim.c ****   /* Check the parameters */
1534:Drivers/STM32G4xx_HAL_Driver/Src/stm32g4xx_hal_tim.c ****   assert_param(IS_TIM_CCX_INSTANCE(htim->Instance, Channel));
1535:Drivers/STM32G4xx_HAL_Driver/Src/stm32g4xx_hal_tim.c **** 
1536:Drivers/STM32G4xx_HAL_Driver/Src/stm32g4xx_hal_tim.c ****   /* Disable the Capture compare channel */
1537:Drivers/STM32G4xx_HAL_Driver/Src/stm32g4xx_hal_tim.c ****   TIM_CCxChannelCmd(htim->Instance, Channel, TIM_CCx_DISABLE);
1538:Drivers/STM32G4xx_HAL_Driver/Src/stm32g4xx_hal_tim.c **** 
1539:Drivers/STM32G4xx_HAL_Driver/Src/stm32g4xx_hal_tim.c ****   if (IS_TIM_BREAK_INSTANCE(htim->Instance) != RESET)
1540:Drivers/STM32G4xx_HAL_Driver/Src/stm32g4xx_hal_tim.c ****   {
1541:Drivers/STM32G4xx_HAL_Driver/Src/stm32g4xx_hal_tim.c ****     /* Disable the Main Output */
1542:Drivers/STM32G4xx_HAL_Driver/Src/stm32g4xx_hal_tim.c ****     __HAL_TIM_MOE_DISABLE(htim);
1543:Drivers/STM32G4xx_HAL_Driver/Src/stm32g4xx_hal_tim.c ****   }
1544:Drivers/STM32G4xx_HAL_Driver/Src/stm32g4xx_hal_tim.c **** 
1545:Drivers/STM32G4xx_HAL_Driver/Src/stm32g4xx_hal_tim.c ****   /* Disable the Peripheral */
1546:Drivers/STM32G4xx_HAL_Driver/Src/stm32g4xx_hal_tim.c ****   __HAL_TIM_DISABLE(htim);
1547:Drivers/STM32G4xx_HAL_Driver/Src/stm32g4xx_hal_tim.c **** 
1548:Drivers/STM32G4xx_HAL_Driver/Src/stm32g4xx_hal_tim.c ****   /* Set the TIM channel state */
1549:Drivers/STM32G4xx_HAL_Driver/Src/stm32g4xx_hal_tim.c ****   TIM_CHANNEL_STATE_SET(htim, Channel, HAL_TIM_CHANNEL_STATE_READY);
1550:Drivers/STM32G4xx_HAL_Driver/Src/stm32g4xx_hal_tim.c **** 
1551:Drivers/STM32G4xx_HAL_Driver/Src/stm32g4xx_hal_tim.c ****   /* Return function status */
1552:Drivers/STM32G4xx_HAL_Driver/Src/stm32g4xx_hal_tim.c ****   return HAL_OK;
1553:Drivers/STM32G4xx_HAL_Driver/Src/stm32g4xx_hal_tim.c **** }
1554:Drivers/STM32G4xx_HAL_Driver/Src/stm32g4xx_hal_tim.c **** 
1555:Drivers/STM32G4xx_HAL_Driver/Src/stm32g4xx_hal_tim.c **** /**
1556:Drivers/STM32G4xx_HAL_Driver/Src/stm32g4xx_hal_tim.c ****   * @brief  Starts the PWM signal generation in interrupt mode.
1557:Drivers/STM32G4xx_HAL_Driver/Src/stm32g4xx_hal_tim.c ****   * @param  htim TIM PWM handle
1558:Drivers/STM32G4xx_HAL_Driver/Src/stm32g4xx_hal_tim.c ****   * @param  Channel TIM Channel to be enabled
1559:Drivers/STM32G4xx_HAL_Driver/Src/stm32g4xx_hal_tim.c ****   *          This parameter can be one of the following values:
1560:Drivers/STM32G4xx_HAL_Driver/Src/stm32g4xx_hal_tim.c ****   *            @arg TIM_CHANNEL_1: TIM Channel 1 selected
1561:Drivers/STM32G4xx_HAL_Driver/Src/stm32g4xx_hal_tim.c ****   *            @arg TIM_CHANNEL_2: TIM Channel 2 selected
1562:Drivers/STM32G4xx_HAL_Driver/Src/stm32g4xx_hal_tim.c ****   *            @arg TIM_CHANNEL_3: TIM Channel 3 selected
1563:Drivers/STM32G4xx_HAL_Driver/Src/stm32g4xx_hal_tim.c ****   *            @arg TIM_CHANNEL_4: TIM Channel 4 selected
1564:Drivers/STM32G4xx_HAL_Driver/Src/stm32g4xx_hal_tim.c ****   * @retval HAL status
1565:Drivers/STM32G4xx_HAL_Driver/Src/stm32g4xx_hal_tim.c ****   */
1566:Drivers/STM32G4xx_HAL_Driver/Src/stm32g4xx_hal_tim.c **** HAL_StatusTypeDef HAL_TIM_PWM_Start_IT(TIM_HandleTypeDef *htim, uint32_t Channel)
1567:Drivers/STM32G4xx_HAL_Driver/Src/stm32g4xx_hal_tim.c **** {
1568:Drivers/STM32G4xx_HAL_Driver/Src/stm32g4xx_hal_tim.c ****   HAL_StatusTypeDef status = HAL_OK;
ARM GAS  /tmp/ccKRAx5z.s 			page 31


1569:Drivers/STM32G4xx_HAL_Driver/Src/stm32g4xx_hal_tim.c ****   uint32_t tmpsmcr;
1570:Drivers/STM32G4xx_HAL_Driver/Src/stm32g4xx_hal_tim.c **** 
1571:Drivers/STM32G4xx_HAL_Driver/Src/stm32g4xx_hal_tim.c ****   /* Check the parameters */
1572:Drivers/STM32G4xx_HAL_Driver/Src/stm32g4xx_hal_tim.c ****   assert_param(IS_TIM_CCX_CHANNEL(htim->Instance, Channel));
1573:Drivers/STM32G4xx_HAL_Driver/Src/stm32g4xx_hal_tim.c **** 
1574:Drivers/STM32G4xx_HAL_Driver/Src/stm32g4xx_hal_tim.c ****   /* Check the TIM channel state */
1575:Drivers/STM32G4xx_HAL_Driver/Src/stm32g4xx_hal_tim.c ****   if (TIM_CHANNEL_STATE_GET(htim, Channel) != HAL_TIM_CHANNEL_STATE_READY)
1576:Drivers/STM32G4xx_HAL_Driver/Src/stm32g4xx_hal_tim.c ****   {
1577:Drivers/STM32G4xx_HAL_Driver/Src/stm32g4xx_hal_tim.c ****     return HAL_ERROR;
1578:Drivers/STM32G4xx_HAL_Driver/Src/stm32g4xx_hal_tim.c ****   }
1579:Drivers/STM32G4xx_HAL_Driver/Src/stm32g4xx_hal_tim.c **** 
1580:Drivers/STM32G4xx_HAL_Driver/Src/stm32g4xx_hal_tim.c ****   /* Set the TIM channel state */
1581:Drivers/STM32G4xx_HAL_Driver/Src/stm32g4xx_hal_tim.c ****   TIM_CHANNEL_STATE_SET(htim, Channel, HAL_TIM_CHANNEL_STATE_BUSY);
1582:Drivers/STM32G4xx_HAL_Driver/Src/stm32g4xx_hal_tim.c **** 
1583:Drivers/STM32G4xx_HAL_Driver/Src/stm32g4xx_hal_tim.c ****   switch (Channel)
1584:Drivers/STM32G4xx_HAL_Driver/Src/stm32g4xx_hal_tim.c ****   {
1585:Drivers/STM32G4xx_HAL_Driver/Src/stm32g4xx_hal_tim.c ****     case TIM_CHANNEL_1:
1586:Drivers/STM32G4xx_HAL_Driver/Src/stm32g4xx_hal_tim.c ****     {
1587:Drivers/STM32G4xx_HAL_Driver/Src/stm32g4xx_hal_tim.c ****       /* Enable the TIM Capture/Compare 1 interrupt */
1588:Drivers/STM32G4xx_HAL_Driver/Src/stm32g4xx_hal_tim.c ****       __HAL_TIM_ENABLE_IT(htim, TIM_IT_CC1);
1589:Drivers/STM32G4xx_HAL_Driver/Src/stm32g4xx_hal_tim.c ****       break;
1590:Drivers/STM32G4xx_HAL_Driver/Src/stm32g4xx_hal_tim.c ****     }
1591:Drivers/STM32G4xx_HAL_Driver/Src/stm32g4xx_hal_tim.c **** 
1592:Drivers/STM32G4xx_HAL_Driver/Src/stm32g4xx_hal_tim.c ****     case TIM_CHANNEL_2:
1593:Drivers/STM32G4xx_HAL_Driver/Src/stm32g4xx_hal_tim.c ****     {
1594:Drivers/STM32G4xx_HAL_Driver/Src/stm32g4xx_hal_tim.c ****       /* Enable the TIM Capture/Compare 2 interrupt */
1595:Drivers/STM32G4xx_HAL_Driver/Src/stm32g4xx_hal_tim.c ****       __HAL_TIM_ENABLE_IT(htim, TIM_IT_CC2);
1596:Drivers/STM32G4xx_HAL_Driver/Src/stm32g4xx_hal_tim.c ****       break;
1597:Drivers/STM32G4xx_HAL_Driver/Src/stm32g4xx_hal_tim.c ****     }
1598:Drivers/STM32G4xx_HAL_Driver/Src/stm32g4xx_hal_tim.c **** 
1599:Drivers/STM32G4xx_HAL_Driver/Src/stm32g4xx_hal_tim.c ****     case TIM_CHANNEL_3:
1600:Drivers/STM32G4xx_HAL_Driver/Src/stm32g4xx_hal_tim.c ****     {
1601:Drivers/STM32G4xx_HAL_Driver/Src/stm32g4xx_hal_tim.c ****       /* Enable the TIM Capture/Compare 3 interrupt */
1602:Drivers/STM32G4xx_HAL_Driver/Src/stm32g4xx_hal_tim.c ****       __HAL_TIM_ENABLE_IT(htim, TIM_IT_CC3);
1603:Drivers/STM32G4xx_HAL_Driver/Src/stm32g4xx_hal_tim.c ****       break;
1604:Drivers/STM32G4xx_HAL_Driver/Src/stm32g4xx_hal_tim.c ****     }
1605:Drivers/STM32G4xx_HAL_Driver/Src/stm32g4xx_hal_tim.c **** 
1606:Drivers/STM32G4xx_HAL_Driver/Src/stm32g4xx_hal_tim.c ****     case TIM_CHANNEL_4:
1607:Drivers/STM32G4xx_HAL_Driver/Src/stm32g4xx_hal_tim.c ****     {
1608:Drivers/STM32G4xx_HAL_Driver/Src/stm32g4xx_hal_tim.c ****       /* Enable the TIM Capture/Compare 4 interrupt */
1609:Drivers/STM32G4xx_HAL_Driver/Src/stm32g4xx_hal_tim.c ****       __HAL_TIM_ENABLE_IT(htim, TIM_IT_CC4);
1610:Drivers/STM32G4xx_HAL_Driver/Src/stm32g4xx_hal_tim.c ****       break;
1611:Drivers/STM32G4xx_HAL_Driver/Src/stm32g4xx_hal_tim.c ****     }
1612:Drivers/STM32G4xx_HAL_Driver/Src/stm32g4xx_hal_tim.c **** 
1613:Drivers/STM32G4xx_HAL_Driver/Src/stm32g4xx_hal_tim.c ****     default:
1614:Drivers/STM32G4xx_HAL_Driver/Src/stm32g4xx_hal_tim.c ****       status = HAL_ERROR;
1615:Drivers/STM32G4xx_HAL_Driver/Src/stm32g4xx_hal_tim.c ****       break;
1616:Drivers/STM32G4xx_HAL_Driver/Src/stm32g4xx_hal_tim.c ****   }
1617:Drivers/STM32G4xx_HAL_Driver/Src/stm32g4xx_hal_tim.c **** 
1618:Drivers/STM32G4xx_HAL_Driver/Src/stm32g4xx_hal_tim.c ****   if (status == HAL_OK)
1619:Drivers/STM32G4xx_HAL_Driver/Src/stm32g4xx_hal_tim.c ****   {
1620:Drivers/STM32G4xx_HAL_Driver/Src/stm32g4xx_hal_tim.c ****     /* Enable the Capture compare channel */
1621:Drivers/STM32G4xx_HAL_Driver/Src/stm32g4xx_hal_tim.c ****     TIM_CCxChannelCmd(htim->Instance, Channel, TIM_CCx_ENABLE);
1622:Drivers/STM32G4xx_HAL_Driver/Src/stm32g4xx_hal_tim.c **** 
1623:Drivers/STM32G4xx_HAL_Driver/Src/stm32g4xx_hal_tim.c ****     if (IS_TIM_BREAK_INSTANCE(htim->Instance) != RESET)
1624:Drivers/STM32G4xx_HAL_Driver/Src/stm32g4xx_hal_tim.c ****     {
1625:Drivers/STM32G4xx_HAL_Driver/Src/stm32g4xx_hal_tim.c ****       /* Enable the main output */
ARM GAS  /tmp/ccKRAx5z.s 			page 32


1626:Drivers/STM32G4xx_HAL_Driver/Src/stm32g4xx_hal_tim.c ****       __HAL_TIM_MOE_ENABLE(htim);
1627:Drivers/STM32G4xx_HAL_Driver/Src/stm32g4xx_hal_tim.c ****     }
1628:Drivers/STM32G4xx_HAL_Driver/Src/stm32g4xx_hal_tim.c **** 
1629:Drivers/STM32G4xx_HAL_Driver/Src/stm32g4xx_hal_tim.c ****     /* Enable the Peripheral, except in trigger mode where enable is automatically done with trigge
1630:Drivers/STM32G4xx_HAL_Driver/Src/stm32g4xx_hal_tim.c ****     if (IS_TIM_SLAVE_INSTANCE(htim->Instance))
1631:Drivers/STM32G4xx_HAL_Driver/Src/stm32g4xx_hal_tim.c ****     {
1632:Drivers/STM32G4xx_HAL_Driver/Src/stm32g4xx_hal_tim.c ****       tmpsmcr = htim->Instance->SMCR & TIM_SMCR_SMS;
1633:Drivers/STM32G4xx_HAL_Driver/Src/stm32g4xx_hal_tim.c ****       if (!IS_TIM_SLAVEMODE_TRIGGER_ENABLED(tmpsmcr))
1634:Drivers/STM32G4xx_HAL_Driver/Src/stm32g4xx_hal_tim.c ****       {
1635:Drivers/STM32G4xx_HAL_Driver/Src/stm32g4xx_hal_tim.c ****         __HAL_TIM_ENABLE(htim);
1636:Drivers/STM32G4xx_HAL_Driver/Src/stm32g4xx_hal_tim.c ****       }
1637:Drivers/STM32G4xx_HAL_Driver/Src/stm32g4xx_hal_tim.c ****     }
1638:Drivers/STM32G4xx_HAL_Driver/Src/stm32g4xx_hal_tim.c ****     else
1639:Drivers/STM32G4xx_HAL_Driver/Src/stm32g4xx_hal_tim.c ****     {
1640:Drivers/STM32G4xx_HAL_Driver/Src/stm32g4xx_hal_tim.c ****       __HAL_TIM_ENABLE(htim);
1641:Drivers/STM32G4xx_HAL_Driver/Src/stm32g4xx_hal_tim.c ****     }
1642:Drivers/STM32G4xx_HAL_Driver/Src/stm32g4xx_hal_tim.c ****   }
1643:Drivers/STM32G4xx_HAL_Driver/Src/stm32g4xx_hal_tim.c **** 
1644:Drivers/STM32G4xx_HAL_Driver/Src/stm32g4xx_hal_tim.c ****   /* Return function status */
1645:Drivers/STM32G4xx_HAL_Driver/Src/stm32g4xx_hal_tim.c ****   return status;
1646:Drivers/STM32G4xx_HAL_Driver/Src/stm32g4xx_hal_tim.c **** }
1647:Drivers/STM32G4xx_HAL_Driver/Src/stm32g4xx_hal_tim.c **** 
1648:Drivers/STM32G4xx_HAL_Driver/Src/stm32g4xx_hal_tim.c **** /**
1649:Drivers/STM32G4xx_HAL_Driver/Src/stm32g4xx_hal_tim.c ****   * @brief  Stops the PWM signal generation in interrupt mode.
1650:Drivers/STM32G4xx_HAL_Driver/Src/stm32g4xx_hal_tim.c ****   * @param  htim TIM PWM handle
1651:Drivers/STM32G4xx_HAL_Driver/Src/stm32g4xx_hal_tim.c ****   * @param  Channel TIM Channels to be disabled
1652:Drivers/STM32G4xx_HAL_Driver/Src/stm32g4xx_hal_tim.c ****   *          This parameter can be one of the following values:
1653:Drivers/STM32G4xx_HAL_Driver/Src/stm32g4xx_hal_tim.c ****   *            @arg TIM_CHANNEL_1: TIM Channel 1 selected
1654:Drivers/STM32G4xx_HAL_Driver/Src/stm32g4xx_hal_tim.c ****   *            @arg TIM_CHANNEL_2: TIM Channel 2 selected
1655:Drivers/STM32G4xx_HAL_Driver/Src/stm32g4xx_hal_tim.c ****   *            @arg TIM_CHANNEL_3: TIM Channel 3 selected
1656:Drivers/STM32G4xx_HAL_Driver/Src/stm32g4xx_hal_tim.c ****   *            @arg TIM_CHANNEL_4: TIM Channel 4 selected
1657:Drivers/STM32G4xx_HAL_Driver/Src/stm32g4xx_hal_tim.c ****   * @retval HAL status
1658:Drivers/STM32G4xx_HAL_Driver/Src/stm32g4xx_hal_tim.c ****   */
1659:Drivers/STM32G4xx_HAL_Driver/Src/stm32g4xx_hal_tim.c **** HAL_StatusTypeDef HAL_TIM_PWM_Stop_IT(TIM_HandleTypeDef *htim, uint32_t Channel)
1660:Drivers/STM32G4xx_HAL_Driver/Src/stm32g4xx_hal_tim.c **** {
1661:Drivers/STM32G4xx_HAL_Driver/Src/stm32g4xx_hal_tim.c ****   HAL_StatusTypeDef status = HAL_OK;
1662:Drivers/STM32G4xx_HAL_Driver/Src/stm32g4xx_hal_tim.c **** 
1663:Drivers/STM32G4xx_HAL_Driver/Src/stm32g4xx_hal_tim.c ****   /* Check the parameters */
1664:Drivers/STM32G4xx_HAL_Driver/Src/stm32g4xx_hal_tim.c ****   assert_param(IS_TIM_CCX_CHANNEL(htim->Instance, Channel));
1665:Drivers/STM32G4xx_HAL_Driver/Src/stm32g4xx_hal_tim.c **** 
1666:Drivers/STM32G4xx_HAL_Driver/Src/stm32g4xx_hal_tim.c ****   switch (Channel)
1667:Drivers/STM32G4xx_HAL_Driver/Src/stm32g4xx_hal_tim.c ****   {
1668:Drivers/STM32G4xx_HAL_Driver/Src/stm32g4xx_hal_tim.c ****     case TIM_CHANNEL_1:
1669:Drivers/STM32G4xx_HAL_Driver/Src/stm32g4xx_hal_tim.c ****     {
1670:Drivers/STM32G4xx_HAL_Driver/Src/stm32g4xx_hal_tim.c ****       /* Disable the TIM Capture/Compare 1 interrupt */
1671:Drivers/STM32G4xx_HAL_Driver/Src/stm32g4xx_hal_tim.c ****       __HAL_TIM_DISABLE_IT(htim, TIM_IT_CC1);
1672:Drivers/STM32G4xx_HAL_Driver/Src/stm32g4xx_hal_tim.c ****       break;
1673:Drivers/STM32G4xx_HAL_Driver/Src/stm32g4xx_hal_tim.c ****     }
1674:Drivers/STM32G4xx_HAL_Driver/Src/stm32g4xx_hal_tim.c **** 
1675:Drivers/STM32G4xx_HAL_Driver/Src/stm32g4xx_hal_tim.c ****     case TIM_CHANNEL_2:
1676:Drivers/STM32G4xx_HAL_Driver/Src/stm32g4xx_hal_tim.c ****     {
1677:Drivers/STM32G4xx_HAL_Driver/Src/stm32g4xx_hal_tim.c ****       /* Disable the TIM Capture/Compare 2 interrupt */
1678:Drivers/STM32G4xx_HAL_Driver/Src/stm32g4xx_hal_tim.c ****       __HAL_TIM_DISABLE_IT(htim, TIM_IT_CC2);
1679:Drivers/STM32G4xx_HAL_Driver/Src/stm32g4xx_hal_tim.c ****       break;
1680:Drivers/STM32G4xx_HAL_Driver/Src/stm32g4xx_hal_tim.c ****     }
1681:Drivers/STM32G4xx_HAL_Driver/Src/stm32g4xx_hal_tim.c **** 
1682:Drivers/STM32G4xx_HAL_Driver/Src/stm32g4xx_hal_tim.c ****     case TIM_CHANNEL_3:
ARM GAS  /tmp/ccKRAx5z.s 			page 33


1683:Drivers/STM32G4xx_HAL_Driver/Src/stm32g4xx_hal_tim.c ****     {
1684:Drivers/STM32G4xx_HAL_Driver/Src/stm32g4xx_hal_tim.c ****       /* Disable the TIM Capture/Compare 3 interrupt */
1685:Drivers/STM32G4xx_HAL_Driver/Src/stm32g4xx_hal_tim.c ****       __HAL_TIM_DISABLE_IT(htim, TIM_IT_CC3);
1686:Drivers/STM32G4xx_HAL_Driver/Src/stm32g4xx_hal_tim.c ****       break;
1687:Drivers/STM32G4xx_HAL_Driver/Src/stm32g4xx_hal_tim.c ****     }
1688:Drivers/STM32G4xx_HAL_Driver/Src/stm32g4xx_hal_tim.c **** 
1689:Drivers/STM32G4xx_HAL_Driver/Src/stm32g4xx_hal_tim.c ****     case TIM_CHANNEL_4:
1690:Drivers/STM32G4xx_HAL_Driver/Src/stm32g4xx_hal_tim.c ****     {
1691:Drivers/STM32G4xx_HAL_Driver/Src/stm32g4xx_hal_tim.c ****       /* Disable the TIM Capture/Compare 4 interrupt */
1692:Drivers/STM32G4xx_HAL_Driver/Src/stm32g4xx_hal_tim.c ****       __HAL_TIM_DISABLE_IT(htim, TIM_IT_CC4);
1693:Drivers/STM32G4xx_HAL_Driver/Src/stm32g4xx_hal_tim.c ****       break;
1694:Drivers/STM32G4xx_HAL_Driver/Src/stm32g4xx_hal_tim.c ****     }
1695:Drivers/STM32G4xx_HAL_Driver/Src/stm32g4xx_hal_tim.c **** 
1696:Drivers/STM32G4xx_HAL_Driver/Src/stm32g4xx_hal_tim.c ****     default:
1697:Drivers/STM32G4xx_HAL_Driver/Src/stm32g4xx_hal_tim.c ****       status = HAL_ERROR;
1698:Drivers/STM32G4xx_HAL_Driver/Src/stm32g4xx_hal_tim.c ****       break;
1699:Drivers/STM32G4xx_HAL_Driver/Src/stm32g4xx_hal_tim.c ****   }
1700:Drivers/STM32G4xx_HAL_Driver/Src/stm32g4xx_hal_tim.c **** 
1701:Drivers/STM32G4xx_HAL_Driver/Src/stm32g4xx_hal_tim.c ****   if (status == HAL_OK)
1702:Drivers/STM32G4xx_HAL_Driver/Src/stm32g4xx_hal_tim.c ****   {
1703:Drivers/STM32G4xx_HAL_Driver/Src/stm32g4xx_hal_tim.c ****     /* Disable the Capture compare channel */
1704:Drivers/STM32G4xx_HAL_Driver/Src/stm32g4xx_hal_tim.c ****     TIM_CCxChannelCmd(htim->Instance, Channel, TIM_CCx_DISABLE);
1705:Drivers/STM32G4xx_HAL_Driver/Src/stm32g4xx_hal_tim.c **** 
1706:Drivers/STM32G4xx_HAL_Driver/Src/stm32g4xx_hal_tim.c ****     if (IS_TIM_BREAK_INSTANCE(htim->Instance) != RESET)
1707:Drivers/STM32G4xx_HAL_Driver/Src/stm32g4xx_hal_tim.c ****     {
1708:Drivers/STM32G4xx_HAL_Driver/Src/stm32g4xx_hal_tim.c ****       /* Disable the Main Output */
1709:Drivers/STM32G4xx_HAL_Driver/Src/stm32g4xx_hal_tim.c ****       __HAL_TIM_MOE_DISABLE(htim);
1710:Drivers/STM32G4xx_HAL_Driver/Src/stm32g4xx_hal_tim.c ****     }
1711:Drivers/STM32G4xx_HAL_Driver/Src/stm32g4xx_hal_tim.c **** 
1712:Drivers/STM32G4xx_HAL_Driver/Src/stm32g4xx_hal_tim.c ****     /* Disable the Peripheral */
1713:Drivers/STM32G4xx_HAL_Driver/Src/stm32g4xx_hal_tim.c ****     __HAL_TIM_DISABLE(htim);
1714:Drivers/STM32G4xx_HAL_Driver/Src/stm32g4xx_hal_tim.c **** 
1715:Drivers/STM32G4xx_HAL_Driver/Src/stm32g4xx_hal_tim.c ****     /* Set the TIM channel state */
1716:Drivers/STM32G4xx_HAL_Driver/Src/stm32g4xx_hal_tim.c ****     TIM_CHANNEL_STATE_SET(htim, Channel, HAL_TIM_CHANNEL_STATE_READY);
1717:Drivers/STM32G4xx_HAL_Driver/Src/stm32g4xx_hal_tim.c ****   }
1718:Drivers/STM32G4xx_HAL_Driver/Src/stm32g4xx_hal_tim.c **** 
1719:Drivers/STM32G4xx_HAL_Driver/Src/stm32g4xx_hal_tim.c ****   /* Return function status */
1720:Drivers/STM32G4xx_HAL_Driver/Src/stm32g4xx_hal_tim.c ****   return status;
1721:Drivers/STM32G4xx_HAL_Driver/Src/stm32g4xx_hal_tim.c **** }
1722:Drivers/STM32G4xx_HAL_Driver/Src/stm32g4xx_hal_tim.c **** 
1723:Drivers/STM32G4xx_HAL_Driver/Src/stm32g4xx_hal_tim.c **** /**
1724:Drivers/STM32G4xx_HAL_Driver/Src/stm32g4xx_hal_tim.c ****   * @brief  Starts the TIM PWM signal generation in DMA mode.
1725:Drivers/STM32G4xx_HAL_Driver/Src/stm32g4xx_hal_tim.c ****   * @param  htim TIM PWM handle
1726:Drivers/STM32G4xx_HAL_Driver/Src/stm32g4xx_hal_tim.c ****   * @param  Channel TIM Channels to be enabled
1727:Drivers/STM32G4xx_HAL_Driver/Src/stm32g4xx_hal_tim.c ****   *          This parameter can be one of the following values:
1728:Drivers/STM32G4xx_HAL_Driver/Src/stm32g4xx_hal_tim.c ****   *            @arg TIM_CHANNEL_1: TIM Channel 1 selected
1729:Drivers/STM32G4xx_HAL_Driver/Src/stm32g4xx_hal_tim.c ****   *            @arg TIM_CHANNEL_2: TIM Channel 2 selected
1730:Drivers/STM32G4xx_HAL_Driver/Src/stm32g4xx_hal_tim.c ****   *            @arg TIM_CHANNEL_3: TIM Channel 3 selected
1731:Drivers/STM32G4xx_HAL_Driver/Src/stm32g4xx_hal_tim.c ****   *            @arg TIM_CHANNEL_4: TIM Channel 4 selected
1732:Drivers/STM32G4xx_HAL_Driver/Src/stm32g4xx_hal_tim.c ****   * @param  pData The source Buffer address.
1733:Drivers/STM32G4xx_HAL_Driver/Src/stm32g4xx_hal_tim.c ****   * @param  Length The length of data to be transferred from memory to TIM peripheral
1734:Drivers/STM32G4xx_HAL_Driver/Src/stm32g4xx_hal_tim.c ****   * @retval HAL status
1735:Drivers/STM32G4xx_HAL_Driver/Src/stm32g4xx_hal_tim.c ****   */
1736:Drivers/STM32G4xx_HAL_Driver/Src/stm32g4xx_hal_tim.c **** HAL_StatusTypeDef HAL_TIM_PWM_Start_DMA(TIM_HandleTypeDef *htim, uint32_t Channel, const uint32_t *
1737:Drivers/STM32G4xx_HAL_Driver/Src/stm32g4xx_hal_tim.c ****                                         uint16_t Length)
1738:Drivers/STM32G4xx_HAL_Driver/Src/stm32g4xx_hal_tim.c **** {
1739:Drivers/STM32G4xx_HAL_Driver/Src/stm32g4xx_hal_tim.c ****   HAL_StatusTypeDef status = HAL_OK;
ARM GAS  /tmp/ccKRAx5z.s 			page 34


1740:Drivers/STM32G4xx_HAL_Driver/Src/stm32g4xx_hal_tim.c ****   uint32_t tmpsmcr;
1741:Drivers/STM32G4xx_HAL_Driver/Src/stm32g4xx_hal_tim.c **** 
1742:Drivers/STM32G4xx_HAL_Driver/Src/stm32g4xx_hal_tim.c ****   /* Check the parameters */
1743:Drivers/STM32G4xx_HAL_Driver/Src/stm32g4xx_hal_tim.c ****   assert_param(IS_TIM_CCX_CHANNEL(htim->Instance, Channel));
1744:Drivers/STM32G4xx_HAL_Driver/Src/stm32g4xx_hal_tim.c **** 
1745:Drivers/STM32G4xx_HAL_Driver/Src/stm32g4xx_hal_tim.c ****   /* Set the TIM channel state */
1746:Drivers/STM32G4xx_HAL_Driver/Src/stm32g4xx_hal_tim.c ****   if (TIM_CHANNEL_STATE_GET(htim, Channel) == HAL_TIM_CHANNEL_STATE_BUSY)
1747:Drivers/STM32G4xx_HAL_Driver/Src/stm32g4xx_hal_tim.c ****   {
1748:Drivers/STM32G4xx_HAL_Driver/Src/stm32g4xx_hal_tim.c ****     return HAL_BUSY;
1749:Drivers/STM32G4xx_HAL_Driver/Src/stm32g4xx_hal_tim.c ****   }
1750:Drivers/STM32G4xx_HAL_Driver/Src/stm32g4xx_hal_tim.c ****   else if (TIM_CHANNEL_STATE_GET(htim, Channel) == HAL_TIM_CHANNEL_STATE_READY)
1751:Drivers/STM32G4xx_HAL_Driver/Src/stm32g4xx_hal_tim.c ****   {
1752:Drivers/STM32G4xx_HAL_Driver/Src/stm32g4xx_hal_tim.c ****     if ((pData == NULL) || (Length == 0U))
1753:Drivers/STM32G4xx_HAL_Driver/Src/stm32g4xx_hal_tim.c ****     {
1754:Drivers/STM32G4xx_HAL_Driver/Src/stm32g4xx_hal_tim.c ****       return HAL_ERROR;
1755:Drivers/STM32G4xx_HAL_Driver/Src/stm32g4xx_hal_tim.c ****     }
1756:Drivers/STM32G4xx_HAL_Driver/Src/stm32g4xx_hal_tim.c ****     else
1757:Drivers/STM32G4xx_HAL_Driver/Src/stm32g4xx_hal_tim.c ****     {
1758:Drivers/STM32G4xx_HAL_Driver/Src/stm32g4xx_hal_tim.c ****       TIM_CHANNEL_STATE_SET(htim, Channel, HAL_TIM_CHANNEL_STATE_BUSY);
1759:Drivers/STM32G4xx_HAL_Driver/Src/stm32g4xx_hal_tim.c ****     }
1760:Drivers/STM32G4xx_HAL_Driver/Src/stm32g4xx_hal_tim.c ****   }
1761:Drivers/STM32G4xx_HAL_Driver/Src/stm32g4xx_hal_tim.c ****   else
1762:Drivers/STM32G4xx_HAL_Driver/Src/stm32g4xx_hal_tim.c ****   {
1763:Drivers/STM32G4xx_HAL_Driver/Src/stm32g4xx_hal_tim.c ****     return HAL_ERROR;
1764:Drivers/STM32G4xx_HAL_Driver/Src/stm32g4xx_hal_tim.c ****   }
1765:Drivers/STM32G4xx_HAL_Driver/Src/stm32g4xx_hal_tim.c **** 
1766:Drivers/STM32G4xx_HAL_Driver/Src/stm32g4xx_hal_tim.c ****   switch (Channel)
1767:Drivers/STM32G4xx_HAL_Driver/Src/stm32g4xx_hal_tim.c ****   {
1768:Drivers/STM32G4xx_HAL_Driver/Src/stm32g4xx_hal_tim.c ****     case TIM_CHANNEL_1:
1769:Drivers/STM32G4xx_HAL_Driver/Src/stm32g4xx_hal_tim.c ****     {
1770:Drivers/STM32G4xx_HAL_Driver/Src/stm32g4xx_hal_tim.c ****       /* Set the DMA compare callbacks */
1771:Drivers/STM32G4xx_HAL_Driver/Src/stm32g4xx_hal_tim.c ****       htim->hdma[TIM_DMA_ID_CC1]->XferCpltCallback = TIM_DMADelayPulseCplt;
1772:Drivers/STM32G4xx_HAL_Driver/Src/stm32g4xx_hal_tim.c ****       htim->hdma[TIM_DMA_ID_CC1]->XferHalfCpltCallback = TIM_DMADelayPulseHalfCplt;
1773:Drivers/STM32G4xx_HAL_Driver/Src/stm32g4xx_hal_tim.c **** 
1774:Drivers/STM32G4xx_HAL_Driver/Src/stm32g4xx_hal_tim.c ****       /* Set the DMA error callback */
1775:Drivers/STM32G4xx_HAL_Driver/Src/stm32g4xx_hal_tim.c ****       htim->hdma[TIM_DMA_ID_CC1]->XferErrorCallback = TIM_DMAError ;
1776:Drivers/STM32G4xx_HAL_Driver/Src/stm32g4xx_hal_tim.c **** 
1777:Drivers/STM32G4xx_HAL_Driver/Src/stm32g4xx_hal_tim.c ****       /* Enable the DMA channel */
1778:Drivers/STM32G4xx_HAL_Driver/Src/stm32g4xx_hal_tim.c ****       if (HAL_DMA_Start_IT(htim->hdma[TIM_DMA_ID_CC1], (uint32_t)pData, (uint32_t)&htim->Instance->
1779:Drivers/STM32G4xx_HAL_Driver/Src/stm32g4xx_hal_tim.c ****                            Length) != HAL_OK)
1780:Drivers/STM32G4xx_HAL_Driver/Src/stm32g4xx_hal_tim.c ****       {
1781:Drivers/STM32G4xx_HAL_Driver/Src/stm32g4xx_hal_tim.c ****         /* Return error status */
1782:Drivers/STM32G4xx_HAL_Driver/Src/stm32g4xx_hal_tim.c ****         return HAL_ERROR;
1783:Drivers/STM32G4xx_HAL_Driver/Src/stm32g4xx_hal_tim.c ****       }
1784:Drivers/STM32G4xx_HAL_Driver/Src/stm32g4xx_hal_tim.c **** 
1785:Drivers/STM32G4xx_HAL_Driver/Src/stm32g4xx_hal_tim.c ****       /* Enable the TIM Capture/Compare 1 DMA request */
1786:Drivers/STM32G4xx_HAL_Driver/Src/stm32g4xx_hal_tim.c ****       __HAL_TIM_ENABLE_DMA(htim, TIM_DMA_CC1);
1787:Drivers/STM32G4xx_HAL_Driver/Src/stm32g4xx_hal_tim.c ****       break;
1788:Drivers/STM32G4xx_HAL_Driver/Src/stm32g4xx_hal_tim.c ****     }
1789:Drivers/STM32G4xx_HAL_Driver/Src/stm32g4xx_hal_tim.c **** 
1790:Drivers/STM32G4xx_HAL_Driver/Src/stm32g4xx_hal_tim.c ****     case TIM_CHANNEL_2:
1791:Drivers/STM32G4xx_HAL_Driver/Src/stm32g4xx_hal_tim.c ****     {
1792:Drivers/STM32G4xx_HAL_Driver/Src/stm32g4xx_hal_tim.c ****       /* Set the DMA compare callbacks */
1793:Drivers/STM32G4xx_HAL_Driver/Src/stm32g4xx_hal_tim.c ****       htim->hdma[TIM_DMA_ID_CC2]->XferCpltCallback = TIM_DMADelayPulseCplt;
1794:Drivers/STM32G4xx_HAL_Driver/Src/stm32g4xx_hal_tim.c ****       htim->hdma[TIM_DMA_ID_CC2]->XferHalfCpltCallback = TIM_DMADelayPulseHalfCplt;
1795:Drivers/STM32G4xx_HAL_Driver/Src/stm32g4xx_hal_tim.c **** 
1796:Drivers/STM32G4xx_HAL_Driver/Src/stm32g4xx_hal_tim.c ****       /* Set the DMA error callback */
ARM GAS  /tmp/ccKRAx5z.s 			page 35


1797:Drivers/STM32G4xx_HAL_Driver/Src/stm32g4xx_hal_tim.c ****       htim->hdma[TIM_DMA_ID_CC2]->XferErrorCallback = TIM_DMAError ;
1798:Drivers/STM32G4xx_HAL_Driver/Src/stm32g4xx_hal_tim.c **** 
1799:Drivers/STM32G4xx_HAL_Driver/Src/stm32g4xx_hal_tim.c ****       /* Enable the DMA channel */
1800:Drivers/STM32G4xx_HAL_Driver/Src/stm32g4xx_hal_tim.c ****       if (HAL_DMA_Start_IT(htim->hdma[TIM_DMA_ID_CC2], (uint32_t)pData, (uint32_t)&htim->Instance->
1801:Drivers/STM32G4xx_HAL_Driver/Src/stm32g4xx_hal_tim.c ****                            Length) != HAL_OK)
1802:Drivers/STM32G4xx_HAL_Driver/Src/stm32g4xx_hal_tim.c ****       {
1803:Drivers/STM32G4xx_HAL_Driver/Src/stm32g4xx_hal_tim.c ****         /* Return error status */
1804:Drivers/STM32G4xx_HAL_Driver/Src/stm32g4xx_hal_tim.c ****         return HAL_ERROR;
1805:Drivers/STM32G4xx_HAL_Driver/Src/stm32g4xx_hal_tim.c ****       }
1806:Drivers/STM32G4xx_HAL_Driver/Src/stm32g4xx_hal_tim.c ****       /* Enable the TIM Capture/Compare 2 DMA request */
1807:Drivers/STM32G4xx_HAL_Driver/Src/stm32g4xx_hal_tim.c ****       __HAL_TIM_ENABLE_DMA(htim, TIM_DMA_CC2);
1808:Drivers/STM32G4xx_HAL_Driver/Src/stm32g4xx_hal_tim.c ****       break;
1809:Drivers/STM32G4xx_HAL_Driver/Src/stm32g4xx_hal_tim.c ****     }
1810:Drivers/STM32G4xx_HAL_Driver/Src/stm32g4xx_hal_tim.c **** 
1811:Drivers/STM32G4xx_HAL_Driver/Src/stm32g4xx_hal_tim.c ****     case TIM_CHANNEL_3:
1812:Drivers/STM32G4xx_HAL_Driver/Src/stm32g4xx_hal_tim.c ****     {
1813:Drivers/STM32G4xx_HAL_Driver/Src/stm32g4xx_hal_tim.c ****       /* Set the DMA compare callbacks */
1814:Drivers/STM32G4xx_HAL_Driver/Src/stm32g4xx_hal_tim.c ****       htim->hdma[TIM_DMA_ID_CC3]->XferCpltCallback = TIM_DMADelayPulseCplt;
1815:Drivers/STM32G4xx_HAL_Driver/Src/stm32g4xx_hal_tim.c ****       htim->hdma[TIM_DMA_ID_CC3]->XferHalfCpltCallback = TIM_DMADelayPulseHalfCplt;
1816:Drivers/STM32G4xx_HAL_Driver/Src/stm32g4xx_hal_tim.c **** 
1817:Drivers/STM32G4xx_HAL_Driver/Src/stm32g4xx_hal_tim.c ****       /* Set the DMA error callback */
1818:Drivers/STM32G4xx_HAL_Driver/Src/stm32g4xx_hal_tim.c ****       htim->hdma[TIM_DMA_ID_CC3]->XferErrorCallback = TIM_DMAError ;
1819:Drivers/STM32G4xx_HAL_Driver/Src/stm32g4xx_hal_tim.c **** 
1820:Drivers/STM32G4xx_HAL_Driver/Src/stm32g4xx_hal_tim.c ****       /* Enable the DMA channel */
1821:Drivers/STM32G4xx_HAL_Driver/Src/stm32g4xx_hal_tim.c ****       if (HAL_DMA_Start_IT(htim->hdma[TIM_DMA_ID_CC3], (uint32_t)pData, (uint32_t)&htim->Instance->
1822:Drivers/STM32G4xx_HAL_Driver/Src/stm32g4xx_hal_tim.c ****                            Length) != HAL_OK)
1823:Drivers/STM32G4xx_HAL_Driver/Src/stm32g4xx_hal_tim.c ****       {
1824:Drivers/STM32G4xx_HAL_Driver/Src/stm32g4xx_hal_tim.c ****         /* Return error status */
1825:Drivers/STM32G4xx_HAL_Driver/Src/stm32g4xx_hal_tim.c ****         return HAL_ERROR;
1826:Drivers/STM32G4xx_HAL_Driver/Src/stm32g4xx_hal_tim.c ****       }
1827:Drivers/STM32G4xx_HAL_Driver/Src/stm32g4xx_hal_tim.c ****       /* Enable the TIM Output Capture/Compare 3 request */
1828:Drivers/STM32G4xx_HAL_Driver/Src/stm32g4xx_hal_tim.c ****       __HAL_TIM_ENABLE_DMA(htim, TIM_DMA_CC3);
1829:Drivers/STM32G4xx_HAL_Driver/Src/stm32g4xx_hal_tim.c ****       break;
1830:Drivers/STM32G4xx_HAL_Driver/Src/stm32g4xx_hal_tim.c ****     }
1831:Drivers/STM32G4xx_HAL_Driver/Src/stm32g4xx_hal_tim.c **** 
1832:Drivers/STM32G4xx_HAL_Driver/Src/stm32g4xx_hal_tim.c ****     case TIM_CHANNEL_4:
1833:Drivers/STM32G4xx_HAL_Driver/Src/stm32g4xx_hal_tim.c ****     {
1834:Drivers/STM32G4xx_HAL_Driver/Src/stm32g4xx_hal_tim.c ****       /* Set the DMA compare callbacks */
1835:Drivers/STM32G4xx_HAL_Driver/Src/stm32g4xx_hal_tim.c ****       htim->hdma[TIM_DMA_ID_CC4]->XferCpltCallback = TIM_DMADelayPulseCplt;
1836:Drivers/STM32G4xx_HAL_Driver/Src/stm32g4xx_hal_tim.c ****       htim->hdma[TIM_DMA_ID_CC4]->XferHalfCpltCallback = TIM_DMADelayPulseHalfCplt;
1837:Drivers/STM32G4xx_HAL_Driver/Src/stm32g4xx_hal_tim.c **** 
1838:Drivers/STM32G4xx_HAL_Driver/Src/stm32g4xx_hal_tim.c ****       /* Set the DMA error callback */
1839:Drivers/STM32G4xx_HAL_Driver/Src/stm32g4xx_hal_tim.c ****       htim->hdma[TIM_DMA_ID_CC4]->XferErrorCallback = TIM_DMAError ;
1840:Drivers/STM32G4xx_HAL_Driver/Src/stm32g4xx_hal_tim.c **** 
1841:Drivers/STM32G4xx_HAL_Driver/Src/stm32g4xx_hal_tim.c ****       /* Enable the DMA channel */
1842:Drivers/STM32G4xx_HAL_Driver/Src/stm32g4xx_hal_tim.c ****       if (HAL_DMA_Start_IT(htim->hdma[TIM_DMA_ID_CC4], (uint32_t)pData, (uint32_t)&htim->Instance->
1843:Drivers/STM32G4xx_HAL_Driver/Src/stm32g4xx_hal_tim.c ****                            Length) != HAL_OK)
1844:Drivers/STM32G4xx_HAL_Driver/Src/stm32g4xx_hal_tim.c ****       {
1845:Drivers/STM32G4xx_HAL_Driver/Src/stm32g4xx_hal_tim.c ****         /* Return error status */
1846:Drivers/STM32G4xx_HAL_Driver/Src/stm32g4xx_hal_tim.c ****         return HAL_ERROR;
1847:Drivers/STM32G4xx_HAL_Driver/Src/stm32g4xx_hal_tim.c ****       }
1848:Drivers/STM32G4xx_HAL_Driver/Src/stm32g4xx_hal_tim.c ****       /* Enable the TIM Capture/Compare 4 DMA request */
1849:Drivers/STM32G4xx_HAL_Driver/Src/stm32g4xx_hal_tim.c ****       __HAL_TIM_ENABLE_DMA(htim, TIM_DMA_CC4);
1850:Drivers/STM32G4xx_HAL_Driver/Src/stm32g4xx_hal_tim.c ****       break;
1851:Drivers/STM32G4xx_HAL_Driver/Src/stm32g4xx_hal_tim.c ****     }
1852:Drivers/STM32G4xx_HAL_Driver/Src/stm32g4xx_hal_tim.c **** 
1853:Drivers/STM32G4xx_HAL_Driver/Src/stm32g4xx_hal_tim.c ****     default:
ARM GAS  /tmp/ccKRAx5z.s 			page 36


1854:Drivers/STM32G4xx_HAL_Driver/Src/stm32g4xx_hal_tim.c ****       status = HAL_ERROR;
1855:Drivers/STM32G4xx_HAL_Driver/Src/stm32g4xx_hal_tim.c ****       break;
1856:Drivers/STM32G4xx_HAL_Driver/Src/stm32g4xx_hal_tim.c ****   }
1857:Drivers/STM32G4xx_HAL_Driver/Src/stm32g4xx_hal_tim.c **** 
1858:Drivers/STM32G4xx_HAL_Driver/Src/stm32g4xx_hal_tim.c ****   if (status == HAL_OK)
1859:Drivers/STM32G4xx_HAL_Driver/Src/stm32g4xx_hal_tim.c ****   {
1860:Drivers/STM32G4xx_HAL_Driver/Src/stm32g4xx_hal_tim.c ****     /* Enable the Capture compare channel */
1861:Drivers/STM32G4xx_HAL_Driver/Src/stm32g4xx_hal_tim.c ****     TIM_CCxChannelCmd(htim->Instance, Channel, TIM_CCx_ENABLE);
1862:Drivers/STM32G4xx_HAL_Driver/Src/stm32g4xx_hal_tim.c **** 
1863:Drivers/STM32G4xx_HAL_Driver/Src/stm32g4xx_hal_tim.c ****     if (IS_TIM_BREAK_INSTANCE(htim->Instance) != RESET)
1864:Drivers/STM32G4xx_HAL_Driver/Src/stm32g4xx_hal_tim.c ****     {
1865:Drivers/STM32G4xx_HAL_Driver/Src/stm32g4xx_hal_tim.c ****       /* Enable the main output */
1866:Drivers/STM32G4xx_HAL_Driver/Src/stm32g4xx_hal_tim.c ****       __HAL_TIM_MOE_ENABLE(htim);
1867:Drivers/STM32G4xx_HAL_Driver/Src/stm32g4xx_hal_tim.c ****     }
1868:Drivers/STM32G4xx_HAL_Driver/Src/stm32g4xx_hal_tim.c **** 
1869:Drivers/STM32G4xx_HAL_Driver/Src/stm32g4xx_hal_tim.c ****     /* Enable the Peripheral, except in trigger mode where enable is automatically done with trigge
1870:Drivers/STM32G4xx_HAL_Driver/Src/stm32g4xx_hal_tim.c ****     if (IS_TIM_SLAVE_INSTANCE(htim->Instance))
1871:Drivers/STM32G4xx_HAL_Driver/Src/stm32g4xx_hal_tim.c ****     {
1872:Drivers/STM32G4xx_HAL_Driver/Src/stm32g4xx_hal_tim.c ****       tmpsmcr = htim->Instance->SMCR & TIM_SMCR_SMS;
1873:Drivers/STM32G4xx_HAL_Driver/Src/stm32g4xx_hal_tim.c ****       if (!IS_TIM_SLAVEMODE_TRIGGER_ENABLED(tmpsmcr))
1874:Drivers/STM32G4xx_HAL_Driver/Src/stm32g4xx_hal_tim.c ****       {
1875:Drivers/STM32G4xx_HAL_Driver/Src/stm32g4xx_hal_tim.c ****         __HAL_TIM_ENABLE(htim);
1876:Drivers/STM32G4xx_HAL_Driver/Src/stm32g4xx_hal_tim.c ****       }
1877:Drivers/STM32G4xx_HAL_Driver/Src/stm32g4xx_hal_tim.c ****     }
1878:Drivers/STM32G4xx_HAL_Driver/Src/stm32g4xx_hal_tim.c ****     else
1879:Drivers/STM32G4xx_HAL_Driver/Src/stm32g4xx_hal_tim.c ****     {
1880:Drivers/STM32G4xx_HAL_Driver/Src/stm32g4xx_hal_tim.c ****       __HAL_TIM_ENABLE(htim);
1881:Drivers/STM32G4xx_HAL_Driver/Src/stm32g4xx_hal_tim.c ****     }
1882:Drivers/STM32G4xx_HAL_Driver/Src/stm32g4xx_hal_tim.c ****   }
1883:Drivers/STM32G4xx_HAL_Driver/Src/stm32g4xx_hal_tim.c **** 
1884:Drivers/STM32G4xx_HAL_Driver/Src/stm32g4xx_hal_tim.c ****   /* Return function status */
1885:Drivers/STM32G4xx_HAL_Driver/Src/stm32g4xx_hal_tim.c ****   return status;
1886:Drivers/STM32G4xx_HAL_Driver/Src/stm32g4xx_hal_tim.c **** }
1887:Drivers/STM32G4xx_HAL_Driver/Src/stm32g4xx_hal_tim.c **** 
1888:Drivers/STM32G4xx_HAL_Driver/Src/stm32g4xx_hal_tim.c **** /**
1889:Drivers/STM32G4xx_HAL_Driver/Src/stm32g4xx_hal_tim.c ****   * @brief  Stops the TIM PWM signal generation in DMA mode.
1890:Drivers/STM32G4xx_HAL_Driver/Src/stm32g4xx_hal_tim.c ****   * @param  htim TIM PWM handle
1891:Drivers/STM32G4xx_HAL_Driver/Src/stm32g4xx_hal_tim.c ****   * @param  Channel TIM Channels to be disabled
1892:Drivers/STM32G4xx_HAL_Driver/Src/stm32g4xx_hal_tim.c ****   *          This parameter can be one of the following values:
1893:Drivers/STM32G4xx_HAL_Driver/Src/stm32g4xx_hal_tim.c ****   *            @arg TIM_CHANNEL_1: TIM Channel 1 selected
1894:Drivers/STM32G4xx_HAL_Driver/Src/stm32g4xx_hal_tim.c ****   *            @arg TIM_CHANNEL_2: TIM Channel 2 selected
1895:Drivers/STM32G4xx_HAL_Driver/Src/stm32g4xx_hal_tim.c ****   *            @arg TIM_CHANNEL_3: TIM Channel 3 selected
1896:Drivers/STM32G4xx_HAL_Driver/Src/stm32g4xx_hal_tim.c ****   *            @arg TIM_CHANNEL_4: TIM Channel 4 selected
1897:Drivers/STM32G4xx_HAL_Driver/Src/stm32g4xx_hal_tim.c ****   * @retval HAL status
1898:Drivers/STM32G4xx_HAL_Driver/Src/stm32g4xx_hal_tim.c ****   */
1899:Drivers/STM32G4xx_HAL_Driver/Src/stm32g4xx_hal_tim.c **** HAL_StatusTypeDef HAL_TIM_PWM_Stop_DMA(TIM_HandleTypeDef *htim, uint32_t Channel)
1900:Drivers/STM32G4xx_HAL_Driver/Src/stm32g4xx_hal_tim.c **** {
1901:Drivers/STM32G4xx_HAL_Driver/Src/stm32g4xx_hal_tim.c ****   HAL_StatusTypeDef status = HAL_OK;
1902:Drivers/STM32G4xx_HAL_Driver/Src/stm32g4xx_hal_tim.c **** 
1903:Drivers/STM32G4xx_HAL_Driver/Src/stm32g4xx_hal_tim.c ****   /* Check the parameters */
1904:Drivers/STM32G4xx_HAL_Driver/Src/stm32g4xx_hal_tim.c ****   assert_param(IS_TIM_CCX_CHANNEL(htim->Instance, Channel));
1905:Drivers/STM32G4xx_HAL_Driver/Src/stm32g4xx_hal_tim.c **** 
1906:Drivers/STM32G4xx_HAL_Driver/Src/stm32g4xx_hal_tim.c ****   switch (Channel)
1907:Drivers/STM32G4xx_HAL_Driver/Src/stm32g4xx_hal_tim.c ****   {
1908:Drivers/STM32G4xx_HAL_Driver/Src/stm32g4xx_hal_tim.c ****     case TIM_CHANNEL_1:
1909:Drivers/STM32G4xx_HAL_Driver/Src/stm32g4xx_hal_tim.c ****     {
1910:Drivers/STM32G4xx_HAL_Driver/Src/stm32g4xx_hal_tim.c ****       /* Disable the TIM Capture/Compare 1 DMA request */
ARM GAS  /tmp/ccKRAx5z.s 			page 37


1911:Drivers/STM32G4xx_HAL_Driver/Src/stm32g4xx_hal_tim.c ****       __HAL_TIM_DISABLE_DMA(htim, TIM_DMA_CC1);
1912:Drivers/STM32G4xx_HAL_Driver/Src/stm32g4xx_hal_tim.c ****       (void)HAL_DMA_Abort_IT(htim->hdma[TIM_DMA_ID_CC1]);
1913:Drivers/STM32G4xx_HAL_Driver/Src/stm32g4xx_hal_tim.c ****       break;
1914:Drivers/STM32G4xx_HAL_Driver/Src/stm32g4xx_hal_tim.c ****     }
1915:Drivers/STM32G4xx_HAL_Driver/Src/stm32g4xx_hal_tim.c **** 
1916:Drivers/STM32G4xx_HAL_Driver/Src/stm32g4xx_hal_tim.c ****     case TIM_CHANNEL_2:
1917:Drivers/STM32G4xx_HAL_Driver/Src/stm32g4xx_hal_tim.c ****     {
1918:Drivers/STM32G4xx_HAL_Driver/Src/stm32g4xx_hal_tim.c ****       /* Disable the TIM Capture/Compare 2 DMA request */
1919:Drivers/STM32G4xx_HAL_Driver/Src/stm32g4xx_hal_tim.c ****       __HAL_TIM_DISABLE_DMA(htim, TIM_DMA_CC2);
1920:Drivers/STM32G4xx_HAL_Driver/Src/stm32g4xx_hal_tim.c ****       (void)HAL_DMA_Abort_IT(htim->hdma[TIM_DMA_ID_CC2]);
1921:Drivers/STM32G4xx_HAL_Driver/Src/stm32g4xx_hal_tim.c ****       break;
1922:Drivers/STM32G4xx_HAL_Driver/Src/stm32g4xx_hal_tim.c ****     }
1923:Drivers/STM32G4xx_HAL_Driver/Src/stm32g4xx_hal_tim.c **** 
1924:Drivers/STM32G4xx_HAL_Driver/Src/stm32g4xx_hal_tim.c ****     case TIM_CHANNEL_3:
1925:Drivers/STM32G4xx_HAL_Driver/Src/stm32g4xx_hal_tim.c ****     {
1926:Drivers/STM32G4xx_HAL_Driver/Src/stm32g4xx_hal_tim.c ****       /* Disable the TIM Capture/Compare 3 DMA request */
1927:Drivers/STM32G4xx_HAL_Driver/Src/stm32g4xx_hal_tim.c ****       __HAL_TIM_DISABLE_DMA(htim, TIM_DMA_CC3);
1928:Drivers/STM32G4xx_HAL_Driver/Src/stm32g4xx_hal_tim.c ****       (void)HAL_DMA_Abort_IT(htim->hdma[TIM_DMA_ID_CC3]);
1929:Drivers/STM32G4xx_HAL_Driver/Src/stm32g4xx_hal_tim.c ****       break;
1930:Drivers/STM32G4xx_HAL_Driver/Src/stm32g4xx_hal_tim.c ****     }
1931:Drivers/STM32G4xx_HAL_Driver/Src/stm32g4xx_hal_tim.c **** 
1932:Drivers/STM32G4xx_HAL_Driver/Src/stm32g4xx_hal_tim.c ****     case TIM_CHANNEL_4:
1933:Drivers/STM32G4xx_HAL_Driver/Src/stm32g4xx_hal_tim.c ****     {
1934:Drivers/STM32G4xx_HAL_Driver/Src/stm32g4xx_hal_tim.c ****       /* Disable the TIM Capture/Compare 4 interrupt */
1935:Drivers/STM32G4xx_HAL_Driver/Src/stm32g4xx_hal_tim.c ****       __HAL_TIM_DISABLE_DMA(htim, TIM_DMA_CC4);
1936:Drivers/STM32G4xx_HAL_Driver/Src/stm32g4xx_hal_tim.c ****       (void)HAL_DMA_Abort_IT(htim->hdma[TIM_DMA_ID_CC4]);
1937:Drivers/STM32G4xx_HAL_Driver/Src/stm32g4xx_hal_tim.c ****       break;
1938:Drivers/STM32G4xx_HAL_Driver/Src/stm32g4xx_hal_tim.c ****     }
1939:Drivers/STM32G4xx_HAL_Driver/Src/stm32g4xx_hal_tim.c **** 
1940:Drivers/STM32G4xx_HAL_Driver/Src/stm32g4xx_hal_tim.c ****     default:
1941:Drivers/STM32G4xx_HAL_Driver/Src/stm32g4xx_hal_tim.c ****       status = HAL_ERROR;
1942:Drivers/STM32G4xx_HAL_Driver/Src/stm32g4xx_hal_tim.c ****       break;
1943:Drivers/STM32G4xx_HAL_Driver/Src/stm32g4xx_hal_tim.c ****   }
1944:Drivers/STM32G4xx_HAL_Driver/Src/stm32g4xx_hal_tim.c **** 
1945:Drivers/STM32G4xx_HAL_Driver/Src/stm32g4xx_hal_tim.c ****   if (status == HAL_OK)
1946:Drivers/STM32G4xx_HAL_Driver/Src/stm32g4xx_hal_tim.c ****   {
1947:Drivers/STM32G4xx_HAL_Driver/Src/stm32g4xx_hal_tim.c ****     /* Disable the Capture compare channel */
1948:Drivers/STM32G4xx_HAL_Driver/Src/stm32g4xx_hal_tim.c ****     TIM_CCxChannelCmd(htim->Instance, Channel, TIM_CCx_DISABLE);
1949:Drivers/STM32G4xx_HAL_Driver/Src/stm32g4xx_hal_tim.c **** 
1950:Drivers/STM32G4xx_HAL_Driver/Src/stm32g4xx_hal_tim.c ****     if (IS_TIM_BREAK_INSTANCE(htim->Instance) != RESET)
1951:Drivers/STM32G4xx_HAL_Driver/Src/stm32g4xx_hal_tim.c ****     {
1952:Drivers/STM32G4xx_HAL_Driver/Src/stm32g4xx_hal_tim.c ****       /* Disable the Main Output */
1953:Drivers/STM32G4xx_HAL_Driver/Src/stm32g4xx_hal_tim.c ****       __HAL_TIM_MOE_DISABLE(htim);
1954:Drivers/STM32G4xx_HAL_Driver/Src/stm32g4xx_hal_tim.c ****     }
1955:Drivers/STM32G4xx_HAL_Driver/Src/stm32g4xx_hal_tim.c **** 
1956:Drivers/STM32G4xx_HAL_Driver/Src/stm32g4xx_hal_tim.c ****     /* Disable the Peripheral */
1957:Drivers/STM32G4xx_HAL_Driver/Src/stm32g4xx_hal_tim.c ****     __HAL_TIM_DISABLE(htim);
1958:Drivers/STM32G4xx_HAL_Driver/Src/stm32g4xx_hal_tim.c **** 
1959:Drivers/STM32G4xx_HAL_Driver/Src/stm32g4xx_hal_tim.c ****     /* Set the TIM channel state */
1960:Drivers/STM32G4xx_HAL_Driver/Src/stm32g4xx_hal_tim.c ****     TIM_CHANNEL_STATE_SET(htim, Channel, HAL_TIM_CHANNEL_STATE_READY);
1961:Drivers/STM32G4xx_HAL_Driver/Src/stm32g4xx_hal_tim.c ****   }
1962:Drivers/STM32G4xx_HAL_Driver/Src/stm32g4xx_hal_tim.c **** 
1963:Drivers/STM32G4xx_HAL_Driver/Src/stm32g4xx_hal_tim.c ****   /* Return function status */
1964:Drivers/STM32G4xx_HAL_Driver/Src/stm32g4xx_hal_tim.c ****   return status;
1965:Drivers/STM32G4xx_HAL_Driver/Src/stm32g4xx_hal_tim.c **** }
1966:Drivers/STM32G4xx_HAL_Driver/Src/stm32g4xx_hal_tim.c **** 
1967:Drivers/STM32G4xx_HAL_Driver/Src/stm32g4xx_hal_tim.c **** /**
ARM GAS  /tmp/ccKRAx5z.s 			page 38


1968:Drivers/STM32G4xx_HAL_Driver/Src/stm32g4xx_hal_tim.c ****   * @}
1969:Drivers/STM32G4xx_HAL_Driver/Src/stm32g4xx_hal_tim.c ****   */
1970:Drivers/STM32G4xx_HAL_Driver/Src/stm32g4xx_hal_tim.c **** 
1971:Drivers/STM32G4xx_HAL_Driver/Src/stm32g4xx_hal_tim.c **** /** @defgroup TIM_Exported_Functions_Group4 TIM Input Capture functions
1972:Drivers/STM32G4xx_HAL_Driver/Src/stm32g4xx_hal_tim.c ****   *  @brief    TIM Input Capture functions
1973:Drivers/STM32G4xx_HAL_Driver/Src/stm32g4xx_hal_tim.c ****   *
1974:Drivers/STM32G4xx_HAL_Driver/Src/stm32g4xx_hal_tim.c **** @verbatim
1975:Drivers/STM32G4xx_HAL_Driver/Src/stm32g4xx_hal_tim.c ****   ==============================================================================
1976:Drivers/STM32G4xx_HAL_Driver/Src/stm32g4xx_hal_tim.c ****               ##### TIM Input Capture functions #####
1977:Drivers/STM32G4xx_HAL_Driver/Src/stm32g4xx_hal_tim.c ****   ==============================================================================
1978:Drivers/STM32G4xx_HAL_Driver/Src/stm32g4xx_hal_tim.c ****  [..]
1979:Drivers/STM32G4xx_HAL_Driver/Src/stm32g4xx_hal_tim.c ****    This section provides functions allowing to:
1980:Drivers/STM32G4xx_HAL_Driver/Src/stm32g4xx_hal_tim.c ****    (+) Initialize and configure the TIM Input Capture.
1981:Drivers/STM32G4xx_HAL_Driver/Src/stm32g4xx_hal_tim.c ****    (+) De-initialize the TIM Input Capture.
1982:Drivers/STM32G4xx_HAL_Driver/Src/stm32g4xx_hal_tim.c ****    (+) Start the TIM Input Capture.
1983:Drivers/STM32G4xx_HAL_Driver/Src/stm32g4xx_hal_tim.c ****    (+) Stop the TIM Input Capture.
1984:Drivers/STM32G4xx_HAL_Driver/Src/stm32g4xx_hal_tim.c ****    (+) Start the TIM Input Capture and enable interrupt.
1985:Drivers/STM32G4xx_HAL_Driver/Src/stm32g4xx_hal_tim.c ****    (+) Stop the TIM Input Capture and disable interrupt.
1986:Drivers/STM32G4xx_HAL_Driver/Src/stm32g4xx_hal_tim.c ****    (+) Start the TIM Input Capture and enable DMA transfer.
1987:Drivers/STM32G4xx_HAL_Driver/Src/stm32g4xx_hal_tim.c ****    (+) Stop the TIM Input Capture and disable DMA transfer.
1988:Drivers/STM32G4xx_HAL_Driver/Src/stm32g4xx_hal_tim.c **** 
1989:Drivers/STM32G4xx_HAL_Driver/Src/stm32g4xx_hal_tim.c **** @endverbatim
1990:Drivers/STM32G4xx_HAL_Driver/Src/stm32g4xx_hal_tim.c ****   * @{
1991:Drivers/STM32G4xx_HAL_Driver/Src/stm32g4xx_hal_tim.c ****   */
1992:Drivers/STM32G4xx_HAL_Driver/Src/stm32g4xx_hal_tim.c **** /**
1993:Drivers/STM32G4xx_HAL_Driver/Src/stm32g4xx_hal_tim.c ****   * @brief  Initializes the TIM Input Capture Time base according to the specified
1994:Drivers/STM32G4xx_HAL_Driver/Src/stm32g4xx_hal_tim.c ****   *         parameters in the TIM_HandleTypeDef and initializes the associated handle.
1995:Drivers/STM32G4xx_HAL_Driver/Src/stm32g4xx_hal_tim.c ****   * @note   Switching from Center Aligned counter mode to Edge counter mode (or reverse)
1996:Drivers/STM32G4xx_HAL_Driver/Src/stm32g4xx_hal_tim.c ****   *         requires a timer reset to avoid unexpected direction
1997:Drivers/STM32G4xx_HAL_Driver/Src/stm32g4xx_hal_tim.c ****   *         due to DIR bit readonly in center aligned mode.
1998:Drivers/STM32G4xx_HAL_Driver/Src/stm32g4xx_hal_tim.c ****   *         Ex: call @ref HAL_TIM_IC_DeInit() before HAL_TIM_IC_Init()
1999:Drivers/STM32G4xx_HAL_Driver/Src/stm32g4xx_hal_tim.c ****   * @param  htim TIM Input Capture handle
2000:Drivers/STM32G4xx_HAL_Driver/Src/stm32g4xx_hal_tim.c ****   * @retval HAL status
2001:Drivers/STM32G4xx_HAL_Driver/Src/stm32g4xx_hal_tim.c ****   */
2002:Drivers/STM32G4xx_HAL_Driver/Src/stm32g4xx_hal_tim.c **** HAL_StatusTypeDef HAL_TIM_IC_Init(TIM_HandleTypeDef *htim)
2003:Drivers/STM32G4xx_HAL_Driver/Src/stm32g4xx_hal_tim.c **** {
2004:Drivers/STM32G4xx_HAL_Driver/Src/stm32g4xx_hal_tim.c ****   /* Check the TIM handle allocation */
2005:Drivers/STM32G4xx_HAL_Driver/Src/stm32g4xx_hal_tim.c ****   if (htim == NULL)
2006:Drivers/STM32G4xx_HAL_Driver/Src/stm32g4xx_hal_tim.c ****   {
2007:Drivers/STM32G4xx_HAL_Driver/Src/stm32g4xx_hal_tim.c ****     return HAL_ERROR;
2008:Drivers/STM32G4xx_HAL_Driver/Src/stm32g4xx_hal_tim.c ****   }
2009:Drivers/STM32G4xx_HAL_Driver/Src/stm32g4xx_hal_tim.c **** 
2010:Drivers/STM32G4xx_HAL_Driver/Src/stm32g4xx_hal_tim.c ****   /* Check the parameters */
2011:Drivers/STM32G4xx_HAL_Driver/Src/stm32g4xx_hal_tim.c ****   assert_param(IS_TIM_INSTANCE(htim->Instance));
2012:Drivers/STM32G4xx_HAL_Driver/Src/stm32g4xx_hal_tim.c ****   assert_param(IS_TIM_COUNTER_MODE(htim->Init.CounterMode));
2013:Drivers/STM32G4xx_HAL_Driver/Src/stm32g4xx_hal_tim.c ****   assert_param(IS_TIM_CLOCKDIVISION_DIV(htim->Init.ClockDivision));
2014:Drivers/STM32G4xx_HAL_Driver/Src/stm32g4xx_hal_tim.c ****   assert_param(IS_TIM_PERIOD(htim, htim->Init.Period));
2015:Drivers/STM32G4xx_HAL_Driver/Src/stm32g4xx_hal_tim.c ****   assert_param(IS_TIM_AUTORELOAD_PRELOAD(htim->Init.AutoReloadPreload));
2016:Drivers/STM32G4xx_HAL_Driver/Src/stm32g4xx_hal_tim.c **** 
2017:Drivers/STM32G4xx_HAL_Driver/Src/stm32g4xx_hal_tim.c ****   if (htim->State == HAL_TIM_STATE_RESET)
2018:Drivers/STM32G4xx_HAL_Driver/Src/stm32g4xx_hal_tim.c ****   {
2019:Drivers/STM32G4xx_HAL_Driver/Src/stm32g4xx_hal_tim.c ****     /* Allocate lock resource and initialize it */
2020:Drivers/STM32G4xx_HAL_Driver/Src/stm32g4xx_hal_tim.c ****     htim->Lock = HAL_UNLOCKED;
2021:Drivers/STM32G4xx_HAL_Driver/Src/stm32g4xx_hal_tim.c **** 
2022:Drivers/STM32G4xx_HAL_Driver/Src/stm32g4xx_hal_tim.c **** #if (USE_HAL_TIM_REGISTER_CALLBACKS == 1)
2023:Drivers/STM32G4xx_HAL_Driver/Src/stm32g4xx_hal_tim.c ****     /* Reset interrupt callbacks to legacy weak callbacks */
2024:Drivers/STM32G4xx_HAL_Driver/Src/stm32g4xx_hal_tim.c ****     TIM_ResetCallback(htim);
ARM GAS  /tmp/ccKRAx5z.s 			page 39


2025:Drivers/STM32G4xx_HAL_Driver/Src/stm32g4xx_hal_tim.c **** 
2026:Drivers/STM32G4xx_HAL_Driver/Src/stm32g4xx_hal_tim.c ****     if (htim->IC_MspInitCallback == NULL)
2027:Drivers/STM32G4xx_HAL_Driver/Src/stm32g4xx_hal_tim.c ****     {
2028:Drivers/STM32G4xx_HAL_Driver/Src/stm32g4xx_hal_tim.c ****       htim->IC_MspInitCallback = HAL_TIM_IC_MspInit;
2029:Drivers/STM32G4xx_HAL_Driver/Src/stm32g4xx_hal_tim.c ****     }
2030:Drivers/STM32G4xx_HAL_Driver/Src/stm32g4xx_hal_tim.c ****     /* Init the low level hardware : GPIO, CLOCK, NVIC */
2031:Drivers/STM32G4xx_HAL_Driver/Src/stm32g4xx_hal_tim.c ****     htim->IC_MspInitCallback(htim);
2032:Drivers/STM32G4xx_HAL_Driver/Src/stm32g4xx_hal_tim.c **** #else
2033:Drivers/STM32G4xx_HAL_Driver/Src/stm32g4xx_hal_tim.c ****     /* Init the low level hardware : GPIO, CLOCK, NVIC and DMA */
2034:Drivers/STM32G4xx_HAL_Driver/Src/stm32g4xx_hal_tim.c ****     HAL_TIM_IC_MspInit(htim);
2035:Drivers/STM32G4xx_HAL_Driver/Src/stm32g4xx_hal_tim.c **** #endif /* USE_HAL_TIM_REGISTER_CALLBACKS */
2036:Drivers/STM32G4xx_HAL_Driver/Src/stm32g4xx_hal_tim.c ****   }
2037:Drivers/STM32G4xx_HAL_Driver/Src/stm32g4xx_hal_tim.c **** 
2038:Drivers/STM32G4xx_HAL_Driver/Src/stm32g4xx_hal_tim.c ****   /* Set the TIM state */
2039:Drivers/STM32G4xx_HAL_Driver/Src/stm32g4xx_hal_tim.c ****   htim->State = HAL_TIM_STATE_BUSY;
2040:Drivers/STM32G4xx_HAL_Driver/Src/stm32g4xx_hal_tim.c **** 
2041:Drivers/STM32G4xx_HAL_Driver/Src/stm32g4xx_hal_tim.c ****   /* Init the base time for the input capture */
2042:Drivers/STM32G4xx_HAL_Driver/Src/stm32g4xx_hal_tim.c ****   TIM_Base_SetConfig(htim->Instance, &htim->Init);
2043:Drivers/STM32G4xx_HAL_Driver/Src/stm32g4xx_hal_tim.c **** 
2044:Drivers/STM32G4xx_HAL_Driver/Src/stm32g4xx_hal_tim.c ****   /* Initialize the DMA burst operation state */
2045:Drivers/STM32G4xx_HAL_Driver/Src/stm32g4xx_hal_tim.c ****   htim->DMABurstState = HAL_DMA_BURST_STATE_READY;
2046:Drivers/STM32G4xx_HAL_Driver/Src/stm32g4xx_hal_tim.c **** 
2047:Drivers/STM32G4xx_HAL_Driver/Src/stm32g4xx_hal_tim.c ****   /* Initialize the TIM channels state */
2048:Drivers/STM32G4xx_HAL_Driver/Src/stm32g4xx_hal_tim.c ****   TIM_CHANNEL_STATE_SET_ALL(htim, HAL_TIM_CHANNEL_STATE_READY);
2049:Drivers/STM32G4xx_HAL_Driver/Src/stm32g4xx_hal_tim.c ****   TIM_CHANNEL_N_STATE_SET_ALL(htim, HAL_TIM_CHANNEL_STATE_READY);
2050:Drivers/STM32G4xx_HAL_Driver/Src/stm32g4xx_hal_tim.c **** 
2051:Drivers/STM32G4xx_HAL_Driver/Src/stm32g4xx_hal_tim.c ****   /* Initialize the TIM state*/
2052:Drivers/STM32G4xx_HAL_Driver/Src/stm32g4xx_hal_tim.c ****   htim->State = HAL_TIM_STATE_READY;
2053:Drivers/STM32G4xx_HAL_Driver/Src/stm32g4xx_hal_tim.c **** 
2054:Drivers/STM32G4xx_HAL_Driver/Src/stm32g4xx_hal_tim.c ****   return HAL_OK;
2055:Drivers/STM32G4xx_HAL_Driver/Src/stm32g4xx_hal_tim.c **** }
2056:Drivers/STM32G4xx_HAL_Driver/Src/stm32g4xx_hal_tim.c **** 
2057:Drivers/STM32G4xx_HAL_Driver/Src/stm32g4xx_hal_tim.c **** /**
2058:Drivers/STM32G4xx_HAL_Driver/Src/stm32g4xx_hal_tim.c ****   * @brief  DeInitializes the TIM peripheral
2059:Drivers/STM32G4xx_HAL_Driver/Src/stm32g4xx_hal_tim.c ****   * @param  htim TIM Input Capture handle
2060:Drivers/STM32G4xx_HAL_Driver/Src/stm32g4xx_hal_tim.c ****   * @retval HAL status
2061:Drivers/STM32G4xx_HAL_Driver/Src/stm32g4xx_hal_tim.c ****   */
2062:Drivers/STM32G4xx_HAL_Driver/Src/stm32g4xx_hal_tim.c **** HAL_StatusTypeDef HAL_TIM_IC_DeInit(TIM_HandleTypeDef *htim)
2063:Drivers/STM32G4xx_HAL_Driver/Src/stm32g4xx_hal_tim.c **** {
2064:Drivers/STM32G4xx_HAL_Driver/Src/stm32g4xx_hal_tim.c ****   /* Check the parameters */
2065:Drivers/STM32G4xx_HAL_Driver/Src/stm32g4xx_hal_tim.c ****   assert_param(IS_TIM_INSTANCE(htim->Instance));
2066:Drivers/STM32G4xx_HAL_Driver/Src/stm32g4xx_hal_tim.c **** 
2067:Drivers/STM32G4xx_HAL_Driver/Src/stm32g4xx_hal_tim.c ****   htim->State = HAL_TIM_STATE_BUSY;
2068:Drivers/STM32G4xx_HAL_Driver/Src/stm32g4xx_hal_tim.c **** 
2069:Drivers/STM32G4xx_HAL_Driver/Src/stm32g4xx_hal_tim.c ****   /* Disable the TIM Peripheral Clock */
2070:Drivers/STM32G4xx_HAL_Driver/Src/stm32g4xx_hal_tim.c ****   __HAL_TIM_DISABLE(htim);
2071:Drivers/STM32G4xx_HAL_Driver/Src/stm32g4xx_hal_tim.c **** 
2072:Drivers/STM32G4xx_HAL_Driver/Src/stm32g4xx_hal_tim.c **** #if (USE_HAL_TIM_REGISTER_CALLBACKS == 1)
2073:Drivers/STM32G4xx_HAL_Driver/Src/stm32g4xx_hal_tim.c ****   if (htim->IC_MspDeInitCallback == NULL)
2074:Drivers/STM32G4xx_HAL_Driver/Src/stm32g4xx_hal_tim.c ****   {
2075:Drivers/STM32G4xx_HAL_Driver/Src/stm32g4xx_hal_tim.c ****     htim->IC_MspDeInitCallback = HAL_TIM_IC_MspDeInit;
2076:Drivers/STM32G4xx_HAL_Driver/Src/stm32g4xx_hal_tim.c ****   }
2077:Drivers/STM32G4xx_HAL_Driver/Src/stm32g4xx_hal_tim.c ****   /* DeInit the low level hardware */
2078:Drivers/STM32G4xx_HAL_Driver/Src/stm32g4xx_hal_tim.c ****   htim->IC_MspDeInitCallback(htim);
2079:Drivers/STM32G4xx_HAL_Driver/Src/stm32g4xx_hal_tim.c **** #else
2080:Drivers/STM32G4xx_HAL_Driver/Src/stm32g4xx_hal_tim.c ****   /* DeInit the low level hardware: GPIO, CLOCK, NVIC and DMA */
2081:Drivers/STM32G4xx_HAL_Driver/Src/stm32g4xx_hal_tim.c ****   HAL_TIM_IC_MspDeInit(htim);
ARM GAS  /tmp/ccKRAx5z.s 			page 40


2082:Drivers/STM32G4xx_HAL_Driver/Src/stm32g4xx_hal_tim.c **** #endif /* USE_HAL_TIM_REGISTER_CALLBACKS */
2083:Drivers/STM32G4xx_HAL_Driver/Src/stm32g4xx_hal_tim.c **** 
2084:Drivers/STM32G4xx_HAL_Driver/Src/stm32g4xx_hal_tim.c ****   /* Change the DMA burst operation state */
2085:Drivers/STM32G4xx_HAL_Driver/Src/stm32g4xx_hal_tim.c ****   htim->DMABurstState = HAL_DMA_BURST_STATE_RESET;
2086:Drivers/STM32G4xx_HAL_Driver/Src/stm32g4xx_hal_tim.c **** 
2087:Drivers/STM32G4xx_HAL_Driver/Src/stm32g4xx_hal_tim.c ****   /* Change the TIM channels state */
2088:Drivers/STM32G4xx_HAL_Driver/Src/stm32g4xx_hal_tim.c ****   TIM_CHANNEL_STATE_SET_ALL(htim, HAL_TIM_CHANNEL_STATE_RESET);
2089:Drivers/STM32G4xx_HAL_Driver/Src/stm32g4xx_hal_tim.c ****   TIM_CHANNEL_N_STATE_SET_ALL(htim, HAL_TIM_CHANNEL_STATE_RESET);
2090:Drivers/STM32G4xx_HAL_Driver/Src/stm32g4xx_hal_tim.c **** 
2091:Drivers/STM32G4xx_HAL_Driver/Src/stm32g4xx_hal_tim.c ****   /* Change TIM state */
2092:Drivers/STM32G4xx_HAL_Driver/Src/stm32g4xx_hal_tim.c ****   htim->State = HAL_TIM_STATE_RESET;
2093:Drivers/STM32G4xx_HAL_Driver/Src/stm32g4xx_hal_tim.c **** 
2094:Drivers/STM32G4xx_HAL_Driver/Src/stm32g4xx_hal_tim.c ****   /* Release Lock */
2095:Drivers/STM32G4xx_HAL_Driver/Src/stm32g4xx_hal_tim.c ****   __HAL_UNLOCK(htim);
2096:Drivers/STM32G4xx_HAL_Driver/Src/stm32g4xx_hal_tim.c **** 
2097:Drivers/STM32G4xx_HAL_Driver/Src/stm32g4xx_hal_tim.c ****   return HAL_OK;
2098:Drivers/STM32G4xx_HAL_Driver/Src/stm32g4xx_hal_tim.c **** }
2099:Drivers/STM32G4xx_HAL_Driver/Src/stm32g4xx_hal_tim.c **** 
2100:Drivers/STM32G4xx_HAL_Driver/Src/stm32g4xx_hal_tim.c **** /**
2101:Drivers/STM32G4xx_HAL_Driver/Src/stm32g4xx_hal_tim.c ****   * @brief  Initializes the TIM Input Capture MSP.
2102:Drivers/STM32G4xx_HAL_Driver/Src/stm32g4xx_hal_tim.c ****   * @param  htim TIM Input Capture handle
2103:Drivers/STM32G4xx_HAL_Driver/Src/stm32g4xx_hal_tim.c ****   * @retval None
2104:Drivers/STM32G4xx_HAL_Driver/Src/stm32g4xx_hal_tim.c ****   */
2105:Drivers/STM32G4xx_HAL_Driver/Src/stm32g4xx_hal_tim.c **** __weak void HAL_TIM_IC_MspInit(TIM_HandleTypeDef *htim)
2106:Drivers/STM32G4xx_HAL_Driver/Src/stm32g4xx_hal_tim.c **** {
 156              		.loc 1 2106 1 is_stmt 1 view -0
 157              		.cfi_startproc
 158              		@ args = 0, pretend = 0, frame = 0
 159              		@ frame_needed = 0, uses_anonymous_args = 0
 160              		@ link register save eliminated.
2107:Drivers/STM32G4xx_HAL_Driver/Src/stm32g4xx_hal_tim.c ****   /* Prevent unused argument(s) compilation warning */
2108:Drivers/STM32G4xx_HAL_Driver/Src/stm32g4xx_hal_tim.c ****   UNUSED(htim);
 161              		.loc 1 2108 3 view .LVU19
2109:Drivers/STM32G4xx_HAL_Driver/Src/stm32g4xx_hal_tim.c **** 
2110:Drivers/STM32G4xx_HAL_Driver/Src/stm32g4xx_hal_tim.c ****   /* NOTE : This function should not be modified, when the callback is needed,
2111:Drivers/STM32G4xx_HAL_Driver/Src/stm32g4xx_hal_tim.c ****             the HAL_TIM_IC_MspInit could be implemented in the user file
2112:Drivers/STM32G4xx_HAL_Driver/Src/stm32g4xx_hal_tim.c ****    */
2113:Drivers/STM32G4xx_HAL_Driver/Src/stm32g4xx_hal_tim.c **** }
 162              		.loc 1 2113 1 is_stmt 0 view .LVU20
 163 0000 7047     		bx	lr
 164              		.cfi_endproc
 165              	.LFE361:
 167              		.section	.text.HAL_TIM_IC_MspDeInit,"ax",%progbits
 168              		.align	1
 169              		.weak	HAL_TIM_IC_MspDeInit
 170              		.syntax unified
 171              		.thumb
 172              		.thumb_func
 174              	HAL_TIM_IC_MspDeInit:
 175              	.LVL7:
 176              	.LFB362:
2114:Drivers/STM32G4xx_HAL_Driver/Src/stm32g4xx_hal_tim.c **** 
2115:Drivers/STM32G4xx_HAL_Driver/Src/stm32g4xx_hal_tim.c **** /**
2116:Drivers/STM32G4xx_HAL_Driver/Src/stm32g4xx_hal_tim.c ****   * @brief  DeInitializes TIM Input Capture MSP.
2117:Drivers/STM32G4xx_HAL_Driver/Src/stm32g4xx_hal_tim.c ****   * @param  htim TIM handle
2118:Drivers/STM32G4xx_HAL_Driver/Src/stm32g4xx_hal_tim.c ****   * @retval None
2119:Drivers/STM32G4xx_HAL_Driver/Src/stm32g4xx_hal_tim.c ****   */
ARM GAS  /tmp/ccKRAx5z.s 			page 41


2120:Drivers/STM32G4xx_HAL_Driver/Src/stm32g4xx_hal_tim.c **** __weak void HAL_TIM_IC_MspDeInit(TIM_HandleTypeDef *htim)
2121:Drivers/STM32G4xx_HAL_Driver/Src/stm32g4xx_hal_tim.c **** {
 177              		.loc 1 2121 1 is_stmt 1 view -0
 178              		.cfi_startproc
 179              		@ args = 0, pretend = 0, frame = 0
 180              		@ frame_needed = 0, uses_anonymous_args = 0
 181              		@ link register save eliminated.
2122:Drivers/STM32G4xx_HAL_Driver/Src/stm32g4xx_hal_tim.c ****   /* Prevent unused argument(s) compilation warning */
2123:Drivers/STM32G4xx_HAL_Driver/Src/stm32g4xx_hal_tim.c ****   UNUSED(htim);
 182              		.loc 1 2123 3 view .LVU22
2124:Drivers/STM32G4xx_HAL_Driver/Src/stm32g4xx_hal_tim.c **** 
2125:Drivers/STM32G4xx_HAL_Driver/Src/stm32g4xx_hal_tim.c ****   /* NOTE : This function should not be modified, when the callback is needed,
2126:Drivers/STM32G4xx_HAL_Driver/Src/stm32g4xx_hal_tim.c ****             the HAL_TIM_IC_MspDeInit could be implemented in the user file
2127:Drivers/STM32G4xx_HAL_Driver/Src/stm32g4xx_hal_tim.c ****    */
2128:Drivers/STM32G4xx_HAL_Driver/Src/stm32g4xx_hal_tim.c **** }
 183              		.loc 1 2128 1 is_stmt 0 view .LVU23
 184 0000 7047     		bx	lr
 185              		.cfi_endproc
 186              	.LFE362:
 188              		.section	.text.HAL_TIM_OnePulse_MspInit,"ax",%progbits
 189              		.align	1
 190              		.weak	HAL_TIM_OnePulse_MspInit
 191              		.syntax unified
 192              		.thumb
 193              		.thumb_func
 195              	HAL_TIM_OnePulse_MspInit:
 196              	.LVL8:
 197              	.LFB371:
2129:Drivers/STM32G4xx_HAL_Driver/Src/stm32g4xx_hal_tim.c **** 
2130:Drivers/STM32G4xx_HAL_Driver/Src/stm32g4xx_hal_tim.c **** /**
2131:Drivers/STM32G4xx_HAL_Driver/Src/stm32g4xx_hal_tim.c ****   * @brief  Starts the TIM Input Capture measurement.
2132:Drivers/STM32G4xx_HAL_Driver/Src/stm32g4xx_hal_tim.c ****   * @param  htim TIM Input Capture handle
2133:Drivers/STM32G4xx_HAL_Driver/Src/stm32g4xx_hal_tim.c ****   * @param  Channel TIM Channels to be enabled
2134:Drivers/STM32G4xx_HAL_Driver/Src/stm32g4xx_hal_tim.c ****   *          This parameter can be one of the following values:
2135:Drivers/STM32G4xx_HAL_Driver/Src/stm32g4xx_hal_tim.c ****   *            @arg TIM_CHANNEL_1: TIM Channel 1 selected
2136:Drivers/STM32G4xx_HAL_Driver/Src/stm32g4xx_hal_tim.c ****   *            @arg TIM_CHANNEL_2: TIM Channel 2 selected
2137:Drivers/STM32G4xx_HAL_Driver/Src/stm32g4xx_hal_tim.c ****   *            @arg TIM_CHANNEL_3: TIM Channel 3 selected
2138:Drivers/STM32G4xx_HAL_Driver/Src/stm32g4xx_hal_tim.c ****   *            @arg TIM_CHANNEL_4: TIM Channel 4 selected
2139:Drivers/STM32G4xx_HAL_Driver/Src/stm32g4xx_hal_tim.c ****   * @retval HAL status
2140:Drivers/STM32G4xx_HAL_Driver/Src/stm32g4xx_hal_tim.c ****   */
2141:Drivers/STM32G4xx_HAL_Driver/Src/stm32g4xx_hal_tim.c **** HAL_StatusTypeDef HAL_TIM_IC_Start(TIM_HandleTypeDef *htim, uint32_t Channel)
2142:Drivers/STM32G4xx_HAL_Driver/Src/stm32g4xx_hal_tim.c **** {
2143:Drivers/STM32G4xx_HAL_Driver/Src/stm32g4xx_hal_tim.c ****   uint32_t tmpsmcr;
2144:Drivers/STM32G4xx_HAL_Driver/Src/stm32g4xx_hal_tim.c ****   HAL_TIM_ChannelStateTypeDef channel_state = TIM_CHANNEL_STATE_GET(htim, Channel);
2145:Drivers/STM32G4xx_HAL_Driver/Src/stm32g4xx_hal_tim.c ****   HAL_TIM_ChannelStateTypeDef complementary_channel_state = TIM_CHANNEL_N_STATE_GET(htim, Channel);
2146:Drivers/STM32G4xx_HAL_Driver/Src/stm32g4xx_hal_tim.c **** 
2147:Drivers/STM32G4xx_HAL_Driver/Src/stm32g4xx_hal_tim.c ****   /* Check the parameters */
2148:Drivers/STM32G4xx_HAL_Driver/Src/stm32g4xx_hal_tim.c ****   assert_param(IS_TIM_CCX_CHANNEL(htim->Instance, Channel));
2149:Drivers/STM32G4xx_HAL_Driver/Src/stm32g4xx_hal_tim.c **** 
2150:Drivers/STM32G4xx_HAL_Driver/Src/stm32g4xx_hal_tim.c ****   /* Check the TIM channel state */
2151:Drivers/STM32G4xx_HAL_Driver/Src/stm32g4xx_hal_tim.c ****   if ((channel_state != HAL_TIM_CHANNEL_STATE_READY)
2152:Drivers/STM32G4xx_HAL_Driver/Src/stm32g4xx_hal_tim.c ****       || (complementary_channel_state != HAL_TIM_CHANNEL_STATE_READY))
2153:Drivers/STM32G4xx_HAL_Driver/Src/stm32g4xx_hal_tim.c ****   {
2154:Drivers/STM32G4xx_HAL_Driver/Src/stm32g4xx_hal_tim.c ****     return HAL_ERROR;
2155:Drivers/STM32G4xx_HAL_Driver/Src/stm32g4xx_hal_tim.c ****   }
2156:Drivers/STM32G4xx_HAL_Driver/Src/stm32g4xx_hal_tim.c **** 
2157:Drivers/STM32G4xx_HAL_Driver/Src/stm32g4xx_hal_tim.c ****   /* Set the TIM channel state */
ARM GAS  /tmp/ccKRAx5z.s 			page 42


2158:Drivers/STM32G4xx_HAL_Driver/Src/stm32g4xx_hal_tim.c ****   TIM_CHANNEL_STATE_SET(htim, Channel, HAL_TIM_CHANNEL_STATE_BUSY);
2159:Drivers/STM32G4xx_HAL_Driver/Src/stm32g4xx_hal_tim.c ****   TIM_CHANNEL_N_STATE_SET(htim, Channel, HAL_TIM_CHANNEL_STATE_BUSY);
2160:Drivers/STM32G4xx_HAL_Driver/Src/stm32g4xx_hal_tim.c **** 
2161:Drivers/STM32G4xx_HAL_Driver/Src/stm32g4xx_hal_tim.c ****   /* Enable the Input Capture channel */
2162:Drivers/STM32G4xx_HAL_Driver/Src/stm32g4xx_hal_tim.c ****   TIM_CCxChannelCmd(htim->Instance, Channel, TIM_CCx_ENABLE);
2163:Drivers/STM32G4xx_HAL_Driver/Src/stm32g4xx_hal_tim.c **** 
2164:Drivers/STM32G4xx_HAL_Driver/Src/stm32g4xx_hal_tim.c ****   /* Enable the Peripheral, except in trigger mode where enable is automatically done with trigger 
2165:Drivers/STM32G4xx_HAL_Driver/Src/stm32g4xx_hal_tim.c ****   if (IS_TIM_SLAVE_INSTANCE(htim->Instance))
2166:Drivers/STM32G4xx_HAL_Driver/Src/stm32g4xx_hal_tim.c ****   {
2167:Drivers/STM32G4xx_HAL_Driver/Src/stm32g4xx_hal_tim.c ****     tmpsmcr = htim->Instance->SMCR & TIM_SMCR_SMS;
2168:Drivers/STM32G4xx_HAL_Driver/Src/stm32g4xx_hal_tim.c ****     if (!IS_TIM_SLAVEMODE_TRIGGER_ENABLED(tmpsmcr))
2169:Drivers/STM32G4xx_HAL_Driver/Src/stm32g4xx_hal_tim.c ****     {
2170:Drivers/STM32G4xx_HAL_Driver/Src/stm32g4xx_hal_tim.c ****       __HAL_TIM_ENABLE(htim);
2171:Drivers/STM32G4xx_HAL_Driver/Src/stm32g4xx_hal_tim.c ****     }
2172:Drivers/STM32G4xx_HAL_Driver/Src/stm32g4xx_hal_tim.c ****   }
2173:Drivers/STM32G4xx_HAL_Driver/Src/stm32g4xx_hal_tim.c ****   else
2174:Drivers/STM32G4xx_HAL_Driver/Src/stm32g4xx_hal_tim.c ****   {
2175:Drivers/STM32G4xx_HAL_Driver/Src/stm32g4xx_hal_tim.c ****     __HAL_TIM_ENABLE(htim);
2176:Drivers/STM32G4xx_HAL_Driver/Src/stm32g4xx_hal_tim.c ****   }
2177:Drivers/STM32G4xx_HAL_Driver/Src/stm32g4xx_hal_tim.c **** 
2178:Drivers/STM32G4xx_HAL_Driver/Src/stm32g4xx_hal_tim.c ****   /* Return function status */
2179:Drivers/STM32G4xx_HAL_Driver/Src/stm32g4xx_hal_tim.c ****   return HAL_OK;
2180:Drivers/STM32G4xx_HAL_Driver/Src/stm32g4xx_hal_tim.c **** }
2181:Drivers/STM32G4xx_HAL_Driver/Src/stm32g4xx_hal_tim.c **** 
2182:Drivers/STM32G4xx_HAL_Driver/Src/stm32g4xx_hal_tim.c **** /**
2183:Drivers/STM32G4xx_HAL_Driver/Src/stm32g4xx_hal_tim.c ****   * @brief  Stops the TIM Input Capture measurement.
2184:Drivers/STM32G4xx_HAL_Driver/Src/stm32g4xx_hal_tim.c ****   * @param  htim TIM Input Capture handle
2185:Drivers/STM32G4xx_HAL_Driver/Src/stm32g4xx_hal_tim.c ****   * @param  Channel TIM Channels to be disabled
2186:Drivers/STM32G4xx_HAL_Driver/Src/stm32g4xx_hal_tim.c ****   *          This parameter can be one of the following values:
2187:Drivers/STM32G4xx_HAL_Driver/Src/stm32g4xx_hal_tim.c ****   *            @arg TIM_CHANNEL_1: TIM Channel 1 selected
2188:Drivers/STM32G4xx_HAL_Driver/Src/stm32g4xx_hal_tim.c ****   *            @arg TIM_CHANNEL_2: TIM Channel 2 selected
2189:Drivers/STM32G4xx_HAL_Driver/Src/stm32g4xx_hal_tim.c ****   *            @arg TIM_CHANNEL_3: TIM Channel 3 selected
2190:Drivers/STM32G4xx_HAL_Driver/Src/stm32g4xx_hal_tim.c ****   *            @arg TIM_CHANNEL_4: TIM Channel 4 selected
2191:Drivers/STM32G4xx_HAL_Driver/Src/stm32g4xx_hal_tim.c ****   * @retval HAL status
2192:Drivers/STM32G4xx_HAL_Driver/Src/stm32g4xx_hal_tim.c ****   */
2193:Drivers/STM32G4xx_HAL_Driver/Src/stm32g4xx_hal_tim.c **** HAL_StatusTypeDef HAL_TIM_IC_Stop(TIM_HandleTypeDef *htim, uint32_t Channel)
2194:Drivers/STM32G4xx_HAL_Driver/Src/stm32g4xx_hal_tim.c **** {
2195:Drivers/STM32G4xx_HAL_Driver/Src/stm32g4xx_hal_tim.c ****   /* Check the parameters */
2196:Drivers/STM32G4xx_HAL_Driver/Src/stm32g4xx_hal_tim.c ****   assert_param(IS_TIM_CCX_CHANNEL(htim->Instance, Channel));
2197:Drivers/STM32G4xx_HAL_Driver/Src/stm32g4xx_hal_tim.c **** 
2198:Drivers/STM32G4xx_HAL_Driver/Src/stm32g4xx_hal_tim.c ****   /* Disable the Input Capture channel */
2199:Drivers/STM32G4xx_HAL_Driver/Src/stm32g4xx_hal_tim.c ****   TIM_CCxChannelCmd(htim->Instance, Channel, TIM_CCx_DISABLE);
2200:Drivers/STM32G4xx_HAL_Driver/Src/stm32g4xx_hal_tim.c **** 
2201:Drivers/STM32G4xx_HAL_Driver/Src/stm32g4xx_hal_tim.c ****   /* Disable the Peripheral */
2202:Drivers/STM32G4xx_HAL_Driver/Src/stm32g4xx_hal_tim.c ****   __HAL_TIM_DISABLE(htim);
2203:Drivers/STM32G4xx_HAL_Driver/Src/stm32g4xx_hal_tim.c **** 
2204:Drivers/STM32G4xx_HAL_Driver/Src/stm32g4xx_hal_tim.c ****   /* Set the TIM channel state */
2205:Drivers/STM32G4xx_HAL_Driver/Src/stm32g4xx_hal_tim.c ****   TIM_CHANNEL_STATE_SET(htim, Channel, HAL_TIM_CHANNEL_STATE_READY);
2206:Drivers/STM32G4xx_HAL_Driver/Src/stm32g4xx_hal_tim.c ****   TIM_CHANNEL_N_STATE_SET(htim, Channel, HAL_TIM_CHANNEL_STATE_READY);
2207:Drivers/STM32G4xx_HAL_Driver/Src/stm32g4xx_hal_tim.c **** 
2208:Drivers/STM32G4xx_HAL_Driver/Src/stm32g4xx_hal_tim.c ****   /* Return function status */
2209:Drivers/STM32G4xx_HAL_Driver/Src/stm32g4xx_hal_tim.c ****   return HAL_OK;
2210:Drivers/STM32G4xx_HAL_Driver/Src/stm32g4xx_hal_tim.c **** }
2211:Drivers/STM32G4xx_HAL_Driver/Src/stm32g4xx_hal_tim.c **** 
2212:Drivers/STM32G4xx_HAL_Driver/Src/stm32g4xx_hal_tim.c **** /**
2213:Drivers/STM32G4xx_HAL_Driver/Src/stm32g4xx_hal_tim.c ****   * @brief  Starts the TIM Input Capture measurement in interrupt mode.
2214:Drivers/STM32G4xx_HAL_Driver/Src/stm32g4xx_hal_tim.c ****   * @param  htim TIM Input Capture handle
ARM GAS  /tmp/ccKRAx5z.s 			page 43


2215:Drivers/STM32G4xx_HAL_Driver/Src/stm32g4xx_hal_tim.c ****   * @param  Channel TIM Channels to be enabled
2216:Drivers/STM32G4xx_HAL_Driver/Src/stm32g4xx_hal_tim.c ****   *          This parameter can be one of the following values:
2217:Drivers/STM32G4xx_HAL_Driver/Src/stm32g4xx_hal_tim.c ****   *            @arg TIM_CHANNEL_1: TIM Channel 1 selected
2218:Drivers/STM32G4xx_HAL_Driver/Src/stm32g4xx_hal_tim.c ****   *            @arg TIM_CHANNEL_2: TIM Channel 2 selected
2219:Drivers/STM32G4xx_HAL_Driver/Src/stm32g4xx_hal_tim.c ****   *            @arg TIM_CHANNEL_3: TIM Channel 3 selected
2220:Drivers/STM32G4xx_HAL_Driver/Src/stm32g4xx_hal_tim.c ****   *            @arg TIM_CHANNEL_4: TIM Channel 4 selected
2221:Drivers/STM32G4xx_HAL_Driver/Src/stm32g4xx_hal_tim.c ****   * @retval HAL status
2222:Drivers/STM32G4xx_HAL_Driver/Src/stm32g4xx_hal_tim.c ****   */
2223:Drivers/STM32G4xx_HAL_Driver/Src/stm32g4xx_hal_tim.c **** HAL_StatusTypeDef HAL_TIM_IC_Start_IT(TIM_HandleTypeDef *htim, uint32_t Channel)
2224:Drivers/STM32G4xx_HAL_Driver/Src/stm32g4xx_hal_tim.c **** {
2225:Drivers/STM32G4xx_HAL_Driver/Src/stm32g4xx_hal_tim.c ****   HAL_StatusTypeDef status = HAL_OK;
2226:Drivers/STM32G4xx_HAL_Driver/Src/stm32g4xx_hal_tim.c ****   uint32_t tmpsmcr;
2227:Drivers/STM32G4xx_HAL_Driver/Src/stm32g4xx_hal_tim.c **** 
2228:Drivers/STM32G4xx_HAL_Driver/Src/stm32g4xx_hal_tim.c ****   HAL_TIM_ChannelStateTypeDef channel_state = TIM_CHANNEL_STATE_GET(htim, Channel);
2229:Drivers/STM32G4xx_HAL_Driver/Src/stm32g4xx_hal_tim.c ****   HAL_TIM_ChannelStateTypeDef complementary_channel_state = TIM_CHANNEL_N_STATE_GET(htim, Channel);
2230:Drivers/STM32G4xx_HAL_Driver/Src/stm32g4xx_hal_tim.c **** 
2231:Drivers/STM32G4xx_HAL_Driver/Src/stm32g4xx_hal_tim.c ****   /* Check the parameters */
2232:Drivers/STM32G4xx_HAL_Driver/Src/stm32g4xx_hal_tim.c ****   assert_param(IS_TIM_CCX_CHANNEL(htim->Instance, Channel));
2233:Drivers/STM32G4xx_HAL_Driver/Src/stm32g4xx_hal_tim.c **** 
2234:Drivers/STM32G4xx_HAL_Driver/Src/stm32g4xx_hal_tim.c ****   /* Check the TIM channel state */
2235:Drivers/STM32G4xx_HAL_Driver/Src/stm32g4xx_hal_tim.c ****   if ((channel_state != HAL_TIM_CHANNEL_STATE_READY)
2236:Drivers/STM32G4xx_HAL_Driver/Src/stm32g4xx_hal_tim.c ****       || (complementary_channel_state != HAL_TIM_CHANNEL_STATE_READY))
2237:Drivers/STM32G4xx_HAL_Driver/Src/stm32g4xx_hal_tim.c ****   {
2238:Drivers/STM32G4xx_HAL_Driver/Src/stm32g4xx_hal_tim.c ****     return HAL_ERROR;
2239:Drivers/STM32G4xx_HAL_Driver/Src/stm32g4xx_hal_tim.c ****   }
2240:Drivers/STM32G4xx_HAL_Driver/Src/stm32g4xx_hal_tim.c **** 
2241:Drivers/STM32G4xx_HAL_Driver/Src/stm32g4xx_hal_tim.c ****   /* Set the TIM channel state */
2242:Drivers/STM32G4xx_HAL_Driver/Src/stm32g4xx_hal_tim.c ****   TIM_CHANNEL_STATE_SET(htim, Channel, HAL_TIM_CHANNEL_STATE_BUSY);
2243:Drivers/STM32G4xx_HAL_Driver/Src/stm32g4xx_hal_tim.c ****   TIM_CHANNEL_N_STATE_SET(htim, Channel, HAL_TIM_CHANNEL_STATE_BUSY);
2244:Drivers/STM32G4xx_HAL_Driver/Src/stm32g4xx_hal_tim.c **** 
2245:Drivers/STM32G4xx_HAL_Driver/Src/stm32g4xx_hal_tim.c ****   switch (Channel)
2246:Drivers/STM32G4xx_HAL_Driver/Src/stm32g4xx_hal_tim.c ****   {
2247:Drivers/STM32G4xx_HAL_Driver/Src/stm32g4xx_hal_tim.c ****     case TIM_CHANNEL_1:
2248:Drivers/STM32G4xx_HAL_Driver/Src/stm32g4xx_hal_tim.c ****     {
2249:Drivers/STM32G4xx_HAL_Driver/Src/stm32g4xx_hal_tim.c ****       /* Enable the TIM Capture/Compare 1 interrupt */
2250:Drivers/STM32G4xx_HAL_Driver/Src/stm32g4xx_hal_tim.c ****       __HAL_TIM_ENABLE_IT(htim, TIM_IT_CC1);
2251:Drivers/STM32G4xx_HAL_Driver/Src/stm32g4xx_hal_tim.c ****       break;
2252:Drivers/STM32G4xx_HAL_Driver/Src/stm32g4xx_hal_tim.c ****     }
2253:Drivers/STM32G4xx_HAL_Driver/Src/stm32g4xx_hal_tim.c **** 
2254:Drivers/STM32G4xx_HAL_Driver/Src/stm32g4xx_hal_tim.c ****     case TIM_CHANNEL_2:
2255:Drivers/STM32G4xx_HAL_Driver/Src/stm32g4xx_hal_tim.c ****     {
2256:Drivers/STM32G4xx_HAL_Driver/Src/stm32g4xx_hal_tim.c ****       /* Enable the TIM Capture/Compare 2 interrupt */
2257:Drivers/STM32G4xx_HAL_Driver/Src/stm32g4xx_hal_tim.c ****       __HAL_TIM_ENABLE_IT(htim, TIM_IT_CC2);
2258:Drivers/STM32G4xx_HAL_Driver/Src/stm32g4xx_hal_tim.c ****       break;
2259:Drivers/STM32G4xx_HAL_Driver/Src/stm32g4xx_hal_tim.c ****     }
2260:Drivers/STM32G4xx_HAL_Driver/Src/stm32g4xx_hal_tim.c **** 
2261:Drivers/STM32G4xx_HAL_Driver/Src/stm32g4xx_hal_tim.c ****     case TIM_CHANNEL_3:
2262:Drivers/STM32G4xx_HAL_Driver/Src/stm32g4xx_hal_tim.c ****     {
2263:Drivers/STM32G4xx_HAL_Driver/Src/stm32g4xx_hal_tim.c ****       /* Enable the TIM Capture/Compare 3 interrupt */
2264:Drivers/STM32G4xx_HAL_Driver/Src/stm32g4xx_hal_tim.c ****       __HAL_TIM_ENABLE_IT(htim, TIM_IT_CC3);
2265:Drivers/STM32G4xx_HAL_Driver/Src/stm32g4xx_hal_tim.c ****       break;
2266:Drivers/STM32G4xx_HAL_Driver/Src/stm32g4xx_hal_tim.c ****     }
2267:Drivers/STM32G4xx_HAL_Driver/Src/stm32g4xx_hal_tim.c **** 
2268:Drivers/STM32G4xx_HAL_Driver/Src/stm32g4xx_hal_tim.c ****     case TIM_CHANNEL_4:
2269:Drivers/STM32G4xx_HAL_Driver/Src/stm32g4xx_hal_tim.c ****     {
2270:Drivers/STM32G4xx_HAL_Driver/Src/stm32g4xx_hal_tim.c ****       /* Enable the TIM Capture/Compare 4 interrupt */
2271:Drivers/STM32G4xx_HAL_Driver/Src/stm32g4xx_hal_tim.c ****       __HAL_TIM_ENABLE_IT(htim, TIM_IT_CC4);
ARM GAS  /tmp/ccKRAx5z.s 			page 44


2272:Drivers/STM32G4xx_HAL_Driver/Src/stm32g4xx_hal_tim.c ****       break;
2273:Drivers/STM32G4xx_HAL_Driver/Src/stm32g4xx_hal_tim.c ****     }
2274:Drivers/STM32G4xx_HAL_Driver/Src/stm32g4xx_hal_tim.c **** 
2275:Drivers/STM32G4xx_HAL_Driver/Src/stm32g4xx_hal_tim.c ****     default:
2276:Drivers/STM32G4xx_HAL_Driver/Src/stm32g4xx_hal_tim.c ****       status = HAL_ERROR;
2277:Drivers/STM32G4xx_HAL_Driver/Src/stm32g4xx_hal_tim.c ****       break;
2278:Drivers/STM32G4xx_HAL_Driver/Src/stm32g4xx_hal_tim.c ****   }
2279:Drivers/STM32G4xx_HAL_Driver/Src/stm32g4xx_hal_tim.c **** 
2280:Drivers/STM32G4xx_HAL_Driver/Src/stm32g4xx_hal_tim.c ****   if (status == HAL_OK)
2281:Drivers/STM32G4xx_HAL_Driver/Src/stm32g4xx_hal_tim.c ****   {
2282:Drivers/STM32G4xx_HAL_Driver/Src/stm32g4xx_hal_tim.c ****     /* Enable the Input Capture channel */
2283:Drivers/STM32G4xx_HAL_Driver/Src/stm32g4xx_hal_tim.c ****     TIM_CCxChannelCmd(htim->Instance, Channel, TIM_CCx_ENABLE);
2284:Drivers/STM32G4xx_HAL_Driver/Src/stm32g4xx_hal_tim.c **** 
2285:Drivers/STM32G4xx_HAL_Driver/Src/stm32g4xx_hal_tim.c ****     /* Enable the Peripheral, except in trigger mode where enable is automatically done with trigge
2286:Drivers/STM32G4xx_HAL_Driver/Src/stm32g4xx_hal_tim.c ****     if (IS_TIM_SLAVE_INSTANCE(htim->Instance))
2287:Drivers/STM32G4xx_HAL_Driver/Src/stm32g4xx_hal_tim.c ****     {
2288:Drivers/STM32G4xx_HAL_Driver/Src/stm32g4xx_hal_tim.c ****       tmpsmcr = htim->Instance->SMCR & TIM_SMCR_SMS;
2289:Drivers/STM32G4xx_HAL_Driver/Src/stm32g4xx_hal_tim.c ****       if (!IS_TIM_SLAVEMODE_TRIGGER_ENABLED(tmpsmcr))
2290:Drivers/STM32G4xx_HAL_Driver/Src/stm32g4xx_hal_tim.c ****       {
2291:Drivers/STM32G4xx_HAL_Driver/Src/stm32g4xx_hal_tim.c ****         __HAL_TIM_ENABLE(htim);
2292:Drivers/STM32G4xx_HAL_Driver/Src/stm32g4xx_hal_tim.c ****       }
2293:Drivers/STM32G4xx_HAL_Driver/Src/stm32g4xx_hal_tim.c ****     }
2294:Drivers/STM32G4xx_HAL_Driver/Src/stm32g4xx_hal_tim.c ****     else
2295:Drivers/STM32G4xx_HAL_Driver/Src/stm32g4xx_hal_tim.c ****     {
2296:Drivers/STM32G4xx_HAL_Driver/Src/stm32g4xx_hal_tim.c ****       __HAL_TIM_ENABLE(htim);
2297:Drivers/STM32G4xx_HAL_Driver/Src/stm32g4xx_hal_tim.c ****     }
2298:Drivers/STM32G4xx_HAL_Driver/Src/stm32g4xx_hal_tim.c ****   }
2299:Drivers/STM32G4xx_HAL_Driver/Src/stm32g4xx_hal_tim.c **** 
2300:Drivers/STM32G4xx_HAL_Driver/Src/stm32g4xx_hal_tim.c ****   /* Return function status */
2301:Drivers/STM32G4xx_HAL_Driver/Src/stm32g4xx_hal_tim.c ****   return status;
2302:Drivers/STM32G4xx_HAL_Driver/Src/stm32g4xx_hal_tim.c **** }
2303:Drivers/STM32G4xx_HAL_Driver/Src/stm32g4xx_hal_tim.c **** 
2304:Drivers/STM32G4xx_HAL_Driver/Src/stm32g4xx_hal_tim.c **** /**
2305:Drivers/STM32G4xx_HAL_Driver/Src/stm32g4xx_hal_tim.c ****   * @brief  Stops the TIM Input Capture measurement in interrupt mode.
2306:Drivers/STM32G4xx_HAL_Driver/Src/stm32g4xx_hal_tim.c ****   * @param  htim TIM Input Capture handle
2307:Drivers/STM32G4xx_HAL_Driver/Src/stm32g4xx_hal_tim.c ****   * @param  Channel TIM Channels to be disabled
2308:Drivers/STM32G4xx_HAL_Driver/Src/stm32g4xx_hal_tim.c ****   *          This parameter can be one of the following values:
2309:Drivers/STM32G4xx_HAL_Driver/Src/stm32g4xx_hal_tim.c ****   *            @arg TIM_CHANNEL_1: TIM Channel 1 selected
2310:Drivers/STM32G4xx_HAL_Driver/Src/stm32g4xx_hal_tim.c ****   *            @arg TIM_CHANNEL_2: TIM Channel 2 selected
2311:Drivers/STM32G4xx_HAL_Driver/Src/stm32g4xx_hal_tim.c ****   *            @arg TIM_CHANNEL_3: TIM Channel 3 selected
2312:Drivers/STM32G4xx_HAL_Driver/Src/stm32g4xx_hal_tim.c ****   *            @arg TIM_CHANNEL_4: TIM Channel 4 selected
2313:Drivers/STM32G4xx_HAL_Driver/Src/stm32g4xx_hal_tim.c ****   * @retval HAL status
2314:Drivers/STM32G4xx_HAL_Driver/Src/stm32g4xx_hal_tim.c ****   */
2315:Drivers/STM32G4xx_HAL_Driver/Src/stm32g4xx_hal_tim.c **** HAL_StatusTypeDef HAL_TIM_IC_Stop_IT(TIM_HandleTypeDef *htim, uint32_t Channel)
2316:Drivers/STM32G4xx_HAL_Driver/Src/stm32g4xx_hal_tim.c **** {
2317:Drivers/STM32G4xx_HAL_Driver/Src/stm32g4xx_hal_tim.c ****   HAL_StatusTypeDef status = HAL_OK;
2318:Drivers/STM32G4xx_HAL_Driver/Src/stm32g4xx_hal_tim.c **** 
2319:Drivers/STM32G4xx_HAL_Driver/Src/stm32g4xx_hal_tim.c ****   /* Check the parameters */
2320:Drivers/STM32G4xx_HAL_Driver/Src/stm32g4xx_hal_tim.c ****   assert_param(IS_TIM_CCX_CHANNEL(htim->Instance, Channel));
2321:Drivers/STM32G4xx_HAL_Driver/Src/stm32g4xx_hal_tim.c **** 
2322:Drivers/STM32G4xx_HAL_Driver/Src/stm32g4xx_hal_tim.c ****   switch (Channel)
2323:Drivers/STM32G4xx_HAL_Driver/Src/stm32g4xx_hal_tim.c ****   {
2324:Drivers/STM32G4xx_HAL_Driver/Src/stm32g4xx_hal_tim.c ****     case TIM_CHANNEL_1:
2325:Drivers/STM32G4xx_HAL_Driver/Src/stm32g4xx_hal_tim.c ****     {
2326:Drivers/STM32G4xx_HAL_Driver/Src/stm32g4xx_hal_tim.c ****       /* Disable the TIM Capture/Compare 1 interrupt */
2327:Drivers/STM32G4xx_HAL_Driver/Src/stm32g4xx_hal_tim.c ****       __HAL_TIM_DISABLE_IT(htim, TIM_IT_CC1);
2328:Drivers/STM32G4xx_HAL_Driver/Src/stm32g4xx_hal_tim.c ****       break;
ARM GAS  /tmp/ccKRAx5z.s 			page 45


2329:Drivers/STM32G4xx_HAL_Driver/Src/stm32g4xx_hal_tim.c ****     }
2330:Drivers/STM32G4xx_HAL_Driver/Src/stm32g4xx_hal_tim.c **** 
2331:Drivers/STM32G4xx_HAL_Driver/Src/stm32g4xx_hal_tim.c ****     case TIM_CHANNEL_2:
2332:Drivers/STM32G4xx_HAL_Driver/Src/stm32g4xx_hal_tim.c ****     {
2333:Drivers/STM32G4xx_HAL_Driver/Src/stm32g4xx_hal_tim.c ****       /* Disable the TIM Capture/Compare 2 interrupt */
2334:Drivers/STM32G4xx_HAL_Driver/Src/stm32g4xx_hal_tim.c ****       __HAL_TIM_DISABLE_IT(htim, TIM_IT_CC2);
2335:Drivers/STM32G4xx_HAL_Driver/Src/stm32g4xx_hal_tim.c ****       break;
2336:Drivers/STM32G4xx_HAL_Driver/Src/stm32g4xx_hal_tim.c ****     }
2337:Drivers/STM32G4xx_HAL_Driver/Src/stm32g4xx_hal_tim.c **** 
2338:Drivers/STM32G4xx_HAL_Driver/Src/stm32g4xx_hal_tim.c ****     case TIM_CHANNEL_3:
2339:Drivers/STM32G4xx_HAL_Driver/Src/stm32g4xx_hal_tim.c ****     {
2340:Drivers/STM32G4xx_HAL_Driver/Src/stm32g4xx_hal_tim.c ****       /* Disable the TIM Capture/Compare 3 interrupt */
2341:Drivers/STM32G4xx_HAL_Driver/Src/stm32g4xx_hal_tim.c ****       __HAL_TIM_DISABLE_IT(htim, TIM_IT_CC3);
2342:Drivers/STM32G4xx_HAL_Driver/Src/stm32g4xx_hal_tim.c ****       break;
2343:Drivers/STM32G4xx_HAL_Driver/Src/stm32g4xx_hal_tim.c ****     }
2344:Drivers/STM32G4xx_HAL_Driver/Src/stm32g4xx_hal_tim.c **** 
2345:Drivers/STM32G4xx_HAL_Driver/Src/stm32g4xx_hal_tim.c ****     case TIM_CHANNEL_4:
2346:Drivers/STM32G4xx_HAL_Driver/Src/stm32g4xx_hal_tim.c ****     {
2347:Drivers/STM32G4xx_HAL_Driver/Src/stm32g4xx_hal_tim.c ****       /* Disable the TIM Capture/Compare 4 interrupt */
2348:Drivers/STM32G4xx_HAL_Driver/Src/stm32g4xx_hal_tim.c ****       __HAL_TIM_DISABLE_IT(htim, TIM_IT_CC4);
2349:Drivers/STM32G4xx_HAL_Driver/Src/stm32g4xx_hal_tim.c ****       break;
2350:Drivers/STM32G4xx_HAL_Driver/Src/stm32g4xx_hal_tim.c ****     }
2351:Drivers/STM32G4xx_HAL_Driver/Src/stm32g4xx_hal_tim.c **** 
2352:Drivers/STM32G4xx_HAL_Driver/Src/stm32g4xx_hal_tim.c ****     default:
2353:Drivers/STM32G4xx_HAL_Driver/Src/stm32g4xx_hal_tim.c ****       status = HAL_ERROR;
2354:Drivers/STM32G4xx_HAL_Driver/Src/stm32g4xx_hal_tim.c ****       break;
2355:Drivers/STM32G4xx_HAL_Driver/Src/stm32g4xx_hal_tim.c ****   }
2356:Drivers/STM32G4xx_HAL_Driver/Src/stm32g4xx_hal_tim.c **** 
2357:Drivers/STM32G4xx_HAL_Driver/Src/stm32g4xx_hal_tim.c ****   if (status == HAL_OK)
2358:Drivers/STM32G4xx_HAL_Driver/Src/stm32g4xx_hal_tim.c ****   {
2359:Drivers/STM32G4xx_HAL_Driver/Src/stm32g4xx_hal_tim.c ****     /* Disable the Input Capture channel */
2360:Drivers/STM32G4xx_HAL_Driver/Src/stm32g4xx_hal_tim.c ****     TIM_CCxChannelCmd(htim->Instance, Channel, TIM_CCx_DISABLE);
2361:Drivers/STM32G4xx_HAL_Driver/Src/stm32g4xx_hal_tim.c **** 
2362:Drivers/STM32G4xx_HAL_Driver/Src/stm32g4xx_hal_tim.c ****     /* Disable the Peripheral */
2363:Drivers/STM32G4xx_HAL_Driver/Src/stm32g4xx_hal_tim.c ****     __HAL_TIM_DISABLE(htim);
2364:Drivers/STM32G4xx_HAL_Driver/Src/stm32g4xx_hal_tim.c **** 
2365:Drivers/STM32G4xx_HAL_Driver/Src/stm32g4xx_hal_tim.c ****     /* Set the TIM channel state */
2366:Drivers/STM32G4xx_HAL_Driver/Src/stm32g4xx_hal_tim.c ****     TIM_CHANNEL_STATE_SET(htim, Channel, HAL_TIM_CHANNEL_STATE_READY);
2367:Drivers/STM32G4xx_HAL_Driver/Src/stm32g4xx_hal_tim.c ****     TIM_CHANNEL_N_STATE_SET(htim, Channel, HAL_TIM_CHANNEL_STATE_READY);
2368:Drivers/STM32G4xx_HAL_Driver/Src/stm32g4xx_hal_tim.c ****   }
2369:Drivers/STM32G4xx_HAL_Driver/Src/stm32g4xx_hal_tim.c **** 
2370:Drivers/STM32G4xx_HAL_Driver/Src/stm32g4xx_hal_tim.c ****   /* Return function status */
2371:Drivers/STM32G4xx_HAL_Driver/Src/stm32g4xx_hal_tim.c ****   return status;
2372:Drivers/STM32G4xx_HAL_Driver/Src/stm32g4xx_hal_tim.c **** }
2373:Drivers/STM32G4xx_HAL_Driver/Src/stm32g4xx_hal_tim.c **** 
2374:Drivers/STM32G4xx_HAL_Driver/Src/stm32g4xx_hal_tim.c **** /**
2375:Drivers/STM32G4xx_HAL_Driver/Src/stm32g4xx_hal_tim.c ****   * @brief  Starts the TIM Input Capture measurement in DMA mode.
2376:Drivers/STM32G4xx_HAL_Driver/Src/stm32g4xx_hal_tim.c ****   * @param  htim TIM Input Capture handle
2377:Drivers/STM32G4xx_HAL_Driver/Src/stm32g4xx_hal_tim.c ****   * @param  Channel TIM Channels to be enabled
2378:Drivers/STM32G4xx_HAL_Driver/Src/stm32g4xx_hal_tim.c ****   *          This parameter can be one of the following values:
2379:Drivers/STM32G4xx_HAL_Driver/Src/stm32g4xx_hal_tim.c ****   *            @arg TIM_CHANNEL_1: TIM Channel 1 selected
2380:Drivers/STM32G4xx_HAL_Driver/Src/stm32g4xx_hal_tim.c ****   *            @arg TIM_CHANNEL_2: TIM Channel 2 selected
2381:Drivers/STM32G4xx_HAL_Driver/Src/stm32g4xx_hal_tim.c ****   *            @arg TIM_CHANNEL_3: TIM Channel 3 selected
2382:Drivers/STM32G4xx_HAL_Driver/Src/stm32g4xx_hal_tim.c ****   *            @arg TIM_CHANNEL_4: TIM Channel 4 selected
2383:Drivers/STM32G4xx_HAL_Driver/Src/stm32g4xx_hal_tim.c ****   * @param  pData The destination Buffer address.
2384:Drivers/STM32G4xx_HAL_Driver/Src/stm32g4xx_hal_tim.c ****   * @param  Length The length of data to be transferred from TIM peripheral to memory.
2385:Drivers/STM32G4xx_HAL_Driver/Src/stm32g4xx_hal_tim.c ****   * @retval HAL status
ARM GAS  /tmp/ccKRAx5z.s 			page 46


2386:Drivers/STM32G4xx_HAL_Driver/Src/stm32g4xx_hal_tim.c ****   */
2387:Drivers/STM32G4xx_HAL_Driver/Src/stm32g4xx_hal_tim.c **** HAL_StatusTypeDef HAL_TIM_IC_Start_DMA(TIM_HandleTypeDef *htim, uint32_t Channel, uint32_t *pData, 
2388:Drivers/STM32G4xx_HAL_Driver/Src/stm32g4xx_hal_tim.c **** {
2389:Drivers/STM32G4xx_HAL_Driver/Src/stm32g4xx_hal_tim.c ****   HAL_StatusTypeDef status = HAL_OK;
2390:Drivers/STM32G4xx_HAL_Driver/Src/stm32g4xx_hal_tim.c ****   uint32_t tmpsmcr;
2391:Drivers/STM32G4xx_HAL_Driver/Src/stm32g4xx_hal_tim.c **** 
2392:Drivers/STM32G4xx_HAL_Driver/Src/stm32g4xx_hal_tim.c ****   HAL_TIM_ChannelStateTypeDef channel_state = TIM_CHANNEL_STATE_GET(htim, Channel);
2393:Drivers/STM32G4xx_HAL_Driver/Src/stm32g4xx_hal_tim.c ****   HAL_TIM_ChannelStateTypeDef complementary_channel_state = TIM_CHANNEL_N_STATE_GET(htim, Channel);
2394:Drivers/STM32G4xx_HAL_Driver/Src/stm32g4xx_hal_tim.c **** 
2395:Drivers/STM32G4xx_HAL_Driver/Src/stm32g4xx_hal_tim.c ****   /* Check the parameters */
2396:Drivers/STM32G4xx_HAL_Driver/Src/stm32g4xx_hal_tim.c ****   assert_param(IS_TIM_CCX_CHANNEL(htim->Instance, Channel));
2397:Drivers/STM32G4xx_HAL_Driver/Src/stm32g4xx_hal_tim.c ****   assert_param(IS_TIM_DMA_CC_INSTANCE(htim->Instance));
2398:Drivers/STM32G4xx_HAL_Driver/Src/stm32g4xx_hal_tim.c **** 
2399:Drivers/STM32G4xx_HAL_Driver/Src/stm32g4xx_hal_tim.c ****   /* Set the TIM channel state */
2400:Drivers/STM32G4xx_HAL_Driver/Src/stm32g4xx_hal_tim.c ****   if ((channel_state == HAL_TIM_CHANNEL_STATE_BUSY)
2401:Drivers/STM32G4xx_HAL_Driver/Src/stm32g4xx_hal_tim.c ****       || (complementary_channel_state == HAL_TIM_CHANNEL_STATE_BUSY))
2402:Drivers/STM32G4xx_HAL_Driver/Src/stm32g4xx_hal_tim.c ****   {
2403:Drivers/STM32G4xx_HAL_Driver/Src/stm32g4xx_hal_tim.c ****     return HAL_BUSY;
2404:Drivers/STM32G4xx_HAL_Driver/Src/stm32g4xx_hal_tim.c ****   }
2405:Drivers/STM32G4xx_HAL_Driver/Src/stm32g4xx_hal_tim.c ****   else if ((channel_state == HAL_TIM_CHANNEL_STATE_READY)
2406:Drivers/STM32G4xx_HAL_Driver/Src/stm32g4xx_hal_tim.c ****            && (complementary_channel_state == HAL_TIM_CHANNEL_STATE_READY))
2407:Drivers/STM32G4xx_HAL_Driver/Src/stm32g4xx_hal_tim.c ****   {
2408:Drivers/STM32G4xx_HAL_Driver/Src/stm32g4xx_hal_tim.c ****     if ((pData == NULL) || (Length == 0U))
2409:Drivers/STM32G4xx_HAL_Driver/Src/stm32g4xx_hal_tim.c ****     {
2410:Drivers/STM32G4xx_HAL_Driver/Src/stm32g4xx_hal_tim.c ****       return HAL_ERROR;
2411:Drivers/STM32G4xx_HAL_Driver/Src/stm32g4xx_hal_tim.c ****     }
2412:Drivers/STM32G4xx_HAL_Driver/Src/stm32g4xx_hal_tim.c ****     else
2413:Drivers/STM32G4xx_HAL_Driver/Src/stm32g4xx_hal_tim.c ****     {
2414:Drivers/STM32G4xx_HAL_Driver/Src/stm32g4xx_hal_tim.c ****       TIM_CHANNEL_STATE_SET(htim, Channel, HAL_TIM_CHANNEL_STATE_BUSY);
2415:Drivers/STM32G4xx_HAL_Driver/Src/stm32g4xx_hal_tim.c ****       TIM_CHANNEL_N_STATE_SET(htim, Channel, HAL_TIM_CHANNEL_STATE_BUSY);
2416:Drivers/STM32G4xx_HAL_Driver/Src/stm32g4xx_hal_tim.c ****     }
2417:Drivers/STM32G4xx_HAL_Driver/Src/stm32g4xx_hal_tim.c ****   }
2418:Drivers/STM32G4xx_HAL_Driver/Src/stm32g4xx_hal_tim.c ****   else
2419:Drivers/STM32G4xx_HAL_Driver/Src/stm32g4xx_hal_tim.c ****   {
2420:Drivers/STM32G4xx_HAL_Driver/Src/stm32g4xx_hal_tim.c ****     return HAL_ERROR;
2421:Drivers/STM32G4xx_HAL_Driver/Src/stm32g4xx_hal_tim.c ****   }
2422:Drivers/STM32G4xx_HAL_Driver/Src/stm32g4xx_hal_tim.c **** 
2423:Drivers/STM32G4xx_HAL_Driver/Src/stm32g4xx_hal_tim.c ****   /* Enable the Input Capture channel */
2424:Drivers/STM32G4xx_HAL_Driver/Src/stm32g4xx_hal_tim.c ****   TIM_CCxChannelCmd(htim->Instance, Channel, TIM_CCx_ENABLE);
2425:Drivers/STM32G4xx_HAL_Driver/Src/stm32g4xx_hal_tim.c **** 
2426:Drivers/STM32G4xx_HAL_Driver/Src/stm32g4xx_hal_tim.c ****   switch (Channel)
2427:Drivers/STM32G4xx_HAL_Driver/Src/stm32g4xx_hal_tim.c ****   {
2428:Drivers/STM32G4xx_HAL_Driver/Src/stm32g4xx_hal_tim.c ****     case TIM_CHANNEL_1:
2429:Drivers/STM32G4xx_HAL_Driver/Src/stm32g4xx_hal_tim.c ****     {
2430:Drivers/STM32G4xx_HAL_Driver/Src/stm32g4xx_hal_tim.c ****       /* Set the DMA capture callbacks */
2431:Drivers/STM32G4xx_HAL_Driver/Src/stm32g4xx_hal_tim.c ****       htim->hdma[TIM_DMA_ID_CC1]->XferCpltCallback = TIM_DMACaptureCplt;
2432:Drivers/STM32G4xx_HAL_Driver/Src/stm32g4xx_hal_tim.c ****       htim->hdma[TIM_DMA_ID_CC1]->XferHalfCpltCallback = TIM_DMACaptureHalfCplt;
2433:Drivers/STM32G4xx_HAL_Driver/Src/stm32g4xx_hal_tim.c **** 
2434:Drivers/STM32G4xx_HAL_Driver/Src/stm32g4xx_hal_tim.c ****       /* Set the DMA error callback */
2435:Drivers/STM32G4xx_HAL_Driver/Src/stm32g4xx_hal_tim.c ****       htim->hdma[TIM_DMA_ID_CC1]->XferErrorCallback = TIM_DMAError ;
2436:Drivers/STM32G4xx_HAL_Driver/Src/stm32g4xx_hal_tim.c **** 
2437:Drivers/STM32G4xx_HAL_Driver/Src/stm32g4xx_hal_tim.c ****       /* Enable the DMA channel */
2438:Drivers/STM32G4xx_HAL_Driver/Src/stm32g4xx_hal_tim.c ****       if (HAL_DMA_Start_IT(htim->hdma[TIM_DMA_ID_CC1], (uint32_t)&htim->Instance->CCR1, (uint32_t)p
2439:Drivers/STM32G4xx_HAL_Driver/Src/stm32g4xx_hal_tim.c ****                            Length) != HAL_OK)
2440:Drivers/STM32G4xx_HAL_Driver/Src/stm32g4xx_hal_tim.c ****       {
2441:Drivers/STM32G4xx_HAL_Driver/Src/stm32g4xx_hal_tim.c ****         /* Return error status */
2442:Drivers/STM32G4xx_HAL_Driver/Src/stm32g4xx_hal_tim.c ****         return HAL_ERROR;
ARM GAS  /tmp/ccKRAx5z.s 			page 47


2443:Drivers/STM32G4xx_HAL_Driver/Src/stm32g4xx_hal_tim.c ****       }
2444:Drivers/STM32G4xx_HAL_Driver/Src/stm32g4xx_hal_tim.c ****       /* Enable the TIM Capture/Compare 1 DMA request */
2445:Drivers/STM32G4xx_HAL_Driver/Src/stm32g4xx_hal_tim.c ****       __HAL_TIM_ENABLE_DMA(htim, TIM_DMA_CC1);
2446:Drivers/STM32G4xx_HAL_Driver/Src/stm32g4xx_hal_tim.c ****       break;
2447:Drivers/STM32G4xx_HAL_Driver/Src/stm32g4xx_hal_tim.c ****     }
2448:Drivers/STM32G4xx_HAL_Driver/Src/stm32g4xx_hal_tim.c **** 
2449:Drivers/STM32G4xx_HAL_Driver/Src/stm32g4xx_hal_tim.c ****     case TIM_CHANNEL_2:
2450:Drivers/STM32G4xx_HAL_Driver/Src/stm32g4xx_hal_tim.c ****     {
2451:Drivers/STM32G4xx_HAL_Driver/Src/stm32g4xx_hal_tim.c ****       /* Set the DMA capture callbacks */
2452:Drivers/STM32G4xx_HAL_Driver/Src/stm32g4xx_hal_tim.c ****       htim->hdma[TIM_DMA_ID_CC2]->XferCpltCallback = TIM_DMACaptureCplt;
2453:Drivers/STM32G4xx_HAL_Driver/Src/stm32g4xx_hal_tim.c ****       htim->hdma[TIM_DMA_ID_CC2]->XferHalfCpltCallback = TIM_DMACaptureHalfCplt;
2454:Drivers/STM32G4xx_HAL_Driver/Src/stm32g4xx_hal_tim.c **** 
2455:Drivers/STM32G4xx_HAL_Driver/Src/stm32g4xx_hal_tim.c ****       /* Set the DMA error callback */
2456:Drivers/STM32G4xx_HAL_Driver/Src/stm32g4xx_hal_tim.c ****       htim->hdma[TIM_DMA_ID_CC2]->XferErrorCallback = TIM_DMAError ;
2457:Drivers/STM32G4xx_HAL_Driver/Src/stm32g4xx_hal_tim.c **** 
2458:Drivers/STM32G4xx_HAL_Driver/Src/stm32g4xx_hal_tim.c ****       /* Enable the DMA channel */
2459:Drivers/STM32G4xx_HAL_Driver/Src/stm32g4xx_hal_tim.c ****       if (HAL_DMA_Start_IT(htim->hdma[TIM_DMA_ID_CC2], (uint32_t)&htim->Instance->CCR2, (uint32_t)p
2460:Drivers/STM32G4xx_HAL_Driver/Src/stm32g4xx_hal_tim.c ****                            Length) != HAL_OK)
2461:Drivers/STM32G4xx_HAL_Driver/Src/stm32g4xx_hal_tim.c ****       {
2462:Drivers/STM32G4xx_HAL_Driver/Src/stm32g4xx_hal_tim.c ****         /* Return error status */
2463:Drivers/STM32G4xx_HAL_Driver/Src/stm32g4xx_hal_tim.c ****         return HAL_ERROR;
2464:Drivers/STM32G4xx_HAL_Driver/Src/stm32g4xx_hal_tim.c ****       }
2465:Drivers/STM32G4xx_HAL_Driver/Src/stm32g4xx_hal_tim.c ****       /* Enable the TIM Capture/Compare 2  DMA request */
2466:Drivers/STM32G4xx_HAL_Driver/Src/stm32g4xx_hal_tim.c ****       __HAL_TIM_ENABLE_DMA(htim, TIM_DMA_CC2);
2467:Drivers/STM32G4xx_HAL_Driver/Src/stm32g4xx_hal_tim.c ****       break;
2468:Drivers/STM32G4xx_HAL_Driver/Src/stm32g4xx_hal_tim.c ****     }
2469:Drivers/STM32G4xx_HAL_Driver/Src/stm32g4xx_hal_tim.c **** 
2470:Drivers/STM32G4xx_HAL_Driver/Src/stm32g4xx_hal_tim.c ****     case TIM_CHANNEL_3:
2471:Drivers/STM32G4xx_HAL_Driver/Src/stm32g4xx_hal_tim.c ****     {
2472:Drivers/STM32G4xx_HAL_Driver/Src/stm32g4xx_hal_tim.c ****       /* Set the DMA capture callbacks */
2473:Drivers/STM32G4xx_HAL_Driver/Src/stm32g4xx_hal_tim.c ****       htim->hdma[TIM_DMA_ID_CC3]->XferCpltCallback = TIM_DMACaptureCplt;
2474:Drivers/STM32G4xx_HAL_Driver/Src/stm32g4xx_hal_tim.c ****       htim->hdma[TIM_DMA_ID_CC3]->XferHalfCpltCallback = TIM_DMACaptureHalfCplt;
2475:Drivers/STM32G4xx_HAL_Driver/Src/stm32g4xx_hal_tim.c **** 
2476:Drivers/STM32G4xx_HAL_Driver/Src/stm32g4xx_hal_tim.c ****       /* Set the DMA error callback */
2477:Drivers/STM32G4xx_HAL_Driver/Src/stm32g4xx_hal_tim.c ****       htim->hdma[TIM_DMA_ID_CC3]->XferErrorCallback = TIM_DMAError ;
2478:Drivers/STM32G4xx_HAL_Driver/Src/stm32g4xx_hal_tim.c **** 
2479:Drivers/STM32G4xx_HAL_Driver/Src/stm32g4xx_hal_tim.c ****       /* Enable the DMA channel */
2480:Drivers/STM32G4xx_HAL_Driver/Src/stm32g4xx_hal_tim.c ****       if (HAL_DMA_Start_IT(htim->hdma[TIM_DMA_ID_CC3], (uint32_t)&htim->Instance->CCR3, (uint32_t)p
2481:Drivers/STM32G4xx_HAL_Driver/Src/stm32g4xx_hal_tim.c ****                            Length) != HAL_OK)
2482:Drivers/STM32G4xx_HAL_Driver/Src/stm32g4xx_hal_tim.c ****       {
2483:Drivers/STM32G4xx_HAL_Driver/Src/stm32g4xx_hal_tim.c ****         /* Return error status */
2484:Drivers/STM32G4xx_HAL_Driver/Src/stm32g4xx_hal_tim.c ****         return HAL_ERROR;
2485:Drivers/STM32G4xx_HAL_Driver/Src/stm32g4xx_hal_tim.c ****       }
2486:Drivers/STM32G4xx_HAL_Driver/Src/stm32g4xx_hal_tim.c ****       /* Enable the TIM Capture/Compare 3  DMA request */
2487:Drivers/STM32G4xx_HAL_Driver/Src/stm32g4xx_hal_tim.c ****       __HAL_TIM_ENABLE_DMA(htim, TIM_DMA_CC3);
2488:Drivers/STM32G4xx_HAL_Driver/Src/stm32g4xx_hal_tim.c ****       break;
2489:Drivers/STM32G4xx_HAL_Driver/Src/stm32g4xx_hal_tim.c ****     }
2490:Drivers/STM32G4xx_HAL_Driver/Src/stm32g4xx_hal_tim.c **** 
2491:Drivers/STM32G4xx_HAL_Driver/Src/stm32g4xx_hal_tim.c ****     case TIM_CHANNEL_4:
2492:Drivers/STM32G4xx_HAL_Driver/Src/stm32g4xx_hal_tim.c ****     {
2493:Drivers/STM32G4xx_HAL_Driver/Src/stm32g4xx_hal_tim.c ****       /* Set the DMA capture callbacks */
2494:Drivers/STM32G4xx_HAL_Driver/Src/stm32g4xx_hal_tim.c ****       htim->hdma[TIM_DMA_ID_CC4]->XferCpltCallback = TIM_DMACaptureCplt;
2495:Drivers/STM32G4xx_HAL_Driver/Src/stm32g4xx_hal_tim.c ****       htim->hdma[TIM_DMA_ID_CC4]->XferHalfCpltCallback = TIM_DMACaptureHalfCplt;
2496:Drivers/STM32G4xx_HAL_Driver/Src/stm32g4xx_hal_tim.c **** 
2497:Drivers/STM32G4xx_HAL_Driver/Src/stm32g4xx_hal_tim.c ****       /* Set the DMA error callback */
2498:Drivers/STM32G4xx_HAL_Driver/Src/stm32g4xx_hal_tim.c ****       htim->hdma[TIM_DMA_ID_CC4]->XferErrorCallback = TIM_DMAError ;
2499:Drivers/STM32G4xx_HAL_Driver/Src/stm32g4xx_hal_tim.c **** 
ARM GAS  /tmp/ccKRAx5z.s 			page 48


2500:Drivers/STM32G4xx_HAL_Driver/Src/stm32g4xx_hal_tim.c ****       /* Enable the DMA channel */
2501:Drivers/STM32G4xx_HAL_Driver/Src/stm32g4xx_hal_tim.c ****       if (HAL_DMA_Start_IT(htim->hdma[TIM_DMA_ID_CC4], (uint32_t)&htim->Instance->CCR4, (uint32_t)p
2502:Drivers/STM32G4xx_HAL_Driver/Src/stm32g4xx_hal_tim.c ****                            Length) != HAL_OK)
2503:Drivers/STM32G4xx_HAL_Driver/Src/stm32g4xx_hal_tim.c ****       {
2504:Drivers/STM32G4xx_HAL_Driver/Src/stm32g4xx_hal_tim.c ****         /* Return error status */
2505:Drivers/STM32G4xx_HAL_Driver/Src/stm32g4xx_hal_tim.c ****         return HAL_ERROR;
2506:Drivers/STM32G4xx_HAL_Driver/Src/stm32g4xx_hal_tim.c ****       }
2507:Drivers/STM32G4xx_HAL_Driver/Src/stm32g4xx_hal_tim.c ****       /* Enable the TIM Capture/Compare 4  DMA request */
2508:Drivers/STM32G4xx_HAL_Driver/Src/stm32g4xx_hal_tim.c ****       __HAL_TIM_ENABLE_DMA(htim, TIM_DMA_CC4);
2509:Drivers/STM32G4xx_HAL_Driver/Src/stm32g4xx_hal_tim.c ****       break;
2510:Drivers/STM32G4xx_HAL_Driver/Src/stm32g4xx_hal_tim.c ****     }
2511:Drivers/STM32G4xx_HAL_Driver/Src/stm32g4xx_hal_tim.c **** 
2512:Drivers/STM32G4xx_HAL_Driver/Src/stm32g4xx_hal_tim.c ****     default:
2513:Drivers/STM32G4xx_HAL_Driver/Src/stm32g4xx_hal_tim.c ****       status = HAL_ERROR;
2514:Drivers/STM32G4xx_HAL_Driver/Src/stm32g4xx_hal_tim.c ****       break;
2515:Drivers/STM32G4xx_HAL_Driver/Src/stm32g4xx_hal_tim.c ****   }
2516:Drivers/STM32G4xx_HAL_Driver/Src/stm32g4xx_hal_tim.c **** 
2517:Drivers/STM32G4xx_HAL_Driver/Src/stm32g4xx_hal_tim.c ****   /* Enable the Peripheral, except in trigger mode where enable is automatically done with trigger 
2518:Drivers/STM32G4xx_HAL_Driver/Src/stm32g4xx_hal_tim.c ****   if (IS_TIM_SLAVE_INSTANCE(htim->Instance))
2519:Drivers/STM32G4xx_HAL_Driver/Src/stm32g4xx_hal_tim.c ****   {
2520:Drivers/STM32G4xx_HAL_Driver/Src/stm32g4xx_hal_tim.c ****     tmpsmcr = htim->Instance->SMCR & TIM_SMCR_SMS;
2521:Drivers/STM32G4xx_HAL_Driver/Src/stm32g4xx_hal_tim.c ****     if (!IS_TIM_SLAVEMODE_TRIGGER_ENABLED(tmpsmcr))
2522:Drivers/STM32G4xx_HAL_Driver/Src/stm32g4xx_hal_tim.c ****     {
2523:Drivers/STM32G4xx_HAL_Driver/Src/stm32g4xx_hal_tim.c ****       __HAL_TIM_ENABLE(htim);
2524:Drivers/STM32G4xx_HAL_Driver/Src/stm32g4xx_hal_tim.c ****     }
2525:Drivers/STM32G4xx_HAL_Driver/Src/stm32g4xx_hal_tim.c ****   }
2526:Drivers/STM32G4xx_HAL_Driver/Src/stm32g4xx_hal_tim.c ****   else
2527:Drivers/STM32G4xx_HAL_Driver/Src/stm32g4xx_hal_tim.c ****   {
2528:Drivers/STM32G4xx_HAL_Driver/Src/stm32g4xx_hal_tim.c ****     __HAL_TIM_ENABLE(htim);
2529:Drivers/STM32G4xx_HAL_Driver/Src/stm32g4xx_hal_tim.c ****   }
2530:Drivers/STM32G4xx_HAL_Driver/Src/stm32g4xx_hal_tim.c **** 
2531:Drivers/STM32G4xx_HAL_Driver/Src/stm32g4xx_hal_tim.c ****   /* Return function status */
2532:Drivers/STM32G4xx_HAL_Driver/Src/stm32g4xx_hal_tim.c ****   return status;
2533:Drivers/STM32G4xx_HAL_Driver/Src/stm32g4xx_hal_tim.c **** }
2534:Drivers/STM32G4xx_HAL_Driver/Src/stm32g4xx_hal_tim.c **** 
2535:Drivers/STM32G4xx_HAL_Driver/Src/stm32g4xx_hal_tim.c **** /**
2536:Drivers/STM32G4xx_HAL_Driver/Src/stm32g4xx_hal_tim.c ****   * @brief  Stops the TIM Input Capture measurement in DMA mode.
2537:Drivers/STM32G4xx_HAL_Driver/Src/stm32g4xx_hal_tim.c ****   * @param  htim TIM Input Capture handle
2538:Drivers/STM32G4xx_HAL_Driver/Src/stm32g4xx_hal_tim.c ****   * @param  Channel TIM Channels to be disabled
2539:Drivers/STM32G4xx_HAL_Driver/Src/stm32g4xx_hal_tim.c ****   *          This parameter can be one of the following values:
2540:Drivers/STM32G4xx_HAL_Driver/Src/stm32g4xx_hal_tim.c ****   *            @arg TIM_CHANNEL_1: TIM Channel 1 selected
2541:Drivers/STM32G4xx_HAL_Driver/Src/stm32g4xx_hal_tim.c ****   *            @arg TIM_CHANNEL_2: TIM Channel 2 selected
2542:Drivers/STM32G4xx_HAL_Driver/Src/stm32g4xx_hal_tim.c ****   *            @arg TIM_CHANNEL_3: TIM Channel 3 selected
2543:Drivers/STM32G4xx_HAL_Driver/Src/stm32g4xx_hal_tim.c ****   *            @arg TIM_CHANNEL_4: TIM Channel 4 selected
2544:Drivers/STM32G4xx_HAL_Driver/Src/stm32g4xx_hal_tim.c ****   * @retval HAL status
2545:Drivers/STM32G4xx_HAL_Driver/Src/stm32g4xx_hal_tim.c ****   */
2546:Drivers/STM32G4xx_HAL_Driver/Src/stm32g4xx_hal_tim.c **** HAL_StatusTypeDef HAL_TIM_IC_Stop_DMA(TIM_HandleTypeDef *htim, uint32_t Channel)
2547:Drivers/STM32G4xx_HAL_Driver/Src/stm32g4xx_hal_tim.c **** {
2548:Drivers/STM32G4xx_HAL_Driver/Src/stm32g4xx_hal_tim.c ****   HAL_StatusTypeDef status = HAL_OK;
2549:Drivers/STM32G4xx_HAL_Driver/Src/stm32g4xx_hal_tim.c **** 
2550:Drivers/STM32G4xx_HAL_Driver/Src/stm32g4xx_hal_tim.c ****   /* Check the parameters */
2551:Drivers/STM32G4xx_HAL_Driver/Src/stm32g4xx_hal_tim.c ****   assert_param(IS_TIM_CCX_CHANNEL(htim->Instance, Channel));
2552:Drivers/STM32G4xx_HAL_Driver/Src/stm32g4xx_hal_tim.c ****   assert_param(IS_TIM_DMA_CC_INSTANCE(htim->Instance));
2553:Drivers/STM32G4xx_HAL_Driver/Src/stm32g4xx_hal_tim.c **** 
2554:Drivers/STM32G4xx_HAL_Driver/Src/stm32g4xx_hal_tim.c ****   /* Disable the Input Capture channel */
2555:Drivers/STM32G4xx_HAL_Driver/Src/stm32g4xx_hal_tim.c ****   TIM_CCxChannelCmd(htim->Instance, Channel, TIM_CCx_DISABLE);
2556:Drivers/STM32G4xx_HAL_Driver/Src/stm32g4xx_hal_tim.c **** 
ARM GAS  /tmp/ccKRAx5z.s 			page 49


2557:Drivers/STM32G4xx_HAL_Driver/Src/stm32g4xx_hal_tim.c ****   switch (Channel)
2558:Drivers/STM32G4xx_HAL_Driver/Src/stm32g4xx_hal_tim.c ****   {
2559:Drivers/STM32G4xx_HAL_Driver/Src/stm32g4xx_hal_tim.c ****     case TIM_CHANNEL_1:
2560:Drivers/STM32G4xx_HAL_Driver/Src/stm32g4xx_hal_tim.c ****     {
2561:Drivers/STM32G4xx_HAL_Driver/Src/stm32g4xx_hal_tim.c ****       /* Disable the TIM Capture/Compare 1 DMA request */
2562:Drivers/STM32G4xx_HAL_Driver/Src/stm32g4xx_hal_tim.c ****       __HAL_TIM_DISABLE_DMA(htim, TIM_DMA_CC1);
