ARM GAS  /tmp/ccNIYpTN.s 			page 1


   1              		.cpu cortex-m4
   2              		.arch armv7e-m
   3              		.fpu fpv4-sp-d16
   4              		.eabi_attribute 27, 1
   5              		.eabi_attribute 28, 1
   6              		.eabi_attribute 20, 1
   7              		.eabi_attribute 21, 1
   8              		.eabi_attribute 23, 3
   9              		.eabi_attribute 24, 1
  10              		.eabi_attribute 25, 1
  11              		.eabi_attribute 26, 1
  12              		.eabi_attribute 30, 1
  13              		.eabi_attribute 34, 1
  14              		.eabi_attribute 18, 4
  15              		.file	"Task_Test.cpp"
  16              		.text
  17              	.Ltext0:
  18              		.cfi_sections	.debug_frame
  19              		.file 1 "My_Top/Task/Task_Test.cpp"
  20              		.align	1
  21              		.syntax unified
  22              		.thumb
  23              		.thumb_func
  25              	_Z41__static_initialization_and_destruction_0v:
  26              	.LFB1519:
   1:My_Top/Task/Task_Test.cpp **** 
   2:My_Top/Task/Task_Test.cpp **** #include "FreeRTOS.h"
   3:My_Top/Task/Task_Test.cpp **** #include "task.h"
   4:My_Top/Task/Task_Test.cpp **** #include "MC_Serial.hpp"
   5:My_Top/Task/Task_Test.cpp **** #include "My_Vofa.hpp"
   6:My_Top/Task/Task_Test.cpp **** #include "uorb.hpp"
   7:My_Top/Task/Task_Test.cpp **** #include "bsp.hpp"
   8:My_Top/Task/Task_Test.cpp **** #include "DcMotor_ClosedLoop.hpp"
   9:My_Top/Task/Task_Test.cpp **** #include "My_HID_Keyboard.hpp"
  10:My_Top/Task/Task_Test.cpp **** 
  11:My_Top/Task/Task_Test.cpp **** 
  12:My_Top/Task/Task_Test.cpp **** extern TaskHandle_t SystemInitHandle;
  13:My_Top/Task/Task_Test.cpp **** extern TaskHandle_t TestHandle;
  14:My_Top/Task/Task_Test.cpp **** extern TaskHandle_t Task_VofaRxHandle;
  15:My_Top/Task/Task_Test.cpp **** extern TaskHandle_t DroneCANHandle;
  16:My_Top/Task/Task_Test.cpp **** extern TaskHandle_t MotorPubHandle;
  17:My_Top/Task/Task_Test.cpp **** extern TaskHandle_t CLIHandle;
  18:My_Top/Task/Task_Test.cpp **** extern TaskHandle_t VofaTxHandle;
  19:My_Top/Task/Task_Test.cpp **** 
  20:My_Top/Task/Task_Test.cpp **** void look_mem(void)
  21:My_Top/Task/Task_Test.cpp **** {
  22:My_Top/Task/Task_Test.cpp ****     printf("еҺҶеҸІжңҖдҪҺж Ҳеү©дҪҷ Sys:%d VofaRx:%d CLI:%d Can:%d Pub:%d VofaTx:%d иҮӘе·ұ:%d е Ҷеү©д
  23:My_Top/Task/Task_Test.cpp ****            uxTaskGetStackHighWaterMark(SystemInitHandle),
  24:My_Top/Task/Task_Test.cpp ****            uxTaskGetStackHighWaterMark(Task_VofaRxHandle),
  25:My_Top/Task/Task_Test.cpp ****            uxTaskGetStackHighWaterMark(CLIHandle),
  26:My_Top/Task/Task_Test.cpp ****            uxTaskGetStackHighWaterMark(DroneCANHandle),
  27:My_Top/Task/Task_Test.cpp ****            uxTaskGetStackHighWaterMark(MotorPubHandle),
  28:My_Top/Task/Task_Test.cpp ****            uxTaskGetStackHighWaterMark(VofaTxHandle),
  29:My_Top/Task/Task_Test.cpp ****            uxTaskGetStackHighWaterMark(NULL), // иҮӘе·ұзҡ„д»»еҠЎж Ҳ
  30:My_Top/Task/Task_Test.cpp ****            xPortGetFreeHeapSize(), configTOTAL_HEAP_SIZE);
  31:My_Top/Task/Task_Test.cpp **** }
  32:My_Top/Task/Task_Test.cpp **** 
ARM GAS  /tmp/ccNIYpTN.s 			page 2


  33:My_Top/Task/Task_Test.cpp **** XBLW24C64 EEPROM1(EEPROM_hi2c);
  34:My_Top/Task/Task_Test.cpp **** uint8_t add[]= {0x00,0x01,0x02,0x03,0x04,0x05,0x06,0x07,0x08,0x09,0x0a,0x0d,0x10,0x11,0x12,0x16,0x7
  35:My_Top/Task/Task_Test.cpp **** uint8_t data_tx[]= {0x00,0x00,0x80,0xff,0x03,0x00,0x07,0x00,0x00,0xa5,0xa5,0x88,0x00,0xaC,0x02,0x08
  36:My_Top/Task/Task_Test.cpp **** 
  37:My_Top/Task/Task_Test.cpp **** uint8_t len = sizeof(data_tx)/sizeof(data_tx[0]);
  38:My_Top/Task/Task_Test.cpp **** uint8_t data_rx1[20], data_rx2[20], data_rx3[20], data_rx4[20],data_rx5[20];
  39:My_Top/Task/Task_Test.cpp **** 
  40:My_Top/Task/Task_Test.cpp **** void Task_Test(void *argument)
  41:My_Top/Task/Task_Test.cpp **** {
  42:My_Top/Task/Task_Test.cpp ****     printf("1-д»»еҠЎеҗҜеҠЁдёӯ\r\n");
  43:My_Top/Task/Task_Test.cpp ****     // M1._encoder->KTH7111_Read_MoreRegs(add, data_rx, len); //иҜ»еҸ–еӨҡдёӘеҜ„еӯҳеҷЁ
  44:My_Top/Task/Task_Test.cpp ****     vTaskDelay(pdMS_TO_TICKS(1000));
  45:My_Top/Task/Task_Test.cpp ****     
  46:My_Top/Task/Task_Test.cpp **** 
  47:My_Top/Task/Task_Test.cpp **** 
  48:My_Top/Task/Task_Test.cpp ****     // M1._encoder->KTH7111_Write_MoreRegs(add, data_tx, len,true); //еҶҷе…ҘеӨҡдёӘеҜ„еӯҳеҷЁ
  49:My_Top/Task/Task_Test.cpp ****     // M2._encoder->KTH7111_Write_MoreRegs(add, data_tx, len,true); //еҶҷе…ҘеӨҡдёӘеҜ„еӯҳеҷЁ
  50:My_Top/Task/Task_Test.cpp ****     // M3._encoder->KTH7111_Write_MoreRegs(add, data_tx, len,true); //еҶҷе…ҘеӨҡдёӘеҜ„еӯҳеҷЁ
  51:My_Top/Task/Task_Test.cpp ****     // M4._encoder->KTH7111_Write_MoreRegs(add, data_tx, len,true); //еҶҷе…ҘеӨҡдёӘеҜ„еӯҳеҷЁ
  52:My_Top/Task/Task_Test.cpp ****     // M1._encoder->KTH7111_Write_MoreRegs(add, data_tx, len,true); //еҶҷе…ҘеӨҡдёӘеҜ„еӯҳеҷЁ
  53:My_Top/Task/Task_Test.cpp **** 
  54:My_Top/Task/Task_Test.cpp ****     // M1._encoder->KTH7111_Read_MoreRegs(add, data_rx1, len); //иҜ»еҸ–еӨҡдёӘеҜ„еӯҳеҷЁ
  55:My_Top/Task/Task_Test.cpp ****     // M2._encoder->KTH7111_Read_MoreRegs(add, data_rx2, len); //иҜ»еҸ–еӨҡдёӘеҜ„еӯҳеҷЁ
  56:My_Top/Task/Task_Test.cpp ****     // M3._encoder->KTH7111_Read_MoreRegs(add, data_rx3, len); //иҜ»еҸ–еӨҡдёӘеҜ„еӯҳеҷЁ
  57:My_Top/Task/Task_Test.cpp ****     // M4._encoder->KTH7111_Read_MoreRegs(add, data_rx4, len); //иҜ»еҸ–еӨҡдёӘеҜ„еӯҳеҷЁ
  58:My_Top/Task/Task_Test.cpp **** 
  59:My_Top/Task/Task_Test.cpp ****     while (1)
  60:My_Top/Task/Task_Test.cpp ****     {
  61:My_Top/Task/Task_Test.cpp **** 
  62:My_Top/Task/Task_Test.cpp ****         vTaskDelay(pdMS_TO_TICKS(1000));
  63:My_Top/Task/Task_Test.cpp ****     }
  64:My_Top/Task/Task_Test.cpp **** }
  27              		.loc 1 64 1 view -0
  28              		.cfi_startproc
  29              		@ args = 0, pretend = 0, frame = 0
  30              		@ frame_needed = 0, uses_anonymous_args = 0
  31              		@ link register save eliminated.
  32              	.LVL0:
  33              	.LBB5:
  34              	.LBI5:
  35              		.file 2 "My_Top/EEPROM/XBLW24C64.hpp"
   1:My_Top/EEPROM/XBLW24C64.hpp **** #pragma once
   2:My_Top/EEPROM/XBLW24C64.hpp **** 
   3:My_Top/EEPROM/XBLW24C64.hpp **** #include "bsp.hpp"
   4:My_Top/EEPROM/XBLW24C64.hpp **** 
   5:My_Top/EEPROM/XBLW24C64.hpp **** // ============================================================
   6:My_Top/EEPROM/XBLW24C64.hpp **** // EEPROM иҠҜзүҮй…ҚзҪ®пјҲжҢүе®һйҷ…еһӢеҸ·дҝ®ж”№дёӢйқў 4 дёӘе®Ҹпјү
   7:My_Top/EEPROM/XBLW24C64.hpp **** // ============================================================
   8:My_Top/EEPROM/XBLW24C64.hpp **** // BL24C16F:  PAGE=16, SIZE=2048,  ADDR_SIZE=8BIT
   9:My_Top/EEPROM/XBLW24C64.hpp **** // 24C32:    PAGE=32, SIZE=4096,  ADDR_SIZE=16BIT
  10:My_Top/EEPROM/XBLW24C64.hpp **** // 24C64:    PAGE=32, SIZE=8192,  ADDR_SIZE=16BIT
  11:My_Top/EEPROM/XBLW24C64.hpp **** // 24C256:   PAGE=64, SIZE=32768, ADDR_SIZE=16BIT
  12:My_Top/EEPROM/XBLW24C64.hpp **** // ============================================================
  13:My_Top/EEPROM/XBLW24C64.hpp **** #define EEPROM_DEV_ADDR       0x50                       // 7дҪҚ I2C еҷЁд»¶ең°еқҖ
  14:My_Top/EEPROM/XBLW24C64.hpp **** #define EEPROM_PAGE_SIZE      32                         // йЎөеӨ§е°ҸпјҲеӯ—иҠӮпјү
  15:My_Top/EEPROM/XBLW24C64.hpp **** #define EEPROM_SIZE           8192                       // жҖ»е®№йҮҸпјҲеӯ—иҠӮпјү 256 йЎө Г— 32 еӯ—
  16:My_Top/EEPROM/XBLW24C64.hpp **** #define EEPROM_ADDR_SIZE      I2C_MEMADD_SIZE_16BIT      // еҶ…еӯҳең°еқҖдҪҚж•°
ARM GAS  /tmp/ccNIYpTN.s 			page 3


  17:My_Top/EEPROM/XBLW24C64.hpp **** #define EEPROM_WRITE_CYCLE_MS          5                 // еҶҷе‘Ёжңҹж—¶й—ҙжңҖеӨ§5ms
  18:My_Top/EEPROM/XBLW24C64.hpp **** 
  19:My_Top/EEPROM/XBLW24C64.hpp **** 
  20:My_Top/EEPROM/XBLW24C64.hpp **** class XBLW24C64
  21:My_Top/EEPROM/XBLW24C64.hpp **** {
  22:My_Top/EEPROM/XBLW24C64.hpp **** public:
  23:My_Top/EEPROM/XBLW24C64.hpp ****     XBLW24C64(I2C_HandleTypeDef *hi2c)
  36              		.loc 2 23 5 view .LVU1
  37              	.LBB6:
  24:My_Top/EEPROM/XBLW24C64.hpp ****     {
  25:My_Top/EEPROM/XBLW24C64.hpp ****         _hi2c = hi2c;
  38              		.loc 2 25 9 view .LVU2
  39              		.loc 2 25 15 is_stmt 0 view .LVU3
  40 0000 014B     		ldr	r3, .L2
  41 0002 024A     		ldr	r2, .L2+4
  42 0004 1A60     		str	r2, [r3]
  43              	.LVL1:
  44              		.loc 2 25 15 view .LVU4
  45              	.LBE6:
  46              	.LBE5:
  47              		.loc 1 64 1 view .LVU5
  48 0006 7047     		bx	lr
  49              	.L3:
  50              		.align	2
  51              	.L2:
  52 0008 00000000 		.word	_ZN9XBLW24C645_hi2cE
  53 000c 00000000 		.word	hi2c1
  54              		.cfi_endproc
  55              	.LFE1519:
  57              		.section	.rodata.str1.4,"aMS",%progbits,1
  58              		.align	2
  59              	.LC0:
  60 0000 E58E86E5 		.ascii	"\345\216\206\345\217\262\346\234\200\344\275\216\346"
  60      8FB2E69C 
  60      80E4BD8E 
  60      E6
  61 000d A088E589 		.ascii	"\240\210\345\211\251\344\275\231 Sys:%d VofaRx:%d C"
  61      A9E4BD99 
  61      20537973 
  61      3A256420 
  61      566F6661 
  62 0028 4C493A25 		.ascii	"LI:%d Can:%d Pub:%d VofaTx:%d \350\207\252\345\267\261"
  62      64204361 
  62      6E3A2564 
  62      20507562 
  62      3A256420 
  63 004c 3A256420 		.ascii	":%d \345\240\206\345\211\251\344\275\231:%d / %d\015"
  63      E5A086E5 
  63      89A9E4BD 
  63      993A2564 
  63      202F2025 
  64 0062 0A00     		.ascii	"\012\000"
  65              		.text
  66              		.align	1
  67              		.global	_Z8look_memv
  68              		.syntax unified
  69              		.thumb
ARM GAS  /tmp/ccNIYpTN.s 			page 4


  70              		.thumb_func
  72              	_Z8look_memv:
  73              	.LFB1367:
  21:My_Top/Task/Task_Test.cpp ****     printf("еҺҶеҸІжңҖдҪҺж Ҳеү©дҪҷ Sys:%d VofaRx:%d CLI:%d Can:%d Pub:%d VofaTx:%d иҮӘе·ұ:%d е Ҷеү©д
  74              		.loc 1 21 1 is_stmt 1 view -0
  75              		.cfi_startproc
  76              		@ args = 0, pretend = 0, frame = 0
  77              		@ frame_needed = 0, uses_anonymous_args = 0
  78 0010 2DE9F047 		push	{r4, r5, r6, r7, r8, r9, r10, lr}
  79              		.cfi_def_cfa_offset 32
  80              		.cfi_offset 4, -32
  81              		.cfi_offset 5, -28
  82              		.cfi_offset 6, -24
  83              		.cfi_offset 7, -20
  84              		.cfi_offset 8, -16
  85              		.cfi_offset 9, -12
  86              		.cfi_offset 10, -8
  87              		.cfi_offset 14, -4
  88 0014 86B0     		sub	sp, sp, #24
  89              		.cfi_def_cfa_offset 56
  22:My_Top/Task/Task_Test.cpp ****            uxTaskGetStackHighWaterMark(SystemInitHandle),
  90              		.loc 1 22 5 view .LVU7
  22:My_Top/Task/Task_Test.cpp ****            uxTaskGetStackHighWaterMark(SystemInitHandle),
  91              		.loc 1 22 11 is_stmt 0 view .LVU8
  92 0016 1C4B     		ldr	r3, .L6
  93 0018 1868     		ldr	r0, [r3]
  94 001a FFF7FEFF 		bl	uxTaskGetStackHighWaterMark
  95              	.LVL2:
  96 001e 0446     		mov	r4, r0
  22:My_Top/Task/Task_Test.cpp ****            uxTaskGetStackHighWaterMark(SystemInitHandle),
  97              		.loc 1 22 11 discriminator 1 view .LVU9
  98 0020 1A4B     		ldr	r3, .L6+4
  99 0022 1868     		ldr	r0, [r3]
 100 0024 FFF7FEFF 		bl	uxTaskGetStackHighWaterMark
 101              	.LVL3:
 102 0028 0546     		mov	r5, r0
  22:My_Top/Task/Task_Test.cpp ****            uxTaskGetStackHighWaterMark(SystemInitHandle),
 103              		.loc 1 22 11 discriminator 2 view .LVU10
 104 002a 194B     		ldr	r3, .L6+8
 105 002c 1868     		ldr	r0, [r3]
 106 002e FFF7FEFF 		bl	uxTaskGetStackHighWaterMark
 107              	.LVL4:
 108 0032 0646     		mov	r6, r0
  22:My_Top/Task/Task_Test.cpp ****            uxTaskGetStackHighWaterMark(SystemInitHandle),
 109              		.loc 1 22 11 discriminator 3 view .LVU11
 110 0034 174B     		ldr	r3, .L6+12
 111 0036 1868     		ldr	r0, [r3]
 112 0038 FFF7FEFF 		bl	uxTaskGetStackHighWaterMark
 113              	.LVL5:
 114 003c 0746     		mov	r7, r0
  22:My_Top/Task/Task_Test.cpp ****            uxTaskGetStackHighWaterMark(SystemInitHandle),
 115              		.loc 1 22 11 discriminator 4 view .LVU12
 116 003e 164B     		ldr	r3, .L6+16
 117 0040 1868     		ldr	r0, [r3]
 118 0042 FFF7FEFF 		bl	uxTaskGetStackHighWaterMark
 119              	.LVL6:
 120 0046 8046     		mov	r8, r0
ARM GAS  /tmp/ccNIYpTN.s 			page 5


  22:My_Top/Task/Task_Test.cpp ****            uxTaskGetStackHighWaterMark(SystemInitHandle),
 121              		.loc 1 22 11 discriminator 5 view .LVU13
 122 0048 144B     		ldr	r3, .L6+20
 123 004a 1868     		ldr	r0, [r3]
 124 004c FFF7FEFF 		bl	uxTaskGetStackHighWaterMark
 125              	.LVL7:
 126 0050 8146     		mov	r9, r0
  22:My_Top/Task/Task_Test.cpp ****            uxTaskGetStackHighWaterMark(SystemInitHandle),
 127              		.loc 1 22 11 discriminator 6 view .LVU14
 128 0052 0020     		movs	r0, #0
 129 0054 FFF7FEFF 		bl	uxTaskGetStackHighWaterMark
 130              	.LVL8:
 131 0058 8246     		mov	r10, r0
  22:My_Top/Task/Task_Test.cpp ****            uxTaskGetStackHighWaterMark(SystemInitHandle),
 132              		.loc 1 22 11 discriminator 7 view .LVU15
 133 005a FFF7FEFF 		bl	xPortGetFreeHeapSize
 134              	.LVL9:
  22:My_Top/Task/Task_Test.cpp ****            uxTaskGetStackHighWaterMark(SystemInitHandle),
 135              		.loc 1 22 11 discriminator 8 view .LVU16
 136 005e 4EF66023 		movw	r3, #60000
 137 0062 0593     		str	r3, [sp, #20]
 138 0064 0490     		str	r0, [sp, #16]
 139 0066 CDF80CA0 		str	r10, [sp, #12]
 140 006a CDF80890 		str	r9, [sp, #8]
 141 006e CDF80480 		str	r8, [sp, #4]
 142 0072 0097     		str	r7, [sp]
 143 0074 3346     		mov	r3, r6
 144 0076 2A46     		mov	r2, r5
 145 0078 2146     		mov	r1, r4
 146 007a 0948     		ldr	r0, .L6+24
 147 007c FFF7FEFF 		bl	printf_
 148              	.LVL10:
  31:My_Top/Task/Task_Test.cpp **** 
 149              		.loc 1 31 1 view .LVU17
 150 0080 06B0     		add	sp, sp, #24
 151              		.cfi_def_cfa_offset 32
 152              		@ sp needed
 153 0082 BDE8F087 		pop	{r4, r5, r6, r7, r8, r9, r10, pc}
 154              	.L7:
 155 0086 00BF     		.align	2
 156              	.L6:
 157 0088 00000000 		.word	SystemInitHandle
 158 008c 00000000 		.word	Task_VofaRxHandle
 159 0090 00000000 		.word	CLIHandle
 160 0094 00000000 		.word	DroneCANHandle
 161 0098 00000000 		.word	MotorPubHandle
 162 009c 00000000 		.word	VofaTxHandle
 163 00a0 00000000 		.word	.LC0
 164              		.cfi_endproc
 165              	.LFE1367:
 167              		.section	.rodata.str1.4
 168              		.align	2
 169              	.LC1:
 170 0064 312DE4BB 		.ascii	"1-\344\273\273\345\212\241\345\220\257\345\212\250\344"
 170      BBE58AA1 
 170      E590AFE5 
 170      8AA8E4
ARM GAS  /tmp/ccNIYpTN.s 			page 6


 171 0073 B8AD0D0A 		.ascii	"\270\255\015\012\000"
 171      00
 172              		.text
 173              		.align	1
 174              		.global	_Z9Task_TestPv
 175              		.syntax unified
 176              		.thumb
 177              		.thumb_func
 179              	_Z9Task_TestPv:
 180              	.LVL11:
 181              	.LFB1368:
  41:My_Top/Task/Task_Test.cpp ****     printf("1-д»»еҠЎеҗҜеҠЁдёӯ\r\n");
 182              		.loc 1 41 1 is_stmt 1 view -0
 183              		.cfi_startproc
 184              		@ Volatile: function does not return.
 185              		@ args = 0, pretend = 0, frame = 0
 186              		@ frame_needed = 0, uses_anonymous_args = 0
  41:My_Top/Task/Task_Test.cpp ****     printf("1-д»»еҠЎеҗҜеҠЁдёӯ\r\n");
 187              		.loc 1 41 1 is_stmt 0 view .LVU19
 188 00a4 08B5     		push	{r3, lr}
 189              		.cfi_def_cfa_offset 8
 190              		.cfi_offset 3, -8
 191              		.cfi_offset 14, -4
  42:My_Top/Task/Task_Test.cpp ****     // M1._encoder->KTH7111_Read_MoreRegs(add, data_rx, len); //иҜ»еҸ–еӨҡдёӘеҜ„еӯҳеҷЁ
 192              		.loc 1 42 5 is_stmt 1 view .LVU20
  42:My_Top/Task/Task_Test.cpp ****     // M1._encoder->KTH7111_Read_MoreRegs(add, data_rx, len); //иҜ»еҸ–еӨҡдёӘеҜ„еӯҳеҷЁ
 193              		.loc 1 42 11 is_stmt 0 view .LVU21
 194 00a6 0648     		ldr	r0, .L11
 195              	.LVL12:
  42:My_Top/Task/Task_Test.cpp ****     // M1._encoder->KTH7111_Read_MoreRegs(add, data_rx, len); //иҜ»еҸ–еӨҡдёӘеҜ„еӯҳеҷЁ
 196              		.loc 1 42 11 view .LVU22
 197 00a8 FFF7FEFF 		bl	printf_
 198              	.LVL13:
  44:My_Top/Task/Task_Test.cpp ****     
 199              		.loc 1 44 5 is_stmt 1 view .LVU23
  44:My_Top/Task/Task_Test.cpp ****     
 200              		.loc 1 44 15 is_stmt 0 view .LVU24
 201 00ac 4FF47A70 		mov	r0, #1000
 202 00b0 FFF7FEFF 		bl	vTaskDelay
 203              	.LVL14:
 204              	.L9:
  59:My_Top/Task/Task_Test.cpp ****     {
 205              		.loc 1 59 5 is_stmt 1 view .LVU25
  62:My_Top/Task/Task_Test.cpp ****     }
 206              		.loc 1 62 9 discriminator 1 view .LVU26
  62:My_Top/Task/Task_Test.cpp ****     }
 207              		.loc 1 62 19 is_stmt 0 discriminator 1 view .LVU27
 208 00b4 4FF47A70 		mov	r0, #1000
 209 00b8 FFF7FEFF 		bl	vTaskDelay
 210              	.LVL15:
  59:My_Top/Task/Task_Test.cpp ****     {
 211              		.loc 1 59 5 is_stmt 1 view .LVU28
 212 00bc FAE7     		b	.L9
 213              	.L12:
 214 00be 00BF     		.align	2
 215              	.L11:
 216 00c0 64000000 		.word	.LC1
ARM GAS  /tmp/ccNIYpTN.s 			page 7


 217              		.cfi_endproc
 218              	.LFE1368:
 220              		.align	1
 221              		.syntax unified
 222              		.thumb
 223              		.thumb_func
 225              	_GLOBAL__sub_I__Z8look_memv:
 226              	.LFB1520:
 227              		.loc 1 64 1 view -0
 228              		.cfi_startproc
 229              		@ args = 0, pretend = 0, frame = 0
 230              		@ frame_needed = 0, uses_anonymous_args = 0
 231 00c4 08B5     		push	{r3, lr}
 232              		.cfi_def_cfa_offset 8
 233              		.cfi_offset 3, -8
 234              		.cfi_offset 14, -4
 235              		.loc 1 64 1 is_stmt 0 view .LVU30
 236 00c6 FFF79BFF 		bl	_Z41__static_initialization_and_destruction_0v
 237              	.LVL16:
 238 00ca 08BD     		pop	{r3, pc}
 239              		.cfi_endproc
 240              	.LFE1520:
 242              		.section	.init_array,"aw",%init_array
 243              		.align	2
 244 0000 00000000 		.word	_GLOBAL__sub_I__Z8look_memv(target1)
 245              		.global	data_rx5
 246              		.global	data_rx4
 247              		.global	data_rx3
 248              		.global	data_rx2
 249              		.global	data_rx1
 250              		.global	len
 251              		.global	data_tx
 252              		.global	add
 253              		.global	EEPROM1
 254              		.data
 255              		.align	2
 258              	len:
 259 0000 11       		.byte	17
 260 0001 000000   		.space	3
 263              	data_tx:
 264 0004 000080FF 		.ascii	"\000\000\200\377\003\000\007\000\000\245\245\210\000"
 264      03000700 
 264      00A5A588 
 264      00
 265 0011 AC020800 		.ascii	"\254\002\010\000"
 266 0015 000000   		.space	3
 269              	add:
 270 0018 00010203 		.ascii	"\000\001\002\003\004\005\006\007\010\011\012\015\020"
 270      04050607 
 270      08090A0D 
 270      10
 271 0025 11121672 		.ascii	"\021\022\026r"
 272              		.bss
 273              		.align	2
 276              	data_rx5:
 277 0000 00000000 		.space	20
 277      00000000 
ARM GAS  /tmp/ccNIYpTN.s 			page 8


 277      00000000 
 277      00000000 
 277      00000000 
 280              	data_rx4:
 281 0014 00000000 		.space	20
 281      00000000 
 281      00000000 
 281      00000000 
 281      00000000 
 284              	data_rx3:
 285 0028 00000000 		.space	20
 285      00000000 
 285      00000000 
 285      00000000 
 285      00000000 
 288              	data_rx2:
 289 003c 00000000 		.space	20
 289      00000000 
 289      00000000 
 289      00000000 
 289      00000000 
 292              	data_rx1:
 293 0050 00000000 		.space	20
 293      00000000 
 293      00000000 
 293      00000000 
 293      00000000 
 296              	EEPROM1:
 297 0064 00       		.space	1
 298              		.text
 299              	.Letext0:
 300              		.file 3 "/opt/arm-gnu-toolchain-14.2/lib/gcc/arm-none-eabi/14.2.1/include/stddef.h"
 301              		.file 4 "/opt/arm-gnu-toolchain-14.2/arm-none-eabi/include/machine/_default_types.h"
 302              		.file 5 "/opt/arm-gnu-toolchain-14.2/arm-none-eabi/include/sys/_stdint.h"
 303              		.file 6 "Middlewares/Third_Party/FreeRTOS/Source/portable/GCC/ARM_CM4F/portmacro.h"
 304              		.file 7 "Middlewares/Third_Party/FreeRTOS/Source/include/task.h"
 305              		.file 8 "Drivers/CMSIS/Device/ST/STM32G4xx/Include/stm32g474xx.h"
 306              		.file 9 "Drivers/STM32G4xx_HAL_Driver/Inc/stm32g4xx_hal_def.h"
 307              		.file 10 "Drivers/STM32G4xx_HAL_Driver/Inc/stm32g4xx_hal_dma.h"
 308              		.file 11 "Drivers/STM32G4xx_HAL_Driver/Inc/stm32g4xx_hal_i2c.h"
 309              		.file 12 "/opt/arm-gnu-toolchain-14.2/arm-none-eabi/include/stdlib.h"
 310              		.file 13 "/opt/arm-gnu-toolchain-14.2/arm-none-eabi/include/c++/14.2.1/cstdlib"
 311              		.file 14 "/opt/arm-gnu-toolchain-14.2/arm-none-eabi/include/c++/14.2.1/bits/std_abs.h"
 312              		.file 15 "/opt/arm-gnu-toolchain-14.2/arm-none-eabi/include/c++/14.2.1/cmath"
 313              		.file 16 "/opt/arm-gnu-toolchain-14.2/arm-none-eabi/include/c++/14.2.1/type_traits"
 314              		.file 17 "/opt/arm-gnu-toolchain-14.2/arm-none-eabi/include/c++/14.2.1/debug/debug.h"
 315              		.file 18 "/opt/arm-gnu-toolchain-14.2/arm-none-eabi/include/c++/14.2.1/bits/predefined_ops.h"
 316              		.file 19 "/opt/arm-gnu-toolchain-14.2/arm-none-eabi/include/c++/14.2.1/stdlib.h"
 317              		.file 20 "/opt/arm-gnu-toolchain-14.2/arm-none-eabi/include/math.h"
 318              		.file 21 "/opt/arm-gnu-toolchain-14.2/arm-none-eabi/include/c++/14.2.1/arm-none-eabi/thumb/v7e-m+f
 319              		.file 22 "/opt/arm-gnu-toolchain-14.2/arm-none-eabi/include/c++/14.2.1/math.h"
 320              		.file 23 "Core/Inc/i2c.h"
 321              		.file 24 "/opt/arm-gnu-toolchain-14.2/arm-none-eabi/include/stdio.h"
 322              		.file 25 "Middlewares/Third_Party/FreeRTOS/Source/include/portable.h"
 323              		.file 26 "My_Top/Motor_Control/DcMotor_ClosedLoop.hpp"
ARM GAS  /tmp/ccNIYpTN.s 			page 9


DEFINED SYMBOLS
                            *ABS*:00000000 Task_Test.cpp
     /tmp/ccNIYpTN.s:20     .text:00000000 $t
     /tmp/ccNIYpTN.s:25     .text:00000000 _Z41__static_initialization_and_destruction_0v
     /tmp/ccNIYpTN.s:52     .text:00000008 $d
     /tmp/ccNIYpTN.s:58     .rodata.str1.4:00000000 $d
     /tmp/ccNIYpTN.s:66     .text:00000010 $t
     /tmp/ccNIYpTN.s:72     .text:00000010 _Z8look_memv
     /tmp/ccNIYpTN.s:157    .text:00000088 $d
     /tmp/ccNIYpTN.s:173    .text:000000a4 $t
     /tmp/ccNIYpTN.s:179    .text:000000a4 _Z9Task_TestPv
     /tmp/ccNIYpTN.s:216    .text:000000c0 $d
     /tmp/ccNIYpTN.s:220    .text:000000c4 $t
     /tmp/ccNIYpTN.s:225    .text:000000c4 _GLOBAL__sub_I__Z8look_memv
     /tmp/ccNIYpTN.s:243    .init_array:00000000 $d
     /tmp/ccNIYpTN.s:276    .bss:00000000 data_rx5
     /tmp/ccNIYpTN.s:280    .bss:00000014 data_rx4
     /tmp/ccNIYpTN.s:284    .bss:00000028 data_rx3
     /tmp/ccNIYpTN.s:288    .bss:0000003c data_rx2
     /tmp/ccNIYpTN.s:292    .bss:00000050 data_rx1
     /tmp/ccNIYpTN.s:258    .data:00000000 len
     /tmp/ccNIYpTN.s:263    .data:00000004 data_tx
     /tmp/ccNIYpTN.s:269    .data:00000018 add
     /tmp/ccNIYpTN.s:296    .bss:00000064 EEPROM1
     /tmp/ccNIYpTN.s:255    .data:00000000 $d
     /tmp/ccNIYpTN.s:273    .bss:00000000 $d

UNDEFINED SYMBOLS
_ZN9XBLW24C645_hi2cE
hi2c1
uxTaskGetStackHighWaterMark
xPortGetFreeHeapSize
printf_
SystemInitHandle
Task_VofaRxHandle
CLIHandle
DroneCANHandle
MotorPubHandle
VofaTxHandle
vTaskDelay
