ARM GAS  /tmp/cc6n5vZw.s 			page 1


   1              		.cpu cortex-m4
   2              		.arch armv7e-m
   3              		.fpu fpv4-sp-d16
   4              		.eabi_attribute 27, 1
   5              		.eabi_attribute 28, 1
   6              		.eabi_attribute 20, 1
   7              		.eabi_attribute 21, 1
   8              		.eabi_attribute 23, 3
   9              		.eabi_attribute 24, 1
  10              		.eabi_attribute 25, 1
  11              		.eabi_attribute 26, 1
  12              		.eabi_attribute 30, 1
  13              		.eabi_attribute 34, 1
  14              		.eabi_attribute 18, 4
  15              		.file	"Task_SystemInit.cpp"
  16              		.text
  17              	.Ltext0:
  18              		.cfi_sections	.debug_frame
  19              		.file 1 "My_Top/Task/Task_SystemInit.cpp"
  20              		.section	.rodata.str1.4,"aMS",%progbits,1
  21              		.align	2
  22              	.LC0:
  23 0000 5379735F 		.ascii	"Sys_init\346\240\210\345\211\251\344\275\231:%d\015"
  23      696E6974 
  23      E6A088E5 
  23      89A9E4BD 
  23      993A2564 
  24 0015 0A00     		.ascii	"\012\000"
  25              		.text
  26              		.align	1
  27              		.global	_Z15Task_SystemInitPv
  28              		.syntax unified
  29              		.thumb
  30              		.thumb_func
  32              	_Z15Task_SystemInitPv:
  33              	.LVL0:
  34              	.LFB1367:
   1:My_Top/Task/Task_SystemInit.cpp **** 
   2:My_Top/Task/Task_SystemInit.cpp **** #include "FreeRTOS.h"
   3:My_Top/Task/Task_SystemInit.cpp **** #include "task.h"
   4:My_Top/Task/Task_SystemInit.cpp **** #include "ex_math.hpp"
   5:My_Top/Task/Task_SystemInit.cpp **** #include "HAL_System.hpp"
   6:My_Top/Task/Task_SystemInit.cpp **** #include "MC_Serial.hpp"
   7:My_Top/Task/Task_SystemInit.cpp **** #include "DcMotor_ClosedLoop.hpp"
   8:My_Top/Task/Task_SystemInit.cpp **** #include "My_Vofa.hpp"
   9:My_Top/Task/Task_SystemInit.cpp **** #include "uorb.hpp"
  10:My_Top/Task/Task_SystemInit.cpp **** #include "my_tim.hpp"
  11:My_Top/Task/Task_SystemInit.cpp **** #include "Motor_Storage.hpp"
  12:My_Top/Task/Task_SystemInit.cpp **** #include "usb_device.h"
  13:My_Top/Task/Task_SystemInit.cpp **** #include "usb.h"
  14:My_Top/Task/Task_SystemInit.cpp **** 
  15:My_Top/Task/Task_SystemInit.cpp **** void Task_SystemInit(void *argument)
  16:My_Top/Task/Task_SystemInit.cpp **** {
  35              		.loc 1 16 1 view -0
  36              		.cfi_startproc
  37              		@ args = 0, pretend = 0, frame = 0
  38              		@ frame_needed = 0, uses_anonymous_args = 0
ARM GAS  /tmp/cc6n5vZw.s 			page 2


  39              		.loc 1 16 1 is_stmt 0 view .LVU1
  40 0000 08B5     		push	{r3, lr}
  41              		.cfi_def_cfa_offset 8
  42              		.cfi_offset 3, -8
  43              		.cfi_offset 14, -4
  17:My_Top/Task/Task_SystemInit.cpp ****     MX_USB_DEVICE_Init(); //初始化USB设备 换大写
  44              		.loc 1 17 5 is_stmt 1 view .LVU2
  45              		.loc 1 17 23 is_stmt 0 view .LVU3
  46 0002 FFF7FEFF 		bl	MX_USB_DEVICE_Init
  47              	.LVL1:
  18:My_Top/Task/Task_SystemInit.cpp ****     uorb_init(); //初始化uORB消息中间件
  48              		.loc 1 18 5 is_stmt 1 view .LVU4
  49              		.loc 1 18 14 is_stmt 0 view .LVU5
  50 0006 FFF7FEFF 		bl	uorb_init
  51              	.LVL2:
  19:My_Top/Task/Task_SystemInit.cpp ****     My_Canard_Init(); //初始化Canard协议栈
  52              		.loc 1 19 5 is_stmt 1 view .LVU6
  53              		.loc 1 19 19 is_stmt 0 view .LVU7
  54 000a FFF7FEFF 		bl	_Z14My_Canard_Initv
  55              	.LVL3:
  20:My_Top/Task/Task_SystemInit.cpp ****     HAL_System::init(); //初始化计时器 
  56              		.loc 1 20 5 is_stmt 1 view .LVU8
  57              		.loc 1 20 21 is_stmt 0 view .LVU9
  58 000e FFF7FEFF 		bl	_ZN10HAL_System4initEv
  59              	.LVL4:
  21:My_Top/Task/Task_SystemInit.cpp ****     MC_Serial::init(); //初始化串口
  60              		.loc 1 21 5 is_stmt 1 view .LVU10
  61              		.loc 1 21 20 is_stmt 0 view .LVU11
  62 0012 FFF7FEFF 		bl	_ZN9MC_Serial4initEv
  63              	.LVL5:
  22:My_Top/Task/Task_SystemInit.cpp ****     Vofa_Init(); //初始化Vofa 
  64              		.loc 1 22 5 is_stmt 1 view .LVU12
  65              		.loc 1 22 14 is_stmt 0 view .LVU13
  66 0016 FFF7FEFF 		bl	_Z9Vofa_Initv
  67              	.LVL6:
  23:My_Top/Task/Task_SystemInit.cpp ****     My_Tim_Init(closed_loop_htim,therm_hadc); //初始化定时器绑定中断
  68              		.loc 1 23 5 is_stmt 1 view .LVU14
  69              		.loc 1 23 16 is_stmt 0 view .LVU15
  70 001a 1349     		ldr	r1, .L3
  71 001c 1348     		ldr	r0, .L3+4
  72 001e FFF7FEFF 		bl	_Z11My_Tim_InitP19__TIM_HandleTypeDefP19__ADC_HandleTypeDef
  73              	.LVL7:
  24:My_Top/Task/Task_SystemInit.cpp **** 
  25:My_Top/Task/Task_SystemInit.cpp ****     M1.My_DC_Motor_Init(); //初始化电机1
  74              		.loc 1 25 5 is_stmt 1 view .LVU16
  75              		.loc 1 25 24 is_stmt 0 view .LVU17
  76 0022 1348     		ldr	r0, .L3+8
  77 0024 FFF7FEFF 		bl	_ZN8DC_Motor16My_DC_Motor_InitEv
  78              	.LVL8:
  26:My_Top/Task/Task_SystemInit.cpp ****     M2.My_DC_Motor_Init(); //初始化电机2
  79              		.loc 1 26 5 is_stmt 1 view .LVU18
  80              		.loc 1 26 24 is_stmt 0 view .LVU19
  81 0028 1248     		ldr	r0, .L3+12
  82 002a FFF7FEFF 		bl	_ZN8DC_Motor16My_DC_Motor_InitEv
  83              	.LVL9:
  27:My_Top/Task/Task_SystemInit.cpp ****     M3.My_DC_Motor_Init(); //初始化电机3
  84              		.loc 1 27 5 is_stmt 1 view .LVU20
ARM GAS  /tmp/cc6n5vZw.s 			page 3


  85              		.loc 1 27 24 is_stmt 0 view .LVU21
  86 002e 1248     		ldr	r0, .L3+16
  87 0030 FFF7FEFF 		bl	_ZN8DC_Motor16My_DC_Motor_InitEv
  88              	.LVL10:
  28:My_Top/Task/Task_SystemInit.cpp ****     M4.My_DC_Motor_Init(); //初始化电机4
  89              		.loc 1 28 5 is_stmt 1 view .LVU22
  90              		.loc 1 28 24 is_stmt 0 view .LVU23
  91 0034 1148     		ldr	r0, .L3+20
  92 0036 FFF7FEFF 		bl	_ZN8DC_Motor16My_DC_Motor_InitEv
  93              	.LVL11:
  29:My_Top/Task/Task_SystemInit.cpp **** 
  30:My_Top/Task/Task_SystemInit.cpp ****     Motor_Storage::load(1);//读eeprom的数据传回给电机
  94              		.loc 1 30 5 is_stmt 1 view .LVU24
  95              		.loc 1 30 24 is_stmt 0 view .LVU25
  96 003a 0120     		movs	r0, #1
  97 003c FFF7FEFF 		bl	_ZN13Motor_Storage4loadEh
  98              	.LVL12:
  31:My_Top/Task/Task_SystemInit.cpp ****     Motor_Storage::load(2);//读eeprom的数据传回给电机
  99              		.loc 1 31 5 is_stmt 1 view .LVU26
 100              		.loc 1 31 24 is_stmt 0 view .LVU27
 101 0040 0220     		movs	r0, #2
 102 0042 FFF7FEFF 		bl	_ZN13Motor_Storage4loadEh
 103              	.LVL13:
  32:My_Top/Task/Task_SystemInit.cpp ****     Motor_Storage::load(3);//读eeprom的数据传回给电机
 104              		.loc 1 32 5 is_stmt 1 view .LVU28
 105              		.loc 1 32 24 is_stmt 0 view .LVU29
 106 0046 0320     		movs	r0, #3
 107 0048 FFF7FEFF 		bl	_ZN13Motor_Storage4loadEh
 108              	.LVL14:
  33:My_Top/Task/Task_SystemInit.cpp ****     Motor_Storage::load(4);//读eeprom的数据传回给电机
 109              		.loc 1 33 5 is_stmt 1 view .LVU30
 110              		.loc 1 33 24 is_stmt 0 view .LVU31
 111 004c 0420     		movs	r0, #4
 112 004e FFF7FEFF 		bl	_ZN13Motor_Storage4loadEh
 113              	.LVL15:
  34:My_Top/Task/Task_SystemInit.cpp **** 
  35:My_Top/Task/Task_SystemInit.cpp ****     printf("Sys_init栈剩余:%d\r\n", uxTaskGetStackHighWaterMark(NULL));
 114              		.loc 1 35 5 is_stmt 1 view .LVU32
 115              		.loc 1 35 11 is_stmt 0 view .LVU33
 116 0052 0020     		movs	r0, #0
 117 0054 FFF7FEFF 		bl	uxTaskGetStackHighWaterMark
 118              	.LVL16:
 119 0058 0146     		mov	r1, r0
 120              		.loc 1 35 11 discriminator 1 view .LVU34
 121 005a 0948     		ldr	r0, .L3+24
 122 005c FFF7FEFF 		bl	printf_
 123              	.LVL17:
  36:My_Top/Task/Task_SystemInit.cpp ****     vTaskDelete(NULL); //删除任务
 124              		.loc 1 36 5 is_stmt 1 view .LVU35
 125              		.loc 1 36 16 is_stmt 0 view .LVU36
 126 0060 0020     		movs	r0, #0
 127 0062 FFF7FEFF 		bl	vTaskDelete
 128              	.LVL18:
  37:My_Top/Task/Task_SystemInit.cpp **** }
 129              		.loc 1 37 1 view .LVU37
 130 0066 08BD     		pop	{r3, pc}
 131              	.L4:
ARM GAS  /tmp/cc6n5vZw.s 			page 4


 132              		.align	2
 133              	.L3:
 134 0068 00000000 		.word	hadc2
 135 006c 00000000 		.word	htim3
 136 0070 00000000 		.word	M1
 137 0074 00000000 		.word	M2
 138 0078 00000000 		.word	M3
 139 007c 00000000 		.word	M4
 140 0080 00000000 		.word	.LC0
 141              		.cfi_endproc
 142              	.LFE1367:
 144              	.Letext0:
 145              		.file 2 "/opt/arm-gnu-toolchain-14.2/lib/gcc/arm-none-eabi/14.2.1/include/stddef.h"
 146              		.file 3 "/opt/arm-gnu-toolchain-14.2/arm-none-eabi/include/machine/_default_types.h"
 147              		.file 4 "/opt/arm-gnu-toolchain-14.2/arm-none-eabi/include/sys/_stdint.h"
 148              		.file 5 "Middlewares/Third_Party/FreeRTOS/Source/portable/GCC/ARM_CM4F/portmacro.h"
 149              		.file 6 "Middlewares/Third_Party/FreeRTOS/Source/include/task.h"
 150              		.file 7 "/opt/arm-gnu-toolchain-14.2/arm-none-eabi/include/c++/14.2.1/cmath"
 151              		.file 8 "/opt/arm-gnu-toolchain-14.2/arm-none-eabi/include/c++/14.2.1/type_traits"
 152              		.file 9 "/opt/arm-gnu-toolchain-14.2/arm-none-eabi/include/c++/14.2.1/debug/debug.h"
 153              		.file 10 "/opt/arm-gnu-toolchain-14.2/arm-none-eabi/include/c++/14.2.1/bits/std_abs.h"
 154              		.file 11 "/opt/arm-gnu-toolchain-14.2/arm-none-eabi/include/c++/14.2.1/cstdlib"
 155              		.file 12 "/opt/arm-gnu-toolchain-14.2/arm-none-eabi/include/c++/14.2.1/bits/predefined_ops.h"
 156              		.file 13 "/opt/arm-gnu-toolchain-14.2/arm-none-eabi/include/math.h"
 157              		.file 14 "/opt/arm-gnu-toolchain-14.2/arm-none-eabi/include/stdlib.h"
 158              		.file 15 "/opt/arm-gnu-toolchain-14.2/arm-none-eabi/include/c++/14.2.1/arm-none-eabi/thumb/v7e-m+f
 159              		.file 16 "/opt/arm-gnu-toolchain-14.2/arm-none-eabi/include/c++/14.2.1/math.h"
 160              		.file 17 "Lib/compute/ex_math.hpp"
 161              		.file 18 "Drivers/CMSIS/Device/ST/STM32G4xx/Include/stm32g474xx.h"
 162              		.file 19 "Drivers/CMSIS/Device/ST/STM32G4xx/Include/stm32g4xx.h"
 163              		.file 20 "Drivers/STM32G4xx_HAL_Driver/Inc/stm32g4xx_hal_def.h"
 164              		.file 21 "Drivers/STM32G4xx_HAL_Driver/Inc/stm32g4xx_hal_dma.h"
 165              		.file 22 "Drivers/STM32G4xx_HAL_Driver/Inc/stm32g4xx_hal_adc.h"
 166              		.file 23 "Drivers/STM32G4xx_HAL_Driver/Inc/stm32g4xx_hal_spi.h"
 167              		.file 24 "Drivers/STM32G4xx_HAL_Driver/Inc/stm32g4xx_hal_tim.h"
 168              		.file 25 "Core/Inc/tim.h"
 169              		.file 26 "Core/Inc/adc.h"
 170              		.file 27 "My_Top/System/bsp.hpp"
 171              		.file 28 "My_Top/System/HAL_System.hpp"
 172              		.file 29 "My_Top/MC/MC_Serial.hpp"
 173              		.file 30 "Lib/compute/pid/pid.hpp"
 174              		.file 31 "Lib/compute/pid/pid_Increment.hpp"
 175              		.file 32 "Lib/compute/pid/pll.hpp"
 176              		.file 33 "Lib/compute/pid/LQR.hpp"
 177              		.file 34 "My_Top/System/kth_read.hpp"
 178              		.file 35 "My_Top/Motor_Control/DcMotor_ClosedLoop.hpp"
 179              		.file 36 "/opt/arm-gnu-toolchain-14.2/arm-none-eabi/include/c++/14.2.1/stdlib.h"
 180              		.file 37 "My_Top/EEPROM/Motor_Storage.hpp"
 181              		.file 38 "/opt/arm-gnu-toolchain-14.2/arm-none-eabi/include/stdio.h"
 182              		.file 39 "My_Top/Motor_Control/my_tim.hpp"
 183              		.file 40 "My_Top/MC/My_Vofa.hpp"
 184              		.file 41 "My_Top/Drone_CAN/my_uav_can.hpp"
 185              		.file 42 "Lib/uorb/uorb.hpp"
 186              		.file 43 "Middlewares/Third_Party/AL94_USB_Composite/COMPOSITE/App/usb_device.h"
ARM GAS  /tmp/cc6n5vZw.s 			page 5


DEFINED SYMBOLS
                            *ABS*:00000000 Task_SystemInit.cpp
     /tmp/cc6n5vZw.s:21     .rodata.str1.4:00000000 $d
     /tmp/cc6n5vZw.s:26     .text:00000000 $t
     /tmp/cc6n5vZw.s:32     .text:00000000 _Z15Task_SystemInitPv
     /tmp/cc6n5vZw.s:134    .text:00000068 $d

UNDEFINED SYMBOLS
MX_USB_DEVICE_Init
uorb_init
_Z14My_Canard_Initv
_ZN10HAL_System4initEv
_ZN9MC_Serial4initEv
_Z9Vofa_Initv
_Z11My_Tim_InitP19__TIM_HandleTypeDefP19__ADC_HandleTypeDef
_ZN8DC_Motor16My_DC_Motor_InitEv
_ZN13Motor_Storage4loadEh
uxTaskGetStackHighWaterMark
printf_
vTaskDelete
hadc2
htim3
M1
M2
M3
M4
