ARM GAS  /tmp/ccTpYRRI.s 			page 1


   1              		.cpu cortex-m4
   2              		.arch armv7e-m
   3              		.fpu fpv4-sp-d16
   4              		.eabi_attribute 27, 1
   5              		.eabi_attribute 28, 1
   6              		.eabi_attribute 20, 1
   7              		.eabi_attribute 21, 1
   8              		.eabi_attribute 23, 3
   9              		.eabi_attribute 24, 1
  10              		.eabi_attribute 25, 1
  11              		.eabi_attribute 26, 1
  12              		.eabi_attribute 30, 1
  13              		.eabi_attribute 34, 1
  14              		.eabi_attribute 18, 4
  15              		.file	"Task_Vofa.cpp"
  16              		.text
  17              	.Ltext0:
  18              		.cfi_sections	.debug_frame
  19              		.file 1 "My_Top/Task/Task_Vofa.cpp"
  20              		.section	.text._ZN7VoFA_Rx3getEPKcf,"axG",%progbits,_ZN7VoFA_Rx3getEPKcf,comdat
  21              		.align	1
  22              		.weak	_ZN7VoFA_Rx3getEPKcf
  23              		.syntax unified
  24              		.thumb
  25              		.thumb_func
  27              	_ZN7VoFA_Rx3getEPKcf:
  28              	.LVL0:
  29              	.LFB347:
  30              		.file 2 "My_Top/MC/My_Vofa.hpp"
   1:My_Top/MC/My_Vofa.hpp **** #pragma once
   2:My_Top/MC/My_Vofa.hpp **** 
   3:My_Top/MC/My_Vofa.hpp **** #include <stdint.h>
   4:My_Top/MC/My_Vofa.hpp **** #include <stdarg.h>
   5:My_Top/MC/My_Vofa.hpp **** #include <string.h>
   6:My_Top/MC/My_Vofa.hpp **** #include <stdlib.h>     // atof
   7:My_Top/MC/My_Vofa.hpp **** #include "My_USB_CDC.hpp"
   8:My_Top/MC/My_Vofa.hpp **** #include "FreeRTOS.h"
   9:My_Top/MC/My_Vofa.hpp **** #include "task.h"
  10:My_Top/MC/My_Vofa.hpp **** #include "queue.h" 
  11:My_Top/MC/My_Vofa.hpp **** 
  12:My_Top/MC/My_Vofa.hpp **** #define VOFA_PARAM_MAX    30   // жңҖеӨ§еҸӮж•°дёӘж•°
  13:My_Top/MC/My_Vofa.hpp **** #define VOFA_NAME_LEN     25   // еҸӮж•°еҗҚжңҖеӨ§й•ҝеәҰ
  14:My_Top/MC/My_Vofa.hpp **** #define VOFA_RX_BUF_SIZE 128   // DMA жҺҘж”¶зј“еҶІ
  15:My_Top/MC/My_Vofa.hpp **** 
  16:My_Top/MC/My_Vofa.hpp **** 
  17:My_Top/MC/My_Vofa.hpp **** 
  18:My_Top/MC/My_Vofa.hpp **** /* йҳҹеҲ—йЎ№пјҡдёҖеё§ VOFA жҺҘж”¶ж•°жҚ® */
  19:My_Top/MC/My_Vofa.hpp **** struct VofaRxFrame_t {
  20:My_Top/MC/My_Vofa.hpp ****     uint16_t len;
  21:My_Top/MC/My_Vofa.hpp ****     uint8_t  buf[VOFA_RX_BUF_SIZE];
  22:My_Top/MC/My_Vofa.hpp **** };
  23:My_Top/MC/My_Vofa.hpp **** 
  24:My_Top/MC/My_Vofa.hpp **** extern QueueHandle_t vofaRxQueue;   // VOFAйҳҹеҲ—еҸҘжҹ„
  25:My_Top/MC/My_Vofa.hpp **** 
  26:My_Top/MC/My_Vofa.hpp **** struct vofa_param_t {            // еҚ•дёӘеҸӮж•°
  27:My_Top/MC/My_Vofa.hpp ****     char  name[VOFA_NAME_LEN];
  28:My_Top/MC/My_Vofa.hpp ****     float value;
ARM GAS  /tmp/ccTpYRRI.s 			page 2


  29:My_Top/MC/My_Vofa.hpp ****     bool  valid; //жҳҜеҗҰиөӢеҖј
  30:My_Top/MC/My_Vofa.hpp **** };
  31:My_Top/MC/My_Vofa.hpp **** 
  32:My_Top/MC/My_Vofa.hpp **** struct VoFA_Rx {
  33:My_Top/MC/My_Vofa.hpp ****     uint8_t      rx_buf[VOFA_RX_BUF_SIZE]; // DMA еҺҹе§Ӣж•°жҚ®
  34:My_Top/MC/My_Vofa.hpp ****     uint16_t     rx_len;                    // жң¬её§еӯ—иҠӮж•°
  35:My_Top/MC/My_Vofa.hpp ****     volatile bool rx_ready;                 // дёӯж–ӯзҪ®1пјҢTaskжё…0
  36:My_Top/MC/My_Vofa.hpp **** 
  37:My_Top/MC/My_Vofa.hpp ****     vofa_param_t params[VOFA_PARAM_MAX];   // еҸӮж•°иЎЁ
  38:My_Top/MC/My_Vofa.hpp ****     uint8_t      param_cnt;                // е·ІжіЁеҶҢеҸӮж•°ж•°
  39:My_Top/MC/My_Vofa.hpp **** 
  40:My_Top/MC/My_Vofa.hpp ****     /* дёӯж–ӯйҮҢи°ғпјҡжӢ·иҙқж•°жҚ®еҲ°йҳҹеҲ—пјҢжӣҝд»Ј rx_ready ж Үеҝ—дҪҚ */
  41:My_Top/MC/My_Vofa.hpp ****     void on_recv(uint8_t *buf, uint16_t len) {
  42:My_Top/MC/My_Vofa.hpp ****         VofaRxFrame_t frame;
  43:My_Top/MC/My_Vofa.hpp ****         if (len > VOFA_RX_BUF_SIZE) len = VOFA_RX_BUF_SIZE;
  44:My_Top/MC/My_Vofa.hpp ****         frame.len = len;
  45:My_Top/MC/My_Vofa.hpp ****         memcpy(frame.buf, buf, len);
  46:My_Top/MC/My_Vofa.hpp ****         
  47:My_Top/MC/My_Vofa.hpp ****         BaseType_t xHigherPriorityTaskWoken = pdFALSE; //дёӯж–ӯйҮҢеҗ‘йҳҹеҲ—еҸ‘ж¶ҲжҒҜзҡ„ж ҮеҮҶдёүжқҝ
  48:My_Top/MC/My_Vofa.hpp ****         xQueueSendFromISR(vofaRxQueue, &frame, &xHigherPriorityTaskWoken);
  49:My_Top/MC/My_Vofa.hpp ****         portYIELD_FROM_ISR(xHigherPriorityTaskWoken);
  50:My_Top/MC/My_Vofa.hpp ****     }
  51:My_Top/MC/My_Vofa.hpp **** 
  52:My_Top/MC/My_Vofa.hpp **** 
  53:My_Top/MC/My_Vofa.hpp ****     /* Task йҮҢи°ғпјҡи§Јжһҗ "name:value\n" */
  54:My_Top/MC/My_Vofa.hpp ****     void parse() {
  55:My_Top/MC/My_Vofa.hpp ****         char name[VOFA_NAME_LEN] = {}, val[16] = {};     // дёҙж—¶зј“еҶІеҢә  
  56:My_Top/MC/My_Vofa.hpp ****         uint8_t ni = 0, vi = 0;                          // name/val зҙўеј•
  57:My_Top/MC/My_Vofa.hpp ****         bool in_val = false;                            // false=иҜ»еҗҚ true=иҜ»еҖј
  58:My_Top/MC/My_Vofa.hpp **** 
  59:My_Top/MC/My_Vofa.hpp ****         for (uint16_t i = 0; i < rx_len; i++) {          // йҖҗеӯ—иҠӮжү«жҸҸ
  60:My_Top/MC/My_Vofa.hpp ****             char c = (char)rx_buf[i];
  61:My_Top/MC/My_Vofa.hpp ****             if (!in_val) {                                // иҜ»еҸӮж•°еҗҚйҳ¶ж®ө
  62:My_Top/MC/My_Vofa.hpp ****                 if (c == ':') { name[ni] = '\0'; in_val = true; } // йҒҮеҲ°':'еҲҮжҚў
  63:My_Top/MC/My_Vofa.hpp ****                 else if (ni < VOFA_NAME_LEN - 1) name[ni++] = c;
  64:My_Top/MC/My_Vofa.hpp ****             } else {                                      // иҜ»еҸӮж•°еҖјйҳ¶ж®ө
  65:My_Top/MC/My_Vofa.hpp ****                 if (c == '\n') {                          // йҒҮеҲ°'\n'жң¬жқЎз»“жқҹ
  66:My_Top/MC/My_Vofa.hpp ****                     val[vi] = '\0';
  67:My_Top/MC/My_Vofa.hpp ****                     vofa_param_t *p = _find(name);       // жҹҘиЎЁ  p жҢҮеҗ‘ params
  68:My_Top/MC/My_Vofa.hpp ****                     if (p) { p->value = atof(val); p->valid = true; } //е°Ҷеӯ—з¬ҰдёІиҪ¬жө®зӮ№ж•° еЎ
  69:My_Top/MC/My_Vofa.hpp ****                     memset(name, 0, sizeof(name));       // йҮҚзҪ®пјҢеҮҶеӨҮдёӢдёҖжқЎ
  70:My_Top/MC/My_Vofa.hpp ****                     ni = vi = 0; in_val = false; //жё…йӣ¶йҮҚж–°иҜ»еҗҚ
  71:My_Top/MC/My_Vofa.hpp ****                 } else if (vi < 15) val[vi++] = c;        // еӯҳеҖј
  72:My_Top/MC/My_Vofa.hpp ****             }
  73:My_Top/MC/My_Vofa.hpp ****         }
  74:My_Top/MC/My_Vofa.hpp ****         
  75:My_Top/MC/My_Vofa.hpp ****     }
  76:My_Top/MC/My_Vofa.hpp **** 
  77:My_Top/MC/My_Vofa.hpp ****     /* иҺ·еҸ–еҸӮж•°еҖјпјҢжүҫдёҚеҲ°иҝ”еӣһй»ҳи®ӨеҖј */
  78:My_Top/MC/My_Vofa.hpp ****     float get(const char *name, float def = 0.0f) {
  31              		.loc 2 78 11 view -0
  32              		.cfi_startproc
  33              		@ args = 0, pretend = 0, frame = 0
  34              		@ frame_needed = 0, uses_anonymous_args = 0
  35              		.loc 2 78 11 is_stmt 0 view .LVU1
  36 0000 70B5     		push	{r4, r5, r6, lr}
  37              		.cfi_def_cfa_offset 16
ARM GAS  /tmp/ccTpYRRI.s 			page 3


  38              		.cfi_offset 4, -16
  39              		.cfi_offset 5, -12
  40              		.cfi_offset 6, -8
  41              		.cfi_offset 14, -4
  42 0002 2DED028B 		vpush.64	{d8}
  43              		.cfi_def_cfa_offset 24
  44              		.cfi_offset 80, -24
  45              		.cfi_offset 81, -20
  46 0006 0546     		mov	r5, r0
  47 0008 0E46     		mov	r6, r1
  48 000a B0EE408A 		vmov.f32	s16, s0
  79:My_Top/MC/My_Vofa.hpp ****         for (uint8_t i = 0; i < param_cnt; i++)
  49              		.loc 2 79 9 is_stmt 1 view .LVU2
  50              	.LVL1:
  51              	.LBB5:
  52              		.loc 2 79 22 is_stmt 0 view .LVU3
  53 000e 0024     		movs	r4, #0
  54              		.loc 2 79 9 view .LVU4
  55 0010 01E0     		b	.L2
  56              	.LVL2:
  57              	.L3:
  58              		.loc 2 79 9 is_stmt 1 discriminator 2 view .LVU5
  59 0012 0134     		adds	r4, r4, #1
  60              	.LVL3:
  61              		.loc 2 79 9 is_stmt 0 discriminator 2 view .LVU6
  62 0014 E4B2     		uxtb	r4, r4
  63              	.LVL4:
  64              	.L2:
  65              		.loc 2 79 31 is_stmt 1 discriminator 1 view .LVU7
  66              		.loc 2 79 33 is_stmt 0 discriminator 1 view .LVU8
  67 0016 95F8BC34 		ldrb	r3, [r5, #1212]	@ zero_extendqisi2
  68              		.loc 2 79 31 discriminator 1 view .LVU9
  69 001a A342     		cmp	r3, r4
  70 001c 19D9     		bls	.L4
  80:My_Top/MC/My_Vofa.hpp ****             if (strncmp(params[i].name, name, VOFA_NAME_LEN) == 0 && params[i].valid)//иҫ“е…Ҙзҡ„еҗҚ
  71              		.loc 2 80 13 is_stmt 1 view .LVU10
  72              		.loc 2 80 35 is_stmt 0 view .LVU11
  73 001e 04EBC400 		add	r0, r4, r4, lsl #3
  74 0022 8000     		lsls	r0, r0, #2
  75 0024 8030     		adds	r0, r0, #128
  76 0026 2844     		add	r0, r0, r5
  77              		.loc 2 80 24 view .LVU12
  78 0028 1922     		movs	r2, #25
  79 002a 3146     		mov	r1, r6
  80 002c 0430     		adds	r0, r0, #4
  81 002e FFF7FEFF 		bl	strncmp
  82              	.LVL5:
  83              		.loc 2 80 13 discriminator 1 view .LVU13
  84 0032 0028     		cmp	r0, #0
  85 0034 EDD1     		bne	.L3
  86              		.loc 2 80 80 discriminator 1 view .LVU14
  87 0036 04EBC403 		add	r3, r4, r4, lsl #3
  88 003a 05EB8303 		add	r3, r5, r3, lsl #2
  89 003e 93F8A430 		ldrb	r3, [r3, #164]	@ zero_extendqisi2
  90              		.loc 2 80 67 discriminator 1 view .LVU15
  91 0042 002B     		cmp	r3, #0
  92 0044 E5D0     		beq	.L3
ARM GAS  /tmp/ccTpYRRI.s 			page 4


  81:My_Top/MC/My_Vofa.hpp ****                 return params[i].value;
  93              		.loc 2 81 17 is_stmt 1 view .LVU16
  94              		.loc 2 81 34 is_stmt 0 view .LVU17
  95 0046 04EBC404 		add	r4, r4, r4, lsl #3
  96              	.LVL6:
  97              		.loc 2 81 34 view .LVU18
  98 004a 05EB8405 		add	r5, r5, r4, lsl #2
  99              	.LVL7:
 100              		.loc 2 81 34 view .LVU19
 101 004e 95ED288A 		vldr.32	s16, [r5, #160]
 102              	.LVL8:
 103              	.L4:
 104              		.loc 2 81 34 view .LVU20
 105              	.LBE5:
  82:My_Top/MC/My_Vofa.hpp ****         return def;//иҝ”еӣһ0 
  83:My_Top/MC/My_Vofa.hpp ****     }
 106              		.loc 2 83 5 view .LVU21
 107 0052 B0EE480A 		vmov.f32	s0, s16
 108 0056 BDEC028B 		vldm	sp!, {d8}
 109              		.cfi_restore 80
 110              		.cfi_restore 81
 111              		.cfi_def_cfa_offset 16
 112 005a 70BD     		pop	{r4, r5, r6, pc}
 113              		.loc 2 83 5 view .LVU22
 114              		.cfi_endproc
 115              	.LFE347:
 117              		.section	.text._ZN7VoFA_Rx14vofa_get_batchEPS_PPKcPfh,"axG",%progbits,_ZN7VoFA_Rx14vofa_get_batchE
 118              		.align	1
 119              		.weak	_ZN7VoFA_Rx14vofa_get_batchEPS_PPKcPfh
 120              		.syntax unified
 121              		.thumb
 122              		.thumb_func
 124              	_ZN7VoFA_Rx14vofa_get_batchEPS_PPKcPfh:
 125              	.LVL9:
 126              	.LFB348:
  84:My_Top/MC/My_Vofa.hpp ****     /* жү№йҮҸиҜ»еҸ–еҸӮж•°пјҡnames иҫ“е…ҘеҗҚеӯ—ж•°з»„пјҢvals иҫ“еҮәеҖјж•°з»„пјҢnum иҰҒиҜ»еҮ дёӘ */
  85:My_Top/MC/My_Vofa.hpp ****     void vofa_get_batch(VoFA_Rx *v, const char **names, float *vals, uint8_t num)
 127              		.loc 2 85 10 is_stmt 1 view -0
 128              		.cfi_startproc
 129              		@ args = 4, pretend = 0, frame = 0
 130              		@ frame_needed = 0, uses_anonymous_args = 0
 131              		.loc 2 85 10 is_stmt 0 view .LVU24
 132 0000 2DE9F84F 		push	{r3, r4, r5, r6, r7, r8, r9, r10, fp, lr}
 133              		.cfi_def_cfa_offset 40
 134              		.cfi_offset 3, -40
 135              		.cfi_offset 4, -36
 136              		.cfi_offset 5, -32
 137              		.cfi_offset 6, -28
 138              		.cfi_offset 7, -24
 139              		.cfi_offset 8, -20
 140              		.cfi_offset 9, -16
 141              		.cfi_offset 10, -12
 142              		.cfi_offset 11, -8
 143              		.cfi_offset 14, -4
 144 0004 0D46     		mov	r5, r1
 145 0006 1746     		mov	r7, r2
 146 0008 9A46     		mov	r10, r3
ARM GAS  /tmp/ccTpYRRI.s 			page 5


 147 000a 9DF828B0 		ldrb	fp, [sp, #40]	@ zero_extendqisi2
  86:My_Top/MC/My_Vofa.hpp ****     {
  87:My_Top/MC/My_Vofa.hpp ****         for (uint8_t j = 0; j < num; j++) {      // йҒҚеҺҶжҜҸдёӘиҰҒжҹҘзҡ„еҗҚеӯ—
 148              		.loc 2 87 9 is_stmt 1 view .LVU25
 149              	.LVL10:
 150              	.LBB6:
 151              		.loc 2 87 22 is_stmt 0 view .LVU26
 152 000e 4FF00008 		mov	r8, #0
 153              		.loc 2 87 9 view .LVU27
 154 0012 25E0     		b	.L8
 155              	.LVL11:
 156              	.L10:
 157              	.LBB7:
 158              	.LBB8:
  88:My_Top/MC/My_Vofa.hpp ****             vals[j] = 0.0f;                       // й»ҳи®ӨеҖј
  89:My_Top/MC/My_Vofa.hpp ****             for (uint8_t i = 0; i < v->param_cnt; i++) {  // йҒҚеҺҶеҸӮж•°иЎЁ
 159              		.loc 2 89 13 is_stmt 1 discriminator 2 view .LVU28
 160 0014 0134     		adds	r4, r4, #1
 161              	.LVL12:
 162              		.loc 2 89 13 is_stmt 0 discriminator 2 view .LVU29
 163 0016 E4B2     		uxtb	r4, r4
 164              	.LVL13:
 165              	.L9:
 166              		.loc 2 89 35 is_stmt 1 discriminator 1 view .LVU30
 167              		.loc 2 89 40 is_stmt 0 discriminator 1 view .LVU31
 168 0018 95F8BC34 		ldrb	r3, [r5, #1212]	@ zero_extendqisi2
 169              		.loc 2 89 35 discriminator 1 view .LVU32
 170 001c A342     		cmp	r3, r4
 171 001e 1BD9     		bls	.L11
  90:My_Top/MC/My_Vofa.hpp ****                 if (strncmp(v->params[i].name, names[j], VOFA_NAME_LEN) == 0
 172              		.loc 2 90 17 is_stmt 1 view .LVU33
 173              		.loc 2 90 42 is_stmt 0 view .LVU34
 174 0020 04EBC400 		add	r0, r4, r4, lsl #3
 175 0024 8000     		lsls	r0, r0, #2
 176 0026 8030     		adds	r0, r0, #128
 177 0028 2844     		add	r0, r0, r5
 178              		.loc 2 90 28 view .LVU35
 179 002a 1922     		movs	r2, #25
 180 002c B959     		ldr	r1, [r7, r6]
 181 002e 0430     		adds	r0, r0, #4
 182 0030 FFF7FEFF 		bl	strncmp
 183              	.LVL14:
 184              		.loc 2 90 17 discriminator 1 view .LVU36
 185 0034 0028     		cmp	r0, #0
 186 0036 EDD1     		bne	.L10
  91:My_Top/MC/My_Vofa.hpp ****                     && v->params[i].valid) {
 187              		.loc 2 91 37 view .LVU37
 188 0038 04EBC403 		add	r3, r4, r4, lsl #3
 189 003c 05EB8303 		add	r3, r5, r3, lsl #2
 190 0040 93F8A430 		ldrb	r3, [r3, #164]	@ zero_extendqisi2
 191              		.loc 2 91 21 view .LVU38
 192 0044 002B     		cmp	r3, #0
 193 0046 E5D0     		beq	.L10
  92:My_Top/MC/My_Vofa.hpp ****                     vals[j] = v->params[i].value;  // жүҫеҲ°дәҶпјҢеҶҷе…Ҙ
 194              		.loc 2 92 21 is_stmt 1 view .LVU39
 195              		.loc 2 92 44 is_stmt 0 view .LVU40
 196 0048 04EBC404 		add	r4, r4, r4, lsl #3
ARM GAS  /tmp/ccTpYRRI.s 			page 6


 197              	.LVL15:
 198              		.loc 2 92 44 view .LVU41
 199 004c 05EB8404 		add	r4, r5, r4, lsl #2
 200 0050 D4F8A030 		ldr	r3, [r4, #160]	@ float
 201              		.loc 2 92 29 view .LVU42
 202 0054 C9F80030 		str	r3, [r9]	@ float
  93:My_Top/MC/My_Vofa.hpp ****                     break;
 203              		.loc 2 93 21 is_stmt 1 view .LVU43
 204              	.L11:
 205              		.loc 2 93 21 is_stmt 0 view .LVU44
 206              	.LBE8:
 207              	.LBE7:
  87:My_Top/MC/My_Vofa.hpp ****             vals[j] = 0.0f;                       // й»ҳи®ӨеҖј
 208              		.loc 2 87 9 is_stmt 1 discriminator 2 view .LVU45
 209 0058 08F10108 		add	r8, r8, #1
 210              	.LVL16:
  87:My_Top/MC/My_Vofa.hpp ****             vals[j] = 0.0f;                       // й»ҳи®ӨеҖј
 211              		.loc 2 87 9 is_stmt 0 discriminator 2 view .LVU46
 212 005c 5FFA88F8 		uxtb	r8, r8
 213              	.LVL17:
 214              	.L8:
  87:My_Top/MC/My_Vofa.hpp ****             vals[j] = 0.0f;                       // й»ҳи®ӨеҖј
 215              		.loc 2 87 31 is_stmt 1 discriminator 1 view .LVU47
 216 0060 D845     		cmp	r8, fp
 217 0062 08D2     		bcs	.L15
 218              	.LBB10:
  88:My_Top/MC/My_Vofa.hpp ****             for (uint8_t i = 0; i < v->param_cnt; i++) {  // йҒҚеҺҶеҸӮж•°иЎЁ
 219              		.loc 2 88 13 view .LVU48
  88:My_Top/MC/My_Vofa.hpp ****             for (uint8_t i = 0; i < v->param_cnt; i++) {  // йҒҚеҺҶеҸӮж•°иЎЁ
 220              		.loc 2 88 19 is_stmt 0 view .LVU49
 221 0064 4FEA8806 		lsl	r6, r8, #2
 222 0068 0AEB8809 		add	r9, r10, r8, lsl #2
  88:My_Top/MC/My_Vofa.hpp ****             for (uint8_t i = 0; i < v->param_cnt; i++) {  // йҒҚеҺҶеҸӮж•°иЎЁ
 223              		.loc 2 88 21 view .LVU50
 224 006c 0023     		movs	r3, #0
 225 006e C9F80030 		str	r3, [r9]	@ float
  89:My_Top/MC/My_Vofa.hpp ****                 if (strncmp(v->params[i].name, names[j], VOFA_NAME_LEN) == 0
 226              		.loc 2 89 13 is_stmt 1 view .LVU51
 227              	.LVL18:
 228              	.LBB9:
  89:My_Top/MC/My_Vofa.hpp ****                 if (strncmp(v->params[i].name, names[j], VOFA_NAME_LEN) == 0
 229              		.loc 2 89 26 is_stmt 0 view .LVU52
 230 0072 0024     		movs	r4, #0
  89:My_Top/MC/My_Vofa.hpp ****                 if (strncmp(v->params[i].name, names[j], VOFA_NAME_LEN) == 0
 231              		.loc 2 89 13 view .LVU53
 232 0074 D0E7     		b	.L9
 233              	.LVL19:
 234              	.L15:
  89:My_Top/MC/My_Vofa.hpp ****                 if (strncmp(v->params[i].name, names[j], VOFA_NAME_LEN) == 0
 235              		.loc 2 89 13 view .LVU54
 236              	.LBE9:
 237              	.LBE10:
 238              	.LBE6:
  94:My_Top/MC/My_Vofa.hpp ****                 }
  95:My_Top/MC/My_Vofa.hpp ****             }
  96:My_Top/MC/My_Vofa.hpp ****         }
  97:My_Top/MC/My_Vofa.hpp ****     }
ARM GAS  /tmp/ccTpYRRI.s 			page 7


 239              		.loc 2 97 5 view .LVU55
 240 0076 BDE8F88F 		pop	{r3, r4, r5, r6, r7, r8, r9, r10, fp, pc}
 241              		.loc 2 97 5 view .LVU56
 242              		.cfi_endproc
 243              	.LFE348:
 245              		.section	.text._ZN7VoFA_Rx5_findEPKc,"axG",%progbits,_ZN7VoFA_Rx5_findEPKc,comdat
 246              		.align	1
 247              		.weak	_ZN7VoFA_Rx5_findEPKc
 248              		.syntax unified
 249              		.thumb
 250              		.thumb_func
 252              	_ZN7VoFA_Rx5_findEPKc:
 253              	.LVL20:
 254              	.LFB349:
  98:My_Top/MC/My_Vofa.hpp **** 
  99:My_Top/MC/My_Vofa.hpp **** 
 100:My_Top/MC/My_Vofa.hpp **** private:
 101:My_Top/MC/My_Vofa.hpp ****     /* жҹҘжүҫжҲ–ж–°е»әеҸӮж•°ж§Ҫ */
 102:My_Top/MC/My_Vofa.hpp ****     // з¬¬дёҖж¬ЎеҮәзҺ° "speed" вҶ’ ж–°е»әж§ҪдҪҚгҖӮз¬¬дәҢж¬ЎеҸҠд»ҘеҗҺеҮәзҺ° "speed" вҶ’ еӨҚз”ЁеҗҢдёҖ
 103:My_Top/MC/My_Vofa.hpp ****     vofa_param_t *_find(const char *name) { 
 255              		.loc 2 103 19 is_stmt 1 view -0
 256              		.cfi_startproc
 257              		@ args = 0, pretend = 0, frame = 0
 258              		@ frame_needed = 0, uses_anonymous_args = 0
 259              		.loc 2 103 19 is_stmt 0 view .LVU58
 260 0000 70B5     		push	{r4, r5, r6, lr}
 261              		.cfi_def_cfa_offset 16
 262              		.cfi_offset 4, -16
 263              		.cfi_offset 5, -12
 264              		.cfi_offset 6, -8
 265              		.cfi_offset 14, -4
 266 0002 0546     		mov	r5, r0
 267 0004 0E46     		mov	r6, r1
 104:My_Top/MC/My_Vofa.hpp ****         for (uint8_t i = 0; i < param_cnt; i++)  /* з¬¬дёҖжӯҘпјҡйҒҚеҺҶе·ІжңүеҸӮж•°иЎЁпјҢжүҫеҗҚеӯ—зӣ
 268              		.loc 2 104 9 is_stmt 1 view .LVU59
 269              	.LVL21:
 270              	.LBB11:
 271              		.loc 2 104 22 is_stmt 0 view .LVU60
 272 0006 0024     		movs	r4, #0
 273              		.loc 2 104 9 view .LVU61
 274 0008 01E0     		b	.L17
 275              	.LVL22:
 276              	.L18:
 277              		.loc 2 104 9 is_stmt 1 discriminator 2 view .LVU62
 278 000a 0134     		adds	r4, r4, #1
 279              	.LVL23:
 280              		.loc 2 104 9 is_stmt 0 discriminator 2 view .LVU63
 281 000c E4B2     		uxtb	r4, r4
 282              	.LVL24:
 283              	.L17:
 284              		.loc 2 104 31 is_stmt 1 discriminator 1 view .LVU64
 285              		.loc 2 104 33 is_stmt 0 discriminator 1 view .LVU65
 286 000e 95F8BC34 		ldrb	r3, [r5, #1212]	@ zero_extendqisi2
 287              		.loc 2 104 31 discriminator 1 view .LVU66
 288 0012 A342     		cmp	r3, r4
 289 0014 12D9     		bls	.L23
 105:My_Top/MC/My_Vofa.hpp ****             if (strncmp(params[i].name, name, VOFA_NAME_LEN) == 0) return &params[i]; //жҜ”иҫғеҪ“еү
ARM GAS  /tmp/ccTpYRRI.s 			page 8


 290              		.loc 2 105 13 is_stmt 1 view .LVU67
 291              		.loc 2 105 35 is_stmt 0 view .LVU68
 292 0016 04EBC400 		add	r0, r4, r4, lsl #3
 293 001a 8000     		lsls	r0, r0, #2
 294 001c 8030     		adds	r0, r0, #128
 295 001e 2844     		add	r0, r0, r5
 296              		.loc 2 105 24 view .LVU69
 297 0020 1922     		movs	r2, #25
 298 0022 3146     		mov	r1, r6
 299 0024 0430     		adds	r0, r0, #4
 300 0026 FFF7FEFF 		bl	strncmp
 301              	.LVL25:
 302              		.loc 2 105 13 discriminator 1 view .LVU70
 303 002a 0028     		cmp	r0, #0
 304 002c EDD1     		bne	.L18
 305              		.loc 2 105 68 is_stmt 1 discriminator 1 view .LVU71
 306              		.loc 2 105 84 is_stmt 0 discriminator 1 view .LVU72
 307 002e 04EBC403 		add	r3, r4, r4, lsl #3
 308 0032 9B00     		lsls	r3, r3, #2
 309 0034 8033     		adds	r3, r3, #128
 310 0036 E818     		adds	r0, r5, r3
 311 0038 0430     		adds	r0, r0, #4
 312              	.LVL26:
 313              	.L16:
 314              		.loc 2 105 84 discriminator 1 view .LVU73
 315              	.LBE11:
 106:My_Top/MC/My_Vofa.hpp ****         if (param_cnt >= VOFA_PARAM_MAX) return nullptr;                   /* з¬¬дәҢжӯҘпјҡжІЎжүҫеҲ°
 107:My_Top/MC/My_Vofa.hpp ****          /* з¬¬дёүжӯҘпјҡжІЎж»ЎпјҢж–°е»әдёҖдёӘ */
 108:My_Top/MC/My_Vofa.hpp ****         strncpy(params[param_cnt].name, name, VOFA_NAME_LEN - 1);          // еӨҚеҲ¶еҗҚеӯ—еӯ—з¬ҰдёІ
 109:My_Top/MC/My_Vofa.hpp ****         params[param_cnt].valid = false;                                    //  еҲқе§ӢеҖјжңӘиөӢеҖј
 110:My_Top/MC/My_Vofa.hpp ****         return &params[param_cnt++];  // иҝ”еӣһж–°ж§Ҫең°еқҖ
 111:My_Top/MC/My_Vofa.hpp ****     }
 316              		.loc 2 111 5 view .LVU74
 317 003a 70BD     		pop	{r4, r5, r6, pc}
 318              	.LVL27:
 319              	.L23:
 106:My_Top/MC/My_Vofa.hpp ****         if (param_cnt >= VOFA_PARAM_MAX) return nullptr;                   /* з¬¬дәҢжӯҘпјҡжІЎжүҫеҲ°
 320              		.loc 2 106 9 is_stmt 1 view .LVU75
 321 003c 1D2B     		cmp	r3, #29
 322 003e 1CD8     		bhi	.L21
 108:My_Top/MC/My_Vofa.hpp ****         params[param_cnt].valid = false;                                    //  еҲқе§ӢеҖјжңӘиөӢеҖј
 323              		.loc 2 108 9 view .LVU76
 108:My_Top/MC/My_Vofa.hpp ****         params[param_cnt].valid = false;                                    //  еҲқе§ӢеҖјжңӘиөӢеҖј
 324              		.loc 2 108 35 is_stmt 0 view .LVU77
 325 0040 03EBC300 		add	r0, r3, r3, lsl #3
 326 0044 8000     		lsls	r0, r0, #2
 327 0046 8030     		adds	r0, r0, #128
 328 0048 2844     		add	r0, r0, r5
 108:My_Top/MC/My_Vofa.hpp ****         params[param_cnt].valid = false;                                    //  еҲқе§ӢеҖјжңӘиөӢеҖј
 329              		.loc 2 108 16 view .LVU78
 330 004a 1822     		movs	r2, #24
 331 004c 3146     		mov	r1, r6
 332 004e 0430     		adds	r0, r0, #4
 333 0050 FFF7FEFF 		bl	strncpy
 334              	.LVL28:
 109:My_Top/MC/My_Vofa.hpp ****         return &params[param_cnt++];  // иҝ”еӣһж–°ж§Ҫең°еқҖ
 335              		.loc 2 109 9 is_stmt 1 view .LVU79
ARM GAS  /tmp/ccTpYRRI.s 			page 9


 109:My_Top/MC/My_Vofa.hpp ****         return &params[param_cnt++];  // иҝ”еӣһж–°ж§Ҫең°еқҖ
 336              		.loc 2 109 16 is_stmt 0 view .LVU80
 337 0054 95F8BC34 		ldrb	r3, [r5, #1212]	@ zero_extendqisi2
 109:My_Top/MC/My_Vofa.hpp ****         return &params[param_cnt++];  // иҝ”еӣһж–°ж§Ҫең°еқҖ
 338              		.loc 2 109 33 view .LVU81
 339 0058 03EBC302 		add	r2, r3, r3, lsl #3
 340 005c 05EB8202 		add	r2, r5, r2, lsl #2
 341 0060 0021     		movs	r1, #0
 342 0062 82F8A410 		strb	r1, [r2, #164]
 110:My_Top/MC/My_Vofa.hpp ****     }
 343              		.loc 2 110 9 is_stmt 1 view .LVU82
 110:My_Top/MC/My_Vofa.hpp ****     }
 344              		.loc 2 110 33 is_stmt 0 view .LVU83
 345 0066 5A1C     		adds	r2, r3, #1
 346 0068 85F8BC24 		strb	r2, [r5, #1212]
 110:My_Top/MC/My_Vofa.hpp ****     }
 347              		.loc 2 110 35 view .LVU84
 348 006c 03EBC303 		add	r3, r3, r3, lsl #3
 349 0070 9B00     		lsls	r3, r3, #2
 350 0072 8033     		adds	r3, r3, #128
 351 0074 1D44     		add	r5, r5, r3
 352              	.LVL29:
 110:My_Top/MC/My_Vofa.hpp ****     }
 353              		.loc 2 110 35 view .LVU85
 354 0076 281D     		adds	r0, r5, #4
 355 0078 DFE7     		b	.L16
 356              	.LVL30:
 357              	.L21:
 106:My_Top/MC/My_Vofa.hpp ****          /* з¬¬дёүжӯҘпјҡжІЎж»ЎпјҢж–°е»әдёҖдёӘ */
 358              		.loc 2 106 49 discriminator 1 view .LVU86
 359 007a 0020     		movs	r0, #0
 360 007c DDE7     		b	.L16
 361              		.cfi_endproc
 362              	.LFE349:
 364              		.section	.text._ZN7VoFA_Rx5parseEv,"axG",%progbits,_ZN7VoFA_Rx5parseEv,comdat
 365              		.align	1
 366              		.weak	_ZN7VoFA_Rx5parseEv
 367              		.syntax unified
 368              		.thumb
 369              		.thumb_func
 371              	_ZN7VoFA_Rx5parseEv:
 372              	.LVL31:
 373              	.LFB346:
  54:My_Top/MC/My_Vofa.hpp ****         char name[VOFA_NAME_LEN] = {}, val[16] = {};     // дёҙж—¶зј“еҶІеҢә  
 374              		.loc 2 54 10 is_stmt 1 view -0
 375              		.cfi_startproc
 376              		@ args = 0, pretend = 0, frame = 48
 377              		@ frame_needed = 0, uses_anonymous_args = 0
  54:My_Top/MC/My_Vofa.hpp ****         char name[VOFA_NAME_LEN] = {}, val[16] = {};     // дёҙж—¶зј“еҶІеҢә  
 378              		.loc 2 54 10 is_stmt 0 view .LVU88
 379 0000 70B5     		push	{r4, r5, r6, lr}
 380              		.cfi_def_cfa_offset 16
 381              		.cfi_offset 4, -16
 382              		.cfi_offset 5, -12
 383              		.cfi_offset 6, -8
 384              		.cfi_offset 14, -4
 385 0002 8CB0     		sub	sp, sp, #48
ARM GAS  /tmp/ccTpYRRI.s 			page 10


 386              		.cfi_def_cfa_offset 64
 387 0004 0546     		mov	r5, r0
  55:My_Top/MC/My_Vofa.hpp ****         uint8_t ni = 0, vi = 0;                          // name/val зҙўеј•
 388              		.loc 2 55 9 is_stmt 1 view .LVU89
  55:My_Top/MC/My_Vofa.hpp ****         uint8_t ni = 0, vi = 0;                          // name/val зҙўеј•
 389              		.loc 2 55 14 is_stmt 0 view .LVU90
 390 0006 0023     		movs	r3, #0
 391 0008 0593     		str	r3, [sp, #20]
 392 000a 0693     		str	r3, [sp, #24]
 393 000c 0793     		str	r3, [sp, #28]
 394 000e 0893     		str	r3, [sp, #32]
 395 0010 0993     		str	r3, [sp, #36]
 396 0012 0A93     		str	r3, [sp, #40]
 397 0014 8DF82C30 		strb	r3, [sp, #44]
  55:My_Top/MC/My_Vofa.hpp ****         uint8_t ni = 0, vi = 0;                          // name/val зҙўеј•
 398              		.loc 2 55 40 view .LVU91
 399 0018 0193     		str	r3, [sp, #4]
 400 001a 0293     		str	r3, [sp, #8]
 401 001c 0393     		str	r3, [sp, #12]
 402 001e 0493     		str	r3, [sp, #16]
  56:My_Top/MC/My_Vofa.hpp ****         bool in_val = false;                            // false=иҜ»еҗҚ true=иҜ»еҖј
 403              		.loc 2 56 9 is_stmt 1 view .LVU92
 404              	.LVL32:
  57:My_Top/MC/My_Vofa.hpp **** 
 405              		.loc 2 57 9 view .LVU93
  59:My_Top/MC/My_Vofa.hpp ****             char c = (char)rx_buf[i];
 406              		.loc 2 59 9 view .LVU94
 407              	.LBB12:
  59:My_Top/MC/My_Vofa.hpp ****             char c = (char)rx_buf[i];
 408              		.loc 2 59 23 is_stmt 0 view .LVU95
 409 0020 1C46     		mov	r4, r3
 410              	.LBE12:
  57:My_Top/MC/My_Vofa.hpp **** 
 411              		.loc 2 57 14 view .LVU96
 412 0022 1846     		mov	r0, r3
 413              	.LVL33:
  56:My_Top/MC/My_Vofa.hpp ****         bool in_val = false;                            // false=иҜ»еҗҚ true=иҜ»еҖј
 414              		.loc 2 56 25 view .LVU97
 415 0024 1946     		mov	r1, r3
 416              	.LBB22:
  59:My_Top/MC/My_Vofa.hpp ****             char c = (char)rx_buf[i];
 417              		.loc 2 59 9 view .LVU98
 418 0026 14E0     		b	.L25
 419              	.LVL34:
 420              	.L35:
 421              	.LBB13:
 422              	.LBB14:
  62:My_Top/MC/My_Vofa.hpp ****                 else if (ni < VOFA_NAME_LEN - 1) name[ni++] = c;
 423              		.loc 2 62 33 is_stmt 1 discriminator 1 view .LVU99
  62:My_Top/MC/My_Vofa.hpp ****                 else if (ni < VOFA_NAME_LEN - 1) name[ni++] = c;
 424              		.loc 2 62 42 is_stmt 0 discriminator 1 view .LVU100
 425 0028 03F13002 		add	r2, r3, #48
 426              	.LVL35:
  62:My_Top/MC/My_Vofa.hpp ****                 else if (ni < VOFA_NAME_LEN - 1) name[ni++] = c;
 427              		.loc 2 62 42 discriminator 1 view .LVU101
 428 002c 6A44     		add	r2, sp, r2
 429 002e 02F81C0C 		strb	r0, [r2, #-28]
ARM GAS  /tmp/ccTpYRRI.s 			page 11


 430              	.LVL36:
  62:My_Top/MC/My_Vofa.hpp ****                 else if (ni < VOFA_NAME_LEN - 1) name[ni++] = c;
 431              		.loc 2 62 50 is_stmt 1 view .LVU102
  62:My_Top/MC/My_Vofa.hpp ****                 else if (ni < VOFA_NAME_LEN - 1) name[ni++] = c;
 432              		.loc 2 62 57 is_stmt 0 discriminator 1 view .LVU103
 433 0032 0120     		movs	r0, #1
 434 0034 0BE0     		b	.L28
 435              	.LVL37:
 436              	.L26:
  62:My_Top/MC/My_Vofa.hpp ****                 else if (ni < VOFA_NAME_LEN - 1) name[ni++] = c;
 437              		.loc 2 62 57 discriminator 1 view .LVU104
 438              	.LBE14:
 439              	.LBE13:
 440              	.LBE22:
  65:My_Top/MC/My_Vofa.hpp ****                     val[vi] = '\0';
 441              		.loc 2 65 17 is_stmt 1 view .LVU105
 442              	.LBB23:
 443              	.LBB20:
 444              	.LBB18:
 445              	.LBB15:
 446 0036 0A2A     		cmp	r2, #10
 447 0038 1FD0     		beq	.L33
  71:My_Top/MC/My_Vofa.hpp ****             }
 448              		.loc 2 71 24 view .LVU106
 449 003a 0E29     		cmp	r1, #14
 450 003c 07D8     		bhi	.L28
  71:My_Top/MC/My_Vofa.hpp ****             }
 451              		.loc 2 71 37 discriminator 1 view .LVU107
  71:My_Top/MC/My_Vofa.hpp ****             }
 452              		.loc 2 71 43 is_stmt 0 discriminator 1 view .LVU108
 453 003e 01F1010C 		add	ip, r1, #1
 454              	.LVL38:
  71:My_Top/MC/My_Vofa.hpp ****             }
 455              		.loc 2 71 47 discriminator 1 view .LVU109
 456 0042 3031     		adds	r1, r1, #48
 457 0044 6944     		add	r1, sp, r1
 458 0046 01F82C2C 		strb	r2, [r1, #-44]
  71:My_Top/MC/My_Vofa.hpp ****             }
 459              		.loc 2 71 43 discriminator 1 view .LVU110
 460 004a 5FFA8CF1 		uxtb	r1, ip
 461              	.LVL39:
 462              	.L28:
  71:My_Top/MC/My_Vofa.hpp ****             }
 463              		.loc 2 71 43 discriminator 1 view .LVU111
 464              	.LBE15:
 465              	.LBE18:
 466              	.LBE20:
  59:My_Top/MC/My_Vofa.hpp ****             char c = (char)rx_buf[i];
 467              		.loc 2 59 9 is_stmt 1 discriminator 2 view .LVU112
 468 004e 0134     		adds	r4, r4, #1
 469              	.LVL40:
  59:My_Top/MC/My_Vofa.hpp ****             char c = (char)rx_buf[i];
 470              		.loc 2 59 9 is_stmt 0 discriminator 2 view .LVU113
 471 0050 A4B2     		uxth	r4, r4
 472              	.LVL41:
 473              	.L25:
  59:My_Top/MC/My_Vofa.hpp ****             char c = (char)rx_buf[i];
ARM GAS  /tmp/ccTpYRRI.s 			page 12


 474              		.loc 2 59 32 is_stmt 1 discriminator 1 view .LVU114
  59:My_Top/MC/My_Vofa.hpp ****             char c = (char)rx_buf[i];
 475              		.loc 2 59 34 is_stmt 0 discriminator 1 view .LVU115
 476 0052 B5F88020 		ldrh	r2, [r5, #128]
  59:My_Top/MC/My_Vofa.hpp ****             char c = (char)rx_buf[i];
 477              		.loc 2 59 32 discriminator 1 view .LVU116
 478 0056 A242     		cmp	r2, r4
 479 0058 33D9     		bls	.L34
 480              	.LBB21:
  60:My_Top/MC/My_Vofa.hpp ****             if (!in_val) {                                // иҜ»еҸӮж•°еҗҚйҳ¶ж®ө
 481              		.loc 2 60 13 is_stmt 1 view .LVU117
  60:My_Top/MC/My_Vofa.hpp ****             if (!in_val) {                                // иҜ»еҸӮж•°еҗҚйҳ¶ж®ө
 482              		.loc 2 60 18 is_stmt 0 view .LVU118
 483 005a 2A5D     		ldrb	r2, [r5, r4]	@ zero_extendqisi2
 484              	.LVL42:
  61:My_Top/MC/My_Vofa.hpp ****                 if (c == ':') { name[ni] = '\0'; in_val = true; } // йҒҮеҲ°':'еҲҮжҚў
 485              		.loc 2 61 13 is_stmt 1 view .LVU119
 486              	.LBB19:
 487 005c 0028     		cmp	r0, #0
 488 005e EAD1     		bne	.L26
  62:My_Top/MC/My_Vofa.hpp ****                 else if (ni < VOFA_NAME_LEN - 1) name[ni++] = c;
 489              		.loc 2 62 17 view .LVU120
 490 0060 3A2A     		cmp	r2, #58
 491 0062 E1D0     		beq	.L35
  63:My_Top/MC/My_Vofa.hpp ****             } else {                                      // иҜ»еҸӮж•°еҖјйҳ¶ж®ө
 492              		.loc 2 63 22 view .LVU121
 493 0064 172B     		cmp	r3, #23
 494 0066 F2D8     		bhi	.L28
  63:My_Top/MC/My_Vofa.hpp ****             } else {                                      // иҜ»еҸӮж•°еҖјйҳ¶ж®ө
 495              		.loc 2 63 50 discriminator 1 view .LVU122
  63:My_Top/MC/My_Vofa.hpp ****             } else {                                      // иҜ»еҸӮж•°еҖјйҳ¶ж®ө
 496              		.loc 2 63 57 is_stmt 0 discriminator 1 view .LVU123
 497 0068 03F1010C 		add	ip, r3, #1
 498              	.LVL43:
  63:My_Top/MC/My_Vofa.hpp ****             } else {                                      // иҜ»еҸӮж•°еҖјйҳ¶ж®ө
 499              		.loc 2 63 61 discriminator 1 view .LVU124
 500 006c 3033     		adds	r3, r3, #48
 501 006e 6B44     		add	r3, sp, r3
 502 0070 03F81C2C 		strb	r2, [r3, #-28]
  63:My_Top/MC/My_Vofa.hpp ****             } else {                                      // иҜ»еҸӮж•°еҖјйҳ¶ж®ө
 503              		.loc 2 63 57 discriminator 1 view .LVU125
 504 0074 5FFA8CF3 		uxtb	r3, ip
 505 0078 E9E7     		b	.L28
 506              	.LVL44:
 507              	.L33:
 508              	.LBB17:
 509              	.LBB16:
  66:My_Top/MC/My_Vofa.hpp ****                     vofa_param_t *p = _find(name);       // жҹҘиЎЁ  p жҢҮеҗ‘ params
 510              		.loc 2 66 21 is_stmt 1 view .LVU126
  66:My_Top/MC/My_Vofa.hpp ****                     vofa_param_t *p = _find(name);       // жҹҘиЎЁ  p жҢҮеҗ‘ params
 511              		.loc 2 66 29 is_stmt 0 view .LVU127
 512 007a 01F13003 		add	r3, r1, #48
 513              	.LVL45:
  66:My_Top/MC/My_Vofa.hpp ****                     vofa_param_t *p = _find(name);       // жҹҘиЎЁ  p жҢҮеҗ‘ params
 514              		.loc 2 66 29 view .LVU128
 515 007e 0DEB0301 		add	r1, sp, r3
 516              	.LVL46:
ARM GAS  /tmp/ccTpYRRI.s 			page 13


  66:My_Top/MC/My_Vofa.hpp ****                     vofa_param_t *p = _find(name);       // жҹҘиЎЁ  p жҢҮеҗ‘ params
 517              		.loc 2 66 29 view .LVU129
 518 0082 0023     		movs	r3, #0
 519 0084 01F82C3C 		strb	r3, [r1, #-44]
  67:My_Top/MC/My_Vofa.hpp ****                     if (p) { p->value = atof(val); p->valid = true; } //е°Ҷеӯ—з¬ҰдёІиҪ¬жө®зӮ№ж•° еЎ
 520              		.loc 2 67 21 is_stmt 1 view .LVU130
  67:My_Top/MC/My_Vofa.hpp ****                     if (p) { p->value = atof(val); p->valid = true; } //е°Ҷеӯ—з¬ҰдёІиҪ¬жө®зӮ№ж•° еЎ
 521              		.loc 2 67 44 is_stmt 0 view .LVU131
 522 0088 05A9     		add	r1, sp, #20
 523 008a 2846     		mov	r0, r5
 524              	.LVL47:
  67:My_Top/MC/My_Vofa.hpp ****                     if (p) { p->value = atof(val); p->valid = true; } //е°Ҷеӯ—з¬ҰдёІиҪ¬жө®зӮ№ж•° еЎ
 525              		.loc 2 67 44 view .LVU132
 526 008c FFF7FEFF 		bl	_ZN7VoFA_Rx5_findEPKc
 527              	.LVL48:
  68:My_Top/MC/My_Vofa.hpp ****                     memset(name, 0, sizeof(name));       // йҮҚзҪ®пјҢеҮҶеӨҮдёӢдёҖжқЎ
 528              		.loc 2 68 21 is_stmt 1 view .LVU133
 529 0090 0646     		mov	r6, r0
 530 0092 50B1     		cbz	r0, .L30
  68:My_Top/MC/My_Vofa.hpp ****                     memset(name, 0, sizeof(name));       // йҮҚзҪ®пјҢеҮҶеӨҮдёӢдёҖжқЎ
 531              		.loc 2 68 30 discriminator 1 view .LVU134
  68:My_Top/MC/My_Vofa.hpp ****                     memset(name, 0, sizeof(name));       // йҮҚзҪ®пјҢеҮҶеӨҮдёӢдёҖжқЎ
 532              		.loc 2 68 45 is_stmt 0 discriminator 1 view .LVU135
 533 0094 01A8     		add	r0, sp, #4
 534              	.LVL49:
  68:My_Top/MC/My_Vofa.hpp ****                     memset(name, 0, sizeof(name));       // йҮҚзҪ®пјҢеҮҶеӨҮдёӢдёҖжқЎ
 535              		.loc 2 68 45 discriminator 1 view .LVU136
 536 0096 FFF7FEFF 		bl	atof
 537              	.LVL50:
 538 009a 51EC100B 		vmov	r0, r1, d0
 539 009e FFF7FEFF 		bl	__aeabi_d2f
 540              	.LVL51:
  68:My_Top/MC/My_Vofa.hpp ****                     memset(name, 0, sizeof(name));       // йҮҚзҪ®пјҢеҮҶеӨҮдёӢдёҖжқЎ
 541              		.loc 2 68 39 discriminator 1 view .LVU137
 542 00a2 F061     		str	r0, [r6, #28]	@ float
  68:My_Top/MC/My_Vofa.hpp ****                     memset(name, 0, sizeof(name));       // йҮҚзҪ®пјҢеҮҶеӨҮдёӢдёҖжқЎ
 543              		.loc 2 68 52 is_stmt 1 discriminator 1 view .LVU138
  68:My_Top/MC/My_Vofa.hpp ****                     memset(name, 0, sizeof(name));       // йҮҚзҪ®пјҢеҮҶеӨҮдёӢдёҖжқЎ
 544              		.loc 2 68 61 is_stmt 0 discriminator 1 view .LVU139
 545 00a4 0123     		movs	r3, #1
 546 00a6 86F82030 		strb	r3, [r6, #32]
 547              	.L30:
  69:My_Top/MC/My_Vofa.hpp ****                     ni = vi = 0; in_val = false; //жё…йӣ¶йҮҚж–°иҜ»еҗҚ
 548              		.loc 2 69 21 is_stmt 1 view .LVU140
  69:My_Top/MC/My_Vofa.hpp ****                     ni = vi = 0; in_val = false; //жё…йӣ¶йҮҚж–°иҜ»еҗҚ
 549              		.loc 2 69 27 is_stmt 0 view .LVU141
 550 00aa 0023     		movs	r3, #0
 551 00ac 0593     		str	r3, [sp, #20]
 552 00ae 0693     		str	r3, [sp, #24]
 553 00b0 0793     		str	r3, [sp, #28]
 554 00b2 0893     		str	r3, [sp, #32]
 555 00b4 0993     		str	r3, [sp, #36]
 556 00b6 0A93     		str	r3, [sp, #40]
 557 00b8 8DF82C30 		strb	r3, [sp, #44]
  70:My_Top/MC/My_Vofa.hpp ****                 } else if (vi < 15) val[vi++] = c;        // еӯҳеҖј
 558              		.loc 2 70 21 is_stmt 1 view .LVU142
 559              	.LVL52:
ARM GAS  /tmp/ccTpYRRI.s 			page 14


  70:My_Top/MC/My_Vofa.hpp ****                 } else if (vi < 15) val[vi++] = c;        // еӯҳеҖј
 560              		.loc 2 70 34 view .LVU143
  70:My_Top/MC/My_Vofa.hpp ****                 } else if (vi < 15) val[vi++] = c;        // еӯҳеҖј
 561              		.loc 2 70 41 is_stmt 0 view .LVU144
 562 00bc 1846     		mov	r0, r3
  70:My_Top/MC/My_Vofa.hpp ****                 } else if (vi < 15) val[vi++] = c;        // еӯҳеҖј
 563              		.loc 2 70 29 view .LVU145
 564 00be 1946     		mov	r1, r3
 565              	.LBE16:
 566 00c0 C5E7     		b	.L28
 567              	.LVL53:
 568              	.L34:
  70:My_Top/MC/My_Vofa.hpp ****                 } else if (vi < 15) val[vi++] = c;        // еӯҳеҖј
 569              		.loc 2 70 29 view .LVU146
 570              	.LBE17:
 571              	.LBE19:
 572              	.LBE21:
 573              	.LBE23:
  75:My_Top/MC/My_Vofa.hpp **** 
 574              		.loc 2 75 5 view .LVU147
 575 00c2 0CB0     		add	sp, sp, #48
 576              		.cfi_def_cfa_offset 16
 577              		@ sp needed
 578 00c4 70BD     		pop	{r4, r5, r6, pc}
  75:My_Top/MC/My_Vofa.hpp **** 
 579              		.loc 2 75 5 view .LVU148
 580              		.cfi_endproc
 581              	.LFE346:
 583              		.text
 584              		.align	1
 585              		.global	_Z14vofa_sync_lastP9Vafa_data
 586              		.syntax unified
 587              		.thumb
 588              		.thumb_func
 590              	_Z14vofa_sync_lastP9Vafa_data:
 591              	.LVL54:
 592              	.LFB1367:
   1:My_Top/Task/Task_Vofa.cpp **** 
   2:My_Top/Task/Task_Vofa.cpp **** #include "FreeRTOS.h"
   3:My_Top/Task/Task_Vofa.cpp **** #include "task.h"
   4:My_Top/Task/Task_Vofa.cpp **** #include "My_Vofa.hpp"
   5:My_Top/Task/Task_Vofa.cpp **** #include "MC_Serial.hpp"
   6:My_Top/Task/Task_Vofa.cpp **** #include "DcMotor_ClosedLoop.hpp"
   7:My_Top/Task/Task_Vofa.cpp **** #include "uorb.hpp"
   8:My_Top/Task/Task_Vofa.cpp **** #include "task_topics.h"
   9:My_Top/Task/Task_Vofa.cpp **** 
  10:My_Top/Task/Task_Vofa.cpp **** 
  11:My_Top/Task/Task_Vofa.cpp **** struct Vafa_data
  12:My_Top/Task/Task_Vofa.cpp **** { // и§ЈжһҗеҗҺзҡ„еҸӮж•°еҖј
  13:My_Top/Task/Task_Vofa.cpp ****     uint8_t len;
  14:My_Top/Task/Task_Vofa.cpp ****     float val[VOFA_PARAM_MAX];
  15:My_Top/Task/Task_Vofa.cpp ****     float last_val[VOFA_PARAM_MAX]; // и®°еҪ•дёҠж¬Ўзҡ„еҖј
  16:My_Top/Task/Task_Vofa.cpp ****     bool changed[VOFA_PARAM_MAX];   // ж Үи®°е“ӘдёӘеҸҳдәҶ
  17:My_Top/Task/Task_Vofa.cpp **** };
  18:My_Top/Task/Task_Vofa.cpp **** 
  19:My_Top/Task/Task_Vofa.cpp **** /* еҗҢжӯҘ last_val = valпјҢз”ЁдәҺеҲқе§ӢеҢ–жҲ–еҶҷе…ҘеҗҺ */
  20:My_Top/Task/Task_Vofa.cpp **** void vofa_sync_last(Vafa_data *d)
ARM GAS  /tmp/ccTpYRRI.s 			page 15


  21:My_Top/Task/Task_Vofa.cpp **** {
 593              		.loc 1 21 1 is_stmt 1 view -0
 594              		.cfi_startproc
 595              		@ args = 0, pretend = 0, frame = 0
 596              		@ frame_needed = 0, uses_anonymous_args = 0
 597              		@ link register save eliminated.
  22:My_Top/Task/Task_Vofa.cpp ****     for (uint8_t i = 0; i < d->len; i++)
 598              		.loc 1 22 5 view .LVU150
 599              	.LBB24:
 600              		.loc 1 22 18 is_stmt 0 view .LVU151
 601 0000 0023     		movs	r3, #0
 602              		.loc 1 22 5 view .LVU152
 603 0002 0DE0     		b	.L37
 604              	.LVL55:
 605              	.L38:
  23:My_Top/Task/Task_Vofa.cpp ****     {
  24:My_Top/Task/Task_Vofa.cpp ****         d->last_val[i] = d->val[i];
 606              		.loc 1 24 9 is_stmt 1 view .LVU153
 607              		.loc 1 24 34 is_stmt 0 view .LVU154
 608 0004 00EB8302 		add	r2, r0, r3, lsl #2
 609 0008 5168     		ldr	r1, [r2, #4]	@ float
 610              		.loc 1 24 24 view .LVU155
 611 000a 03F11E02 		add	r2, r3, #30
 612 000e 00EB8202 		add	r2, r0, r2, lsl #2
 613 0012 5160     		str	r1, [r2, #4]	@ float
  25:My_Top/Task/Task_Vofa.cpp ****         d->changed[i] = false;
 614              		.loc 1 25 9 is_stmt 1 view .LVU156
 615              		.loc 1 25 23 is_stmt 0 view .LVU157
 616 0014 C218     		adds	r2, r0, r3
 617 0016 0021     		movs	r1, #0
 618 0018 82F8F410 		strb	r1, [r2, #244]
  22:My_Top/Task/Task_Vofa.cpp ****     for (uint8_t i = 0; i < d->len; i++)
 619              		.loc 1 22 5 is_stmt 1 discriminator 3 view .LVU158
 620 001c 0133     		adds	r3, r3, #1
 621              	.LVL56:
  22:My_Top/Task/Task_Vofa.cpp ****     for (uint8_t i = 0; i < d->len; i++)
 622              		.loc 1 22 5 is_stmt 0 discriminator 3 view .LVU159
 623 001e DBB2     		uxtb	r3, r3
 624              	.LVL57:
 625              	.L37:
  22:My_Top/Task/Task_Vofa.cpp ****     for (uint8_t i = 0; i < d->len; i++)
 626              		.loc 1 22 27 is_stmt 1 discriminator 1 view .LVU160
  22:My_Top/Task/Task_Vofa.cpp ****     for (uint8_t i = 0; i < d->len; i++)
 627              		.loc 1 22 32 is_stmt 0 discriminator 1 view .LVU161
 628 0020 0278     		ldrb	r2, [r0]	@ zero_extendqisi2
  22:My_Top/Task/Task_Vofa.cpp ****     for (uint8_t i = 0; i < d->len; i++)
 629              		.loc 1 22 27 discriminator 1 view .LVU162
 630 0022 9A42     		cmp	r2, r3
 631 0024 EED8     		bhi	.L38
 632              	.LBE24:
  26:My_Top/Task/Task_Vofa.cpp ****     }
  27:My_Top/Task/Task_Vofa.cpp **** }
 633              		.loc 1 27 1 view .LVU163
 634 0026 7047     		bx	lr
 635              		.cfi_endproc
 636              	.LFE1367:
 638              		.align	1
ARM GAS  /tmp/ccTpYRRI.s 			page 16


 639              		.global	_Z14vofa_data_initv
 640              		.syntax unified
 641              		.thumb
 642              		.thumb_func
 644              	_Z14vofa_data_initv:
 645              	.LFB1368:
  28:My_Top/Task/Task_Vofa.cpp **** 
  29:My_Top/Task/Task_Vofa.cpp **** const char *IA_Names[] = {"iq_p", "iq_i", "id_p", "id_i"};
  30:My_Top/Task/Task_Vofa.cpp **** const char *Speed_Names[] = {"speed_p", "speed_i", "speed_d"};
  31:My_Top/Task/Task_Vofa.cpp **** const char *Target_Names[] = {"Target_Iq", "Target_Id", "Target_speed", "Target_location1", "Target
  32:My_Top/Task/Task_Vofa.cpp **** const char *Location_Names[] = {"location_p", "location_i", "location_d"};
  33:My_Top/Task/Task_Vofa.cpp **** const char *Button_Names[] = {"motor_selection", "motor_fre", "motor_duty"}; // з”өжңәйҖүжӢ©12 / з”
  34:My_Top/Task/Task_Vofa.cpp **** 
  35:My_Top/Task/Task_Vofa.cpp **** Vafa_data Vafa_IA;
  36:My_Top/Task/Task_Vofa.cpp **** Vafa_data Vafa_Speed;
  37:My_Top/Task/Task_Vofa.cpp **** Vafa_data Vafa_Target;
  38:My_Top/Task/Task_Vofa.cpp **** Vafa_data Vafa_Location;
  39:My_Top/Task/Task_Vofa.cpp **** Vafa_data Vafa_Button;
  40:My_Top/Task/Task_Vofa.cpp **** 
  41:My_Top/Task/Task_Vofa.cpp **** void vofa_data_init()
  42:My_Top/Task/Task_Vofa.cpp **** {
 646              		.loc 1 42 1 is_stmt 1 view -0
 647              		.cfi_startproc
 648              		@ args = 0, pretend = 0, frame = 0
 649              		@ frame_needed = 0, uses_anonymous_args = 0
 650 0028 2DE9F047 		push	{r4, r5, r6, r7, r8, r9, r10, lr}
 651              		.cfi_def_cfa_offset 32
 652              		.cfi_offset 4, -32
 653              		.cfi_offset 5, -28
 654              		.cfi_offset 6, -24
 655              		.cfi_offset 7, -20
 656              		.cfi_offset 8, -16
 657              		.cfi_offset 9, -12
 658              		.cfi_offset 10, -8
 659              		.cfi_offset 14, -4
 660 002c 82B0     		sub	sp, sp, #8
 661              		.cfi_def_cfa_offset 40
  43:My_Top/Task/Task_Vofa.cpp ****     Vafa_IA.len = sizeof(IA_Names) / sizeof(IA_Names[0]);
 662              		.loc 1 43 5 view .LVU165
 663              		.loc 1 43 17 is_stmt 0 view .LVU166
 664 002e 2E4C     		ldr	r4, .L41
 665 0030 0422     		movs	r2, #4
 666 0032 2270     		strb	r2, [r4]
  44:My_Top/Task/Task_Vofa.cpp ****     Vafa_Speed.len = sizeof(Speed_Names) / sizeof(IA_Names[0]);
 667              		.loc 1 44 5 is_stmt 1 view .LVU167
 668              		.loc 1 44 20 is_stmt 0 view .LVU168
 669 0034 0323     		movs	r3, #3
 670 0036 84F81431 		strb	r3, [r4, #276]
  45:My_Top/Task/Task_Vofa.cpp ****     Vafa_Target.len = sizeof(Target_Names) / sizeof(Target_Names[0]);
 671              		.loc 1 45 5 is_stmt 1 view .LVU169
 672              		.loc 1 45 21 is_stmt 0 view .LVU170
 673 003a 0521     		movs	r1, #5
 674 003c 84F82812 		strb	r1, [r4, #552]
  46:My_Top/Task/Task_Vofa.cpp ****     Vafa_Location.len = sizeof(Location_Names) / sizeof(Location_Names[0]);
 675              		.loc 1 46 5 is_stmt 1 view .LVU171
 676              		.loc 1 46 23 is_stmt 0 view .LVU172
 677 0040 84F83C33 		strb	r3, [r4, #828]
ARM GAS  /tmp/ccTpYRRI.s 			page 17


  47:My_Top/Task/Task_Vofa.cpp ****     Vafa_Button.len = sizeof(Button_Names) / sizeof(Button_Names[0]);
 678              		.loc 1 47 5 is_stmt 1 view .LVU173
 679              		.loc 1 47 21 is_stmt 0 view .LVU174
 680 0044 84F85034 		strb	r3, [r4, #1104]
  48:My_Top/Task/Task_Vofa.cpp ****     // з¬¬дёҖж¬ЎиҜ»еҸ–еҗҺеҗҢжӯҘ last_valпјҢйҒҝе…ҚиҜҜеҲӨ */
  49:My_Top/Task/Task_Vofa.cpp ****     vofa1.vofa_get_batch(&vofa1, IA_Names, Vafa_IA.val, Vafa_IA.len); // иҜ»еҲ°зҡ„йғҪжҳҜ0
 681              		.loc 1 49 5 is_stmt 1 view .LVU175
 682              		.loc 1 49 25 is_stmt 0 view .LVU176
 683 0048 284E     		ldr	r6, .L41+4
 684 004a 294D     		ldr	r5, .L41+8
 685 004c 0092     		str	r2, [sp]
 686 004e A318     		adds	r3, r4, r2
 687 0050 3246     		mov	r2, r6
 688 0052 2946     		mov	r1, r5
 689 0054 2846     		mov	r0, r5
 690 0056 FFF7FEFF 		bl	_ZN7VoFA_Rx14vofa_get_batchEPS_PPKcPfh
 691              	.LVL58:
  50:My_Top/Task/Task_Vofa.cpp ****     vofa1.vofa_get_batch(&vofa1, Speed_Names, Vafa_Speed.val, Vafa_Speed.len);
 692              		.loc 1 50 5 is_stmt 1 view .LVU177
 693              		.loc 1 50 25 is_stmt 0 view .LVU178
 694 005a 04F58A7A 		add	r10, r4, #276
 695 005e 94F81431 		ldrb	r3, [r4, #276]	@ zero_extendqisi2
 696 0062 0093     		str	r3, [sp]
 697 0064 04F58C73 		add	r3, r4, #280
 698 0068 06F11002 		add	r2, r6, #16
 699 006c 2946     		mov	r1, r5
 700 006e 2846     		mov	r0, r5
 701 0070 FFF7FEFF 		bl	_ZN7VoFA_Rx14vofa_get_batchEPS_PPKcPfh
 702              	.LVL59:
  51:My_Top/Task/Task_Vofa.cpp ****     vofa1.vofa_get_batch(&vofa1, Target_Names, Vafa_Target.val, Vafa_Target.len);
 703              		.loc 1 51 5 is_stmt 1 view .LVU179
 704              		.loc 1 51 25 is_stmt 0 view .LVU180
 705 0074 04F50A79 		add	r9, r4, #552
 706 0078 94F82832 		ldrb	r3, [r4, #552]	@ zero_extendqisi2
 707 007c 0093     		str	r3, [sp]
 708 007e 04F50B73 		add	r3, r4, #556
 709 0082 06F11C02 		add	r2, r6, #28
 710 0086 2946     		mov	r1, r5
 711 0088 2846     		mov	r0, r5
 712 008a FFF7FEFF 		bl	_ZN7VoFA_Rx14vofa_get_batchEPS_PPKcPfh
 713              	.LVL60:
  52:My_Top/Task/Task_Vofa.cpp ****     vofa1.vofa_get_batch(&vofa1, Location_Names, Vafa_Location.val, Vafa_Location.len);
 714              		.loc 1 52 5 is_stmt 1 view .LVU181
 715              		.loc 1 52 25 is_stmt 0 view .LVU182
 716 008e 04F54F78 		add	r8, r4, #828
 717 0092 94F83C33 		ldrb	r3, [r4, #828]	@ zero_extendqisi2
 718 0096 0093     		str	r3, [sp]
 719 0098 04F55073 		add	r3, r4, #832
 720 009c 06F13002 		add	r2, r6, #48
 721 00a0 2946     		mov	r1, r5
 722 00a2 2846     		mov	r0, r5
 723 00a4 FFF7FEFF 		bl	_ZN7VoFA_Rx14vofa_get_batchEPS_PPKcPfh
 724              	.LVL61:
  53:My_Top/Task/Task_Vofa.cpp ****     vofa1.vofa_get_batch(&vofa1, Button_Names, Vafa_Button.val, Vafa_Button.len);
 725              		.loc 1 53 5 is_stmt 1 view .LVU183
 726              		.loc 1 53 25 is_stmt 0 view .LVU184
 727 00a8 04F58A67 		add	r7, r4, #1104
ARM GAS  /tmp/ccTpYRRI.s 			page 18


 728 00ac 94F85034 		ldrb	r3, [r4, #1104]	@ zero_extendqisi2
 729 00b0 0093     		str	r3, [sp]
 730 00b2 04F25443 		addw	r3, r4, #1108
 731 00b6 06F13C02 		add	r2, r6, #60
 732 00ba 2946     		mov	r1, r5
 733 00bc 2846     		mov	r0, r5
 734 00be FFF7FEFF 		bl	_ZN7VoFA_Rx14vofa_get_batchEPS_PPKcPfh
 735              	.LVL62:
  54:My_Top/Task/Task_Vofa.cpp **** 
  55:My_Top/Task/Task_Vofa.cpp ****     vofa_sync_last(&Vafa_IA);
 736              		.loc 1 55 5 is_stmt 1 view .LVU185
 737              		.loc 1 55 19 is_stmt 0 view .LVU186
 738 00c2 2046     		mov	r0, r4
 739 00c4 FFF7FEFF 		bl	_Z14vofa_sync_lastP9Vafa_data
 740              	.LVL63:
  56:My_Top/Task/Task_Vofa.cpp ****     vofa_sync_last(&Vafa_Speed);
 741              		.loc 1 56 5 is_stmt 1 view .LVU187
 742              		.loc 1 56 19 is_stmt 0 view .LVU188
 743 00c8 5046     		mov	r0, r10
 744 00ca FFF7FEFF 		bl	_Z14vofa_sync_lastP9Vafa_data
 745              	.LVL64:
  57:My_Top/Task/Task_Vofa.cpp ****     vofa_sync_last(&Vafa_Target);
 746              		.loc 1 57 5 is_stmt 1 view .LVU189
 747              		.loc 1 57 19 is_stmt 0 view .LVU190
 748 00ce 4846     		mov	r0, r9
 749 00d0 FFF7FEFF 		bl	_Z14vofa_sync_lastP9Vafa_data
 750              	.LVL65:
  58:My_Top/Task/Task_Vofa.cpp ****     vofa_sync_last(&Vafa_Location);
 751              		.loc 1 58 5 is_stmt 1 view .LVU191
 752              		.loc 1 58 19 is_stmt 0 view .LVU192
 753 00d4 4046     		mov	r0, r8
 754 00d6 FFF7FEFF 		bl	_Z14vofa_sync_lastP9Vafa_data
 755              	.LVL66:
  59:My_Top/Task/Task_Vofa.cpp ****     vofa_sync_last(&Vafa_Button);
 756              		.loc 1 59 5 is_stmt 1 view .LVU193
 757              		.loc 1 59 19 is_stmt 0 view .LVU194
 758 00da 3846     		mov	r0, r7
 759 00dc FFF7FEFF 		bl	_Z14vofa_sync_lastP9Vafa_data
 760              	.LVL67:
  60:My_Top/Task/Task_Vofa.cpp **** }
 761              		.loc 1 60 1 view .LVU195
 762 00e0 02B0     		add	sp, sp, #8
 763              		.cfi_def_cfa_offset 32
 764              		@ sp needed
 765 00e2 BDE8F087 		pop	{r4, r5, r6, r7, r8, r9, r10, pc}
 766              	.L42:
 767 00e6 00BF     		.align	2
 768              	.L41:
 769 00e8 00000000 		.word	.LANCHOR0
 770 00ec 00000000 		.word	.LANCHOR1
 771 00f0 00000000 		.word	vofa1
 772              		.cfi_endproc
 773              	.LFE1368:
 775              		.section	.rodata.str1.4,"aMS",%progbits,1
 776              		.align	2
 777              	.LC0:
 778 0000 776F726B 		.ascii	"work_mode\000"
ARM GAS  /tmp/ccTpYRRI.s 			page 19


 778      5F6D6F64 
 778      6500
 779              		.text
 780              		.align	1
 781              		.global	_Z16vofa_update_modeP9Work_ModeS_P8DC_Motor
 782              		.syntax unified
 783              		.thumb
 784              		.thumb_func
 786              	_Z16vofa_update_modeP9Work_ModeS_P8DC_Motor:
 787              	.LVL68:
 788              	.LFB1369:
  61:My_Top/Task/Task_Vofa.cpp **** 
  62:My_Top/Task/Task_Vofa.cpp **** /* жЁЎејҸеҲҮжҚўдё“з”ЁеҮҪж•° */
  63:My_Top/Task/Task_Vofa.cpp **** void vofa_update_mode(Work_Mode *target, Work_Mode default_val , DC_Motor* motor) // еҸӘеңЁеҖјеҸҳдә
  64:My_Top/Task/Task_Vofa.cpp **** {
 789              		.loc 1 64 1 is_stmt 1 view -0
 790              		.cfi_startproc
 791              		@ args = 0, pretend = 0, frame = 8
 792              		@ frame_needed = 0, uses_anonymous_args = 0
 793              		.loc 1 64 1 is_stmt 0 view .LVU197
 794 00f4 30B5     		push	{r4, r5, lr}
 795              		.cfi_def_cfa_offset 12
 796              		.cfi_offset 4, -12
 797              		.cfi_offset 5, -8
 798              		.cfi_offset 14, -4
 799 00f6 83B0     		sub	sp, sp, #12
 800              		.cfi_def_cfa_offset 24
 801 00f8 0546     		mov	r5, r0
 802 00fa 00EE101A 		vmov	s0, r1	@ int
 803 00fe 1446     		mov	r4, r2
  65:My_Top/Task/Task_Vofa.cpp ****     static Work_Mode last_mode = (Work_Mode)0; 
 804              		.loc 1 65 5 is_stmt 1 view .LVU198
  66:My_Top/Task/Task_Vofa.cpp ****     float val = vofa1.get("work_mode", (float)default_val);
 805              		.loc 1 66 5 view .LVU199
 806              		.loc 1 66 26 is_stmt 0 view .LVU200
 807 0100 B8EE400A 		vcvt.f32.u32	s0, s0
 808 0104 0C49     		ldr	r1, .L46
 809              	.LVL69:
 810              		.loc 1 66 26 view .LVU201
 811 0106 0D48     		ldr	r0, .L46+4
 812              	.LVL70:
 813              		.loc 1 66 26 view .LVU202
 814 0108 FFF7FEFF 		bl	_ZN7VoFA_Rx3getEPKcf
 815              	.LVL71:
  67:My_Top/Task/Task_Vofa.cpp ****     Work_Mode new_mode = (Work_Mode)((int)val);
 816              		.loc 1 67 5 is_stmt 1 view .LVU203
 817              		.loc 1 67 38 is_stmt 0 view .LVU204
 818 010c FDEEC07A 		vcvt.s32.f32	s15, s0
 819 0110 CDED017A 		vstr.32	s15, [sp, #4]	@ int
 820              		.loc 1 67 15 view .LVU205
 821 0114 9DF80430 		ldrb	r3, [sp, #4]	@ zero_extendqisi2
 822              	.LVL72:
  68:My_Top/Task/Task_Vofa.cpp **** 
  69:My_Top/Task/Task_Vofa.cpp ****     if (new_mode != last_mode)
 823              		.loc 1 69 5 is_stmt 1 view .LVU206
 824              		.loc 1 69 18 is_stmt 0 view .LVU207
 825 0118 094A     		ldr	r2, .L46+8
ARM GAS  /tmp/ccTpYRRI.s 			page 20


 826 011a 92F86425 		ldrb	r2, [r2, #1380]	@ zero_extendqisi2
 827              		.loc 1 69 5 view .LVU208
 828 011e 9A42     		cmp	r2, r3
 829 0120 07D0     		beq	.L43
  70:My_Top/Task/Task_Vofa.cpp ****     {
  71:My_Top/Task/Task_Vofa.cpp ****         *target = new_mode;
 830              		.loc 1 71 9 is_stmt 1 view .LVU209
 831              		.loc 1 71 17 is_stmt 0 view .LVU210
 832 0122 2B70     		strb	r3, [r5]
  72:My_Top/Task/Task_Vofa.cpp ****         last_mode = new_mode;
 833              		.loc 1 72 9 is_stmt 1 view .LVU211
 834              		.loc 1 72 19 is_stmt 0 view .LVU212
 835 0124 064A     		ldr	r2, .L46+8
 836 0126 82F86435 		strb	r3, [r2, #1380]
  73:My_Top/Task/Task_Vofa.cpp ****         if (motor != NULL)
 837              		.loc 1 73 9 is_stmt 1 view .LVU213
 838 012a 14B1     		cbz	r4, .L43
  74:My_Top/Task/Task_Vofa.cpp ****         {
  75:My_Top/Task/Task_Vofa.cpp ****             motor->My_DC_Motor_Reset();
 839              		.loc 1 75 13 view .LVU214
 840              		.loc 1 75 37 is_stmt 0 view .LVU215
 841 012c 2046     		mov	r0, r4
 842 012e FFF7FEFF 		bl	_ZN8DC_Motor17My_DC_Motor_ResetEv
 843              	.LVL73:
 844              	.L43:
  76:My_Top/Task/Task_Vofa.cpp ****         }
  77:My_Top/Task/Task_Vofa.cpp ****     }
  78:My_Top/Task/Task_Vofa.cpp **** }
 845              		.loc 1 78 1 view .LVU216
 846 0132 03B0     		add	sp, sp, #12
 847              		.cfi_def_cfa_offset 12
 848              		@ sp needed
 849 0134 30BD     		pop	{r4, r5, pc}
 850              	.LVL74:
 851              	.L47:
 852              		.loc 1 78 1 view .LVU217
 853 0136 00BF     		.align	2
 854              	.L46:
 855 0138 00000000 		.word	.LC0
 856 013c 00000000 		.word	vofa1
 857 0140 00000000 		.word	.LANCHOR0
 858              		.cfi_endproc
 859              	.LFE1369:
 861              		.align	1
 862              		.global	_Z22vofa_update_if_changedP9Vafa_datahPfP8DC_Motor
 863              		.syntax unified
 864              		.thumb
 865              		.thumb_func
 867              	_Z22vofa_update_if_changedP9Vafa_datahPfP8DC_Motor:
 868              	.LVL75:
 869              	.LFB1370:
  79:My_Top/Task/Task_Vofa.cpp **** 
  80:My_Top/Task/Task_Vofa.cpp **** 
  81:My_Top/Task/Task_Vofa.cpp **** 
  82:My_Top/Task/Task_Vofa.cpp **** void vofa_update_if_changed(Vafa_data *d, uint8_t idx, float *target,  DC_Motor* motor)
  83:My_Top/Task/Task_Vofa.cpp **** {
 870              		.loc 1 83 1 is_stmt 1 view -0
ARM GAS  /tmp/ccTpYRRI.s 			page 21


 871              		.cfi_startproc
 872              		@ args = 0, pretend = 0, frame = 0
 873              		@ frame_needed = 0, uses_anonymous_args = 0
 874              		.loc 1 83 1 is_stmt 0 view .LVU219
 875 0144 08B5     		push	{r3, lr}
 876              		.cfi_def_cfa_offset 8
 877              		.cfi_offset 3, -8
 878              		.cfi_offset 14, -4
 879 0146 8446     		mov	ip, r0
 880 0148 1846     		mov	r0, r3
 881              	.LVL76:
  84:My_Top/Task/Task_Vofa.cpp ****     if (!d->changed[idx]) return;// еҸӘеңЁеҖјеҸҳдәҶзҡ„ж—¶еҖҷ
 882              		.loc 1 84 5 is_stmt 1 view .LVU220
 883              		.loc 1 84 24 is_stmt 0 view .LVU221
 884 014a 0CEB0103 		add	r3, ip, r1
 885              	.LVL77:
 886              		.loc 1 84 24 view .LVU222
 887 014e 93F8F430 		ldrb	r3, [r3, #244]	@ zero_extendqisi2
 888              		.loc 1 84 5 view .LVU223
 889 0152 93B1     		cbz	r3, .L48
  85:My_Top/Task/Task_Vofa.cpp **** 
  86:My_Top/Task/Task_Vofa.cpp ****     *target = d->val[idx];      // еҶҷе…Ҙзӣ®ж Ү
 890              		.loc 1 86 5 is_stmt 1 view .LVU224
 891              		.loc 1 86 25 is_stmt 0 view .LVU225
 892 0154 0CEB8103 		add	r3, ip, r1, lsl #2
 893 0158 D3F804E0 		ldr	lr, [r3, #4]	@ float
 894              		.loc 1 86 13 view .LVU226
 895 015c C2F800E0 		str	lr, [r2]	@ float
  87:My_Top/Task/Task_Vofa.cpp **** 
  88:My_Top/Task/Task_Vofa.cpp ****     d->last_val[idx] = d->val[idx]; // жӣҙж–°last
 896              		.loc 1 88 5 is_stmt 1 view .LVU227
 897              		.loc 1 88 22 is_stmt 0 view .LVU228
 898 0160 01F11E03 		add	r3, r1, #30
 899 0164 0CEB8303 		add	r3, ip, r3, lsl #2
 900 0168 C3F804E0 		str	lr, [r3, #4]	@ float
  89:My_Top/Task/Task_Vofa.cpp ****     d->changed[idx] = false; // ж Үи®°ж— еҸҳеҢ–
 901              		.loc 1 89 5 is_stmt 1 view .LVU229
 902              		.loc 1 89 21 is_stmt 0 view .LVU230
 903 016c 8C44     		add	ip, ip, r1
 904              	.LVL78:
 905              		.loc 1 89 21 view .LVU231
 906 016e 0023     		movs	r3, #0
 907 0170 8CF8F430 		strb	r3, [ip, #244]
  90:My_Top/Task/Task_Vofa.cpp **** 
  91:My_Top/Task/Task_Vofa.cpp ****     if (motor == NULL) return; // еҰӮжһңжІЎжңүжҢҮе®ҡз”өжңәпјҢдёҚеӨҚдҪҚ
 908              		.loc 1 91 5 is_stmt 1 view .LVU232
 909 0174 08B1     		cbz	r0, .L48
  92:My_Top/Task/Task_Vofa.cpp ****     motor->My_DC_Motor_Reset();
 910              		.loc 1 92 5 view .LVU233
 911              		.loc 1 92 29 is_stmt 0 view .LVU234
 912 0176 FFF7FEFF 		bl	_ZN8DC_Motor17My_DC_Motor_ResetEv
 913              	.LVL79:
 914              	.L48:
  93:My_Top/Task/Task_Vofa.cpp **** 
  94:My_Top/Task/Task_Vofa.cpp **** }
 915              		.loc 1 94 1 view .LVU235
 916 017a 08BD     		pop	{r3, pc}
ARM GAS  /tmp/ccTpYRRI.s 			page 22


 917              		.cfi_endproc
 918              	.LFE1370:
 920              		.align	1
 921              		.global	_Z19vofa_detect_changesP9Vafa_data
 922              		.syntax unified
 923              		.thumb
 924              		.thumb_func
 926              	_Z19vofa_detect_changesP9Vafa_data:
 927              	.LVL80:
 928              	.LFB1371:
  95:My_Top/Task/Task_Vofa.cpp **** 
  96:My_Top/Task/Task_Vofa.cpp **** 
  97:My_Top/Task/Task_Vofa.cpp **** 
  98:My_Top/Task/Task_Vofa.cpp **** 
  99:My_Top/Task/Task_Vofa.cpp **** void vofa_detect_changes(Vafa_data *d) // жЈҖжөӢж•°жҚ®зҡ„еҸҳеҢ– еҶҷе…Ҙж Үеҝ—дҪҚеҲ°changed
 100:My_Top/Task/Task_Vofa.cpp **** {
 929              		.loc 1 100 1 is_stmt 1 view -0
 930              		.cfi_startproc
 931              		@ args = 0, pretend = 0, frame = 0
 932              		@ frame_needed = 0, uses_anonymous_args = 0
 933              		@ link register save eliminated.
 101:My_Top/Task/Task_Vofa.cpp ****     for (uint8_t i = 0; i < d->len; i++)
 934              		.loc 1 101 5 view .LVU237
 935              	.LBB25:
 936              		.loc 1 101 18 is_stmt 0 view .LVU238
 937 017c 0023     		movs	r3, #0
 938              		.loc 1 101 5 view .LVU239
 939 017e 15E0     		b	.L52
 940              	.LVL81:
 941              	.L53:
 102:My_Top/Task/Task_Vofa.cpp ****     {
 103:My_Top/Task/Task_Vofa.cpp ****         d->changed[i] = (d->val[i] != d->last_val[i]);
 942              		.loc 1 103 9 is_stmt 1 view .LVU240
 943              		.loc 1 103 34 is_stmt 0 view .LVU241
 944 0180 00EB8302 		add	r2, r0, r3, lsl #2
 945 0184 92ED017A 		vldr.32	s14, [r2, #4]
 946              		.loc 1 103 52 view .LVU242
 947 0188 03F11E02 		add	r2, r3, #30
 948 018c 00EB8202 		add	r2, r0, r2, lsl #2
 949 0190 D2ED017A 		vldr.32	s15, [r2, #4]
 950              		.loc 1 103 36 view .LVU243
 951 0194 B4EE677A 		vcmp.f32	s14, s15
 952 0198 F1EE10FA 		vmrs	APSR_nzcv, FPSCR
 953 019c 14BF     		ite	ne
 954 019e 0121     		movne	r1, #1
 955 01a0 0021     		moveq	r1, #0
 956              		.loc 1 103 23 view .LVU244
 957 01a2 C218     		adds	r2, r0, r3
 958 01a4 82F8F410 		strb	r1, [r2, #244]
 101:My_Top/Task/Task_Vofa.cpp ****     for (uint8_t i = 0; i < d->len; i++)
 959              		.loc 1 101 5 is_stmt 1 discriminator 3 view .LVU245
 960 01a8 0133     		adds	r3, r3, #1
 961              	.LVL82:
 101:My_Top/Task/Task_Vofa.cpp ****     for (uint8_t i = 0; i < d->len; i++)
 962              		.loc 1 101 5 is_stmt 0 discriminator 3 view .LVU246
 963 01aa DBB2     		uxtb	r3, r3
 964              	.LVL83:
ARM GAS  /tmp/ccTpYRRI.s 			page 23


 965              	.L52:
 101:My_Top/Task/Task_Vofa.cpp ****     for (uint8_t i = 0; i < d->len; i++)
 966              		.loc 1 101 27 is_stmt 1 discriminator 1 view .LVU247
 101:My_Top/Task/Task_Vofa.cpp ****     for (uint8_t i = 0; i < d->len; i++)
 967              		.loc 1 101 32 is_stmt 0 discriminator 1 view .LVU248
 968 01ac 0278     		ldrb	r2, [r0]	@ zero_extendqisi2
 101:My_Top/Task/Task_Vofa.cpp ****     for (uint8_t i = 0; i < d->len; i++)
 969              		.loc 1 101 27 discriminator 1 view .LVU249
 970 01ae 9A42     		cmp	r2, r3
 971 01b0 E6D8     		bhi	.L53
 972              	.LBE25:
 104:My_Top/Task/Task_Vofa.cpp ****     }
 105:My_Top/Task/Task_Vofa.cpp **** }
 973              		.loc 1 105 1 view .LVU250
 974 01b2 7047     		bx	lr
 975              		.cfi_endproc
 976              	.LFE1371:
 978              		.align	1
 979              		.global	_Z11Task_VofaRxPv
 980              		.syntax unified
 981              		.thumb
 982              		.thumb_func
 984              	_Z11Task_VofaRxPv:
 985              	.LVL84:
 986              	.LFB1372:
 106:My_Top/Task/Task_Vofa.cpp **** 
 107:My_Top/Task/Task_Vofa.cpp **** void Task_VofaRx(void *argument)
 108:My_Top/Task/Task_Vofa.cpp **** { 
 987              		.loc 1 108 1 is_stmt 1 view -0
 988              		.cfi_startproc
 989              		@ args = 0, pretend = 0, frame = 144
 990              		@ frame_needed = 0, uses_anonymous_args = 0
 991              		.loc 1 108 1 is_stmt 0 view .LVU252
 992 01b4 2DE9F047 		push	{r4, r5, r6, r7, r8, r9, r10, lr}
 993              		.cfi_def_cfa_offset 32
 994              		.cfi_offset 4, -32
 995              		.cfi_offset 5, -28
 996              		.cfi_offset 6, -24
 997              		.cfi_offset 7, -20
 998              		.cfi_offset 8, -16
 999              		.cfi_offset 9, -12
 1000              		.cfi_offset 10, -8
 1001              		.cfi_offset 14, -4
 1002 01b8 A6B0     		sub	sp, sp, #152
 1003              		.cfi_def_cfa_offset 184
 109:My_Top/Task/Task_Vofa.cpp ****     static float Motor_Select = 0.0; // з”өжңәйҖүжӢ©1-4
 1004              		.loc 1 109 5 is_stmt 1 view .LVU253
 110:My_Top/Task/Task_Vofa.cpp ****     static uint8_t last_idx = 0; // дёҠдёҖж¬Ўзҡ„з”өжңәйҖүжӢ©
 1005              		.loc 1 110 5 view .LVU254
 111:My_Top/Task/Task_Vofa.cpp ****     VofaRxFrame_t frame;   // йҳҹеҲ—жҺҘж”¶зј“еҶІеҢә
 1006              		.loc 1 111 5 view .LVU255
 112:My_Top/Task/Task_Vofa.cpp **** 
 113:My_Top/Task/Task_Vofa.cpp ****     vofa_data_init();
 1007              		.loc 1 113 5 view .LVU256
 1008              		.loc 1 113 19 is_stmt 0 view .LVU257
 1009 01ba FFF7FEFF 		bl	_Z14vofa_data_initv
 1010              	.LVL85:
ARM GAS  /tmp/ccTpYRRI.s 			page 24


 1011              		.loc 1 113 19 view .LVU258
 1012 01be 9EE0     		b	.L55
 1013              	.LVL86:
 1014              	.L70:
 1015              	.LBB26:
 114:My_Top/Task/Task_Vofa.cpp ****     
 115:My_Top/Task/Task_Vofa.cpp ****     while (1)
 116:My_Top/Task/Task_Vofa.cpp ****     {
 117:My_Top/Task/Task_Vofa.cpp ****         xQueueReceive(vofaRxQueue, &frame, portMAX_DELAY); // д»ҺйҳҹеҲ—дёӯиҺ·еҸ–ж•°жҚ®
 118:My_Top/Task/Task_Vofa.cpp ****         /* жҠҠйҳҹеҲ—ж•°жҚ®е–Ӯз»ҷ vofa1пјҲеӨҚз”ЁеҺҹжңүи§ЈжһҗйҖ»иҫ‘пјү */
 119:My_Top/Task/Task_Vofa.cpp ****         memcpy(vofa1.rx_buf, frame.buf, frame.len);
 120:My_Top/Task/Task_Vofa.cpp ****         vofa1.rx_len = frame.len;
 121:My_Top/Task/Task_Vofa.cpp ****         vofa1.parse();// и§Јжһҗж”¶еҲ°зҡ„её§
 122:My_Top/Task/Task_Vofa.cpp **** 
 123:My_Top/Task/Task_Vofa.cpp ****         vofa1.vofa_get_batch(&vofa1, IA_Names, Vafa_IA.val, Vafa_IA.len); // иҜ»еҸ–IA_NamesеҸӮж•°еҖ
 124:My_Top/Task/Task_Vofa.cpp ****         vofa1.vofa_get_batch(&vofa1, Speed_Names, Vafa_Speed.val, Vafa_Speed.len); // иҜ»еҸ–Speed_N
 125:My_Top/Task/Task_Vofa.cpp ****         vofa1.vofa_get_batch(&vofa1, Target_Names, Vafa_Target.val, Vafa_Target.len); // иҜ»еҸ–Targ
 126:My_Top/Task/Task_Vofa.cpp ****         vofa1.vofa_get_batch(&vofa1, Location_Names, Vafa_Location.val, Vafa_Location.len); // иҜ»е
 127:My_Top/Task/Task_Vofa.cpp ****         vofa1.vofa_get_batch(&vofa1, Button_Names, Vafa_Button.val, Vafa_Button.len);       // иҜ»е
 128:My_Top/Task/Task_Vofa.cpp **** 
 129:My_Top/Task/Task_Vofa.cpp ****         vofa_detect_changes(&Vafa_IA); // жЈҖжөӢж•°жҚ®зҡ„еҸҳеҢ– еҶҷе…Ҙж Үеҝ—дҪҚеҲ°changed
 130:My_Top/Task/Task_Vofa.cpp ****         vofa_detect_changes(&Vafa_Speed);
 131:My_Top/Task/Task_Vofa.cpp ****         vofa_detect_changes(&Vafa_Target);
 132:My_Top/Task/Task_Vofa.cpp ****         vofa_detect_changes(&Vafa_Location);
 133:My_Top/Task/Task_Vofa.cpp ****         vofa_detect_changes(&Vafa_Button);
 134:My_Top/Task/Task_Vofa.cpp **** 
 135:My_Top/Task/Task_Vofa.cpp ****         
 136:My_Top/Task/Task_Vofa.cpp ****         vofa_update_if_changed(&Vafa_Button, 0, &Motor_Select, 0);
 137:My_Top/Task/Task_Vofa.cpp ****         
 138:My_Top/Task/Task_Vofa.cpp ****         uint8_t idx = (uint8_t)Motor_Select;  // 1=M1, 2=M2, 3=M3, 4=M4
 139:My_Top/Task/Task_Vofa.cpp ****         DC_Motor::selected_motor = idx;//и®°еҪ•еҪ“еүҚйҖүжӢ©зҡ„з”өжңә
 140:My_Top/Task/Task_Vofa.cpp ****         if (idx != last_idx) //з”өжңәеҲҮжҚўеҗҺ           
 141:My_Top/Task/Task_Vofa.cpp ****         {                                   
 142:My_Top/Task/Task_Vofa.cpp ****             vofa_sync_last(&Vafa_IA);  //еҗҢжӯҘlast_val = valдё”ж Үи®°ж— еҸҳеҢ– 
 1016              		.loc 1 142 13 is_stmt 1 view .LVU259
 1017              		.loc 1 142 27 is_stmt 0 view .LVU260
 1018 01c0 2046     		mov	r0, r4
 1019 01c2 FFF7FEFF 		bl	_Z14vofa_sync_lastP9Vafa_data
 1020              	.LVL87:
 143:My_Top/Task/Task_Vofa.cpp ****             vofa_sync_last(&Vafa_Speed); 
 1021              		.loc 1 143 13 is_stmt 1 view .LVU261
 1022              		.loc 1 143 27 is_stmt 0 view .LVU262
 1023 01c6 5046     		mov	r0, r10
 1024 01c8 FFF7FEFF 		bl	_Z14vofa_sync_lastP9Vafa_data
 1025              	.LVL88:
 144:My_Top/Task/Task_Vofa.cpp ****             vofa_sync_last(&Vafa_Target);
 1026              		.loc 1 144 13 is_stmt 1 view .LVU263
 1027              		.loc 1 144 27 is_stmt 0 view .LVU264
 1028 01cc 4846     		mov	r0, r9
 1029 01ce FFF7FEFF 		bl	_Z14vofa_sync_lastP9Vafa_data
 1030              	.LVL89:
 145:My_Top/Task/Task_Vofa.cpp ****             vofa_sync_last(&Vafa_Location); 
 1031              		.loc 1 145 13 is_stmt 1 view .LVU265
 1032              		.loc 1 145 27 is_stmt 0 view .LVU266
 1033 01d2 4046     		mov	r0, r8
 1034 01d4 FFF7FEFF 		bl	_Z14vofa_sync_lastP9Vafa_data
 1035              	.LVL90:
ARM GAS  /tmp/ccTpYRRI.s 			page 25


 146:My_Top/Task/Task_Vofa.cpp ****             vofa_sync_last(&Vafa_Button);
 1036              		.loc 1 146 13 is_stmt 1 view .LVU267
 1037              		.loc 1 146 27 is_stmt 0 view .LVU268
 1038 01d8 3846     		mov	r0, r7
 1039 01da FFF7FEFF 		bl	_Z14vofa_sync_lastP9Vafa_data
 1040              	.LVL91:
 147:My_Top/Task/Task_Vofa.cpp ****             last_idx = idx;
 1041              		.loc 1 147 13 is_stmt 1 view .LVU269
 1042              		.loc 1 147 22 is_stmt 0 view .LVU270
 1043 01de 84F86C55 		strb	r5, [r4, #1388]
 1044 01e2 06E1     		b	.L56
 1045              	.L57:
 148:My_Top/Task/Task_Vofa.cpp ****         }
 149:My_Top/Task/Task_Vofa.cpp ****         if (idx < 1 || idx > 4)
 150:My_Top/Task/Task_Vofa.cpp ****         {
 151:My_Top/Task/Task_Vofa.cpp ****             vTaskDelay(pdMS_TO_TICKS(10));
 152:My_Top/Task/Task_Vofa.cpp ****             continue;                        // и·іиҝҮжң¬иҪ®пјҢдёҚйҖҖеҮәд»»еҠЎ
 153:My_Top/Task/Task_Vofa.cpp ****         }
 154:My_Top/Task/Task_Vofa.cpp **** 
 155:My_Top/Task/Task_Vofa.cpp ****         DC_Motor* m = NULL;
 1046              		.loc 1 155 9 is_stmt 1 view .LVU271
 1047              	.LVL92:
 156:My_Top/Task/Task_Vofa.cpp ****         switch (idx)
 1048              		.loc 1 156 9 view .LVU272
 1049 01e4 013D     		subs	r5, r5, #1
 1050              	.LVL93:
 1051              		.loc 1 156 9 is_stmt 0 view .LVU273
 1052 01e6 032D     		cmp	r5, #3
 1053 01e8 03D8     		bhi	.L59
 1054 01ea DFE805F0 		tbb	[pc, r5]
 1055              	.L61:
 1056 01ee 1E       		.byte	(.L68-.L61)/2
 1057 01ef 04       		.byte	(.L63-.L61)/2
 1058 01f0 1A       		.byte	(.L62-.L61)/2
 1059 01f1 1C       		.byte	(.L60-.L61)/2
 1060              		.p2align 1
 1061              	.L59:
 1062              		.loc 1 156 9 view .LVU274
 1063 01f2 0024     		movs	r4, #0
 1064 01f4 00E0     		b	.L64
 1065              	.L63:
 157:My_Top/Task/Task_Vofa.cpp ****         {
 158:My_Top/Task/Task_Vofa.cpp ****             case 1: m = &M1; break;
 159:My_Top/Task/Task_Vofa.cpp ****             case 2: m = &M2; break;
 1066              		.loc 1 159 13 is_stmt 1 view .LVU275
 1067              		.loc 1 159 21 view .LVU276
 1068              	.LVL94:
 1069              		.loc 1 159 30 view .LVU277
 1070              		.loc 1 159 23 is_stmt 0 view .LVU278
 1071 01f6 834C     		ldr	r4, .L71
 1072              	.LVL95:
 1073              	.L64:
 160:My_Top/Task/Task_Vofa.cpp ****             case 3: m = &M3; break;
 161:My_Top/Task/Task_Vofa.cpp ****             case 4: m = &M4; break;
 162:My_Top/Task/Task_Vofa.cpp ****         }
 163:My_Top/Task/Task_Vofa.cpp ****         switch (m->work_mode) 
 1074              		.loc 1 163 9 is_stmt 1 view .LVU279
ARM GAS  /tmp/ccTpYRRI.s 			page 26


 1075              		.loc 1 163 20 is_stmt 0 view .LVU280
 1076 01f8 2378     		ldrb	r3, [r4]	@ zero_extendqisi2
 1077              		.loc 1 163 9 view .LVU281
 1078 01fa 012B     		cmp	r3, #1
 1079 01fc 17D0     		beq	.L65
 1080 01fe 022B     		cmp	r3, #2
 1081 0200 35D0     		beq	.L66
 1082 0202 002B     		cmp	r3, #0
 1083 0204 76D1     		bne	.L67
 164:My_Top/Task/Task_Vofa.cpp ****         {
 165:My_Top/Task/Task_Vofa.cpp ****             case open_loop: // ејҖзҺҜжЁЎејҸ
 1084              		.loc 1 165 13 is_stmt 1 view .LVU282
 166:My_Top/Task/Task_Vofa.cpp ****                 vofa_update_if_changed(&Vafa_Button, 1, &m->motor_freq, NULL); // з”өжңәйў‘зҺҮ
 1085              		.loc 1 166 17 view .LVU283
 1086              		.loc 1 166 39 is_stmt 0 view .LVU284
 1087 0206 804D     		ldr	r5, .L71+4
 1088              	.LVL96:
 1089              		.loc 1 166 39 view .LVU285
 1090 0208 221D     		adds	r2, r4, #4
 1091 020a 0121     		movs	r1, #1
 1092 020c 2846     		mov	r0, r5
 1093 020e FFF7FEFF 		bl	_Z22vofa_update_if_changedP9Vafa_datahPfP8DC_Motor
 1094              	.LVL97:
 167:My_Top/Task/Task_Vofa.cpp ****                 vofa_update_if_changed(&Vafa_Button, 2, &m->updown_duty, NULL); // з”өжңәе…ЁеұҖеҚ з
 1095              		.loc 1 167 17 is_stmt 1 view .LVU286
 1096              		.loc 1 167 39 is_stmt 0 view .LVU287
 1097 0212 0023     		movs	r3, #0
 1098 0214 04F11002 		add	r2, r4, #16
 1099 0218 0221     		movs	r1, #2
 1100 021a 2846     		mov	r0, r5
 1101 021c FFF7FEFF 		bl	_Z22vofa_update_if_changedP9Vafa_datahPfP8DC_Motor
 1102              	.LVL98:
 168:My_Top/Task/Task_Vofa.cpp ****                 break;
 1103              		.loc 1 168 17 is_stmt 1 view .LVU288
 1104 0220 68E0     		b	.L67
 1105              	.LVL99:
 1106              	.L62:
 160:My_Top/Task/Task_Vofa.cpp ****             case 4: m = &M4; break;
 1107              		.loc 1 160 13 view .LVU289
 160:My_Top/Task/Task_Vofa.cpp ****             case 4: m = &M4; break;
 1108              		.loc 1 160 21 view .LVU290
 160:My_Top/Task/Task_Vofa.cpp ****             case 4: m = &M4; break;
 1109              		.loc 1 160 30 view .LVU291
 160:My_Top/Task/Task_Vofa.cpp ****             case 4: m = &M4; break;
 1110              		.loc 1 160 23 is_stmt 0 view .LVU292
 1111 0222 7A4C     		ldr	r4, .L71+8
 160:My_Top/Task/Task_Vofa.cpp ****             case 4: m = &M4; break;
 1112              		.loc 1 160 30 view .LVU293
 1113 0224 E8E7     		b	.L64
 1114              	.LVL100:
 1115              	.L60:
 161:My_Top/Task/Task_Vofa.cpp ****         }
 1116              		.loc 1 161 13 is_stmt 1 view .LVU294
 161:My_Top/Task/Task_Vofa.cpp ****         }
 1117              		.loc 1 161 21 view .LVU295
 161:My_Top/Task/Task_Vofa.cpp ****         }
 1118              		.loc 1 161 30 view .LVU296
ARM GAS  /tmp/ccTpYRRI.s 			page 27


 161:My_Top/Task/Task_Vofa.cpp ****         }
 1119              		.loc 1 161 23 is_stmt 0 view .LVU297
 1120 0226 7A4C     		ldr	r4, .L71+12
 161:My_Top/Task/Task_Vofa.cpp ****         }
 1121              		.loc 1 161 30 view .LVU298
 1122 0228 E6E7     		b	.L64
 1123              	.LVL101:
 1124              	.L68:
 158:My_Top/Task/Task_Vofa.cpp ****             case 2: m = &M2; break;
 1125              		.loc 1 158 23 view .LVU299
 1126 022a 7A4C     		ldr	r4, .L71+16
 1127 022c E4E7     		b	.L64
 1128              	.LVL102:
 1129              	.L65:
 169:My_Top/Task/Task_Vofa.cpp ****             case speed: // йҖҹеәҰй—ӯзҺҜжЁЎејҸ
 1130              		.loc 1 169 13 is_stmt 1 view .LVU300
 170:My_Top/Task/Task_Vofa.cpp ****                 vofa_update_if_changed(&Vafa_Speed,  0, &m->pid_speed_incparam->_kp, m);//йҖҹеәҰPID
 1131              		.loc 1 170 17 view .LVU301
 1132              		.loc 1 170 39 is_stmt 0 view .LVU302
 1133 022e 7A4E     		ldr	r6, .L71+20
 1134 0230 06F58A75 		add	r5, r6, #276
 1135 0234 2346     		mov	r3, r4
 1136 0236 626C     		ldr	r2, [r4, #68]
 1137 0238 0021     		movs	r1, #0
 1138 023a 2846     		mov	r0, r5
 1139 023c FFF7FEFF 		bl	_Z22vofa_update_if_changedP9Vafa_datahPfP8DC_Motor
 1140              	.LVL103:
 171:My_Top/Task/Task_Vofa.cpp ****                 vofa_update_if_changed(&Vafa_Speed,  1, &m->pid_speed_incparam->_ki, m);
 1141              		.loc 1 171 17 is_stmt 1 view .LVU303
 1142              		.loc 1 171 61 is_stmt 0 view .LVU304
 1143 0240 626C     		ldr	r2, [r4, #68]
 1144              		.loc 1 171 39 view .LVU305
 1145 0242 2346     		mov	r3, r4
 1146 0244 0432     		adds	r2, r2, #4
 1147 0246 0121     		movs	r1, #1
 1148 0248 2846     		mov	r0, r5
 1149 024a FFF7FEFF 		bl	_Z22vofa_update_if_changedP9Vafa_datahPfP8DC_Motor
 1150              	.LVL104:
 172:My_Top/Task/Task_Vofa.cpp ****                 vofa_update_if_changed(&Vafa_Speed,  2, &m->pid_speed_incparam->_kd, m);
 1151              		.loc 1 172 17 is_stmt 1 view .LVU306
 1152              		.loc 1 172 61 is_stmt 0 view .LVU307
 1153 024e 626C     		ldr	r2, [r4, #68]
 1154              		.loc 1 172 39 view .LVU308
 1155 0250 2346     		mov	r3, r4
 1156 0252 0832     		adds	r2, r2, #8
 1157 0254 0221     		movs	r1, #2
 1158 0256 2846     		mov	r0, r5
 1159 0258 FFF7FEFF 		bl	_Z22vofa_update_if_changedP9Vafa_datahPfP8DC_Motor
 1160              	.LVL105:
 173:My_Top/Task/Task_Vofa.cpp ****                 vofa_update_if_changed(&Vafa_Target,  2, &m->_target_speed, NULL); //зӣ®ж ҮйҖҹеәҰ
 1161              		.loc 1 173 17 is_stmt 1 view .LVU309
 1162              		.loc 1 173 39 is_stmt 0 view .LVU310
 1163 025c 0023     		movs	r3, #0
 1164 025e 04F13002 		add	r2, r4, #48
 1165 0262 0221     		movs	r1, #2
 1166 0264 06F50A70 		add	r0, r6, #552
 1167 0268 FFF7FEFF 		bl	_Z22vofa_update_if_changedP9Vafa_datahPfP8DC_Motor
ARM GAS  /tmp/ccTpYRRI.s 			page 28


 1168              	.LVL106:
 174:My_Top/Task/Task_Vofa.cpp ****                 break;
 1169              		.loc 1 174 17 is_stmt 1 view .LVU311
 1170 026c 42E0     		b	.L67
 1171              	.L66:
 175:My_Top/Task/Task_Vofa.cpp ****             case position: // дҪҚзҪ®й—ӯзҺҜжЁЎејҸ
 1172              		.loc 1 175 13 view .LVU312
 176:My_Top/Task/Task_Vofa.cpp ****                 vofa_update_if_changed(&Vafa_Location, 0, &m->pid_location->_kp, m);//дҪҚзҪ®PID
 1173              		.loc 1 176 17 view .LVU313
 1174              		.loc 1 176 39 is_stmt 0 view .LVU314
 1175 026e 6A4D     		ldr	r5, .L71+20
 1176 0270 05F54F76 		add	r6, r5, #828
 1177 0274 2346     		mov	r3, r4
 1178 0276 A26C     		ldr	r2, [r4, #72]
 1179 0278 0021     		movs	r1, #0
 1180 027a 3046     		mov	r0, r6
 1181 027c FFF7FEFF 		bl	_Z22vofa_update_if_changedP9Vafa_datahPfP8DC_Motor
 1182              	.LVL107:
 177:My_Top/Task/Task_Vofa.cpp ****                 vofa_update_if_changed(&Vafa_Location, 1, &m->pid_location->_ki, m);
 1183              		.loc 1 177 17 is_stmt 1 view .LVU315
 1184              		.loc 1 177 63 is_stmt 0 view .LVU316
 1185 0280 A26C     		ldr	r2, [r4, #72]
 1186              		.loc 1 177 39 view .LVU317
 1187 0282 2346     		mov	r3, r4
 1188 0284 0432     		adds	r2, r2, #4
 1189 0286 0121     		movs	r1, #1
 1190 0288 3046     		mov	r0, r6
 1191 028a FFF7FEFF 		bl	_Z22vofa_update_if_changedP9Vafa_datahPfP8DC_Motor
 1192              	.LVL108:
 178:My_Top/Task/Task_Vofa.cpp ****                 vofa_update_if_changed(&Vafa_Location, 2, &m->pid_location->_kd, m);
 1193              		.loc 1 178 17 is_stmt 1 view .LVU318
 1194              		.loc 1 178 63 is_stmt 0 view .LVU319
 1195 028e A26C     		ldr	r2, [r4, #72]
 1196              		.loc 1 178 39 view .LVU320
 1197 0290 2346     		mov	r3, r4
 1198 0292 0832     		adds	r2, r2, #8
 1199 0294 0221     		movs	r1, #2
 1200 0296 3046     		mov	r0, r6
 1201 0298 FFF7FEFF 		bl	_Z22vofa_update_if_changedP9Vafa_datahPfP8DC_Motor
 1202              	.LVL109:
 179:My_Top/Task/Task_Vofa.cpp ****                 vofa_update_if_changed(&Vafa_Target,  4, &m->_target_location2, NULL); //зӣ®ж ҮдҪҚз
 1203              		.loc 1 179 17 is_stmt 1 view .LVU321
 1204              		.loc 1 179 39 is_stmt 0 view .LVU322
 1205 029c 05F50A76 		add	r6, r5, #552
 1206 02a0 0023     		movs	r3, #0
 1207 02a2 04F13402 		add	r2, r4, #52
 1208 02a6 0421     		movs	r1, #4
 1209 02a8 3046     		mov	r0, r6
 1210 02aa FFF7FEFF 		bl	_Z22vofa_update_if_changedP9Vafa_datahPfP8DC_Motor
 1211              	.LVL110:
 180:My_Top/Task/Task_Vofa.cpp ****                 vofa_update_if_changed(&Vafa_Speed,  0, &m->pid_speed_incparam->_kp, m);//йҖҹеәҰPID
 1212              		.loc 1 180 17 is_stmt 1 view .LVU323
 1213              		.loc 1 180 39 is_stmt 0 view .LVU324
 1214 02ae 05F58A75 		add	r5, r5, #276
 1215 02b2 2346     		mov	r3, r4
 1216 02b4 626C     		ldr	r2, [r4, #68]
 1217 02b6 0021     		movs	r1, #0
ARM GAS  /tmp/ccTpYRRI.s 			page 29


 1218 02b8 2846     		mov	r0, r5
 1219 02ba FFF7FEFF 		bl	_Z22vofa_update_if_changedP9Vafa_datahPfP8DC_Motor
 1220              	.LVL111:
 181:My_Top/Task/Task_Vofa.cpp ****                 vofa_update_if_changed(&Vafa_Speed,  1, &m->pid_speed_incparam->_ki, m);
 1221              		.loc 1 181 17 is_stmt 1 view .LVU325
 1222              		.loc 1 181 61 is_stmt 0 view .LVU326
 1223 02be 626C     		ldr	r2, [r4, #68]
 1224              		.loc 1 181 39 view .LVU327
 1225 02c0 2346     		mov	r3, r4
 1226 02c2 0432     		adds	r2, r2, #4
 1227 02c4 0121     		movs	r1, #1
 1228 02c6 2846     		mov	r0, r5
 1229 02c8 FFF7FEFF 		bl	_Z22vofa_update_if_changedP9Vafa_datahPfP8DC_Motor
 1230              	.LVL112:
 182:My_Top/Task/Task_Vofa.cpp ****                 vofa_update_if_changed(&Vafa_Speed,  2, &m->pid_speed_incparam->_kd, m);   
 1231              		.loc 1 182 17 is_stmt 1 view .LVU328
 1232              		.loc 1 182 61 is_stmt 0 view .LVU329
 1233 02cc 626C     		ldr	r2, [r4, #68]
 1234              		.loc 1 182 39 view .LVU330
 1235 02ce 2346     		mov	r3, r4
 1236 02d0 0832     		adds	r2, r2, #8
 1237 02d2 0221     		movs	r1, #2
 1238 02d4 2846     		mov	r0, r5
 1239 02d6 FFF7FEFF 		bl	_Z22vofa_update_if_changedP9Vafa_datahPfP8DC_Motor
 1240              	.LVL113:
 183:My_Top/Task/Task_Vofa.cpp ****                 
 184:My_Top/Task/Task_Vofa.cpp ****                 vofa_update_if_changed(&Vafa_Target,  0, &m->_lqr->_k1, NULL); //
 1241              		.loc 1 184 17 is_stmt 1 view .LVU331
 1242              		.loc 1 184 39 is_stmt 0 view .LVU332
 1243 02da 0023     		movs	r3, #0
 1244 02dc E26C     		ldr	r2, [r4, #76]
 1245 02de 1946     		mov	r1, r3
 1246 02e0 3046     		mov	r0, r6
 1247 02e2 FFF7FEFF 		bl	_Z22vofa_update_if_changedP9Vafa_datahPfP8DC_Motor
 1248              	.LVL114:
 185:My_Top/Task/Task_Vofa.cpp ****                 vofa_update_if_changed(&Vafa_Target,  1, &m->_lqr->_k2, NULL); //
 1249              		.loc 1 185 17 is_stmt 1 view .LVU333
 1250              		.loc 1 185 62 is_stmt 0 view .LVU334
 1251 02e6 E26C     		ldr	r2, [r4, #76]
 1252              		.loc 1 185 39 view .LVU335
 1253 02e8 0023     		movs	r3, #0
 1254 02ea 0432     		adds	r2, r2, #4
 1255 02ec 0121     		movs	r1, #1
 1256 02ee 3046     		mov	r0, r6
 1257 02f0 FFF7FEFF 		bl	_Z22vofa_update_if_changedP9Vafa_datahPfP8DC_Motor
 1258              	.LVL115:
 186:My_Top/Task/Task_Vofa.cpp ****             
 187:My_Top/Task/Task_Vofa.cpp ****                 break;
 1259              		.loc 1 187 17 is_stmt 1 view .LVU336
 1260              	.L67:
 188:My_Top/Task/Task_Vofa.cpp ****         }
 189:My_Top/Task/Task_Vofa.cpp ****         vofa_update_mode(&m->work_mode, open_loop, m);        
 1261              		.loc 1 189 9 view .LVU337
 1262              		.loc 1 189 25 is_stmt 0 view .LVU338
 1263 02f4 2246     		mov	r2, r4
 1264 02f6 0021     		movs	r1, #0
 1265 02f8 2046     		mov	r0, r4
ARM GAS  /tmp/ccTpYRRI.s 			page 30


 1266 02fa FFF7FEFF 		bl	_Z16vofa_update_modeP9Work_ModeS_P8DC_Motor
 1267              	.LVL116:
 1268              	.L55:
 1269              		.loc 1 189 25 view .LVU339
 1270              	.LBE26:
 115:My_Top/Task/Task_Vofa.cpp ****     {
 1271              		.loc 1 115 5 is_stmt 1 view .LVU340
 1272              	.LBB27:
 117:My_Top/Task/Task_Vofa.cpp ****         /* жҠҠйҳҹеҲ—ж•°жҚ®е–Ӯз»ҷ vofa1пјҲеӨҚз”ЁеҺҹжңүи§ЈжһҗйҖ»иҫ‘пјү */
 1273              		.loc 1 117 9 view .LVU341
 117:My_Top/Task/Task_Vofa.cpp ****         /* жҠҠйҳҹеҲ—ж•°жҚ®е–Ӯз»ҷ vofa1пјҲеӨҚз”ЁеҺҹжңүи§ЈжһҗйҖ»иҫ‘пјү */
 1274              		.loc 1 117 22 is_stmt 0 view .LVU342
 1275 02fe 4FF0FF32 		mov	r2, #-1
 1276 0302 05A9     		add	r1, sp, #20
 1277 0304 454B     		ldr	r3, .L71+24
 1278 0306 1868     		ldr	r0, [r3]
 1279 0308 FFF7FEFF 		bl	xQueueReceive
 1280              	.LVL117:
 119:My_Top/Task/Task_Vofa.cpp ****         vofa1.rx_len = frame.len;
 1281              		.loc 1 119 9 is_stmt 1 view .LVU343
 119:My_Top/Task/Task_Vofa.cpp ****         vofa1.rx_len = frame.len;
 1282              		.loc 1 119 47 is_stmt 0 view .LVU344
 1283 030c BDF81440 		ldrh	r4, [sp, #20]
 119:My_Top/Task/Task_Vofa.cpp ****         vofa1.rx_len = frame.len;
 1284              		.loc 1 119 15 view .LVU345
 1285 0310 434D     		ldr	r5, .L71+28
 1286 0312 2246     		mov	r2, r4
 1287 0314 0DF11601 		add	r1, sp, #22
 1288 0318 2846     		mov	r0, r5
 1289 031a FFF7FEFF 		bl	memcpy
 1290              	.LVL118:
 120:My_Top/Task/Task_Vofa.cpp ****         vofa1.parse();// и§Јжһҗж”¶еҲ°зҡ„её§
 1291              		.loc 1 120 9 is_stmt 1 view .LVU346
 120:My_Top/Task/Task_Vofa.cpp ****         vofa1.parse();// и§Јжһҗж”¶еҲ°зҡ„её§
 1292              		.loc 1 120 22 is_stmt 0 view .LVU347
 1293 031e A5F88040 		strh	r4, [r5, #128]	@ movhi
 121:My_Top/Task/Task_Vofa.cpp **** 
 1294              		.loc 1 121 9 is_stmt 1 view .LVU348
 121:My_Top/Task/Task_Vofa.cpp **** 
 1295              		.loc 1 121 20 is_stmt 0 view .LVU349
 1296 0322 2846     		mov	r0, r5
 1297 0324 FFF7FEFF 		bl	_ZN7VoFA_Rx5parseEv
 1298              	.LVL119:
 123:My_Top/Task/Task_Vofa.cpp ****         vofa1.vofa_get_batch(&vofa1, Speed_Names, Vafa_Speed.val, Vafa_Speed.len); // иҜ»еҸ–Speed_N
 1299              		.loc 1 123 9 is_stmt 1 view .LVU350
 123:My_Top/Task/Task_Vofa.cpp ****         vofa1.vofa_get_batch(&vofa1, Speed_Names, Vafa_Speed.val, Vafa_Speed.len); // иҜ»еҸ–Speed_N
 1300              		.loc 1 123 29 is_stmt 0 view .LVU351
 1301 0328 3B4C     		ldr	r4, .L71+20
 1302 032a 2346     		mov	r3, r4
 1303 032c 3D4E     		ldr	r6, .L71+32
 1304 032e 13F8042B 		ldrb	r2, [r3], #4	@ zero_extendqisi2
 1305 0332 0092     		str	r2, [sp]
 1306 0334 3246     		mov	r2, r6
 1307 0336 2946     		mov	r1, r5
 1308 0338 2846     		mov	r0, r5
 1309 033a FFF7FEFF 		bl	_ZN7VoFA_Rx14vofa_get_batchEPS_PPKcPfh
 1310              	.LVL120:
ARM GAS  /tmp/ccTpYRRI.s 			page 31


 124:My_Top/Task/Task_Vofa.cpp ****         vofa1.vofa_get_batch(&vofa1, Target_Names, Vafa_Target.val, Vafa_Target.len); // иҜ»еҸ–Targ
 1311              		.loc 1 124 9 is_stmt 1 view .LVU352
 124:My_Top/Task/Task_Vofa.cpp ****         vofa1.vofa_get_batch(&vofa1, Target_Names, Vafa_Target.val, Vafa_Target.len); // иҜ»еҸ–Targ
 1312              		.loc 1 124 29 is_stmt 0 view .LVU353
 1313 033e 04F58A7A 		add	r10, r4, #276
 1314 0342 94F81431 		ldrb	r3, [r4, #276]	@ zero_extendqisi2
 1315 0346 0093     		str	r3, [sp]
 1316 0348 04F58C73 		add	r3, r4, #280
 1317 034c 06F11002 		add	r2, r6, #16
 1318 0350 2946     		mov	r1, r5
 1319 0352 2846     		mov	r0, r5
 1320 0354 FFF7FEFF 		bl	_ZN7VoFA_Rx14vofa_get_batchEPS_PPKcPfh
 1321              	.LVL121:
 125:My_Top/Task/Task_Vofa.cpp ****         vofa1.vofa_get_batch(&vofa1, Location_Names, Vafa_Location.val, Vafa_Location.len); // иҜ»е
 1322              		.loc 1 125 9 is_stmt 1 view .LVU354
 125:My_Top/Task/Task_Vofa.cpp ****         vofa1.vofa_get_batch(&vofa1, Location_Names, Vafa_Location.val, Vafa_Location.len); // иҜ»е
 1323              		.loc 1 125 29 is_stmt 0 view .LVU355
 1324 0358 04F50A79 		add	r9, r4, #552
 1325 035c 94F82832 		ldrb	r3, [r4, #552]	@ zero_extendqisi2
 1326 0360 0093     		str	r3, [sp]
 1327 0362 04F50B73 		add	r3, r4, #556
 1328 0366 06F11C02 		add	r2, r6, #28
 1329 036a 2946     		mov	r1, r5
 1330 036c 2846     		mov	r0, r5
 1331 036e FFF7FEFF 		bl	_ZN7VoFA_Rx14vofa_get_batchEPS_PPKcPfh
 1332              	.LVL122:
 126:My_Top/Task/Task_Vofa.cpp ****         vofa1.vofa_get_batch(&vofa1, Button_Names, Vafa_Button.val, Vafa_Button.len);       // иҜ»е
 1333              		.loc 1 126 9 is_stmt 1 view .LVU356
 126:My_Top/Task/Task_Vofa.cpp ****         vofa1.vofa_get_batch(&vofa1, Button_Names, Vafa_Button.val, Vafa_Button.len);       // иҜ»е
 1334              		.loc 1 126 29 is_stmt 0 view .LVU357
 1335 0372 04F54F78 		add	r8, r4, #828
 1336 0376 94F83C33 		ldrb	r3, [r4, #828]	@ zero_extendqisi2
 1337 037a 0093     		str	r3, [sp]
 1338 037c 04F55073 		add	r3, r4, #832
 1339 0380 06F13002 		add	r2, r6, #48
 1340 0384 2946     		mov	r1, r5
 1341 0386 2846     		mov	r0, r5
 1342 0388 FFF7FEFF 		bl	_ZN7VoFA_Rx14vofa_get_batchEPS_PPKcPfh
 1343              	.LVL123:
 127:My_Top/Task/Task_Vofa.cpp **** 
 1344              		.loc 1 127 9 is_stmt 1 view .LVU358
 127:My_Top/Task/Task_Vofa.cpp **** 
 1345              		.loc 1 127 29 is_stmt 0 view .LVU359
 1346 038c 04F58A67 		add	r7, r4, #1104
 1347 0390 94F85034 		ldrb	r3, [r4, #1104]	@ zero_extendqisi2
 1348 0394 0093     		str	r3, [sp]
 1349 0396 04F25443 		addw	r3, r4, #1108
 1350 039a 06F13C02 		add	r2, r6, #60
 1351 039e 2946     		mov	r1, r5
 1352 03a0 2846     		mov	r0, r5
 1353 03a2 FFF7FEFF 		bl	_ZN7VoFA_Rx14vofa_get_batchEPS_PPKcPfh
 1354              	.LVL124:
 129:My_Top/Task/Task_Vofa.cpp ****         vofa_detect_changes(&Vafa_Speed);
 1355              		.loc 1 129 9 is_stmt 1 view .LVU360
 129:My_Top/Task/Task_Vofa.cpp ****         vofa_detect_changes(&Vafa_Speed);
 1356              		.loc 1 129 28 is_stmt 0 view .LVU361
 1357 03a6 2046     		mov	r0, r4
ARM GAS  /tmp/ccTpYRRI.s 			page 32


 1358 03a8 FFF7FEFF 		bl	_Z19vofa_detect_changesP9Vafa_data
 1359              	.LVL125:
 130:My_Top/Task/Task_Vofa.cpp ****         vofa_detect_changes(&Vafa_Target);
 1360              		.loc 1 130 9 is_stmt 1 view .LVU362
 130:My_Top/Task/Task_Vofa.cpp ****         vofa_detect_changes(&Vafa_Target);
 1361              		.loc 1 130 28 is_stmt 0 view .LVU363
 1362 03ac 5046     		mov	r0, r10
 1363 03ae FFF7FEFF 		bl	_Z19vofa_detect_changesP9Vafa_data
 1364              	.LVL126:
 131:My_Top/Task/Task_Vofa.cpp ****         vofa_detect_changes(&Vafa_Location);
 1365              		.loc 1 131 9 is_stmt 1 view .LVU364
 131:My_Top/Task/Task_Vofa.cpp ****         vofa_detect_changes(&Vafa_Location);
 1366              		.loc 1 131 28 is_stmt 0 view .LVU365
 1367 03b2 4846     		mov	r0, r9
 1368 03b4 FFF7FEFF 		bl	_Z19vofa_detect_changesP9Vafa_data
 1369              	.LVL127:
 132:My_Top/Task/Task_Vofa.cpp ****         vofa_detect_changes(&Vafa_Button);
 1370              		.loc 1 132 9 is_stmt 1 view .LVU366
 132:My_Top/Task/Task_Vofa.cpp ****         vofa_detect_changes(&Vafa_Button);
 1371              		.loc 1 132 28 is_stmt 0 view .LVU367
 1372 03b8 4046     		mov	r0, r8
 1373 03ba FFF7FEFF 		bl	_Z19vofa_detect_changesP9Vafa_data
 1374              	.LVL128:
 133:My_Top/Task/Task_Vofa.cpp **** 
 1375              		.loc 1 133 9 is_stmt 1 view .LVU368
 133:My_Top/Task/Task_Vofa.cpp **** 
 1376              		.loc 1 133 28 is_stmt 0 view .LVU369
 1377 03be 3846     		mov	r0, r7
 1378 03c0 FFF7FEFF 		bl	_Z19vofa_detect_changesP9Vafa_data
 1379              	.LVL129:
 136:My_Top/Task/Task_Vofa.cpp ****         
 1380              		.loc 1 136 9 is_stmt 1 view .LVU370
 136:My_Top/Task/Task_Vofa.cpp ****         
 1381              		.loc 1 136 31 is_stmt 0 view .LVU371
 1382 03c4 04F5AD65 		add	r5, r4, #1384
 1383 03c8 0023     		movs	r3, #0
 1384 03ca 2A46     		mov	r2, r5
 1385 03cc 1946     		mov	r1, r3
 1386 03ce 3846     		mov	r0, r7
 1387 03d0 FFF7FEFF 		bl	_Z22vofa_update_if_changedP9Vafa_datahPfP8DC_Motor
 1388              	.LVL130:
 138:My_Top/Task/Task_Vofa.cpp ****         DC_Motor::selected_motor = idx;//и®°еҪ•еҪ“еүҚйҖүжӢ©зҡ„з”өжңә
 1389              		.loc 1 138 9 is_stmt 1 view .LVU372
 138:My_Top/Task/Task_Vofa.cpp ****         DC_Motor::selected_motor = idx;//и®°еҪ•еҪ“еүҚйҖүжӢ©зҡ„з”өжңә
 1390              		.loc 1 138 23 is_stmt 0 view .LVU373
 1391 03d4 D5ED007A 		vldr.32	s15, [r5]
 138:My_Top/Task/Task_Vofa.cpp ****         DC_Motor::selected_motor = idx;//и®°еҪ•еҪ“еүҚйҖүжӢ©зҡ„з”өжңә
 1392              		.loc 1 138 17 view .LVU374
 1393 03d8 FCEEE77A 		vcvt.u32.f32	s15, s15
 1394 03dc CDED037A 		vstr.32	s15, [sp, #12]	@ int
 1395 03e0 9DF80C50 		ldrb	r5, [sp, #12]	@ zero_extendqisi2
 1396              	.LVL131:
 139:My_Top/Task/Task_Vofa.cpp ****         if (idx != last_idx) //з”өжңәеҲҮжҚўеҗҺ           
 1397              		.loc 1 139 9 is_stmt 1 view .LVU375
 139:My_Top/Task/Task_Vofa.cpp ****         if (idx != last_idx) //з”өжңәеҲҮжҚўеҗҺ           
 1398              		.loc 1 139 34 is_stmt 0 view .LVU376
 1399 03e4 104B     		ldr	r3, .L71+36
ARM GAS  /tmp/ccTpYRRI.s 			page 33


 1400 03e6 1D70     		strb	r5, [r3]
 140:My_Top/Task/Task_Vofa.cpp ****         {                                   
 1401              		.loc 1 140 9 is_stmt 1 view .LVU377
 140:My_Top/Task/Task_Vofa.cpp ****         {                                   
 1402              		.loc 1 140 17 is_stmt 0 view .LVU378
 1403 03e8 94F86C35 		ldrb	r3, [r4, #1388]	@ zero_extendqisi2
 140:My_Top/Task/Task_Vofa.cpp ****         {                                   
 1404              		.loc 1 140 9 view .LVU379
 1405 03ec AB42     		cmp	r3, r5
 1406 03ee 7FF4E7AE 		bne	.L70
 1407              	.L56:
 149:My_Top/Task/Task_Vofa.cpp ****         {
 1408              		.loc 1 149 9 is_stmt 1 view .LVU380
 149:My_Top/Task/Task_Vofa.cpp ****         {
 1409              		.loc 1 149 21 is_stmt 0 view .LVU381
 1410 03f2 6B1E     		subs	r3, r5, #1
 1411 03f4 DBB2     		uxtb	r3, r3
 149:My_Top/Task/Task_Vofa.cpp ****         {
 1412              		.loc 1 149 9 view .LVU382
 1413 03f6 032B     		cmp	r3, #3
 1414 03f8 7FF6F4AE 		bls	.L57
 151:My_Top/Task/Task_Vofa.cpp ****             continue;                        // и·іиҝҮжң¬иҪ®пјҢдёҚйҖҖеҮәд»»еҠЎ
 1415              		.loc 1 151 13 is_stmt 1 view .LVU383
 151:My_Top/Task/Task_Vofa.cpp ****             continue;                        // и·іиҝҮжң¬иҪ®пјҢдёҚйҖҖеҮәд»»еҠЎ
 1416              		.loc 1 151 23 is_stmt 0 view .LVU384
 1417 03fc 0A20     		movs	r0, #10
 1418 03fe FFF7FEFF 		bl	vTaskDelay
 1419              	.LVL132:
 152:My_Top/Task/Task_Vofa.cpp ****         }
 1420              		.loc 1 152 13 is_stmt 1 view .LVU385
 1421 0402 7CE7     		b	.L55
 1422              	.L72:
 1423              		.align	2
 1424              	.L71:
 1425 0404 00000000 		.word	M2
 1426 0408 50040000 		.word	.LANCHOR0+1104
 1427 040c 00000000 		.word	M3
 1428 0410 00000000 		.word	M4
 1429 0414 00000000 		.word	M1
 1430 0418 00000000 		.word	.LANCHOR0
 1431 041c 00000000 		.word	vofaRxQueue
 1432 0420 00000000 		.word	vofa1
 1433 0424 00000000 		.word	.LANCHOR1
 1434 0428 00000000 		.word	_ZN8DC_Motor14selected_motorE
 1435              	.LBE27:
 1436              		.cfi_endproc
 1437              	.LFE1372:
 1439              		.section	.rodata.str1.4
 1440 000a 0000     		.align	2
 1441              	.LC1:
 1442 000c 6D6F746F 		.ascii	"motor_telem\000"
 1442      725F7465 
 1442      6C656D00 
 1443              		.text
 1444              		.align	1
 1445              		.global	_Z11Task_VofaTxPv
 1446              		.syntax unified
ARM GAS  /tmp/ccTpYRRI.s 			page 34


 1447              		.thumb
 1448              		.thumb_func
 1450              	_Z11Task_VofaTxPv:
 1451              	.LVL133:
 1452              	.LFB1373:
 190:My_Top/Task/Task_Vofa.cpp **** 
 191:My_Top/Task/Task_Vofa.cpp ****     }
 192:My_Top/Task/Task_Vofa.cpp **** }
 193:My_Top/Task/Task_Vofa.cpp **** 
 194:My_Top/Task/Task_Vofa.cpp **** 
 195:My_Top/Task/Task_Vofa.cpp **** 
 196:My_Top/Task/Task_Vofa.cpp **** 
 197:My_Top/Task/Task_Vofa.cpp **** 
 198:My_Top/Task/Task_Vofa.cpp **** // ===== Vofa еҸ‘йҖҒд»»еҠЎ =====
 199:My_Top/Task/Task_Vofa.cpp **** void Task_VofaTx(void *argument)
 200:My_Top/Task/Task_Vofa.cpp **** {
 1453              		.loc 1 200 1 view -0
 1454              		.cfi_startproc
 1455              		@ args = 0, pretend = 0, frame = 144
 1456              		@ frame_needed = 0, uses_anonymous_args = 0
 1457              		.loc 1 200 1 is_stmt 0 view .LVU387
 1458 042c 2DE9F041 		push	{r4, r5, r6, r7, r8, lr}
 1459              		.cfi_def_cfa_offset 24
 1460              		.cfi_offset 4, -24
 1461              		.cfi_offset 5, -20
 1462              		.cfi_offset 6, -16
 1463              		.cfi_offset 7, -12
 1464              		.cfi_offset 8, -8
 1465              		.cfi_offset 14, -4
 1466 0430 ACB0     		sub	sp, sp, #176
 1467              		.cfi_def_cfa_offset 200
 201:My_Top/Task/Task_Vofa.cpp ****     uorb_handle_t topic = uorb_subscribe(UORB_TOPIC_MOTOR); // и®ўйҳ…motor_stateиҜқйўҳ
 1468              		.loc 1 201 5 is_stmt 1 view .LVU388
 1469              		.loc 1 201 41 is_stmt 0 view .LVU389
 1470 0432 1F48     		ldr	r0, .L78+8
 1471              	.LVL134:
 1472              		.loc 1 201 41 view .LVU390
 1473 0434 FFF7FEFF 		bl	uorb_subscribe
 1474              	.LVL135:
 1475 0438 8046     		mov	r8, r0
 1476              	.LVL136:
 202:My_Top/Task/Task_Vofa.cpp ****     motor_telem_t buf[4];
 1477              		.loc 1 202 5 is_stmt 1 view .LVU391
 1478              		.loc 1 202 24 is_stmt 0 view .LVU392
 1479 043a 0322     		movs	r2, #3
 1480 043c 08AB     		add	r3, sp, #32
 1481 043e 04E0     		b	.L74
 1482              	.L75:
 1483              	.LVL137:
 1484              	.LBB28:
 1485              	.LBI28:
 1486              		.file 3 "My_Top/Task/task_topics.h"
   1:My_Top/Task/task_topics.h **** #pragma once
   2:My_Top/Task/task_topics.h **** 
   3:My_Top/Task/task_topics.h **** typedef struct {
   4:My_Top/Task/task_topics.h ****     // е®һйҷ…дҪҚзҪ®/йҖҹеәҰ
   5:My_Top/Task/task_topics.h ****     float theta_m;               //з”өжңәеҺҹе§Ӣеј§еәҰ
ARM GAS  /tmp/ccTpYRRI.s 			page 35


   6:My_Top/Task/task_topics.h ****     float theta_m_speed;        //з”өжңәеҺҹе§Ӣи§’йҖҹеәҰ(еј§еәҰ)
   7:My_Top/Task/task_topics.h ****     float theta_deg_final;       //жңҖз»Ҳзҡ„з”өжңәи§’еәҰ (еәҰ)
   8:My_Top/Task/task_topics.h ****     float reg_final;             //жңҖз»Ҳзҡ„з”өжңәи§’еәҰ (еј§еәҰ)
   9:My_Top/Task/task_topics.h **** 
  10:My_Top/Task/task_topics.h ****     float Angular_velocity_final; //жңҖз»Ҳзҡ„и§’йҖҹеәҰ
  11:My_Top/Task/task_topics.h **** 
  12:My_Top/Task/task_topics.h ****     // зӣ®ж ҮдҪҚзҪ®/йҖҹеәҰ
  13:My_Top/Task/task_topics.h ****     float _target_location2;     //зӣ®ж ҮдҪҚзҪ® (еәҰ)
  14:My_Top/Task/task_topics.h ****     float _target_speed;         //зӣ®ж ҮйҖҹеәҰ
  15:My_Top/Task/task_topics.h **** 
  16:My_Top/Task/task_topics.h **** 
  17:My_Top/Task/task_topics.h ****     //зғӯж•Ҹз”өйҳ»
  18:My_Top/Task/task_topics.h ****     float ADC_Temp_Val = 0.0f; //зғӯж•Ҹз”өйҳ»жё©еәҰ
  19:My_Top/Task/task_topics.h **** 
  20:My_Top/Task/task_topics.h ****     //и°ғиҜ•дҝЎжҒҜ
  21:My_Top/Task/task_topics.h ****     float updown_duty = 0.0f;//з”өжңәе…ЁеұҖеҚ з©әжҜ”
  22:My_Top/Task/task_topics.h ****     
  23:My_Top/Task/task_topics.h **** 
  24:My_Top/Task/task_topics.h **** } motor_telem_t;                  // жҜҸи·Ҝз”өжңәдёҖдёӘз»“жһ„дҪ“
 1487              		.loc 3 24 3 is_stmt 1 view .LVU393
 1488              	.LBB29:
 1489 0440 0021     		movs	r1, #0
 1490 0442 D961     		str	r1, [r3, #28]	@ float
 1491 0444 1962     		str	r1, [r3, #32]	@ float
 1492              	.LVL138:
 1493              		.loc 3 24 3 is_stmt 0 view .LVU394
 1494              	.LBE29:
 1495              	.LBE28:
 1496              		.loc 1 202 24 discriminator 3 view .LVU395
 1497 0446 013A     		subs	r2, r2, #1
 1498 0448 2433     		adds	r3, r3, #36
 1499              	.L74:
 1500              		.loc 1 202 24 is_stmt 1 discriminator 2 view .LVU396
 1501 044a 002A     		cmp	r2, #0
 1502 044c F8DA     		bge	.L75
 1503              	.LVL139:
 1504              	.L76:
 203:My_Top/Task/Task_Vofa.cpp **** 
 204:My_Top/Task/Task_Vofa.cpp ****     while (1)
 1505              		.loc 1 204 5 view .LVU397
 205:My_Top/Task/Task_Vofa.cpp ****     {
 206:My_Top/Task/Task_Vofa.cpp ****         uorb_copy(topic, buf);  // йҳ»еЎһзӯүж–°ж•°жҚ®
 1506              		.loc 1 206 9 view .LVU398
 1507              		.loc 1 206 18 is_stmt 0 view .LVU399
 1508 044e 08A9     		add	r1, sp, #32
 1509 0450 4046     		mov	r0, r8
 1510 0452 FFF7FEFF 		bl	uorb_copy
 1511              	.LVL140:
 207:My_Top/Task/Task_Vofa.cpp **** 
 208:My_Top/Task/Task_Vofa.cpp ****         // Vofa_SendFireWater_VA(21,
 209:My_Top/Task/Task_Vofa.cpp ****         //     // M1
 210:My_Top/Task/Task_Vofa.cpp ****         //     buf[0].theta_m, buf[0].theta_deg_final,buf[0].Angular_velocity_final, 
 211:My_Top/Task/Task_Vofa.cpp ****         //     buf[0]._target_location2, buf[0]._target_speed,999.0f,
 212:My_Top/Task/Task_Vofa.cpp ****         //     // M2
 213:My_Top/Task/Task_Vofa.cpp ****         //     buf[1].theta_m, buf[1].theta_deg_final,buf[1].Angular_velocity_final,
 214:My_Top/Task/Task_Vofa.cpp ****         //     buf[1]._target_location2, buf[1]._target_speed,999.0f,
 215:My_Top/Task/Task_Vofa.cpp ****         //     // M3
ARM GAS  /tmp/ccTpYRRI.s 			page 36


 216:My_Top/Task/Task_Vofa.cpp ****         //     buf[2].theta_m, buf[2].theta_deg_final,buf[2].Angular_velocity_final,
 217:My_Top/Task/Task_Vofa.cpp ****         //     buf[2]._target_location2, buf[2]._target_speed,999.0f,
 218:My_Top/Task/Task_Vofa.cpp ****         //     // M4
 219:My_Top/Task/Task_Vofa.cpp ****         //     buf[3].theta_m, buf[3].theta_deg_final,buf[3].Angular_velocity_final,
 220:My_Top/Task/Task_Vofa.cpp ****         //     buf[3]._target_location2, buf[3]._target_speed,999.0f
 221:My_Top/Task/Task_Vofa.cpp **** 
 222:My_Top/Task/Task_Vofa.cpp ****         // );
 223:My_Top/Task/Task_Vofa.cpp **** 
 224:My_Top/Task/Task_Vofa.cpp ****         Vofa_SendFireWater_VA(5,
 1512              		.loc 1 224 9 is_stmt 1 discriminator 1 view .LVU400
 225:My_Top/Task/Task_Vofa.cpp ****             // M1
 226:My_Top/Task/Task_Vofa.cpp ****             buf[1]._target_speed, buf[1].Angular_velocity_final,
 227:My_Top/Task/Task_Vofa.cpp ****             buf[1]._target_location2, rad2deg(buf[1].reg_final),
 1513              		.loc 1 227 39 is_stmt 0 view .LVU401
 1514 0456 1498     		ldr	r0, [sp, #80]	@ float
 1515 0458 FFF7FEFF 		bl	__aeabi_f2d
 1516              	.LVL141:
 1517 045c 0646     		mov	r6, r0
 1518 045e 0F46     		mov	r7, r1
 224:My_Top/Task/Task_Vofa.cpp ****             // M1
 1519              		.loc 1 224 30 discriminator 1 view .LVU402
 1520 0460 1798     		ldr	r0, [sp, #92]	@ float
 1521 0462 FFF7FEFF 		bl	__aeabi_f2d
 1522              	.LVL142:
 1523 0466 0446     		mov	r4, r0
 1524 0468 0D46     		mov	r5, r1
 1525 046a 1998     		ldr	r0, [sp, #100]	@ float
 1526 046c FFF7FEFF 		bl	__aeabi_f2d
 1527              	.LVL143:
 1528 0470 CDE90601 		strd	r0, [sp, #24]
 1529 0474 0CA3     		adr	r3, .L78
 1530 0476 D3E90023 		ldrd	r2, [r3]
 1531 047a 3046     		mov	r0, r6
 1532 047c 3946     		mov	r1, r7
 1533 047e FFF7FEFF 		bl	__aeabi_dmul
 1534              	.LVL144:
 1535 0482 CDE90401 		strd	r0, [sp, #16]
 1536 0486 1698     		ldr	r0, [sp, #88]	@ float
 1537 0488 FFF7FEFF 		bl	__aeabi_f2d
 1538              	.LVL145:
 1539 048c CDE90201 		strd	r0, [sp, #8]
 1540 0490 1598     		ldr	r0, [sp, #84]	@ float
 1541 0492 FFF7FEFF 		bl	__aeabi_f2d
 1542              	.LVL146:
 1543 0496 CDE90001 		strd	r0, [sp]
 1544 049a 2246     		mov	r2, r4
 1545 049c 2B46     		mov	r3, r5
 1546 049e 0520     		movs	r0, #5
 1547 04a0 FFF7FEFF 		bl	_Z21Vofa_SendFireWater_VAtz
 1548              	.LVL147:
 204:My_Top/Task/Task_Vofa.cpp ****     {
 1549              		.loc 1 204 5 is_stmt 1 view .LVU403
 1550 04a4 D3E7     		b	.L76
 1551              	.L79:
 1552 04a6 00BF     		.align	3
 1553              	.L78:
 1554 04a8 F8C1631A 		.word	442745336
ARM GAS  /tmp/ccTpYRRI.s 			page 37


 1555 04ac DCA54C40 		.word	1078765020
 1556 04b0 0C000000 		.word	.LC1
 1557              		.cfi_endproc
 1558              	.LFE1373:
 1560              		.global	Vafa_Button
 1561              		.global	Vafa_Location
 1562              		.global	Vafa_Target
 1563              		.global	Vafa_Speed
 1564              		.global	Vafa_IA
 1565              		.global	Button_Names
 1566              		.section	.rodata.str1.4
 1567              		.align	2
 1568              	.LC2:
 1569 0018 6D6F746F 		.ascii	"motor_selection\000"
 1569      725F7365 
 1569      6C656374 
 1569      696F6E00 
 1570              		.align	2
 1571              	.LC3:
 1572 0028 6D6F746F 		.ascii	"motor_fre\000"
 1572      725F6672 
 1572      6500
 1573 0032 0000     		.align	2
 1574              	.LC4:
 1575 0034 6D6F746F 		.ascii	"motor_duty\000"
 1575      725F6475 
 1575      747900
 1576              		.global	Location_Names
 1577 003f 00       		.align	2
 1578              	.LC5:
 1579 0040 6C6F6361 		.ascii	"location_p\000"
 1579      74696F6E 
 1579      5F7000
 1580 004b 00       		.align	2
 1581              	.LC6:
 1582 004c 6C6F6361 		.ascii	"location_i\000"
 1582      74696F6E 
 1582      5F6900
 1583 0057 00       		.align	2
 1584              	.LC7:
 1585 0058 6C6F6361 		.ascii	"location_d\000"
 1585      74696F6E 
 1585      5F6400
 1586              		.global	Target_Names
 1587 0063 00       		.align	2
 1588              	.LC8:
 1589 0064 54617267 		.ascii	"Target_Iq\000"
 1589      65745F49 
 1589      7100
 1590 006e 0000     		.align	2
 1591              	.LC9:
 1592 0070 54617267 		.ascii	"Target_Id\000"
 1592      65745F49 
 1592      6400
 1593 007a 0000     		.align	2
 1594              	.LC10:
 1595 007c 54617267 		.ascii	"Target_speed\000"
ARM GAS  /tmp/ccTpYRRI.s 			page 38


 1595      65745F73 
 1595      70656564 
 1595      00
 1596 0089 000000   		.align	2
 1597              	.LC11:
 1598 008c 54617267 		.ascii	"Target_location1\000"
 1598      65745F6C 
 1598      6F636174 
 1598      696F6E31 
 1598      00
 1599 009d 000000   		.align	2
 1600              	.LC12:
 1601 00a0 54617267 		.ascii	"Target_location2\000"
 1601      65745F6C 
 1601      6F636174 
 1601      696F6E32 
 1601      00
 1602              		.global	Speed_Names
 1603 00b1 000000   		.align	2
 1604              	.LC13:
 1605 00b4 73706565 		.ascii	"speed_p\000"
 1605      645F7000 
 1606              		.align	2
 1607              	.LC14:
 1608 00bc 73706565 		.ascii	"speed_i\000"
 1608      645F6900 
 1609              		.align	2
 1610              	.LC15:
 1611 00c4 73706565 		.ascii	"speed_d\000"
 1611      645F6400 
 1612              		.global	IA_Names
 1613              		.align	2
 1614              	.LC16:
 1615 00cc 69715F70 		.ascii	"iq_p\000"
 1615      00
 1616 00d1 000000   		.align	2
 1617              	.LC17:
 1618 00d4 69715F69 		.ascii	"iq_i\000"
 1618      00
 1619 00d9 000000   		.align	2
 1620              	.LC18:
 1621 00dc 69645F70 		.ascii	"id_p\000"
 1621      00
 1622 00e1 000000   		.align	2
 1623              	.LC19:
 1624 00e4 69645F69 		.ascii	"id_i\000"
 1624      00
 1625              		.data
 1626              		.align	2
 1627              		.set	.LANCHOR1,. + 0
 1630              	IA_Names:
 1631 0000 CC000000 		.word	.LC16
 1632 0004 D4000000 		.word	.LC17
 1633 0008 DC000000 		.word	.LC18
 1634 000c E4000000 		.word	.LC19
 1637              	Speed_Names:
 1638 0010 B4000000 		.word	.LC13
ARM GAS  /tmp/ccTpYRRI.s 			page 39


 1639 0014 BC000000 		.word	.LC14
 1640 0018 C4000000 		.word	.LC15
 1643              	Target_Names:
 1644 001c 64000000 		.word	.LC8
 1645 0020 70000000 		.word	.LC9
 1646 0024 7C000000 		.word	.LC10
 1647 0028 8C000000 		.word	.LC11
 1648 002c A0000000 		.word	.LC12
 1651              	Location_Names:
 1652 0030 40000000 		.word	.LC5
 1653 0034 4C000000 		.word	.LC6
 1654 0038 58000000 		.word	.LC7
 1657              	Button_Names:
 1658 003c 18000000 		.word	.LC2
 1659 0040 28000000 		.word	.LC3
 1660 0044 34000000 		.word	.LC4
 1661              		.bss
 1662              		.align	2
 1663              		.set	.LANCHOR0,. + 0
 1666              	Vafa_IA:
 1667 0000 00000000 		.space	276
 1667      00000000 
 1667      00000000 
 1667      00000000 
 1667      00000000 
 1670              	Vafa_Speed:
 1671 0114 00000000 		.space	276
 1671      00000000 
 1671      00000000 
 1671      00000000 
 1671      00000000 
 1674              	Vafa_Target:
 1675 0228 00000000 		.space	276
 1675      00000000 
 1675      00000000 
 1675      00000000 
 1675      00000000 
 1678              	Vafa_Location:
 1679 033c 00000000 		.space	276
 1679      00000000 
 1679      00000000 
 1679      00000000 
 1679      00000000 
 1682              	Vafa_Button:
 1683 0450 00000000 		.space	276
 1683      00000000 
 1683      00000000 
 1683      00000000 
 1683      00000000 
 1686              	_ZZ16vofa_update_modeP9Work_ModeS_P8DC_MotorE9last_mode:
 1687 0564 00       		.space	1
 1688 0565 000000   		.space	3
 1691              	_ZZ11Task_VofaRxPvE12Motor_Select:
 1692 0568 00000000 		.space	4
 1695              	_ZZ11Task_VofaRxPvE8last_idx:
 1696 056c 00       		.space	1
 1697              		.text
ARM GAS  /tmp/ccTpYRRI.s 			page 40


 1698              	.Letext0:
 1699              		.file 4 "/opt/arm-gnu-toolchain-14.2/lib/gcc/arm-none-eabi/14.2.1/include/stddef.h"
 1700              		.file 5 "/opt/arm-gnu-toolchain-14.2/arm-none-eabi/include/machine/_default_types.h"
 1701              		.file 6 "/opt/arm-gnu-toolchain-14.2/arm-none-eabi/include/sys/_stdint.h"
 1702              		.file 7 "Middlewares/Third_Party/FreeRTOS/Source/portable/GCC/ARM_CM4F/portmacro.h"
 1703              		.file 8 "/opt/arm-gnu-toolchain-14.2/arm-none-eabi/include/stdlib.h"
 1704              		.file 9 "/opt/arm-gnu-toolchain-14.2/arm-none-eabi/include/c++/14.2.1/cstdlib"
 1705              		.file 10 "/opt/arm-gnu-toolchain-14.2/arm-none-eabi/include/c++/14.2.1/bits/std_abs.h"
 1706              		.file 11 "/opt/arm-gnu-toolchain-14.2/arm-none-eabi/include/c++/14.2.1/cmath"
 1707              		.file 12 "/opt/arm-gnu-toolchain-14.2/arm-none-eabi/include/c++/14.2.1/type_traits"
 1708              		.file 13 "/opt/arm-gnu-toolchain-14.2/arm-none-eabi/include/c++/14.2.1/debug/debug.h"
 1709              		.file 14 "/opt/arm-gnu-toolchain-14.2/arm-none-eabi/include/c++/14.2.1/bits/predefined_ops.h"
 1710              		.file 15 "/opt/arm-gnu-toolchain-14.2/arm-none-eabi/include/c++/14.2.1/stdlib.h"
 1711              		.file 16 "Drivers/CMSIS/Device/ST/STM32G4xx/Include/stm32g474xx.h"
 1712              		.file 17 "Drivers/STM32G4xx_HAL_Driver/Inc/stm32g4xx_hal_def.h"
 1713              		.file 18 "Drivers/STM32G4xx_HAL_Driver/Inc/stm32g4xx_hal_dma.h"
 1714              		.file 19 "Drivers/STM32G4xx_HAL_Driver/Inc/stm32g4xx_hal_spi.h"
 1715              		.file 20 "Drivers/STM32G4xx_HAL_Driver/Inc/stm32g4xx_hal_tim.h"
 1716              		.file 21 "Middlewares/Third_Party/FreeRTOS/Source/include/queue.h"
 1717              		.file 22 "My_Top/System/bsp.hpp"
 1718              		.file 23 "Lib/compute/pid/pid.hpp"
 1719              		.file 24 "Lib/compute/pid/pid_Increment.hpp"
 1720              		.file 25 "/opt/arm-gnu-toolchain-14.2/arm-none-eabi/include/math.h"
 1721              		.file 26 "/opt/arm-gnu-toolchain-14.2/arm-none-eabi/include/c++/14.2.1/arm-none-eabi/thumb/v7e-m+f
 1722              		.file 27 "/opt/arm-gnu-toolchain-14.2/arm-none-eabi/include/c++/14.2.1/math.h"
 1723              		.file 28 "Lib/compute/ex_math.hpp"
 1724              		.file 29 "Lib/compute/pid/pll.hpp"
 1725              		.file 30 "Lib/compute/pid/LQR.hpp"
 1726              		.file 31 "My_Top/System/kth_read.hpp"
 1727              		.file 32 "My_Top/Motor_Control/DcMotor_ClosedLoop.hpp"
 1728              		.file 33 "Lib/uorb/uorb.hpp"
 1729              		.file 34 "/opt/arm-gnu-toolchain-14.2/arm-none-eabi/include/string.h"
 1730              		.file 35 "Middlewares/Third_Party/FreeRTOS/Source/include/task.h"
ARM GAS  /tmp/ccTpYRRI.s 			page 41

