ARM GAS  /tmp/ccdKpBOr.s 			page 1


   1              		.cpu cortex-m4
   2              		.arch armv7e-m
   3              		.fpu fpv4-sp-d16
   4              		.eabi_attribute 27, 1
   5              		.eabi_attribute 28, 1
   6              		.eabi_attribute 20, 1
   7              		.eabi_attribute 21, 1
   8              		.eabi_attribute 23, 3
   9              		.eabi_attribute 24, 1
  10              		.eabi_attribute 25, 1
  11              		.eabi_attribute 26, 1
  12              		.eabi_attribute 30, 1
  13              		.eabi_attribute 34, 1
  14              		.eabi_attribute 18, 4
  15              		.file	"Task_DroneCAN.cpp"
  16              		.text
  17              	.Ltext0:
  18              		.cfi_sections	.debug_frame
  19              		.file 1 "My_Top/Task/Task_DroneCAN.cpp"
  20              		.section	.rodata.str1.4,"aMS",%progbits,1
  21              		.align	2
  22              	.LC0:
  23 0000 E888B5E6 		.ascii	"\350\210\265\346\234\272\346\214\207\344\273\244\000"
  23      9CBAE68C 
  23      87E4BBA4 
  23      00
  24 000d 000000   		.align	2
  25              	.LC1:
  26 0010 69645B25 		.ascii	"id[%d] = %.3f  \000"
  26      645D203D 
  26      20252E33 
  26      66202000 
  27              		.align	2
  28              	.LC2:
  29 0020 0D0A00   		.ascii	"\015\012\000"
  30 0023 00       		.align	2
  31              	.LC3:
  32 0024 25642025 		.ascii	"%d %d  %d  %d  %d\015\012\000"
  32      64202025 
  32      64202025 
  32      64202025 
  32      640D0A00 
  33              		.text
  34              		.align	1
  35              		.global	_Z13Task_DroneCANPv
  36              		.syntax unified
  37              		.thumb
  38              		.thumb_func
  40              	_Z13Task_DroneCANPv:
  41              	.LVL0:
  42              	.LFB350:
   1:My_Top/Task/Task_DroneCAN.cpp **** 
   2:My_Top/Task/Task_DroneCAN.cpp **** #include "FreeRTOS.h"
   3:My_Top/Task/Task_DroneCAN.cpp **** #include "task.h"
   4:My_Top/Task/Task_DroneCAN.cpp **** #include "MC_Serial.hpp"
   5:My_Top/Task/Task_DroneCAN.cpp **** #include "dronecan_jiexi.hpp"
   6:My_Top/Task/Task_DroneCAN.cpp **** 
ARM GAS  /tmp/ccdKpBOr.s 			page 2


   7:My_Top/Task/Task_DroneCAN.cpp **** float duoji[] = {30.0, 45.0, 99.0, 360.0, 300.0, 250.0, 200.0, 150.0};
   8:My_Top/Task/Task_DroneCAN.cpp **** uint16_t duoji_len = sizeof(duoji) / sizeof(duoji[0]);
   9:My_Top/Task/Task_DroneCAN.cpp **** 
  10:My_Top/Task/Task_DroneCAN.cpp **** int16_t diantiao[] = {-60, 20, 100, 30, -600, 100, 200, 300, -200, -300, -400, 500, 600, 700, 800};
  11:My_Top/Task/Task_DroneCAN.cpp **** uint16_t diantiao_len = sizeof(diantiao) / sizeof(diantiao[0]);
  12:My_Top/Task/Task_DroneCAN.cpp **** 
  13:My_Top/Task/Task_DroneCAN.cpp **** void Task_DroneCAN(void *argument)
  14:My_Top/Task/Task_DroneCAN.cpp **** {
  43              		.loc 1 14 1 view -0
  44              		.cfi_startproc
  45              		@ args = 0, pretend = 0, frame = 0
  46              		@ frame_needed = 0, uses_anonymous_args = 0
  47              		.loc 1 14 1 is_stmt 0 view .LVU1
  48 0000 30B5     		push	{r4, r5, lr}
  49              		.cfi_def_cfa_offset 12
  50              		.cfi_offset 4, -12
  51              		.cfi_offset 5, -8
  52              		.cfi_offset 14, -4
  53 0002 83B0     		sub	sp, sp, #12
  54              		.cfi_def_cfa_offset 24
  15:My_Top/Task/Task_DroneCAN.cpp ****     // printf("1-DroneCAN任务启动中\r\n");
  16:My_Top/Task/Task_DroneCAN.cpp ****     vTaskDelay(pdMS_TO_TICKS(50));
  55              		.loc 1 16 5 is_stmt 1 view .LVU2
  56              		.loc 1 16 15 is_stmt 0 view .LVU3
  57 0004 3220     		movs	r0, #50
  58              	.LVL1:
  59              		.loc 1 16 15 view .LVU4
  60 0006 FFF7FEFF 		bl	vTaskDelay
  61              	.LVL2:
  62 000a 2EE0     		b	.L6
  63              	.L8:
  64              	.LBB2:
  65              	.LBB3:
  66              	.LBB4:
  17:My_Top/Task/Task_DroneCAN.cpp ****     while (1)
  18:My_Top/Task/Task_DroneCAN.cpp ****     {
  19:My_Top/Task/Task_DroneCAN.cpp ****         DroneCan_Send_Servo(duoji, duoji_len); //
  20:My_Top/Task/Task_DroneCAN.cpp ****         // DroneCan_Send_Heartbeat(); // 发送心跳包
  21:My_Top/Task/Task_DroneCAN.cpp ****         if (drone_servo.updated)
  22:My_Top/Task/Task_DroneCAN.cpp ****         {
  23:My_Top/Task/Task_DroneCAN.cpp ****             printf("舵机指令");
  67              		.loc 1 23 13 is_stmt 1 view .LVU5
  68              		.loc 1 23 19 is_stmt 0 view .LVU6
  69 000c 1E48     		ldr	r0, .L10
  70 000e FFF7FEFF 		bl	printf_
  71              	.LVL3:
  24:My_Top/Task/Task_DroneCAN.cpp ****             for (uint16_t i = 0; i < drone_servo.cmd_cnt; i++)
  72              		.loc 1 24 13 is_stmt 1 view .LVU7
  73              	.LBB5:
  74              		.loc 1 24 27 is_stmt 0 view .LVU8
  75 0012 0024     		movs	r4, #0
  76              		.loc 1 24 13 view .LVU9
  77 0014 0EE0     		b	.L3
  78              	.LVL4:
  79              	.L4:
  25:My_Top/Task/Task_DroneCAN.cpp ****             {
  26:My_Top/Task/Task_DroneCAN.cpp ****                 printf("id[%d] = %.3f  ", drone_servo.cmd[i].actuator_id, drone_servo.cmd[i].comman
ARM GAS  /tmp/ccdKpBOr.s 			page 3


  80              		.loc 1 26 17 is_stmt 1 view .LVU10
  81              		.loc 1 26 62 is_stmt 0 view .LVU11
  82 0016 1D4B     		ldr	r3, .L10+4
  83 0018 03EBC403 		add	r3, r3, r4, lsl #3
  84 001c 1D79     		ldrb	r5, [r3, #4]	@ zero_extendqisi2
  85              		.loc 1 26 23 view .LVU12
  86 001e 9868     		ldr	r0, [r3, #8]	@ float
  87 0020 FFF7FEFF 		bl	__aeabi_f2d
  88              	.LVL5:
  89 0024 0246     		mov	r2, r0
  90 0026 0B46     		mov	r3, r1
  91 0028 2946     		mov	r1, r5
  92 002a 1948     		ldr	r0, .L10+8
  93 002c FFF7FEFF 		bl	printf_
  94              	.LVL6:
  24:My_Top/Task/Task_DroneCAN.cpp ****             for (uint16_t i = 0; i < drone_servo.cmd_cnt; i++)
  95              		.loc 1 24 13 is_stmt 1 discriminator 3 view .LVU13
  96 0030 0134     		adds	r4, r4, #1
  97              	.LVL7:
  24:My_Top/Task/Task_DroneCAN.cpp ****             for (uint16_t i = 0; i < drone_servo.cmd_cnt; i++)
  98              		.loc 1 24 13 is_stmt 0 discriminator 3 view .LVU14
  99 0032 A4B2     		uxth	r4, r4
 100              	.LVL8:
 101              	.L3:
  24:My_Top/Task/Task_DroneCAN.cpp ****             for (uint16_t i = 0; i < drone_servo.cmd_cnt; i++)
 102              		.loc 1 24 36 is_stmt 1 discriminator 1 view .LVU15
  24:My_Top/Task/Task_DroneCAN.cpp ****             for (uint16_t i = 0; i < drone_servo.cmd_cnt; i++)
 103              		.loc 1 24 50 is_stmt 0 discriminator 1 view .LVU16
 104 0034 154B     		ldr	r3, .L10+4
 105 0036 1B78     		ldrb	r3, [r3]	@ zero_extendqisi2
  24:My_Top/Task/Task_DroneCAN.cpp ****             for (uint16_t i = 0; i < drone_servo.cmd_cnt; i++)
 106              		.loc 1 24 36 discriminator 1 view .LVU17
 107 0038 A342     		cmp	r3, r4
 108 003a ECD8     		bhi	.L4
 109              	.LBE5:
  27:My_Top/Task/Task_DroneCAN.cpp ****             }
  28:My_Top/Task/Task_DroneCAN.cpp ****             printf("\r\n");
 110              		.loc 1 28 13 is_stmt 1 view .LVU18
 111              		.loc 1 28 19 is_stmt 0 view .LVU19
 112 003c 1548     		ldr	r0, .L10+12
 113 003e FFF7FEFF 		bl	printf_
 114              	.LVL9:
  29:My_Top/Task/Task_DroneCAN.cpp ****             drone_servo.updated = false;
 115              		.loc 1 29 13 is_stmt 1 view .LVU20
 116              		.loc 1 29 33 is_stmt 0 view .LVU21
 117 0042 124B     		ldr	r3, .L10+4
 118 0044 0022     		movs	r2, #0
 119 0046 83F87C20 		strb	r2, [r3, #124]
 120              	.LBE4:
 121 004a 18E0     		b	.L2
 122              	.LVL10:
 123              	.L9:
 124              		.loc 1 29 33 view .LVU22
 125              	.LBE3:
  30:My_Top/Task/Task_DroneCAN.cpp ****         }
  31:My_Top/Task/Task_DroneCAN.cpp **** 
  32:My_Top/Task/Task_DroneCAN.cpp ****         if (drone_heartbeat.updated)
ARM GAS  /tmp/ccdKpBOr.s 			page 4


  33:My_Top/Task/Task_DroneCAN.cpp ****         {
  34:My_Top/Task/Task_DroneCAN.cpp ****             printf("%d %d  %d  %d  %d\r\n",
 126              		.loc 1 34 13 is_stmt 1 view .LVU23
  35:My_Top/Task/Task_DroneCAN.cpp ****                 drone_heartbeat.uptime_sec   ,   // 飞控运行了多久
  36:My_Top/Task/Task_DroneCAN.cpp ****                 drone_heartbeat.health    ,   
 127              		.loc 1 36 33 is_stmt 0 view .LVU24
 128 004c 124C     		ldr	r4, .L10+16
  37:My_Top/Task/Task_DroneCAN.cpp ****                 drone_heartbeat.mode    ,     
  38:My_Top/Task/Task_DroneCAN.cpp ****                 drone_heartbeat.vendor_status,
 129              		.loc 1 38 33 view .LVU25
 130 004e 2289     		ldrh	r2, [r4, #8]
  34:My_Top/Task/Task_DroneCAN.cpp ****                 drone_heartbeat.uptime_sec   ,   // 飞控运行了多久
 131              		.loc 1 34 19 view .LVU26
 132 0050 0193     		str	r3, [sp, #4]
 133 0052 0092     		str	r2, [sp]
 134 0054 6379     		ldrb	r3, [r4, #5]	@ zero_extendqisi2
 135 0056 2279     		ldrb	r2, [r4, #4]	@ zero_extendqisi2
 136 0058 2168     		ldr	r1, [r4]
 137 005a 1048     		ldr	r0, .L10+20
 138 005c FFF7FEFF 		bl	printf_
 139              	.LVL11:
  39:My_Top/Task/Task_DroneCAN.cpp ****                 drone_heartbeat.updated);
  40:My_Top/Task/Task_DroneCAN.cpp ****             drone_heartbeat.updated = false;
 140              		.loc 1 40 13 is_stmt 1 view .LVU27
 141              		.loc 1 40 37 is_stmt 0 view .LVU28
 142 0060 0023     		movs	r3, #0
 143 0062 A372     		strb	r3, [r4, #10]
 144              	.L5:
  41:My_Top/Task/Task_DroneCAN.cpp ****         }
  42:My_Top/Task/Task_DroneCAN.cpp ****         vTaskDelay(pdMS_TO_TICKS(1));
 145              		.loc 1 42 9 is_stmt 1 view .LVU29
 146              		.loc 1 42 19 is_stmt 0 view .LVU30
 147 0064 0120     		movs	r0, #1
 148 0066 FFF7FEFF 		bl	vTaskDelay
 149              	.LVL12:
 150              	.LBE2:
  17:My_Top/Task/Task_DroneCAN.cpp ****     {
 151              		.loc 1 17 5 is_stmt 1 view .LVU31
 152              	.L6:
  17:My_Top/Task/Task_DroneCAN.cpp ****     {
 153              		.loc 1 17 5 view .LVU32
 154              	.LBB7:
  19:My_Top/Task/Task_DroneCAN.cpp ****         // DroneCan_Send_Heartbeat(); // 发送心跳包
 155              		.loc 1 19 9 view .LVU33
  19:My_Top/Task/Task_DroneCAN.cpp ****         // DroneCan_Send_Heartbeat(); // 发送心跳包
 156              		.loc 1 19 28 is_stmt 0 view .LVU34
 157 006a 0D48     		ldr	r0, .L10+24
 158 006c 10F8041B 		ldrb	r1, [r0], #4	@ zero_extendqisi2
 159 0070 FFF7FEFF 		bl	_Z19DroneCan_Send_ServoPfh
 160              	.LVL13:
  21:My_Top/Task/Task_DroneCAN.cpp ****         {
 161              		.loc 1 21 9 is_stmt 1 view .LVU35
 162              	.LBB6:
  21:My_Top/Task/Task_DroneCAN.cpp ****         {
 163              		.loc 1 21 25 is_stmt 0 view .LVU36
 164 0074 054B     		ldr	r3, .L10+4
 165 0076 93F87C30 		ldrb	r3, [r3, #124]	@ zero_extendqisi2
ARM GAS  /tmp/ccdKpBOr.s 			page 5


  21:My_Top/Task/Task_DroneCAN.cpp ****         {
 166              		.loc 1 21 9 view .LVU37
 167 007a 002B     		cmp	r3, #0
 168 007c C6D1     		bne	.L8
 169              	.L2:
 170              	.LBE6:
  32:My_Top/Task/Task_DroneCAN.cpp ****         {
 171              		.loc 1 32 9 is_stmt 1 view .LVU38
  32:My_Top/Task/Task_DroneCAN.cpp ****         {
 172              		.loc 1 32 29 is_stmt 0 view .LVU39
 173 007e 064B     		ldr	r3, .L10+16
 174 0080 9B7A     		ldrb	r3, [r3, #10]	@ zero_extendqisi2
  32:My_Top/Task/Task_DroneCAN.cpp ****         {
 175              		.loc 1 32 9 view .LVU40
 176 0082 002B     		cmp	r3, #0
 177 0084 E2D1     		bne	.L9
 178 0086 EDE7     		b	.L5
 179              	.L11:
 180              		.align	2
 181              	.L10:
 182 0088 00000000 		.word	.LC0
 183 008c 00000000 		.word	drone_servo
 184 0090 10000000 		.word	.LC1
 185 0094 20000000 		.word	.LC2
 186 0098 00000000 		.word	drone_heartbeat
 187 009c 24000000 		.word	.LC3
 188 00a0 00000000 		.word	.LANCHOR0
 189              	.LBE7:
 190              		.cfi_endproc
 191              	.LFE350:
 193              		.global	diantiao_len
 194              		.global	diantiao
 195              		.global	duoji_len
 196              		.global	duoji
 197              		.data
 198              		.align	2
 199              		.set	.LANCHOR0,. + 0
 202              	duoji_len:
 203 0000 0800     		.short	8
 204 0002 0000     		.space	2
 207              	duoji:
 208 0004 0000F041 		.word	1106247680
 209 0008 00003442 		.word	1110704128
 210 000c 0000C642 		.word	1120272384
 211 0010 0000B443 		.word	1135869952
 212 0014 00009643 		.word	1133903872
 213 0018 00007A43 		.word	1132068864
 214 001c 00004843 		.word	1128792064
 215 0020 00001643 		.word	1125515264
 218              	diantiao_len:
 219 0024 0F00     		.short	15
 220 0026 0000     		.space	2
 223              	diantiao:
 224 0028 C4FF     		.short	-60
 225 002a 1400     		.short	20
 226 002c 6400     		.short	100
 227 002e 1E00     		.short	30
ARM GAS  /tmp/ccdKpBOr.s 			page 6


 228 0030 A8FD     		.short	-600
 229 0032 6400     		.short	100
 230 0034 C800     		.short	200
 231 0036 2C01     		.short	300
 232 0038 38FF     		.short	-200
 233 003a D4FE     		.short	-300
 234 003c 70FE     		.short	-400
 235 003e F401     		.short	500
 236 0040 5802     		.short	600
 237 0042 BC02     		.short	700
 238 0044 2003     		.short	800
 239              		.text
 240              	.Letext0:
 241              		.file 2 "/opt/arm-gnu-toolchain-14.2/arm-none-eabi/include/machine/_default_types.h"
 242              		.file 3 "/opt/arm-gnu-toolchain-14.2/arm-none-eabi/include/sys/_stdint.h"
 243              		.file 4 "Middlewares/Third_Party/FreeRTOS/Source/portable/GCC/ARM_CM4F/portmacro.h"
 244              		.file 5 "My_Top/Drone_CAN/dronecan_jiexi.hpp"
 245              		.file 6 "Lib/serial/printf.h"
 246              		.file 7 "My_Top/Drone_CAN/my_dronecan.hpp"
 247              		.file 8 "Middlewares/Third_Party/FreeRTOS/Source/include/task.h"
ARM GAS  /tmp/ccdKpBOr.s 			page 7

