ARM GAS  /tmp/cc1HgQX2.s 			page 1


   1              		.cpu cortex-m4
   2              		.arch armv7e-m
   3              		.fpu fpv4-sp-d16
   4              		.eabi_attribute 27, 1
   5              		.eabi_attribute 28, 1
   6              		.eabi_attribute 20, 1
   7              		.eabi_attribute 21, 1
   8              		.eabi_attribute 23, 3
   9              		.eabi_attribute 24, 1
  10              		.eabi_attribute 25, 1
  11              		.eabi_attribute 26, 1
  12              		.eabi_attribute 30, 1
  13              		.eabi_attribute 34, 1
  14              		.eabi_attribute 18, 4
  15              		.file	"Task_MotorPublish.cpp"
  16              		.text
  17              	.Ltext0:
  18              		.cfi_sections	.debug_frame
  19              		.file 1 "My_Top/Task/Task_MotorPublish.cpp"
  20              		.align	1
  21              		.syntax unified
  22              		.thumb
  23              		.thumb_func
  25              	_ZL10fill_telemP13motor_telem_tP8DC_Motor:
  26              	.LVL0:
  27              	.LFB1352:
   1:My_Top/Task/Task_MotorPublish.cpp **** #include "FreeRTOS.h"
   2:My_Top/Task/Task_MotorPublish.cpp **** #include "task.h"
   3:My_Top/Task/Task_MotorPublish.cpp **** #include "uorb.hpp"
   4:My_Top/Task/Task_MotorPublish.cpp **** #include "task_topics.h"
   5:My_Top/Task/Task_MotorPublish.cpp **** #include "DcMotor_ClosedLoop.hpp"
   6:My_Top/Task/Task_MotorPublish.cpp **** 
   7:My_Top/Task/Task_MotorPublish.cpp **** static void fill_telem(motor_telem_t *dst, DC_Motor *m) // з”өжңәж•°жҚ®еЎ«е……иҪ¬еӯҳ
   8:My_Top/Task/Task_MotorPublish.cpp **** {
  28              		.loc 1 8 1 view -0
  29              		.cfi_startproc
  30              		@ args = 0, pretend = 0, frame = 0
  31              		@ frame_needed = 0, uses_anonymous_args = 0
  32              		@ link register save eliminated.
   9:My_Top/Task/Task_MotorPublish.cpp **** 
  10:My_Top/Task/Task_MotorPublish.cpp ****     // е®һйҷ…дҪҚзҪ®/йҖҹеәҰ
  11:My_Top/Task/Task_MotorPublish.cpp ****     dst->theta_m = m->theta_m;                //з”өжңәеҺҹе§Ӣеј§еәҰ
  33              		.loc 1 11 5 view .LVU1
  34              		.loc 1 11 23 is_stmt 0 view .LVU2
  35 0000 4B69     		ldr	r3, [r1, #20]	@ float
  36              		.loc 1 11 18 view .LVU3
  37 0002 0360     		str	r3, [r0]	@ float
  12:My_Top/Task/Task_MotorPublish.cpp ****     dst->theta_m_speed = m->theta_m_speed;        //з”өжңәеҺҹе§Ӣеј§еәҰйҖҹеәҰ
  38              		.loc 1 12 5 is_stmt 1 view .LVU4
  39              		.loc 1 12 29 is_stmt 0 view .LVU5
  40 0004 8B69     		ldr	r3, [r1, #24]	@ float
  41              		.loc 1 12 24 view .LVU6
  42 0006 4360     		str	r3, [r0, #4]	@ float
  13:My_Top/Task/Task_MotorPublish.cpp ****     dst->theta_deg_final = m->theta_deg_final;        //жңҖз»Ҳзҡ„з”өжңәи§’еәҰ (еәҰ)
  43              		.loc 1 13 5 is_stmt 1 view .LVU7
  44              		.loc 1 13 31 is_stmt 0 view .LVU8
  45 0008 0B6A     		ldr	r3, [r1, #32]	@ float
ARM GAS  /tmp/cc1HgQX2.s 			page 2


  46              		.loc 1 13 26 view .LVU9
  47 000a 8360     		str	r3, [r0, #8]	@ float
  14:My_Top/Task/Task_MotorPublish.cpp ****     dst->reg_final = m->reg_final;              //жңҖз»Ҳзҡ„з”өжңәи§’еәҰ (еј§еәҰ)
  48              		.loc 1 14 5 is_stmt 1 view .LVU10
  49              		.loc 1 14 25 is_stmt 0 view .LVU11
  50 000c CB69     		ldr	r3, [r1, #28]	@ float
  51              		.loc 1 14 20 view .LVU12
  52 000e C360     		str	r3, [r0, #12]	@ float
  15:My_Top/Task/Task_MotorPublish.cpp ****     dst->Angular_velocity_final = m->Angular_velocity_final; //жңҖз»Ҳзҡ„и§’йҖҹеәҰ
  53              		.loc 1 15 5 is_stmt 1 view .LVU13
  54              		.loc 1 15 38 is_stmt 0 view .LVU14
  55 0010 4B6A     		ldr	r3, [r1, #36]	@ float
  56              		.loc 1 15 33 view .LVU15
  57 0012 0361     		str	r3, [r0, #16]	@ float
  16:My_Top/Task/Task_MotorPublish.cpp **** 
  17:My_Top/Task/Task_MotorPublish.cpp ****     // зӣ®ж ҮдҪҚзҪ®/йҖҹеәҰ
  18:My_Top/Task/Task_MotorPublish.cpp ****     dst->_target_location2 = m->_target_location2;      //зӣ®ж ҮдҪҚзҪ® (еәҰ)
  58              		.loc 1 18 5 is_stmt 1 view .LVU16
  59              		.loc 1 18 33 is_stmt 0 view .LVU17
  60 0014 0B6B     		ldr	r3, [r1, #48]	@ float
  61              		.loc 1 18 28 view .LVU18
  62 0016 4361     		str	r3, [r0, #20]	@ float
  19:My_Top/Task/Task_MotorPublish.cpp ****     dst->_target_location2_cmd = m->_target_location2_cmd;
  63              		.loc 1 19 5 is_stmt 1 view .LVU19
  64              		.loc 1 19 37 is_stmt 0 view .LVU20
  65 0018 4B6B     		ldr	r3, [r1, #52]	@ float
  66              		.loc 1 19 32 view .LVU21
  67 001a 8361     		str	r3, [r0, #24]	@ float
  20:My_Top/Task/Task_MotorPublish.cpp ****     dst->_target_speed = m->_target_speed;          //зӣ®ж ҮйҖҹеәҰ
  68              		.loc 1 20 5 is_stmt 1 view .LVU22
  69              		.loc 1 20 29 is_stmt 0 view .LVU23
  70 001c CB6A     		ldr	r3, [r1, #44]	@ float
  71              		.loc 1 20 24 view .LVU24
  72 001e C361     		str	r3, [r0, #28]	@ float
  21:My_Top/Task/Task_MotorPublish.cpp ****  
  22:My_Top/Task/Task_MotorPublish.cpp ****     //зғӯж•Ҹз”өйҳ»
  23:My_Top/Task/Task_MotorPublish.cpp ****     dst->ADC_Temp_Val = m->ADC_Temp_Val;           //зғӯж•Ҹз”өйҳ»жё©еәҰ
  73              		.loc 1 23 5 is_stmt 1 view .LVU25
  74              		.loc 1 23 28 is_stmt 0 view .LVU26
  75 0020 CB6B     		ldr	r3, [r1, #60]	@ float
  76              		.loc 1 23 23 view .LVU27
  77 0022 0362     		str	r3, [r0, #32]	@ float
  24:My_Top/Task/Task_MotorPublish.cpp ****  
  25:My_Top/Task/Task_MotorPublish.cpp ****     //и°ғиҜ•дҝЎжҒҜ
  26:My_Top/Task/Task_MotorPublish.cpp ****     dst->updown_duty = m->updown_duty;     //з”өжңәе…ЁеұҖеҚ з©әжҜ”
  78              		.loc 1 26 5 is_stmt 1 view .LVU28
  79              		.loc 1 26 27 is_stmt 0 view .LVU29
  80 0024 0B69     		ldr	r3, [r1, #16]	@ float
  81              		.loc 1 26 22 view .LVU30
  82 0026 4362     		str	r3, [r0, #36]	@ float
  27:My_Top/Task/Task_MotorPublish.cpp **** 
  28:My_Top/Task/Task_MotorPublish.cpp **** }
  83              		.loc 1 28 1 view .LVU31
  84 0028 7047     		bx	lr
  85              		.cfi_endproc
  86              	.LFE1352:
  88              		.section	.rodata.str1.4,"aMS",%progbits,1
ARM GAS  /tmp/cc1HgQX2.s 			page 3


  89              		.align	2
  90              	.LC0:
  91 0000 6D6F746F 		.ascii	"motor_telem\000"
  91      725F7465 
  91      6C656D00 
  92              		.text
  93              		.align	1
  94              		.global	_Z17Task_MotorPublishPv
  95              		.syntax unified
  96              		.thumb
  97              		.thumb_func
  99              	_Z17Task_MotorPublishPv:
 100              	.LVL1:
 101              	.LFB1353:
  29:My_Top/Task/Task_MotorPublish.cpp **** 
  30:My_Top/Task/Task_MotorPublish.cpp **** void Task_MotorPublish(void *argument)
  31:My_Top/Task/Task_MotorPublish.cpp **** {
 102              		.loc 1 31 1 is_stmt 1 view -0
 103              		.cfi_startproc
 104              		@ args = 0, pretend = 0, frame = 160
 105              		@ frame_needed = 0, uses_anonymous_args = 0
 106              		.loc 1 31 1 is_stmt 0 view .LVU33
 107 002a 30B5     		push	{r4, r5, lr}
 108              		.cfi_def_cfa_offset 12
 109              		.cfi_offset 4, -12
 110              		.cfi_offset 5, -8
 111              		.cfi_offset 14, -4
 112 002c A9B0     		sub	sp, sp, #164
 113              		.cfi_def_cfa_offset 176
  32:My_Top/Task/Task_MotorPublish.cpp ****     uorb_handle_t topic = uorb_advertise(UORB_TOPIC_MOTOR, sizeof(motor_telem_t) * 4); //жіЁеҶҢеҸ‘е
 114              		.loc 1 32 5 is_stmt 1 view .LVU34
 115              		.loc 1 32 41 is_stmt 0 view .LVU35
 116 002e A021     		movs	r1, #160
 117 0030 1248     		ldr	r0, .L7
 118              	.LVL2:
 119              		.loc 1 32 41 view .LVU36
 120 0032 FFF7FEFF 		bl	uorb_advertise
 121              	.LVL3:
 122 0036 0546     		mov	r5, r0
 123              	.LVL4:
  33:My_Top/Task/Task_MotorPublish.cpp ****     motor_telem_t buf[4];
 124              		.loc 1 33 5 is_stmt 1 view .LVU37
 125              		.loc 1 33 24 is_stmt 0 view .LVU38
 126 0038 0322     		movs	r2, #3
 127 003a 6B46     		mov	r3, sp
 128 003c 04E0     		b	.L3
 129              	.L4:
 130              	.LVL5:
 131              	.LBB5:
 132              	.LBI5:
 133              		.file 2 "My_Top/Task/task_topics.h"
   1:My_Top/Task/task_topics.h **** #pragma once
   2:My_Top/Task/task_topics.h **** 
   3:My_Top/Task/task_topics.h **** typedef struct {
   4:My_Top/Task/task_topics.h ****     // е®һйҷ…дҪҚзҪ®/йҖҹеәҰ
   5:My_Top/Task/task_topics.h ****     float theta_m;               //з”өжңәеҺҹе§Ӣеј§еәҰ
   6:My_Top/Task/task_topics.h ****     float theta_m_speed;        //з”өжңәеҺҹе§Ӣи§’йҖҹеәҰ(еј§еәҰ)
ARM GAS  /tmp/cc1HgQX2.s 			page 4


   7:My_Top/Task/task_topics.h ****     float theta_deg_final;       //жңҖз»Ҳзҡ„з”өжңәи§’еәҰ (еәҰ)
   8:My_Top/Task/task_topics.h ****     float reg_final;             //жңҖз»Ҳзҡ„з”өжңәи§’еәҰ (еј§еәҰ)
   9:My_Top/Task/task_topics.h **** 
  10:My_Top/Task/task_topics.h ****     float Angular_velocity_final; //жңҖз»Ҳзҡ„и§’йҖҹеәҰ
  11:My_Top/Task/task_topics.h **** 
  12:My_Top/Task/task_topics.h ****     // зӣ®ж ҮдҪҚзҪ®/йҖҹеәҰ
  13:My_Top/Task/task_topics.h ****     float _target_location2;     //зӣ®ж ҮдҪҚзҪ® (еәҰ)
  14:My_Top/Task/task_topics.h ****     float _target_location2_cmd;      //зӣ®ж ҮдҪҚзҪ®cmd
  15:My_Top/Task/task_topics.h ****     float _target_speed;         //зӣ®ж ҮйҖҹеәҰ
  16:My_Top/Task/task_topics.h **** 
  17:My_Top/Task/task_topics.h **** 
  18:My_Top/Task/task_topics.h ****     //зғӯж•Ҹз”өйҳ»
  19:My_Top/Task/task_topics.h ****     float ADC_Temp_Val = 0.0f; //зғӯж•Ҹз”өйҳ»жё©еәҰ
  20:My_Top/Task/task_topics.h **** 
  21:My_Top/Task/task_topics.h ****     //и°ғиҜ•дҝЎжҒҜ
  22:My_Top/Task/task_topics.h ****     float updown_duty = 0.0f;//з”өжңәе…ЁеұҖеҚ з©әжҜ”
  23:My_Top/Task/task_topics.h ****     
  24:My_Top/Task/task_topics.h **** 
  25:My_Top/Task/task_topics.h **** } motor_telem_t;                  // жҜҸи·Ҝз”өжңәдёҖдёӘз»“жһ„дҪ“
 134              		.loc 2 25 3 is_stmt 1 view .LVU39
 135              	.LBB6:
 136 003e 0021     		movs	r1, #0
 137 0040 1962     		str	r1, [r3, #32]	@ float
 138 0042 5962     		str	r1, [r3, #36]	@ float
 139              	.LVL6:
 140              		.loc 2 25 3 is_stmt 0 view .LVU40
 141              	.LBE6:
 142              	.LBE5:
 143              		.loc 1 33 24 discriminator 3 view .LVU41
 144 0044 013A     		subs	r2, r2, #1
 145 0046 2833     		adds	r3, r3, #40
 146              	.L3:
 147              		.loc 1 33 24 is_stmt 1 discriminator 2 view .LVU42
 148 0048 002A     		cmp	r2, #0
 149 004a F8DA     		bge	.L4
 150              	.LVL7:
 151              	.L5:
  34:My_Top/Task/Task_MotorPublish.cpp **** 
  35:My_Top/Task/Task_MotorPublish.cpp ****     while (1)
 152              		.loc 1 35 5 view .LVU43
  36:My_Top/Task/Task_MotorPublish.cpp ****     {
  37:My_Top/Task/Task_MotorPublish.cpp ****         fill_telem(&buf[0], &M1);
 153              		.loc 1 37 9 view .LVU44
 154              		.loc 1 37 19 is_stmt 0 view .LVU45
 155 004c 0C49     		ldr	r1, .L7+4
 156 004e 6846     		mov	r0, sp
 157 0050 FFF7D6FF 		bl	_ZL10fill_telemP13motor_telem_tP8DC_Motor
 158              	.LVL8:
  38:My_Top/Task/Task_MotorPublish.cpp ****         fill_telem(&buf[1], &M2);
 159              		.loc 1 38 9 is_stmt 1 view .LVU46
 160              		.loc 1 38 19 is_stmt 0 view .LVU47
 161 0054 0B49     		ldr	r1, .L7+8
 162 0056 0AA8     		add	r0, sp, #40
 163 0058 FFF7D2FF 		bl	_ZL10fill_telemP13motor_telem_tP8DC_Motor
 164              	.LVL9:
  39:My_Top/Task/Task_MotorPublish.cpp ****         fill_telem(&buf[2], &M3);
 165              		.loc 1 39 9 is_stmt 1 view .LVU48
ARM GAS  /tmp/cc1HgQX2.s 			page 5


 166              		.loc 1 39 19 is_stmt 0 view .LVU49
 167 005c 0A49     		ldr	r1, .L7+12
 168 005e 14A8     		add	r0, sp, #80
 169 0060 FFF7CEFF 		bl	_ZL10fill_telemP13motor_telem_tP8DC_Motor
 170              	.LVL10:
  40:My_Top/Task/Task_MotorPublish.cpp ****         fill_telem(&buf[3], &M4);
 171              		.loc 1 40 9 is_stmt 1 view .LVU50
 172              		.loc 1 40 19 is_stmt 0 view .LVU51
 173 0064 0949     		ldr	r1, .L7+16
 174 0066 1EA8     		add	r0, sp, #120
 175 0068 FFF7CAFF 		bl	_ZL10fill_telemP13motor_telem_tP8DC_Motor
 176              	.LVL11:
  41:My_Top/Task/Task_MotorPublish.cpp **** 
  42:My_Top/Task/Task_MotorPublish.cpp ****         uorb_publish(topic, buf);//еҸ‘еёғж•°жҚ® (жІЎжңүжҢҮе®ҡз»ҷи°ҒеҸ‘пјҢж”ҫеңЁе…¬е…ұеҢәеҹҹйҮҢ)
 177              		.loc 1 42 9 is_stmt 1 view .LVU52
 178              		.loc 1 42 21 is_stmt 0 view .LVU53
 179 006c 6946     		mov	r1, sp
 180 006e 2846     		mov	r0, r5
 181 0070 FFF7FEFF 		bl	uorb_publish
 182              	.LVL12:
  43:My_Top/Task/Task_MotorPublish.cpp ****         vTaskDelay(pdMS_TO_TICKS(10));  //
 183              		.loc 1 43 9 is_stmt 1 discriminator 1 view .LVU54
 184              		.loc 1 43 19 is_stmt 0 discriminator 1 view .LVU55
 185 0074 0A20     		movs	r0, #10
 186 0076 FFF7FEFF 		bl	vTaskDelay
 187              	.LVL13:
  35:My_Top/Task/Task_MotorPublish.cpp ****     {
 188              		.loc 1 35 5 is_stmt 1 view .LVU56
 189 007a E7E7     		b	.L5
 190              	.L8:
 191              		.align	2
 192              	.L7:
 193 007c 00000000 		.word	.LC0
 194 0080 00000000 		.word	M1
 195 0084 00000000 		.word	M2
 196 0088 00000000 		.word	M3
 197 008c 00000000 		.word	M4
 198              		.cfi_endproc
 199              	.LFE1353:
 201              	.Letext0:
 202              		.file 3 "/opt/arm-gnu-toolchain-14.2/arm-none-eabi/include/machine/_default_types.h"
 203              		.file 4 "/opt/arm-gnu-toolchain-14.2/arm-none-eabi/include/sys/_stdint.h"
 204              		.file 5 "Middlewares/Third_Party/FreeRTOS/Source/portable/GCC/ARM_CM4F/portmacro.h"
 205              		.file 6 "Lib/uorb/uorb.hpp"
 206              		.file 7 "Lib/compute/pid/pid.hpp"
 207              		.file 8 "Lib/compute/pid/pid_Increment.hpp"
 208              		.file 9 "/opt/arm-gnu-toolchain-14.2/arm-none-eabi/include/c++/14.2.1/cmath"
 209              		.file 10 "/opt/arm-gnu-toolchain-14.2/arm-none-eabi/include/c++/14.2.1/type_traits"
 210              		.file 11 "/opt/arm-gnu-toolchain-14.2/arm-none-eabi/include/c++/14.2.1/debug/debug.h"
 211              		.file 12 "/opt/arm-gnu-toolchain-14.2/arm-none-eabi/include/c++/14.2.1/bits/std_abs.h"
 212              		.file 13 "/opt/arm-gnu-toolchain-14.2/arm-none-eabi/include/c++/14.2.1/bits/predefined_ops.h"
 213              		.file 14 "/opt/arm-gnu-toolchain-14.2/arm-none-eabi/include/math.h"
 214              		.file 15 "/opt/arm-gnu-toolchain-14.2/arm-none-eabi/include/c++/14.2.1/arm-none-eabi/thumb/v7e-m+f
 215              		.file 16 "/opt/arm-gnu-toolchain-14.2/arm-none-eabi/include/c++/14.2.1/math.h"
 216              		.file 17 "Lib/compute/ex_math.hpp"
 217              		.file 18 "Drivers/CMSIS/Device/ST/STM32G4xx/Include/stm32g474xx.h"
 218              		.file 19 "Drivers/STM32G4xx_HAL_Driver/Inc/stm32g4xx_hal_def.h"
ARM GAS  /tmp/cc1HgQX2.s 			page 6


 219              		.file 20 "Drivers/STM32G4xx_HAL_Driver/Inc/stm32g4xx_hal_dma.h"
 220              		.file 21 "Drivers/STM32G4xx_HAL_Driver/Inc/stm32g4xx_hal_spi.h"
 221              		.file 22 "Drivers/STM32G4xx_HAL_Driver/Inc/stm32g4xx_hal_tim.h"
 222              		.file 23 "My_Top/System/bsp.hpp"
 223              		.file 24 "Lib/compute/pid/pll.hpp"
 224              		.file 25 "Lib/compute/pid/LQR.hpp"
 225              		.file 26 "My_Top/System/kth_read.hpp"
 226              		.file 27 "My_Top/Motor_Control/DcMotor_ClosedLoop.hpp"
 227              		.file 28 "Middlewares/Third_Party/FreeRTOS/Source/include/task.h"
ARM GAS  /tmp/cc1HgQX2.s 			page 7


DEFINED SYMBOLS
                            *ABS*:00000000 Task_MotorPublish.cpp
     /tmp/cc1HgQX2.s:20     .text:00000000 $t
     /tmp/cc1HgQX2.s:25     .text:00000000 _ZL10fill_telemP13motor_telem_tP8DC_Motor
     /tmp/cc1HgQX2.s:89     .rodata.str1.4:00000000 $d
     /tmp/cc1HgQX2.s:99     .text:0000002a _Z17Task_MotorPublishPv
     /tmp/cc1HgQX2.s:193    .text:0000007c $d

UNDEFINED SYMBOLS
uorb_advertise
uorb_publish
vTaskDelay
M1
M2
M3
M4
