ARM GAS  /tmp/ccgnGIHy.s 			page 1


   1              		.cpu cortex-m4
   2              		.arch armv7e-m
   3              		.fpu fpv4-sp-d16
   4              		.eabi_attribute 27, 1
   5              		.eabi_attribute 28, 1
   6              		.eabi_attribute 20, 1
   7              		.eabi_attribute 21, 1
   8              		.eabi_attribute 23, 3
   9              		.eabi_attribute 24, 1
  10              		.eabi_attribute 25, 1
  11              		.eabi_attribute 26, 1
  12              		.eabi_attribute 30, 1
  13              		.eabi_attribute 34, 1
  14              		.eabi_attribute 18, 4
  15              		.file	"Task_Launch.cpp"
  16              		.text
  17              	.Ltext0:
  18              		.cfi_sections	.debug_frame
  19              		.file 1 "My_Top/Task/Task_Launch.cpp"
  20              		.section	.rodata.str1.4,"aMS",%progbits,1
  21              		.align	2
  22              	.LC0:
  23 0000 53797374 		.ascii	"SystemInit\000"
  23      656D496E 
  23      697400
  24 000b 00       		.align	2
  25              	.LC1:
  26 000c 5461736B 		.ascii	"Task_VofaRx\000"
  26      5F566F66 
  26      61527800 
  27              		.align	2
  28              	.LC2:
  29 0018 5461736B 		.ascii	"Task_CLI\000"
  29      5F434C49 
  29      00
  30 0021 000000   		.align	2
  31              	.LC3:
  32 0024 5461736B 		.ascii	"Task_DroneCAN\000"
  32      5F44726F 
  32      6E654341 
  32      4E00
  33 0032 0000     		.align	2
  34              	.LC4:
  35 0034 4D6F746F 		.ascii	"MotorPub\000"
  35      72507562 
  35      00
  36 003d 000000   		.align	2
  37              	.LC5:
  38 0040 566F6661 		.ascii	"VofaTx\000"
  38      547800
  39 0047 00       		.align	2
  40              	.LC6:
  41 0048 54657374 		.ascii	"Test\000"
  41      00
  42              		.text
  43              		.align	1
  44              		.global	_Z12MC_TaskStartv
ARM GAS  /tmp/ccgnGIHy.s 			page 2


  45              		.syntax unified
  46              		.thumb
  47              		.thumb_func
  49              	_Z12MC_TaskStartv:
  50              	.LFB356:
   1:My_Top/Task/Task_Launch.cpp **** 
   2:My_Top/Task/Task_Launch.cpp **** /* FreeRTOS includes */
   3:My_Top/Task/Task_Launch.cpp **** #include "cmsis_os2.h"
   4:My_Top/Task/Task_Launch.cpp **** #include "FreeRTOS.h"
   5:My_Top/Task/Task_Launch.cpp **** #include "task.h"
   6:My_Top/Task/Task_Launch.cpp **** #include "timers.h"
   7:My_Top/Task/Task_Launch.cpp **** #include "MC_Serial.hpp"
   8:My_Top/Task/Task_Launch.cpp **** #include "queue.h"
   9:My_Top/Task/Task_Launch.cpp **** #include "My_Vofa.hpp"
  10:My_Top/Task/Task_Launch.cpp **** 
  11:My_Top/Task/Task_Launch.cpp **** 
  12:My_Top/Task/Task_Launch.cpp **** /* Task Handle */
  13:My_Top/Task/Task_Launch.cpp **** TaskHandle_t SystemInitHandle;
  14:My_Top/Task/Task_Launch.cpp **** TaskHandle_t TestHandle;
  15:My_Top/Task/Task_Launch.cpp **** TaskHandle_t Task_VofaRxHandle;
  16:My_Top/Task/Task_Launch.cpp **** TaskHandle_t  DroneCANHandle;
  17:My_Top/Task/Task_Launch.cpp **** TaskHandle_t MotorPubHandle;
  18:My_Top/Task/Task_Launch.cpp **** TaskHandle_t CLIHandle;
  19:My_Top/Task/Task_Launch.cpp **** TaskHandle_t VofaTxHandle;
  20:My_Top/Task/Task_Launch.cpp **** 
  21:My_Top/Task/Task_Launch.cpp **** 
  22:My_Top/Task/Task_Launch.cpp **** /* Task Function */
  23:My_Top/Task/Task_Launch.cpp **** extern void Task_SystemInit(void *argument);
  24:My_Top/Task/Task_Launch.cpp **** extern void Task_Test(void *argument);
  25:My_Top/Task/Task_Launch.cpp **** extern void Task_VofaRx(void *argument);
  26:My_Top/Task/Task_Launch.cpp **** extern void Task_CLI(void *argument);
  27:My_Top/Task/Task_Launch.cpp **** extern void Task_DroneCAN(void *argument);
  28:My_Top/Task/Task_Launch.cpp **** extern void Task_MotorPublish(void *argument);
  29:My_Top/Task/Task_Launch.cpp **** extern void Task_VofaTx(void *argument);
  30:My_Top/Task/Task_Launch.cpp **** QueueHandle_t vofaRxQueue;   // VOFAµÄźµöČķś¤ÕłŚÕÅźµ¤ä
  31:My_Top/Task/Task_Launch.cpp **** 
  32:My_Top/Task/Task_Launch.cpp **** 
  33:My_Top/Task/Task_Launch.cpp **** void MC_TaskStart(void)
  34:My_Top/Task/Task_Launch.cpp **** {
  51              		.loc 1 34 1 view -0
  52              		.cfi_startproc
  53              		@ args = 0, pretend = 0, frame = 0
  54              		@ frame_needed = 0, uses_anonymous_args = 0
  55 0000 30B5     		push	{r4, r5, lr}
  56              		.cfi_def_cfa_offset 12
  57              		.cfi_offset 4, -12
  58              		.cfi_offset 5, -8
  59              		.cfi_offset 14, -4
  60 0002 83B0     		sub	sp, sp, #12
  61              		.cfi_def_cfa_offset 24
  35:My_Top/Task/Task_Launch.cpp **** 
  36:My_Top/Task/Task_Launch.cpp ****     /* ÕłøÕ╗║ VOFA µÄźµöČķś¤ÕłŚ’╝Üķś¤ÕłŚķĢ┐Õ║” 8’╝īµ»ÅķĪ╣õĖĆÕĖ¦µĢ░µŹ« */
  37:My_Top/Task/Task_Launch.cpp ****     vofaRxQueue = xQueueCreate(8, sizeof(VofaRxFrame_t));
  62              		.loc 1 37 5 view .LVU1
  63              		.loc 1 37 19 is_stmt 0 view .LVU2
  64 0004 0022     		movs	r2, #0
  65 0006 8221     		movs	r1, #130
ARM GAS  /tmp/ccgnGIHy.s 			page 3


  66 0008 0820     		movs	r0, #8
  67 000a FFF7FEFF 		bl	xQueueGenericCreate
  68              	.LVL0:
  69              		.loc 1 37 17 discriminator 1 view .LVU3
  70 000e 2A4C     		ldr	r4, .L3
  71 0010 2346     		mov	r3, r4
  72 0012 43F8040B 		str	r0, [r3], #4
  38:My_Top/Task/Task_Launch.cpp **** 
  39:My_Top/Task/Task_Launch.cpp ****     /* Task ÕłøÕ╗║ */
  40:My_Top/Task/Task_Launch.cpp ****     xTaskCreate(Task_SystemInit, "SystemInit", 256, NULL, osPriorityHigh, &SystemInitHandle); //ń│╗
  73              		.loc 1 40 5 is_stmt 1 view .LVU4
  74              		.loc 1 40 16 is_stmt 0 view .LVU5
  75 0016 0193     		str	r3, [sp, #4]
  76 0018 2823     		movs	r3, #40
  77 001a 0093     		str	r3, [sp]
  78 001c 0023     		movs	r3, #0
  79 001e 4FF48072 		mov	r2, #256
  80 0022 2649     		ldr	r1, .L3+4
  81 0024 2648     		ldr	r0, .L3+8
  82 0026 FFF7FEFF 		bl	xTaskCreate
  83              	.LVL1:
  41:My_Top/Task/Task_Launch.cpp ****     xTaskCreate(Task_VofaRx, "Task_VofaRx", 256, NULL, osPriorityNormal, &Task_VofaRxHandle); //Vof
  84              		.loc 1 41 5 is_stmt 1 view .LVU6
  85              		.loc 1 41 16 is_stmt 0 view .LVU7
  86 002a 04F10803 		add	r3, r4, #8
  87 002e 0193     		str	r3, [sp, #4]
  88 0030 1825     		movs	r5, #24
  89 0032 0095     		str	r5, [sp]
  90 0034 0023     		movs	r3, #0
  91 0036 4FF48072 		mov	r2, #256
  92 003a 2249     		ldr	r1, .L3+12
  93 003c 2248     		ldr	r0, .L3+16
  94 003e FFF7FEFF 		bl	xTaskCreate
  95              	.LVL2:
  42:My_Top/Task/Task_Launch.cpp ****     xTaskCreate(Task_CLI, "Task_CLI", 256, NULL, osPriorityNormal, &CLIHandle); //CLIõ╗╗ÕŖĪ
  96              		.loc 1 42 5 is_stmt 1 view .LVU8
  97              		.loc 1 42 16 is_stmt 0 view .LVU9
  98 0042 04F10C03 		add	r3, r4, #12
  99 0046 0193     		str	r3, [sp, #4]
 100 0048 0095     		str	r5, [sp]
 101 004a 0023     		movs	r3, #0
 102 004c 4FF48072 		mov	r2, #256
 103 0050 1E49     		ldr	r1, .L3+20
 104 0052 1F48     		ldr	r0, .L3+24
 105 0054 FFF7FEFF 		bl	xTaskCreate
 106              	.LVL3:
  43:My_Top/Task/Task_Launch.cpp ****     xTaskCreate(Task_DroneCAN, "Task_DroneCAN", 256, NULL, osPriorityNormal, &DroneCANHandle); //Dr
 107              		.loc 1 43 5 is_stmt 1 view .LVU10
 108              		.loc 1 43 16 is_stmt 0 view .LVU11
 109 0058 04F11003 		add	r3, r4, #16
 110 005c 0193     		str	r3, [sp, #4]
 111 005e 0095     		str	r5, [sp]
 112 0060 0023     		movs	r3, #0
 113 0062 4FF48072 		mov	r2, #256
 114 0066 1B49     		ldr	r1, .L3+28
 115 0068 1B48     		ldr	r0, .L3+32
 116 006a FFF7FEFF 		bl	xTaskCreate
ARM GAS  /tmp/ccgnGIHy.s 			page 4


 117              	.LVL4:
  44:My_Top/Task/Task_Launch.cpp ****     xTaskCreate(Task_MotorPublish, "MotorPub", 256, NULL, osPriorityLow4, &MotorPubHandle); //uorbÕ
 118              		.loc 1 44 5 is_stmt 1 view .LVU12
 119              		.loc 1 44 16 is_stmt 0 view .LVU13
 120 006e 04F11403 		add	r3, r4, #20
 121 0072 0193     		str	r3, [sp, #4]
 122 0074 0C25     		movs	r5, #12
 123 0076 0095     		str	r5, [sp]
 124 0078 0023     		movs	r3, #0
 125 007a 4FF48072 		mov	r2, #256
 126 007e 1749     		ldr	r1, .L3+36
 127 0080 1748     		ldr	r0, .L3+40
 128 0082 FFF7FEFF 		bl	xTaskCreate
 129              	.LVL5:
  45:My_Top/Task/Task_Launch.cpp ****     xTaskCreate(Task_VofaTx,"VofaTx",  256, NULL, osPriorityLow4, &VofaTxHandle); //VofaÕÅæķĆüõ╗╗ÕŖ
 130              		.loc 1 45 5 is_stmt 1 view .LVU14
 131              		.loc 1 45 16 is_stmt 0 view .LVU15
 132 0086 04F11803 		add	r3, r4, #24
 133 008a 0193     		str	r3, [sp, #4]
 134 008c 0095     		str	r5, [sp]
 135 008e 0023     		movs	r3, #0
 136 0090 4FF48072 		mov	r2, #256
 137 0094 1349     		ldr	r1, .L3+44
 138 0096 1448     		ldr	r0, .L3+48
 139 0098 FFF7FEFF 		bl	xTaskCreate
 140              	.LVL6:
  46:My_Top/Task/Task_Launch.cpp **** 
  47:My_Top/Task/Task_Launch.cpp ****     xTaskCreate(Task_Test, "Test", 256, NULL, osPriorityLow, &TestHandle); //µĄŗĶ»Ģõ╗╗ÕŖĪ 
 141              		.loc 1 47 5 is_stmt 1 view .LVU16
 142              		.loc 1 47 16 is_stmt 0 view .LVU17
 143 009c 1C34     		adds	r4, r4, #28
 144 009e 0194     		str	r4, [sp, #4]
 145 00a0 0823     		movs	r3, #8
 146 00a2 0093     		str	r3, [sp]
 147 00a4 0023     		movs	r3, #0
 148 00a6 4FF48072 		mov	r2, #256
 149 00aa 1049     		ldr	r1, .L3+52
 150 00ac 1048     		ldr	r0, .L3+56
 151 00ae FFF7FEFF 		bl	xTaskCreate
 152              	.LVL7:
  48:My_Top/Task/Task_Launch.cpp **** }
 153              		.loc 1 48 1 view .LVU18
 154 00b2 03B0     		add	sp, sp, #12
 155              		.cfi_def_cfa_offset 12
 156              		@ sp needed
 157 00b4 30BD     		pop	{r4, r5, pc}
 158              	.L4:
 159 00b6 00BF     		.align	2
 160              	.L3:
 161 00b8 00000000 		.word	.LANCHOR0
 162 00bc 00000000 		.word	.LC0
 163 00c0 00000000 		.word	_Z15Task_SystemInitPv
 164 00c4 0C000000 		.word	.LC1
 165 00c8 00000000 		.word	_Z11Task_VofaRxPv
 166 00cc 18000000 		.word	.LC2
 167 00d0 00000000 		.word	_Z8Task_CLIPv
 168 00d4 24000000 		.word	.LC3
ARM GAS  /tmp/ccgnGIHy.s 			page 5


 169 00d8 00000000 		.word	_Z13Task_DroneCANPv
 170 00dc 34000000 		.word	.LC4
 171 00e0 00000000 		.word	_Z17Task_MotorPublishPv
 172 00e4 40000000 		.word	.LC5
 173 00e8 00000000 		.word	_Z11Task_VofaTxPv
 174 00ec 48000000 		.word	.LC6
 175 00f0 00000000 		.word	_Z9Task_TestPv
 176              		.cfi_endproc
 177              	.LFE356:
 179              		.align	1
 180              		.global	MC_ScheduleStart
 181              		.syntax unified
 182              		.thumb
 183              		.thumb_func
 185              	MC_ScheduleStart:
 186              	.LFB357:
  49:My_Top/Task/Task_Launch.cpp **** 
  50:My_Top/Task/Task_Launch.cpp **** extern "C" void MC_ScheduleStart(void)
  51:My_Top/Task/Task_Launch.cpp **** {
 187              		.loc 1 51 1 is_stmt 1 view -0
 188              		.cfi_startproc
 189              		@ args = 0, pretend = 0, frame = 0
 190              		@ frame_needed = 0, uses_anonymous_args = 0
 191 00f4 08B5     		push	{r3, lr}
 192              		.cfi_def_cfa_offset 8
 193              		.cfi_offset 3, -8
 194              		.cfi_offset 14, -4
  52:My_Top/Task/Task_Launch.cpp ****     MC_TaskStart();//Õ╝ĆÕ¦ŗõ╗╗ÕŖĪ
 195              		.loc 1 52 5 view .LVU20
 196              		.loc 1 52 17 is_stmt 0 view .LVU21
 197 00f6 FFF7FEFF 		bl	_Z12MC_TaskStartv
 198              	.LVL8:
  53:My_Top/Task/Task_Launch.cpp **** }
 199              		.loc 1 53 1 view .LVU22
 200 00fa 08BD     		pop	{r3, pc}
 201              		.cfi_endproc
 202              	.LFE357:
 204              		.global	vofaRxQueue
 205              		.global	VofaTxHandle
 206              		.global	CLIHandle
 207              		.global	MotorPubHandle
 208              		.global	DroneCANHandle
 209              		.global	Task_VofaRxHandle
 210              		.global	TestHandle
 211              		.global	SystemInitHandle
 212              		.bss
 213              		.align	2
 214              		.set	.LANCHOR0,. + 0
 217              	vofaRxQueue:
 218 0000 00000000 		.space	4
 221              	SystemInitHandle:
 222 0004 00000000 		.space	4
 225              	Task_VofaRxHandle:
 226 0008 00000000 		.space	4
 229              	CLIHandle:
 230 000c 00000000 		.space	4
 233              	DroneCANHandle:
ARM GAS  /tmp/ccgnGIHy.s 			page 6


 234 0010 00000000 		.space	4
 237              	MotorPubHandle:
 238 0014 00000000 		.space	4
 241              	VofaTxHandle:
 242 0018 00000000 		.space	4
 245              	TestHandle:
 246 001c 00000000 		.space	4
 247              		.text
 248              	.Letext0:
 249              		.file 2 "/opt/arm-gnu-toolchain-14.2/arm-none-eabi/include/machine/_default_types.h"
 250              		.file 3 "/opt/arm-gnu-toolchain-14.2/arm-none-eabi/include/sys/_stdint.h"
 251              		.file 4 "/opt/arm-gnu-toolchain-14.2/lib/gcc/arm-none-eabi/14.2.1/include/stddef.h"
 252              		.file 5 "Middlewares/Third_Party/FreeRTOS/Source/CMSIS_RTOS_V2/cmsis_os2.h"
 253              		.file 6 "Middlewares/Third_Party/FreeRTOS/Source/include/projdefs.h"
 254              		.file 7 "Middlewares/Third_Party/FreeRTOS/Source/portable/GCC/ARM_CM4F/portmacro.h"
 255              		.file 8 "Middlewares/Third_Party/FreeRTOS/Source/include/task.h"
 256              		.file 9 "Middlewares/Third_Party/FreeRTOS/Source/include/queue.h"
 257              		.file 10 "/opt/arm-gnu-toolchain-14.2/arm-none-eabi/include/stdlib.h"
 258              		.file 11 "/opt/arm-gnu-toolchain-14.2/arm-none-eabi/include/c++/14.2.1/cstdlib"
 259              		.file 12 "/opt/arm-gnu-toolchain-14.2/arm-none-eabi/include/c++/14.2.1/bits/std_abs.h"
 260              		.file 13 "/opt/arm-gnu-toolchain-14.2/arm-none-eabi/include/c++/14.2.1/stdlib.h"
 261              		.file 14 "My_Top/MC/My_Vofa.hpp"
 262              		.file 15 "/opt/arm-gnu-toolchain-14.2/arm-none-eabi/include/c++/14.2.1/arm-none-eabi/thumb/v7e-m+f
ARM GAS  /tmp/ccgnGIHy.s 			page 7


DEFINED SYMBOLS
                            *ABS*:00000000 Task_Launch.cpp
     /tmp/ccgnGIHy.s:21     .rodata.str1.4:00000000 $d
     /tmp/ccgnGIHy.s:43     .text:00000000 $t
     /tmp/ccgnGIHy.s:49     .text:00000000 _Z12MC_TaskStartv
     /tmp/ccgnGIHy.s:161    .text:000000b8 $d
     /tmp/ccgnGIHy.s:179    .text:000000f4 $t
     /tmp/ccgnGIHy.s:185    .text:000000f4 MC_ScheduleStart
     /tmp/ccgnGIHy.s:217    .bss:00000000 vofaRxQueue
     /tmp/ccgnGIHy.s:241    .bss:00000018 VofaTxHandle
     /tmp/ccgnGIHy.s:229    .bss:0000000c CLIHandle
     /tmp/ccgnGIHy.s:237    .bss:00000014 MotorPubHandle
     /tmp/ccgnGIHy.s:233    .bss:00000010 DroneCANHandle
     /tmp/ccgnGIHy.s:225    .bss:00000008 Task_VofaRxHandle
     /tmp/ccgnGIHy.s:245    .bss:0000001c TestHandle
     /tmp/ccgnGIHy.s:221    .bss:00000004 SystemInitHandle
     /tmp/ccgnGIHy.s:213    .bss:00000000 $d

UNDEFINED SYMBOLS
xQueueGenericCreate
xTaskCreate
_Z15Task_SystemInitPv
_Z11Task_VofaRxPv
_Z8Task_CLIPv
_Z13Task_DroneCANPv
_Z17Task_MotorPublishPv
_Z11Task_VofaTxPv
_Z9Task_TestPv
