ARM GAS  /tmp/ccQslxFB.s 			page 1


   1              		.cpu cortex-m4
   2              		.arch armv7e-m
   3              		.fpu fpv4-sp-d16
   4              		.eabi_attribute 27, 1
   5              		.eabi_attribute 28, 1
   6              		.eabi_attribute 20, 1
   7              		.eabi_attribute 21, 1
   8              		.eabi_attribute 23, 3
   9              		.eabi_attribute 24, 1
  10              		.eabi_attribute 25, 1
  11              		.eabi_attribute 26, 1
  12              		.eabi_attribute 30, 1
  13              		.eabi_attribute 34, 1
  14              		.eabi_attribute 18, 4
  15              		.file	"Task_Vofa.cpp"
  16              		.text
  17              	.Ltext0:
  18              		.cfi_sections	.debug_frame
  19              		.file 1 "My_Top/Task/Task_Vofa.cpp"
  20              		.section	.text._ZN7VoFA_Rx3getEPKcf,"axG",%progbits,_ZN7VoFA_Rx3getEPKcf,comdat
  21              		.align	1
  22              		.weak	_ZN7VoFA_Rx3getEPKcf
  23              		.syntax unified
  24              		.thumb
  25              		.thumb_func
  27              	_ZN7VoFA_Rx3getEPKcf:
  28              	.LVL0:
  29              	.LFB347:
  30              		.file 2 "My_Top/MC/My_Vofa.hpp"
   1:My_Top/MC/My_Vofa.hpp **** #pragma once
   2:My_Top/MC/My_Vofa.hpp **** 
   3:My_Top/MC/My_Vofa.hpp **** #include "usbd_cdc_if.h"
   4:My_Top/MC/My_Vofa.hpp **** #include <stdint.h>
   5:My_Top/MC/My_Vofa.hpp **** #include <stdarg.h>
   6:My_Top/MC/My_Vofa.hpp **** #include <string.h>
   7:My_Top/MC/My_Vofa.hpp **** #include <stdlib.h>     // atof
   8:My_Top/MC/My_Vofa.hpp **** 
   9:My_Top/MC/My_Vofa.hpp **** #define VOFA_PARAM_MAX    30   // жңҖеӨ§еҸӮж•°дёӘж•°
  10:My_Top/MC/My_Vofa.hpp **** #define VOFA_NAME_LEN     25   // еҸӮж•°еҗҚжңҖеӨ§й•ҝеәҰ
  11:My_Top/MC/My_Vofa.hpp **** #define VOFA_RX_BUF_SIZE 128   // DMA жҺҘж”¶зј“еҶІ
  12:My_Top/MC/My_Vofa.hpp **** 
  13:My_Top/MC/My_Vofa.hpp **** struct vofa_param_t {            // еҚ•дёӘеҸӮж•°
  14:My_Top/MC/My_Vofa.hpp ****     char  name[VOFA_NAME_LEN];
  15:My_Top/MC/My_Vofa.hpp ****     float value;
  16:My_Top/MC/My_Vofa.hpp ****     bool  valid; //жҳҜеҗҰиөӢеҖј
  17:My_Top/MC/My_Vofa.hpp **** };
  18:My_Top/MC/My_Vofa.hpp **** 
  19:My_Top/MC/My_Vofa.hpp **** struct VoFA_Rx {
  20:My_Top/MC/My_Vofa.hpp ****     uint8_t      rx_buf[VOFA_RX_BUF_SIZE]; // DMA еҺҹе§Ӣж•°жҚ®
  21:My_Top/MC/My_Vofa.hpp ****     uint16_t     rx_len;                    // жң¬её§еӯ—иҠӮж•°
  22:My_Top/MC/My_Vofa.hpp ****     volatile bool rx_ready;                 // дёӯж–ӯзҪ®1пјҢTaskжё…0
  23:My_Top/MC/My_Vofa.hpp **** 
  24:My_Top/MC/My_Vofa.hpp ****     vofa_param_t params[VOFA_PARAM_MAX];   // еҸӮж•°иЎЁ
  25:My_Top/MC/My_Vofa.hpp ****     uint8_t      param_cnt;                // е·ІжіЁеҶҢеҸӮж•°ж•°
  26:My_Top/MC/My_Vofa.hpp **** 
  27:My_Top/MC/My_Vofa.hpp ****     /* дёӯж–ӯйҮҢи°ғпјҡеҸӘжӢ·иҙқ + зҪ®ж Үеҝ— */
  28:My_Top/MC/My_Vofa.hpp ****     void on_recv(uint8_t *buf, uint16_t len) {
ARM GAS  /tmp/ccQslxFB.s 			page 2


  29:My_Top/MC/My_Vofa.hpp ****         // if (rx_ready) return;                             // дёҠеё§жңӘеӨ„зҗҶеҲҷдёўејғ
  30:My_Top/MC/My_Vofa.hpp ****         if (len > VOFA_RX_BUF_SIZE) len = VOFA_RX_BUF_SIZE; 
  31:My_Top/MC/My_Vofa.hpp ****         memcpy(rx_buf, buf, len);                        // жӢ·иҙқж•°жҚ®
  32:My_Top/MC/My_Vofa.hpp ****         rx_len = len; rx_ready = true;                   // зҪ®ж Үеҝ—
  33:My_Top/MC/My_Vofa.hpp ****     }
  34:My_Top/MC/My_Vofa.hpp **** 
  35:My_Top/MC/My_Vofa.hpp ****     /* Task йҮҢи°ғпјҡи§Јжһҗ "name:value\n" */
  36:My_Top/MC/My_Vofa.hpp ****     void parse() {
  37:My_Top/MC/My_Vofa.hpp ****         if (!rx_ready) return;                            // ж— ж–°ж•°жҚ®зӣҙжҺҘиҝ”еӣһ
  38:My_Top/MC/My_Vofa.hpp ****         rx_ready = false;                                 // зҪ®ж Үеҝ—дҪҚж— ж–°ж•°жҚ®
  39:My_Top/MC/My_Vofa.hpp ****         char name[VOFA_NAME_LEN] = {}, val[16] = {};     // дёҙж—¶зј“еҶІеҢә  
  40:My_Top/MC/My_Vofa.hpp ****         uint8_t ni = 0, vi = 0;                          // name/val зҙўеј•
  41:My_Top/MC/My_Vofa.hpp ****         bool in_val = false;                            // false=иҜ»еҗҚ true=иҜ»еҖј
  42:My_Top/MC/My_Vofa.hpp **** 
  43:My_Top/MC/My_Vofa.hpp ****         for (uint16_t i = 0; i < rx_len; i++) {          // йҖҗеӯ—иҠӮжү«жҸҸ
  44:My_Top/MC/My_Vofa.hpp ****             char c = (char)rx_buf[i];
  45:My_Top/MC/My_Vofa.hpp ****             if (!in_val) {                                // иҜ»еҸӮж•°еҗҚйҳ¶ж®ө
  46:My_Top/MC/My_Vofa.hpp ****                 if (c == ':') { name[ni] = '\0'; in_val = true; } // йҒҮеҲ°':'еҲҮжҚў
  47:My_Top/MC/My_Vofa.hpp ****                 else if (ni < VOFA_NAME_LEN - 1) name[ni++] = c;
  48:My_Top/MC/My_Vofa.hpp ****             } else {                                      // иҜ»еҸӮж•°еҖјйҳ¶ж®ө
  49:My_Top/MC/My_Vofa.hpp ****                 if (c == '\n') {                          // йҒҮеҲ°'\n'жң¬жқЎз»“жқҹ
  50:My_Top/MC/My_Vofa.hpp ****                     val[vi] = '\0';
  51:My_Top/MC/My_Vofa.hpp ****                     vofa_param_t *p = _find(name);       // жҹҘиЎЁ  p жҢҮеҗ‘ params
  52:My_Top/MC/My_Vofa.hpp ****                     if (p) { p->value = atof(val); p->valid = true; } //е°Ҷеӯ—з¬ҰдёІиҪ¬жө®зӮ№ж•° еЎ
  53:My_Top/MC/My_Vofa.hpp ****                     memset(name, 0, sizeof(name));       // йҮҚзҪ®пјҢеҮҶеӨҮдёӢдёҖжқЎ
  54:My_Top/MC/My_Vofa.hpp ****                     ni = vi = 0; in_val = false; //жё…йӣ¶йҮҚж–°иҜ»еҗҚ
  55:My_Top/MC/My_Vofa.hpp ****                 } else if (vi < 15) val[vi++] = c;        // еӯҳеҖј
  56:My_Top/MC/My_Vofa.hpp ****             }
  57:My_Top/MC/My_Vofa.hpp ****         }
  58:My_Top/MC/My_Vofa.hpp ****         
  59:My_Top/MC/My_Vofa.hpp ****     }
  60:My_Top/MC/My_Vofa.hpp **** 
  61:My_Top/MC/My_Vofa.hpp ****     /* иҺ·еҸ–еҸӮж•°еҖјпјҢжүҫдёҚеҲ°иҝ”еӣһй»ҳи®ӨеҖј */
  62:My_Top/MC/My_Vofa.hpp ****     float get(const char *name, float def = 0.0f) {
  31              		.loc 2 62 11 view -0
  32              		.cfi_startproc
  33              		@ args = 0, pretend = 0, frame = 0
  34              		@ frame_needed = 0, uses_anonymous_args = 0
  35              		.loc 2 62 11 is_stmt 0 view .LVU1
  36 0000 70B5     		push	{r4, r5, r6, lr}
  37              		.cfi_def_cfa_offset 16
  38              		.cfi_offset 4, -16
  39              		.cfi_offset 5, -12
  40              		.cfi_offset 6, -8
  41              		.cfi_offset 14, -4
  42 0002 2DED028B 		vpush.64	{d8}
  43              		.cfi_def_cfa_offset 24
  44              		.cfi_offset 80, -24
  45              		.cfi_offset 81, -20
  46 0006 0546     		mov	r5, r0
  47 0008 0E46     		mov	r6, r1
  48 000a B0EE408A 		vmov.f32	s16, s0
  63:My_Top/MC/My_Vofa.hpp ****         for (uint8_t i = 0; i < param_cnt; i++)
  49              		.loc 2 63 9 is_stmt 1 view .LVU2
  50              	.LVL1:
  51              	.LBB13:
  52              		.loc 2 63 22 is_stmt 0 view .LVU3
ARM GAS  /tmp/ccQslxFB.s 			page 3


  53 000e 0024     		movs	r4, #0
  54              		.loc 2 63 9 view .LVU4
  55 0010 01E0     		b	.L2
  56              	.LVL2:
  57              	.L3:
  58              		.loc 2 63 9 is_stmt 1 discriminator 2 view .LVU5
  59 0012 0134     		adds	r4, r4, #1
  60              	.LVL3:
  61              		.loc 2 63 9 is_stmt 0 discriminator 2 view .LVU6
  62 0014 E4B2     		uxtb	r4, r4
  63              	.LVL4:
  64              	.L2:
  65              		.loc 2 63 31 is_stmt 1 discriminator 1 view .LVU7
  66              		.loc 2 63 33 is_stmt 0 discriminator 1 view .LVU8
  67 0016 95F8BC34 		ldrb	r3, [r5, #1212]	@ zero_extendqisi2
  68              		.loc 2 63 31 discriminator 1 view .LVU9
  69 001a A342     		cmp	r3, r4
  70 001c 19D9     		bls	.L4
  64:My_Top/MC/My_Vofa.hpp ****             if (strncmp(params[i].name, name, VOFA_NAME_LEN) == 0 && params[i].valid)//иҫ“е…Ҙзҡ„еҗҚ
  71              		.loc 2 64 13 is_stmt 1 view .LVU10
  72              		.loc 2 64 35 is_stmt 0 view .LVU11
  73 001e 04EBC400 		add	r0, r4, r4, lsl #3
  74 0022 8000     		lsls	r0, r0, #2
  75 0024 8030     		adds	r0, r0, #128
  76 0026 2844     		add	r0, r0, r5
  77              		.loc 2 64 24 view .LVU12
  78 0028 1922     		movs	r2, #25
  79 002a 3146     		mov	r1, r6
  80 002c 0430     		adds	r0, r0, #4
  81 002e FFF7FEFF 		bl	strncmp
  82              	.LVL5:
  83              		.loc 2 64 13 discriminator 1 view .LVU13
  84 0032 0028     		cmp	r0, #0
  85 0034 EDD1     		bne	.L3
  86              		.loc 2 64 80 discriminator 1 view .LVU14
  87 0036 04EBC403 		add	r3, r4, r4, lsl #3
  88 003a 05EB8303 		add	r3, r5, r3, lsl #2
  89 003e 93F8A430 		ldrb	r3, [r3, #164]	@ zero_extendqisi2
  90              		.loc 2 64 67 discriminator 1 view .LVU15
  91 0042 002B     		cmp	r3, #0
  92 0044 E5D0     		beq	.L3
  65:My_Top/MC/My_Vofa.hpp ****                 return params[i].value;
  93              		.loc 2 65 17 is_stmt 1 view .LVU16
  94              		.loc 2 65 34 is_stmt 0 view .LVU17
  95 0046 04EBC404 		add	r4, r4, r4, lsl #3
  96              	.LVL6:
  97              		.loc 2 65 34 view .LVU18
  98 004a 05EB8405 		add	r5, r5, r4, lsl #2
  99              	.LVL7:
 100              		.loc 2 65 34 view .LVU19
 101 004e 95ED288A 		vldr.32	s16, [r5, #160]
 102              	.LVL8:
 103              	.L4:
 104              		.loc 2 65 34 view .LVU20
 105              	.LBE13:
  66:My_Top/MC/My_Vofa.hpp ****         return def;//иҝ”еӣһ0 
  67:My_Top/MC/My_Vofa.hpp ****     }
ARM GAS  /tmp/ccQslxFB.s 			page 4


 106              		.loc 2 67 5 view .LVU21
 107 0052 B0EE480A 		vmov.f32	s0, s16
 108 0056 BDEC028B 		vldm	sp!, {d8}
 109              		.cfi_restore 80
 110              		.cfi_restore 81
 111              		.cfi_def_cfa_offset 16
 112 005a 70BD     		pop	{r4, r5, r6, pc}
 113              		.loc 2 67 5 view .LVU22
 114              		.cfi_endproc
 115              	.LFE347:
 117              		.section	.text._ZN7VoFA_Rx14vofa_get_batchEPS_PPKcPfh,"axG",%progbits,_ZN7VoFA_Rx14vofa_get_batchE
 118              		.align	1
 119              		.weak	_ZN7VoFA_Rx14vofa_get_batchEPS_PPKcPfh
 120              		.syntax unified
 121              		.thumb
 122              		.thumb_func
 124              	_ZN7VoFA_Rx14vofa_get_batchEPS_PPKcPfh:
 125              	.LVL9:
 126              	.LFB348:
  68:My_Top/MC/My_Vofa.hpp ****     /* жү№йҮҸиҜ»еҸ–еҸӮж•°пјҡnames иҫ“е…ҘеҗҚеӯ—ж•°з»„пјҢvals иҫ“еҮәеҖјж•°з»„пјҢnum иҰҒиҜ»еҮ дёӘ */
  69:My_Top/MC/My_Vofa.hpp ****     void vofa_get_batch(VoFA_Rx *v, const char **names, float *vals, uint8_t num)
 127              		.loc 2 69 10 is_stmt 1 view -0
 128              		.cfi_startproc
 129              		@ args = 4, pretend = 0, frame = 0
 130              		@ frame_needed = 0, uses_anonymous_args = 0
 131              		.loc 2 69 10 is_stmt 0 view .LVU24
 132 0000 2DE9F84F 		push	{r3, r4, r5, r6, r7, r8, r9, r10, fp, lr}
 133              		.cfi_def_cfa_offset 40
 134              		.cfi_offset 3, -40
 135              		.cfi_offset 4, -36
 136              		.cfi_offset 5, -32
 137              		.cfi_offset 6, -28
 138              		.cfi_offset 7, -24
 139              		.cfi_offset 8, -20
 140              		.cfi_offset 9, -16
 141              		.cfi_offset 10, -12
 142              		.cfi_offset 11, -8
 143              		.cfi_offset 14, -4
 144 0004 0D46     		mov	r5, r1
 145 0006 1746     		mov	r7, r2
 146 0008 9A46     		mov	r10, r3
 147 000a 9DF828B0 		ldrb	fp, [sp, #40]	@ zero_extendqisi2
  70:My_Top/MC/My_Vofa.hpp ****     {
  71:My_Top/MC/My_Vofa.hpp ****         for (uint8_t j = 0; j < num; j++) {      // йҒҚеҺҶжҜҸдёӘиҰҒжҹҘзҡ„еҗҚеӯ—
 148              		.loc 2 71 9 is_stmt 1 view .LVU25
 149              	.LVL10:
 150              	.LBB14:
 151              		.loc 2 71 22 is_stmt 0 view .LVU26
 152 000e 4FF00008 		mov	r8, #0
 153              		.loc 2 71 9 view .LVU27
 154 0012 25E0     		b	.L8
 155              	.LVL11:
 156              	.L10:
 157              	.LBB15:
 158              	.LBB16:
  72:My_Top/MC/My_Vofa.hpp ****             vals[j] = 0.0f;                       // й»ҳи®ӨеҖј
  73:My_Top/MC/My_Vofa.hpp ****             for (uint8_t i = 0; i < v->param_cnt; i++) {  // йҒҚеҺҶеҸӮж•°иЎЁ
ARM GAS  /tmp/ccQslxFB.s 			page 5


 159              		.loc 2 73 13 is_stmt 1 discriminator 2 view .LVU28
 160 0014 0134     		adds	r4, r4, #1
 161              	.LVL12:
 162              		.loc 2 73 13 is_stmt 0 discriminator 2 view .LVU29
 163 0016 E4B2     		uxtb	r4, r4
 164              	.LVL13:
 165              	.L9:
 166              		.loc 2 73 35 is_stmt 1 discriminator 1 view .LVU30
 167              		.loc 2 73 40 is_stmt 0 discriminator 1 view .LVU31
 168 0018 95F8BC34 		ldrb	r3, [r5, #1212]	@ zero_extendqisi2
 169              		.loc 2 73 35 discriminator 1 view .LVU32
 170 001c A342     		cmp	r3, r4
 171 001e 1BD9     		bls	.L11
  74:My_Top/MC/My_Vofa.hpp ****                 if (strncmp(v->params[i].name, names[j], VOFA_NAME_LEN) == 0
 172              		.loc 2 74 17 is_stmt 1 view .LVU33
 173              		.loc 2 74 42 is_stmt 0 view .LVU34
 174 0020 04EBC400 		add	r0, r4, r4, lsl #3
 175 0024 8000     		lsls	r0, r0, #2
 176 0026 8030     		adds	r0, r0, #128
 177 0028 2844     		add	r0, r0, r5
 178              		.loc 2 74 28 view .LVU35
 179 002a 1922     		movs	r2, #25
 180 002c B959     		ldr	r1, [r7, r6]
 181 002e 0430     		adds	r0, r0, #4
 182 0030 FFF7FEFF 		bl	strncmp
 183              	.LVL14:
 184              		.loc 2 74 17 discriminator 1 view .LVU36
 185 0034 0028     		cmp	r0, #0
 186 0036 EDD1     		bne	.L10
  75:My_Top/MC/My_Vofa.hpp ****                     && v->params[i].valid) {
 187              		.loc 2 75 37 view .LVU37
 188 0038 04EBC403 		add	r3, r4, r4, lsl #3
 189 003c 05EB8303 		add	r3, r5, r3, lsl #2
 190 0040 93F8A430 		ldrb	r3, [r3, #164]	@ zero_extendqisi2
 191              		.loc 2 75 21 view .LVU38
 192 0044 002B     		cmp	r3, #0
 193 0046 E5D0     		beq	.L10
  76:My_Top/MC/My_Vofa.hpp ****                     vals[j] = v->params[i].value;  // жүҫеҲ°дәҶпјҢеҶҷе…Ҙ
 194              		.loc 2 76 21 is_stmt 1 view .LVU39
 195              		.loc 2 76 44 is_stmt 0 view .LVU40
 196 0048 04EBC404 		add	r4, r4, r4, lsl #3
 197              	.LVL15:
 198              		.loc 2 76 44 view .LVU41
 199 004c 05EB8404 		add	r4, r5, r4, lsl #2
 200 0050 D4F8A030 		ldr	r3, [r4, #160]	@ float
 201              		.loc 2 76 29 view .LVU42
 202 0054 C9F80030 		str	r3, [r9]	@ float
  77:My_Top/MC/My_Vofa.hpp ****                     break;
 203              		.loc 2 77 21 is_stmt 1 view .LVU43
 204              	.L11:
 205              		.loc 2 77 21 is_stmt 0 view .LVU44
 206              	.LBE16:
 207              	.LBE15:
  71:My_Top/MC/My_Vofa.hpp ****             vals[j] = 0.0f;                       // й»ҳи®ӨеҖј
 208              		.loc 2 71 9 is_stmt 1 discriminator 2 view .LVU45
 209 0058 08F10108 		add	r8, r8, #1
 210              	.LVL16:
ARM GAS  /tmp/ccQslxFB.s 			page 6


  71:My_Top/MC/My_Vofa.hpp ****             vals[j] = 0.0f;                       // й»ҳи®ӨеҖј
 211              		.loc 2 71 9 is_stmt 0 discriminator 2 view .LVU46
 212 005c 5FFA88F8 		uxtb	r8, r8
 213              	.LVL17:
 214              	.L8:
  71:My_Top/MC/My_Vofa.hpp ****             vals[j] = 0.0f;                       // й»ҳи®ӨеҖј
 215              		.loc 2 71 31 is_stmt 1 discriminator 1 view .LVU47
 216 0060 D845     		cmp	r8, fp
 217 0062 08D2     		bcs	.L15
 218              	.LBB18:
  72:My_Top/MC/My_Vofa.hpp ****             for (uint8_t i = 0; i < v->param_cnt; i++) {  // йҒҚеҺҶеҸӮж•°иЎЁ
 219              		.loc 2 72 13 view .LVU48
  72:My_Top/MC/My_Vofa.hpp ****             for (uint8_t i = 0; i < v->param_cnt; i++) {  // йҒҚеҺҶеҸӮж•°иЎЁ
 220              		.loc 2 72 19 is_stmt 0 view .LVU49
 221 0064 4FEA8806 		lsl	r6, r8, #2
 222 0068 0AEB8809 		add	r9, r10, r8, lsl #2
  72:My_Top/MC/My_Vofa.hpp ****             for (uint8_t i = 0; i < v->param_cnt; i++) {  // йҒҚеҺҶеҸӮж•°иЎЁ
 223              		.loc 2 72 21 view .LVU50
 224 006c 0023     		movs	r3, #0
 225 006e C9F80030 		str	r3, [r9]	@ float
  73:My_Top/MC/My_Vofa.hpp ****                 if (strncmp(v->params[i].name, names[j], VOFA_NAME_LEN) == 0
 226              		.loc 2 73 13 is_stmt 1 view .LVU51
 227              	.LVL18:
 228              	.LBB17:
  73:My_Top/MC/My_Vofa.hpp ****                 if (strncmp(v->params[i].name, names[j], VOFA_NAME_LEN) == 0
 229              		.loc 2 73 26 is_stmt 0 view .LVU52
 230 0072 0024     		movs	r4, #0
  73:My_Top/MC/My_Vofa.hpp ****                 if (strncmp(v->params[i].name, names[j], VOFA_NAME_LEN) == 0
 231              		.loc 2 73 13 view .LVU53
 232 0074 D0E7     		b	.L9
 233              	.LVL19:
 234              	.L15:
  73:My_Top/MC/My_Vofa.hpp ****                 if (strncmp(v->params[i].name, names[j], VOFA_NAME_LEN) == 0
 235              		.loc 2 73 13 view .LVU54
 236              	.LBE17:
 237              	.LBE18:
 238              	.LBE14:
  78:My_Top/MC/My_Vofa.hpp ****                 }
  79:My_Top/MC/My_Vofa.hpp ****             }
  80:My_Top/MC/My_Vofa.hpp ****         }
  81:My_Top/MC/My_Vofa.hpp ****     }
 239              		.loc 2 81 5 view .LVU55
 240 0076 BDE8F88F 		pop	{r3, r4, r5, r6, r7, r8, r9, r10, fp, pc}
 241              		.loc 2 81 5 view .LVU56
 242              		.cfi_endproc
 243              	.LFE348:
 245              		.section	.text._ZN7VoFA_Rx5_findEPKc,"axG",%progbits,_ZN7VoFA_Rx5_findEPKc,comdat
 246              		.align	1
 247              		.weak	_ZN7VoFA_Rx5_findEPKc
 248              		.syntax unified
 249              		.thumb
 250              		.thumb_func
 252              	_ZN7VoFA_Rx5_findEPKc:
 253              	.LVL20:
 254              	.LFB349:
  82:My_Top/MC/My_Vofa.hpp **** 
  83:My_Top/MC/My_Vofa.hpp **** 
ARM GAS  /tmp/ccQslxFB.s 			page 7


  84:My_Top/MC/My_Vofa.hpp **** private:
  85:My_Top/MC/My_Vofa.hpp ****     /* жҹҘжүҫжҲ–ж–°е»әеҸӮж•°ж§Ҫ */
  86:My_Top/MC/My_Vofa.hpp ****     // з¬¬дёҖж¬ЎеҮәзҺ° "speed" вҶ’ ж–°е»әж§ҪдҪҚгҖӮз¬¬дәҢж¬ЎеҸҠд»ҘеҗҺеҮәзҺ° "speed" вҶ’ еӨҚз”ЁеҗҢдёҖ
  87:My_Top/MC/My_Vofa.hpp ****     vofa_param_t *_find(const char *name) { 
 255              		.loc 2 87 19 is_stmt 1 view -0
 256              		.cfi_startproc
 257              		@ args = 0, pretend = 0, frame = 0
 258              		@ frame_needed = 0, uses_anonymous_args = 0
 259              		.loc 2 87 19 is_stmt 0 view .LVU58
 260 0000 70B5     		push	{r4, r5, r6, lr}
 261              		.cfi_def_cfa_offset 16
 262              		.cfi_offset 4, -16
 263              		.cfi_offset 5, -12
 264              		.cfi_offset 6, -8
 265              		.cfi_offset 14, -4
 266 0002 0546     		mov	r5, r0
 267 0004 0E46     		mov	r6, r1
  88:My_Top/MC/My_Vofa.hpp ****         for (uint8_t i = 0; i < param_cnt; i++)  /* з¬¬дёҖжӯҘпјҡйҒҚеҺҶе·ІжңүеҸӮж•°иЎЁпјҢжүҫеҗҚеӯ—зӣ
 268              		.loc 2 88 9 is_stmt 1 view .LVU59
 269              	.LVL21:
 270              	.LBB19:
 271              		.loc 2 88 22 is_stmt 0 view .LVU60
 272 0006 0024     		movs	r4, #0
 273              		.loc 2 88 9 view .LVU61
 274 0008 01E0     		b	.L17
 275              	.LVL22:
 276              	.L18:
 277              		.loc 2 88 9 is_stmt 1 discriminator 2 view .LVU62
 278 000a 0134     		adds	r4, r4, #1
 279              	.LVL23:
 280              		.loc 2 88 9 is_stmt 0 discriminator 2 view .LVU63
 281 000c E4B2     		uxtb	r4, r4
 282              	.LVL24:
 283              	.L17:
 284              		.loc 2 88 31 is_stmt 1 discriminator 1 view .LVU64
 285              		.loc 2 88 33 is_stmt 0 discriminator 1 view .LVU65
 286 000e 95F8BC34 		ldrb	r3, [r5, #1212]	@ zero_extendqisi2
 287              		.loc 2 88 31 discriminator 1 view .LVU66
 288 0012 A342     		cmp	r3, r4
 289 0014 12D9     		bls	.L23
  89:My_Top/MC/My_Vofa.hpp ****             if (strncmp(params[i].name, name, VOFA_NAME_LEN) == 0) return &params[i]; //жҜ”иҫғеҪ“еү
 290              		.loc 2 89 13 is_stmt 1 view .LVU67
 291              		.loc 2 89 35 is_stmt 0 view .LVU68
 292 0016 04EBC400 		add	r0, r4, r4, lsl #3
 293 001a 8000     		lsls	r0, r0, #2
 294 001c 8030     		adds	r0, r0, #128
 295 001e 2844     		add	r0, r0, r5
 296              		.loc 2 89 24 view .LVU69
 297 0020 1922     		movs	r2, #25
 298 0022 3146     		mov	r1, r6
 299 0024 0430     		adds	r0, r0, #4
 300 0026 FFF7FEFF 		bl	strncmp
 301              	.LVL25:
 302              		.loc 2 89 13 discriminator 1 view .LVU70
 303 002a 0028     		cmp	r0, #0
 304 002c EDD1     		bne	.L18
 305              		.loc 2 89 68 is_stmt 1 discriminator 1 view .LVU71
ARM GAS  /tmp/ccQslxFB.s 			page 8


 306              		.loc 2 89 84 is_stmt 0 discriminator 1 view .LVU72
 307 002e 04EBC403 		add	r3, r4, r4, lsl #3
 308 0032 9B00     		lsls	r3, r3, #2
 309 0034 8033     		adds	r3, r3, #128
 310 0036 E818     		adds	r0, r5, r3
 311 0038 0430     		adds	r0, r0, #4
 312              	.LVL26:
 313              	.L16:
 314              		.loc 2 89 84 discriminator 1 view .LVU73
 315              	.LBE19:
  90:My_Top/MC/My_Vofa.hpp ****         if (param_cnt >= VOFA_PARAM_MAX) return nullptr;                   /* з¬¬дәҢжӯҘпјҡжІЎжүҫеҲ°
  91:My_Top/MC/My_Vofa.hpp ****          /* з¬¬дёүжӯҘпјҡжІЎж»ЎпјҢж–°е»әдёҖдёӘ */
  92:My_Top/MC/My_Vofa.hpp ****         strncpy(params[param_cnt].name, name, VOFA_NAME_LEN - 1);          // еӨҚеҲ¶еҗҚеӯ—еӯ—з¬ҰдёІ
  93:My_Top/MC/My_Vofa.hpp ****         params[param_cnt].valid = false;                                    //  еҲқе§ӢеҖјжңӘиөӢеҖј
  94:My_Top/MC/My_Vofa.hpp ****         return &params[param_cnt++];  // иҝ”еӣһж–°ж§Ҫең°еқҖ
  95:My_Top/MC/My_Vofa.hpp ****     }
 316              		.loc 2 95 5 view .LVU74
 317 003a 70BD     		pop	{r4, r5, r6, pc}
 318              	.LVL27:
 319              	.L23:
  90:My_Top/MC/My_Vofa.hpp ****         if (param_cnt >= VOFA_PARAM_MAX) return nullptr;                   /* з¬¬дәҢжӯҘпјҡжІЎжүҫеҲ°
 320              		.loc 2 90 9 is_stmt 1 view .LVU75
 321 003c 1D2B     		cmp	r3, #29
 322 003e 1CD8     		bhi	.L21
  92:My_Top/MC/My_Vofa.hpp ****         params[param_cnt].valid = false;                                    //  еҲқе§ӢеҖјжңӘиөӢеҖј
 323              		.loc 2 92 9 view .LVU76
  92:My_Top/MC/My_Vofa.hpp ****         params[param_cnt].valid = false;                                    //  еҲқе§ӢеҖјжңӘиөӢеҖј
 324              		.loc 2 92 35 is_stmt 0 view .LVU77
 325 0040 03EBC300 		add	r0, r3, r3, lsl #3
 326 0044 8000     		lsls	r0, r0, #2
 327 0046 8030     		adds	r0, r0, #128
 328 0048 2844     		add	r0, r0, r5
  92:My_Top/MC/My_Vofa.hpp ****         params[param_cnt].valid = false;                                    //  еҲқе§ӢеҖјжңӘиөӢеҖј
 329              		.loc 2 92 16 view .LVU78
 330 004a 1822     		movs	r2, #24
 331 004c 3146     		mov	r1, r6
 332 004e 0430     		adds	r0, r0, #4
 333 0050 FFF7FEFF 		bl	strncpy
 334              	.LVL28:
  93:My_Top/MC/My_Vofa.hpp ****         return &params[param_cnt++];  // иҝ”еӣһж–°ж§Ҫең°еқҖ
 335              		.loc 2 93 9 is_stmt 1 view .LVU79
  93:My_Top/MC/My_Vofa.hpp ****         return &params[param_cnt++];  // иҝ”еӣһж–°ж§Ҫең°еқҖ
 336              		.loc 2 93 16 is_stmt 0 view .LVU80
 337 0054 95F8BC34 		ldrb	r3, [r5, #1212]	@ zero_extendqisi2
  93:My_Top/MC/My_Vofa.hpp ****         return &params[param_cnt++];  // иҝ”еӣһж–°ж§Ҫең°еқҖ
 338              		.loc 2 93 33 view .LVU81
 339 0058 03EBC302 		add	r2, r3, r3, lsl #3
 340 005c 05EB8202 		add	r2, r5, r2, lsl #2
 341 0060 0021     		movs	r1, #0
 342 0062 82F8A410 		strb	r1, [r2, #164]
  94:My_Top/MC/My_Vofa.hpp ****     }
 343              		.loc 2 94 9 is_stmt 1 view .LVU82
  94:My_Top/MC/My_Vofa.hpp ****     }
 344              		.loc 2 94 33 is_stmt 0 view .LVU83
 345 0066 5A1C     		adds	r2, r3, #1
 346 0068 85F8BC24 		strb	r2, [r5, #1212]
  94:My_Top/MC/My_Vofa.hpp ****     }
ARM GAS  /tmp/ccQslxFB.s 			page 9


 347              		.loc 2 94 35 view .LVU84
 348 006c 03EBC303 		add	r3, r3, r3, lsl #3
 349 0070 9B00     		lsls	r3, r3, #2
 350 0072 8033     		adds	r3, r3, #128
 351 0074 1D44     		add	r5, r5, r3
 352              	.LVL29:
  94:My_Top/MC/My_Vofa.hpp ****     }
 353              		.loc 2 94 35 view .LVU85
 354 0076 281D     		adds	r0, r5, #4
 355 0078 DFE7     		b	.L16
 356              	.LVL30:
 357              	.L21:
  90:My_Top/MC/My_Vofa.hpp ****          /* з¬¬дёүжӯҘпјҡжІЎж»ЎпјҢж–°е»әдёҖдёӘ */
 358              		.loc 2 90 49 discriminator 1 view .LVU86
 359 007a 0020     		movs	r0, #0
 360 007c DDE7     		b	.L16
 361              		.cfi_endproc
 362              	.LFE349:
 364              		.section	.text._ZN7VoFA_Rx5parseEv,"axG",%progbits,_ZN7VoFA_Rx5parseEv,comdat
 365              		.align	1
 366              		.weak	_ZN7VoFA_Rx5parseEv
 367              		.syntax unified
 368              		.thumb
 369              		.thumb_func
 371              	_ZN7VoFA_Rx5parseEv:
 372              	.LVL31:
 373              	.LFB346:
  36:My_Top/MC/My_Vofa.hpp ****         if (!rx_ready) return;                            // ж— ж–°ж•°жҚ®зӣҙжҺҘиҝ”еӣһ
 374              		.loc 2 36 10 is_stmt 1 view -0
 375              		.cfi_startproc
 376              		@ args = 0, pretend = 0, frame = 48
 377              		@ frame_needed = 0, uses_anonymous_args = 0
  37:My_Top/MC/My_Vofa.hpp ****         rx_ready = false;                                 // зҪ®ж Үеҝ—дҪҚж— ж–°ж•°жҚ®
 378              		.loc 2 37 9 view .LVU88
  37:My_Top/MC/My_Vofa.hpp ****         rx_ready = false;                                 // зҪ®ж Үеҝ—дҪҚж— ж–°ж•°жҚ®
 379              		.loc 2 37 14 is_stmt 0 view .LVU89
 380 0000 90F88230 		ldrb	r3, [r0, #130]	@ zero_extendqisi2
  37:My_Top/MC/My_Vofa.hpp ****         rx_ready = false;                                 // зҪ®ж Үеҝ—дҪҚж— ж–°ж•°жҚ®
 381              		.loc 2 37 9 view .LVU90
 382 0004 002B     		cmp	r3, #0
 383 0006 66D0     		beq	.L35
  36:My_Top/MC/My_Vofa.hpp ****         if (!rx_ready) return;                            // ж— ж–°ж•°жҚ®зӣҙжҺҘиҝ”еӣһ
 384              		.loc 2 36 10 view .LVU91
 385 0008 F0B5     		push	{r4, r5, r6, r7, lr}
 386              		.cfi_def_cfa_offset 20
 387              		.cfi_offset 4, -20
 388              		.cfi_offset 5, -16
 389              		.cfi_offset 6, -12
 390              		.cfi_offset 7, -8
 391              		.cfi_offset 14, -4
 392 000a 8DB0     		sub	sp, sp, #52
 393              		.cfi_def_cfa_offset 72
 394 000c 0546     		mov	r5, r0
 395 000e 03F0FF06 		and	r6, r3, #255
  38:My_Top/MC/My_Vofa.hpp ****         char name[VOFA_NAME_LEN] = {}, val[16] = {};     // дёҙж—¶зј“еҶІеҢә  
 396              		.loc 2 38 9 is_stmt 1 view .LVU92
  38:My_Top/MC/My_Vofa.hpp ****         char name[VOFA_NAME_LEN] = {}, val[16] = {};     // дёҙж—¶зј“еҶІеҢә  
ARM GAS  /tmp/ccQslxFB.s 			page 10


 397              		.loc 2 38 18 is_stmt 0 view .LVU93
 398 0012 0023     		movs	r3, #0
 399 0014 80F88230 		strb	r3, [r0, #130]
  39:My_Top/MC/My_Vofa.hpp ****         uint8_t ni = 0, vi = 0;                          // name/val зҙўеј•
 400              		.loc 2 39 9 is_stmt 1 view .LVU94
  39:My_Top/MC/My_Vofa.hpp ****         uint8_t ni = 0, vi = 0;                          // name/val зҙўеј•
 401              		.loc 2 39 14 is_stmt 0 view .LVU95
 402 0018 0593     		str	r3, [sp, #20]
 403 001a 0693     		str	r3, [sp, #24]
 404 001c 0793     		str	r3, [sp, #28]
 405 001e 0893     		str	r3, [sp, #32]
 406 0020 0993     		str	r3, [sp, #36]
 407 0022 0A93     		str	r3, [sp, #40]
 408 0024 8DF82C30 		strb	r3, [sp, #44]
  39:My_Top/MC/My_Vofa.hpp ****         uint8_t ni = 0, vi = 0;                          // name/val зҙўеј•
 409              		.loc 2 39 40 view .LVU96
 410 0028 0193     		str	r3, [sp, #4]
 411 002a 0293     		str	r3, [sp, #8]
 412 002c 0393     		str	r3, [sp, #12]
 413 002e 0493     		str	r3, [sp, #16]
  40:My_Top/MC/My_Vofa.hpp ****         bool in_val = false;                            // false=иҜ»еҗҚ true=иҜ»еҖј
 414              		.loc 2 40 9 is_stmt 1 view .LVU97
 415              	.LVL32:
  41:My_Top/MC/My_Vofa.hpp **** 
 416              		.loc 2 41 9 view .LVU98
  43:My_Top/MC/My_Vofa.hpp ****             char c = (char)rx_buf[i];
 417              		.loc 2 43 9 view .LVU99
 418              	.LBB20:
  43:My_Top/MC/My_Vofa.hpp ****             char c = (char)rx_buf[i];
 419              		.loc 2 43 23 is_stmt 0 view .LVU100
 420 0030 1C46     		mov	r4, r3
 421              	.LBE20:
  41:My_Top/MC/My_Vofa.hpp **** 
 422              		.loc 2 41 14 view .LVU101
 423 0032 1846     		mov	r0, r3
 424              	.LVL33:
  40:My_Top/MC/My_Vofa.hpp ****         bool in_val = false;                            // false=иҜ»еҗҚ true=иҜ»еҖј
 425              		.loc 2 40 25 view .LVU102
 426 0034 1946     		mov	r1, r3
 427              	.LBB30:
  43:My_Top/MC/My_Vofa.hpp ****             char c = (char)rx_buf[i];
 428              		.loc 2 43 9 view .LVU103
 429 0036 14E0     		b	.L27
 430              	.LVL34:
 431              	.L40:
 432              	.LBB21:
 433              	.LBB22:
  46:My_Top/MC/My_Vofa.hpp ****                 else if (ni < VOFA_NAME_LEN - 1) name[ni++] = c;
 434              		.loc 2 46 33 is_stmt 1 discriminator 1 view .LVU104
  46:My_Top/MC/My_Vofa.hpp ****                 else if (ni < VOFA_NAME_LEN - 1) name[ni++] = c;
 435              		.loc 2 46 42 is_stmt 0 discriminator 1 view .LVU105
 436 0038 03F13002 		add	r2, r3, #48
 437              	.LVL35:
  46:My_Top/MC/My_Vofa.hpp ****                 else if (ni < VOFA_NAME_LEN - 1) name[ni++] = c;
 438              		.loc 2 46 42 discriminator 1 view .LVU106
 439 003c 6A44     		add	r2, sp, r2
 440 003e 02F81C0C 		strb	r0, [r2, #-28]
ARM GAS  /tmp/ccQslxFB.s 			page 11


 441              	.LVL36:
  46:My_Top/MC/My_Vofa.hpp ****                 else if (ni < VOFA_NAME_LEN - 1) name[ni++] = c;
 442              		.loc 2 46 50 is_stmt 1 view .LVU107
  46:My_Top/MC/My_Vofa.hpp ****                 else if (ni < VOFA_NAME_LEN - 1) name[ni++] = c;
 443              		.loc 2 46 57 is_stmt 0 discriminator 1 view .LVU108
 444 0042 3046     		mov	r0, r6
 445 0044 0BE0     		b	.L30
 446              	.LVL37:
 447              	.L28:
  46:My_Top/MC/My_Vofa.hpp ****                 else if (ni < VOFA_NAME_LEN - 1) name[ni++] = c;
 448              		.loc 2 46 57 discriminator 1 view .LVU109
 449              	.LBE22:
 450              	.LBE21:
 451              	.LBE30:
  49:My_Top/MC/My_Vofa.hpp ****                     val[vi] = '\0';
 452              		.loc 2 49 17 is_stmt 1 view .LVU110
 453              	.LBB31:
 454              	.LBB28:
 455              	.LBB26:
 456              	.LBB23:
 457 0046 0A2A     		cmp	r2, #10
 458 0048 1FD0     		beq	.L38
  55:My_Top/MC/My_Vofa.hpp ****             }
 459              		.loc 2 55 24 view .LVU111
 460 004a 0E29     		cmp	r1, #14
 461 004c 07D8     		bhi	.L30
  55:My_Top/MC/My_Vofa.hpp ****             }
 462              		.loc 2 55 37 discriminator 1 view .LVU112
  55:My_Top/MC/My_Vofa.hpp ****             }
 463              		.loc 2 55 43 is_stmt 0 discriminator 1 view .LVU113
 464 004e 01F1010C 		add	ip, r1, #1
 465              	.LVL38:
  55:My_Top/MC/My_Vofa.hpp ****             }
 466              		.loc 2 55 47 discriminator 1 view .LVU114
 467 0052 3031     		adds	r1, r1, #48
 468 0054 6944     		add	r1, sp, r1
 469 0056 01F82C2C 		strb	r2, [r1, #-44]
  55:My_Top/MC/My_Vofa.hpp ****             }
 470              		.loc 2 55 43 discriminator 1 view .LVU115
 471 005a 5FFA8CF1 		uxtb	r1, ip
 472              	.LVL39:
 473              	.L30:
  55:My_Top/MC/My_Vofa.hpp ****             }
 474              		.loc 2 55 43 discriminator 1 view .LVU116
 475              	.LBE23:
 476              	.LBE26:
 477              	.LBE28:
  43:My_Top/MC/My_Vofa.hpp ****             char c = (char)rx_buf[i];
 478              		.loc 2 43 9 is_stmt 1 discriminator 2 view .LVU117
 479 005e 0134     		adds	r4, r4, #1
 480              	.LVL40:
  43:My_Top/MC/My_Vofa.hpp ****             char c = (char)rx_buf[i];
 481              		.loc 2 43 9 is_stmt 0 discriminator 2 view .LVU118
 482 0060 A4B2     		uxth	r4, r4
 483              	.LVL41:
 484              	.L27:
  43:My_Top/MC/My_Vofa.hpp ****             char c = (char)rx_buf[i];
ARM GAS  /tmp/ccQslxFB.s 			page 12


 485              		.loc 2 43 32 is_stmt 1 discriminator 1 view .LVU119
  43:My_Top/MC/My_Vofa.hpp ****             char c = (char)rx_buf[i];
 486              		.loc 2 43 34 is_stmt 0 discriminator 1 view .LVU120
 487 0062 B5F88020 		ldrh	r2, [r5, #128]
  43:My_Top/MC/My_Vofa.hpp ****             char c = (char)rx_buf[i];
 488              		.loc 2 43 32 discriminator 1 view .LVU121
 489 0066 A242     		cmp	r2, r4
 490 0068 33D9     		bls	.L39
 491              	.LBB29:
  44:My_Top/MC/My_Vofa.hpp ****             if (!in_val) {                                // иҜ»еҸӮж•°еҗҚйҳ¶ж®ө
 492              		.loc 2 44 13 is_stmt 1 view .LVU122
  44:My_Top/MC/My_Vofa.hpp ****             if (!in_val) {                                // иҜ»еҸӮж•°еҗҚйҳ¶ж®ө
 493              		.loc 2 44 18 is_stmt 0 view .LVU123
 494 006a 2A5D     		ldrb	r2, [r5, r4]	@ zero_extendqisi2
 495              	.LVL42:
  45:My_Top/MC/My_Vofa.hpp ****                 if (c == ':') { name[ni] = '\0'; in_val = true; } // йҒҮеҲ°':'еҲҮжҚў
 496              		.loc 2 45 13 is_stmt 1 view .LVU124
 497              	.LBB27:
 498 006c 0028     		cmp	r0, #0
 499 006e EAD1     		bne	.L28
  46:My_Top/MC/My_Vofa.hpp ****                 else if (ni < VOFA_NAME_LEN - 1) name[ni++] = c;
 500              		.loc 2 46 17 view .LVU125
 501 0070 3A2A     		cmp	r2, #58
 502 0072 E1D0     		beq	.L40
  47:My_Top/MC/My_Vofa.hpp ****             } else {                                      // иҜ»еҸӮж•°еҖјйҳ¶ж®ө
 503              		.loc 2 47 22 view .LVU126
 504 0074 172B     		cmp	r3, #23
 505 0076 F2D8     		bhi	.L30
  47:My_Top/MC/My_Vofa.hpp ****             } else {                                      // иҜ»еҸӮж•°еҖјйҳ¶ж®ө
 506              		.loc 2 47 50 discriminator 1 view .LVU127
  47:My_Top/MC/My_Vofa.hpp ****             } else {                                      // иҜ»еҸӮж•°еҖјйҳ¶ж®ө
 507              		.loc 2 47 57 is_stmt 0 discriminator 1 view .LVU128
 508 0078 03F1010C 		add	ip, r3, #1
 509              	.LVL43:
  47:My_Top/MC/My_Vofa.hpp ****             } else {                                      // иҜ»еҸӮж•°еҖјйҳ¶ж®ө
 510              		.loc 2 47 61 discriminator 1 view .LVU129
 511 007c 3033     		adds	r3, r3, #48
 512 007e 6B44     		add	r3, sp, r3
 513 0080 03F81C2C 		strb	r2, [r3, #-28]
  47:My_Top/MC/My_Vofa.hpp ****             } else {                                      // иҜ»еҸӮж•°еҖјйҳ¶ж®ө
 514              		.loc 2 47 57 discriminator 1 view .LVU130
 515 0084 5FFA8CF3 		uxtb	r3, ip
 516 0088 E9E7     		b	.L30
 517              	.LVL44:
 518              	.L38:
 519              	.LBB25:
 520              	.LBB24:
  50:My_Top/MC/My_Vofa.hpp ****                     vofa_param_t *p = _find(name);       // жҹҘиЎЁ  p жҢҮеҗ‘ params
 521              		.loc 2 50 21 is_stmt 1 view .LVU131
  50:My_Top/MC/My_Vofa.hpp ****                     vofa_param_t *p = _find(name);       // жҹҘиЎЁ  p жҢҮеҗ‘ params
 522              		.loc 2 50 29 is_stmt 0 view .LVU132
 523 008a 01F13003 		add	r3, r1, #48
 524              	.LVL45:
  50:My_Top/MC/My_Vofa.hpp ****                     vofa_param_t *p = _find(name);       // жҹҘиЎЁ  p жҢҮеҗ‘ params
 525              		.loc 2 50 29 view .LVU133
 526 008e 0DEB0301 		add	r1, sp, r3
 527              	.LVL46:
ARM GAS  /tmp/ccQslxFB.s 			page 13


  50:My_Top/MC/My_Vofa.hpp ****                     vofa_param_t *p = _find(name);       // жҹҘиЎЁ  p жҢҮеҗ‘ params
 528              		.loc 2 50 29 view .LVU134
 529 0092 0023     		movs	r3, #0
 530 0094 01F82C3C 		strb	r3, [r1, #-44]
  51:My_Top/MC/My_Vofa.hpp ****                     if (p) { p->value = atof(val); p->valid = true; } //е°Ҷеӯ—з¬ҰдёІиҪ¬жө®зӮ№ж•° еЎ
 531              		.loc 2 51 21 is_stmt 1 view .LVU135
  51:My_Top/MC/My_Vofa.hpp ****                     if (p) { p->value = atof(val); p->valid = true; } //е°Ҷеӯ—з¬ҰдёІиҪ¬жө®зӮ№ж•° еЎ
 532              		.loc 2 51 44 is_stmt 0 view .LVU136
 533 0098 05A9     		add	r1, sp, #20
 534 009a 2846     		mov	r0, r5
 535              	.LVL47:
  51:My_Top/MC/My_Vofa.hpp ****                     if (p) { p->value = atof(val); p->valid = true; } //е°Ҷеӯ—з¬ҰдёІиҪ¬жө®зӮ№ж•° еЎ
 536              		.loc 2 51 44 view .LVU137
 537 009c FFF7FEFF 		bl	_ZN7VoFA_Rx5_findEPKc
 538              	.LVL48:
  52:My_Top/MC/My_Vofa.hpp ****                     memset(name, 0, sizeof(name));       // йҮҚзҪ®пјҢеҮҶеӨҮдёӢдёҖжқЎ
 539              		.loc 2 52 21 is_stmt 1 view .LVU138
 540 00a0 0746     		mov	r7, r0
 541 00a2 50B1     		cbz	r0, .L32
  52:My_Top/MC/My_Vofa.hpp ****                     memset(name, 0, sizeof(name));       // йҮҚзҪ®пјҢеҮҶеӨҮдёӢдёҖжқЎ
 542              		.loc 2 52 30 discriminator 1 view .LVU139
  52:My_Top/MC/My_Vofa.hpp ****                     memset(name, 0, sizeof(name));       // йҮҚзҪ®пјҢеҮҶеӨҮдёӢдёҖжқЎ
 543              		.loc 2 52 45 is_stmt 0 discriminator 1 view .LVU140
 544 00a4 01A8     		add	r0, sp, #4
 545              	.LVL49:
  52:My_Top/MC/My_Vofa.hpp ****                     memset(name, 0, sizeof(name));       // йҮҚзҪ®пјҢеҮҶеӨҮдёӢдёҖжқЎ
 546              		.loc 2 52 45 discriminator 1 view .LVU141
 547 00a6 FFF7FEFF 		bl	atof
 548              	.LVL50:
 549 00aa 51EC100B 		vmov	r0, r1, d0
 550 00ae FFF7FEFF 		bl	__aeabi_d2f
 551              	.LVL51:
  52:My_Top/MC/My_Vofa.hpp ****                     memset(name, 0, sizeof(name));       // йҮҚзҪ®пјҢеҮҶеӨҮдёӢдёҖжқЎ
 552              		.loc 2 52 39 discriminator 1 view .LVU142
 553 00b2 F861     		str	r0, [r7, #28]	@ float
  52:My_Top/MC/My_Vofa.hpp ****                     memset(name, 0, sizeof(name));       // йҮҚзҪ®пјҢеҮҶеӨҮдёӢдёҖжқЎ
 554              		.loc 2 52 52 is_stmt 1 discriminator 1 view .LVU143
  52:My_Top/MC/My_Vofa.hpp ****                     memset(name, 0, sizeof(name));       // йҮҚзҪ®пјҢеҮҶеӨҮдёӢдёҖжқЎ
 555              		.loc 2 52 61 is_stmt 0 discriminator 1 view .LVU144
 556 00b4 0123     		movs	r3, #1
 557 00b6 87F82030 		strb	r3, [r7, #32]
 558              	.L32:
  53:My_Top/MC/My_Vofa.hpp ****                     ni = vi = 0; in_val = false; //жё…йӣ¶йҮҚж–°иҜ»еҗҚ
 559              		.loc 2 53 21 is_stmt 1 view .LVU145
  53:My_Top/MC/My_Vofa.hpp ****                     ni = vi = 0; in_val = false; //жё…йӣ¶йҮҚж–°иҜ»еҗҚ
 560              		.loc 2 53 27 is_stmt 0 view .LVU146
 561 00ba 0023     		movs	r3, #0
 562 00bc 0593     		str	r3, [sp, #20]
 563 00be 0693     		str	r3, [sp, #24]
 564 00c0 0793     		str	r3, [sp, #28]
 565 00c2 0893     		str	r3, [sp, #32]
 566 00c4 0993     		str	r3, [sp, #36]
 567 00c6 0A93     		str	r3, [sp, #40]
 568 00c8 8DF82C30 		strb	r3, [sp, #44]
  54:My_Top/MC/My_Vofa.hpp ****                 } else if (vi < 15) val[vi++] = c;        // еӯҳеҖј
 569              		.loc 2 54 21 is_stmt 1 view .LVU147
 570              	.LVL52:
ARM GAS  /tmp/ccQslxFB.s 			page 14


  54:My_Top/MC/My_Vofa.hpp ****                 } else if (vi < 15) val[vi++] = c;        // еӯҳеҖј
 571              		.loc 2 54 34 view .LVU148
  54:My_Top/MC/My_Vofa.hpp ****                 } else if (vi < 15) val[vi++] = c;        // еӯҳеҖј
 572              		.loc 2 54 41 is_stmt 0 view .LVU149
 573 00cc 1846     		mov	r0, r3
  54:My_Top/MC/My_Vofa.hpp ****                 } else if (vi < 15) val[vi++] = c;        // еӯҳеҖј
 574              		.loc 2 54 29 view .LVU150
 575 00ce 1946     		mov	r1, r3
 576              	.LBE24:
 577 00d0 C5E7     		b	.L30
 578              	.LVL53:
 579              	.L39:
  54:My_Top/MC/My_Vofa.hpp ****                 } else if (vi < 15) val[vi++] = c;        // еӯҳеҖј
 580              		.loc 2 54 29 view .LVU151
 581              	.LBE25:
 582              	.LBE27:
 583              	.LBE29:
 584              	.LBE31:
  59:My_Top/MC/My_Vofa.hpp **** 
 585              		.loc 2 59 5 view .LVU152
 586 00d2 0DB0     		add	sp, sp, #52
 587              		.cfi_def_cfa_offset 20
 588              		@ sp needed
 589 00d4 F0BD     		pop	{r4, r5, r6, r7, pc}
 590              	.LVL54:
 591              	.L35:
 592              		.cfi_def_cfa_offset 0
 593              		.cfi_restore 4
 594              		.cfi_restore 5
 595              		.cfi_restore 6
 596              		.cfi_restore 7
 597              		.cfi_restore 14
  59:My_Top/MC/My_Vofa.hpp **** 
 598              		.loc 2 59 5 view .LVU153
 599 00d6 7047     		bx	lr
 600              		.cfi_endproc
 601              	.LFE346:
 603              		.text
 604              		.align	1
 605              		.global	_Z14vofa_sync_lastP9Vafa_data
 606              		.syntax unified
 607              		.thumb
 608              		.thumb_func
 610              	_Z14vofa_sync_lastP9Vafa_data:
 611              	.LVL55:
 612              	.LFB1367:
   1:My_Top/Task/Task_Vofa.cpp **** 
   2:My_Top/Task/Task_Vofa.cpp **** #include "FreeRTOS.h"
   3:My_Top/Task/Task_Vofa.cpp **** #include "task.h"
   4:My_Top/Task/Task_Vofa.cpp **** #include "My_Vofa.hpp"
   5:My_Top/Task/Task_Vofa.cpp **** #include "MC_Serial.hpp"
   6:My_Top/Task/Task_Vofa.cpp **** #include "DcMotor_ClosedLoop.hpp"
   7:My_Top/Task/Task_Vofa.cpp **** #include "uorb.hpp"
   8:My_Top/Task/Task_Vofa.cpp **** #include "task_topics.h"
   9:My_Top/Task/Task_Vofa.cpp **** 
  10:My_Top/Task/Task_Vofa.cpp **** 
  11:My_Top/Task/Task_Vofa.cpp **** struct Vafa_data
ARM GAS  /tmp/ccQslxFB.s 			page 15


  12:My_Top/Task/Task_Vofa.cpp **** { // и§ЈжһҗеҗҺзҡ„еҸӮж•°еҖј
  13:My_Top/Task/Task_Vofa.cpp ****     uint8_t len;
  14:My_Top/Task/Task_Vofa.cpp ****     float val[VOFA_PARAM_MAX];
  15:My_Top/Task/Task_Vofa.cpp ****     float last_val[VOFA_PARAM_MAX]; // и®°еҪ•дёҠж¬Ўзҡ„еҖј
  16:My_Top/Task/Task_Vofa.cpp ****     bool changed[VOFA_PARAM_MAX];   // ж Үи®°е“ӘдёӘеҸҳдәҶ
  17:My_Top/Task/Task_Vofa.cpp **** };
  18:My_Top/Task/Task_Vofa.cpp **** 
  19:My_Top/Task/Task_Vofa.cpp **** /* еҗҢжӯҘ last_val = valпјҢз”ЁдәҺеҲқе§ӢеҢ–жҲ–еҶҷе…ҘеҗҺ */
  20:My_Top/Task/Task_Vofa.cpp **** void vofa_sync_last(Vafa_data *d)
  21:My_Top/Task/Task_Vofa.cpp **** {
 613              		.loc 1 21 1 is_stmt 1 view -0
 614              		.cfi_startproc
 615              		@ args = 0, pretend = 0, frame = 0
 616              		@ frame_needed = 0, uses_anonymous_args = 0
 617              		@ link register save eliminated.
  22:My_Top/Task/Task_Vofa.cpp ****     for (uint8_t i = 0; i < d->len; i++)
 618              		.loc 1 22 5 view .LVU155
 619              	.LBB32:
 620              		.loc 1 22 18 is_stmt 0 view .LVU156
 621 0000 0023     		movs	r3, #0
 622              		.loc 1 22 5 view .LVU157
 623 0002 0DE0     		b	.L42
 624              	.LVL56:
 625              	.L43:
  23:My_Top/Task/Task_Vofa.cpp ****     {
  24:My_Top/Task/Task_Vofa.cpp ****         d->last_val[i] = d->val[i];
 626              		.loc 1 24 9 is_stmt 1 view .LVU158
 627              		.loc 1 24 34 is_stmt 0 view .LVU159
 628 0004 00EB8302 		add	r2, r0, r3, lsl #2
 629 0008 5168     		ldr	r1, [r2, #4]	@ float
 630              		.loc 1 24 24 view .LVU160
 631 000a 03F11E02 		add	r2, r3, #30
 632 000e 00EB8202 		add	r2, r0, r2, lsl #2
 633 0012 5160     		str	r1, [r2, #4]	@ float
  25:My_Top/Task/Task_Vofa.cpp ****         d->changed[i] = false;
 634              		.loc 1 25 9 is_stmt 1 view .LVU161
 635              		.loc 1 25 23 is_stmt 0 view .LVU162
 636 0014 C218     		adds	r2, r0, r3
 637 0016 0021     		movs	r1, #0
 638 0018 82F8F410 		strb	r1, [r2, #244]
  22:My_Top/Task/Task_Vofa.cpp ****     for (uint8_t i = 0; i < d->len; i++)
 639              		.loc 1 22 5 is_stmt 1 discriminator 3 view .LVU163
 640 001c 0133     		adds	r3, r3, #1
 641              	.LVL57:
  22:My_Top/Task/Task_Vofa.cpp ****     for (uint8_t i = 0; i < d->len; i++)
 642              		.loc 1 22 5 is_stmt 0 discriminator 3 view .LVU164
 643 001e DBB2     		uxtb	r3, r3
 644              	.LVL58:
 645              	.L42:
  22:My_Top/Task/Task_Vofa.cpp ****     for (uint8_t i = 0; i < d->len; i++)
 646              		.loc 1 22 27 is_stmt 1 discriminator 1 view .LVU165
  22:My_Top/Task/Task_Vofa.cpp ****     for (uint8_t i = 0; i < d->len; i++)
 647              		.loc 1 22 32 is_stmt 0 discriminator 1 view .LVU166
 648 0020 0278     		ldrb	r2, [r0]	@ zero_extendqisi2
  22:My_Top/Task/Task_Vofa.cpp ****     for (uint8_t i = 0; i < d->len; i++)
 649              		.loc 1 22 27 discriminator 1 view .LVU167
 650 0022 9A42     		cmp	r2, r3
ARM GAS  /tmp/ccQslxFB.s 			page 16


 651 0024 EED8     		bhi	.L43
 652              	.LBE32:
  26:My_Top/Task/Task_Vofa.cpp ****     }
  27:My_Top/Task/Task_Vofa.cpp **** }
 653              		.loc 1 27 1 view .LVU168
 654 0026 7047     		bx	lr
 655              		.cfi_endproc
 656              	.LFE1367:
 658              		.align	1
 659              		.global	_Z14vofa_data_initv
 660              		.syntax unified
 661              		.thumb
 662              		.thumb_func
 664              	_Z14vofa_data_initv:
 665              	.LFB1368:
  28:My_Top/Task/Task_Vofa.cpp **** 
  29:My_Top/Task/Task_Vofa.cpp **** const char *IA_Names[] = {"iq_p", "iq_i", "id_p", "id_i"};
  30:My_Top/Task/Task_Vofa.cpp **** const char *Speed_Names[] = {"speed_p", "speed_i", "speed_d"};
  31:My_Top/Task/Task_Vofa.cpp **** const char *Target_Names[] = {"Target_Iq", "Target_Id", "Target_speed", "Target_location1", "Target
  32:My_Top/Task/Task_Vofa.cpp **** const char *Location_Names[] = {"location_p", "location_i", "location_d"};
  33:My_Top/Task/Task_Vofa.cpp **** const char *Button_Names[] = {"motor_selection", "motor_fre", "motor_duty"}; // з”өжңәйҖүжӢ©12 / з”
  34:My_Top/Task/Task_Vofa.cpp **** 
  35:My_Top/Task/Task_Vofa.cpp **** Vafa_data Vafa_IA;
  36:My_Top/Task/Task_Vofa.cpp **** Vafa_data Vafa_Speed;
  37:My_Top/Task/Task_Vofa.cpp **** Vafa_data Vafa_Target;
  38:My_Top/Task/Task_Vofa.cpp **** Vafa_data Vafa_Location;
  39:My_Top/Task/Task_Vofa.cpp **** Vafa_data Vafa_Button;
  40:My_Top/Task/Task_Vofa.cpp **** 
  41:My_Top/Task/Task_Vofa.cpp **** void vofa_data_init()
  42:My_Top/Task/Task_Vofa.cpp **** {
 666              		.loc 1 42 1 is_stmt 1 view -0
 667              		.cfi_startproc
 668              		@ args = 0, pretend = 0, frame = 0
 669              		@ frame_needed = 0, uses_anonymous_args = 0
 670 0028 2DE9F047 		push	{r4, r5, r6, r7, r8, r9, r10, lr}
 671              		.cfi_def_cfa_offset 32
 672              		.cfi_offset 4, -32
 673              		.cfi_offset 5, -28
 674              		.cfi_offset 6, -24
 675              		.cfi_offset 7, -20
 676              		.cfi_offset 8, -16
 677              		.cfi_offset 9, -12
 678              		.cfi_offset 10, -8
 679              		.cfi_offset 14, -4
 680 002c 82B0     		sub	sp, sp, #8
 681              		.cfi_def_cfa_offset 40
  43:My_Top/Task/Task_Vofa.cpp ****     Vafa_IA.len = sizeof(IA_Names) / sizeof(IA_Names[0]);
 682              		.loc 1 43 5 view .LVU170
 683              		.loc 1 43 17 is_stmt 0 view .LVU171
 684 002e 2E4C     		ldr	r4, .L46
 685 0030 0422     		movs	r2, #4
 686 0032 2270     		strb	r2, [r4]
  44:My_Top/Task/Task_Vofa.cpp ****     Vafa_Speed.len = sizeof(Speed_Names) / sizeof(IA_Names[0]);
 687              		.loc 1 44 5 is_stmt 1 view .LVU172
 688              		.loc 1 44 20 is_stmt 0 view .LVU173
 689 0034 0323     		movs	r3, #3
 690 0036 84F81431 		strb	r3, [r4, #276]
ARM GAS  /tmp/ccQslxFB.s 			page 17


  45:My_Top/Task/Task_Vofa.cpp ****     Vafa_Target.len = sizeof(Target_Names) / sizeof(Target_Names[0]);
 691              		.loc 1 45 5 is_stmt 1 view .LVU174
 692              		.loc 1 45 21 is_stmt 0 view .LVU175
 693 003a 0521     		movs	r1, #5
 694 003c 84F82812 		strb	r1, [r4, #552]
  46:My_Top/Task/Task_Vofa.cpp ****     Vafa_Location.len = sizeof(Location_Names) / sizeof(Location_Names[0]);
 695              		.loc 1 46 5 is_stmt 1 view .LVU176
 696              		.loc 1 46 23 is_stmt 0 view .LVU177
 697 0040 84F83C33 		strb	r3, [r4, #828]
  47:My_Top/Task/Task_Vofa.cpp ****     Vafa_Button.len = sizeof(Button_Names) / sizeof(Button_Names[0]);
 698              		.loc 1 47 5 is_stmt 1 view .LVU178
 699              		.loc 1 47 21 is_stmt 0 view .LVU179
 700 0044 84F85034 		strb	r3, [r4, #1104]
  48:My_Top/Task/Task_Vofa.cpp ****     // з¬¬дёҖж¬ЎиҜ»еҸ–еҗҺеҗҢжӯҘ last_valпјҢйҒҝе…ҚиҜҜеҲӨ */
  49:My_Top/Task/Task_Vofa.cpp ****     vofa1.vofa_get_batch(&vofa1, IA_Names, Vafa_IA.val, Vafa_IA.len); // иҜ»еҲ°зҡ„йғҪжҳҜ0
 701              		.loc 1 49 5 is_stmt 1 view .LVU180
 702              		.loc 1 49 25 is_stmt 0 view .LVU181
 703 0048 284E     		ldr	r6, .L46+4
 704 004a 294D     		ldr	r5, .L46+8
 705 004c 0092     		str	r2, [sp]
 706 004e A318     		adds	r3, r4, r2
 707 0050 3246     		mov	r2, r6
 708 0052 2946     		mov	r1, r5
 709 0054 2846     		mov	r0, r5
 710 0056 FFF7FEFF 		bl	_ZN7VoFA_Rx14vofa_get_batchEPS_PPKcPfh
 711              	.LVL59:
  50:My_Top/Task/Task_Vofa.cpp ****     vofa1.vofa_get_batch(&vofa1, Speed_Names, Vafa_Speed.val, Vafa_Speed.len);
 712              		.loc 1 50 5 is_stmt 1 view .LVU182
 713              		.loc 1 50 25 is_stmt 0 view .LVU183
 714 005a 04F58A7A 		add	r10, r4, #276
 715 005e 94F81431 		ldrb	r3, [r4, #276]	@ zero_extendqisi2
 716 0062 0093     		str	r3, [sp]
 717 0064 04F58C73 		add	r3, r4, #280
 718 0068 06F11002 		add	r2, r6, #16
 719 006c 2946     		mov	r1, r5
 720 006e 2846     		mov	r0, r5
 721 0070 FFF7FEFF 		bl	_ZN7VoFA_Rx14vofa_get_batchEPS_PPKcPfh
 722              	.LVL60:
  51:My_Top/Task/Task_Vofa.cpp ****     vofa1.vofa_get_batch(&vofa1, Target_Names, Vafa_Target.val, Vafa_Target.len);
 723              		.loc 1 51 5 is_stmt 1 view .LVU184
 724              		.loc 1 51 25 is_stmt 0 view .LVU185
 725 0074 04F50A79 		add	r9, r4, #552
 726 0078 94F82832 		ldrb	r3, [r4, #552]	@ zero_extendqisi2
 727 007c 0093     		str	r3, [sp]
 728 007e 04F50B73 		add	r3, r4, #556
 729 0082 06F11C02 		add	r2, r6, #28
 730 0086 2946     		mov	r1, r5
 731 0088 2846     		mov	r0, r5
 732 008a FFF7FEFF 		bl	_ZN7VoFA_Rx14vofa_get_batchEPS_PPKcPfh
 733              	.LVL61:
  52:My_Top/Task/Task_Vofa.cpp ****     vofa1.vofa_get_batch(&vofa1, Location_Names, Vafa_Location.val, Vafa_Location.len);
 734              		.loc 1 52 5 is_stmt 1 view .LVU186
 735              		.loc 1 52 25 is_stmt 0 view .LVU187
 736 008e 04F54F78 		add	r8, r4, #828
 737 0092 94F83C33 		ldrb	r3, [r4, #828]	@ zero_extendqisi2
 738 0096 0093     		str	r3, [sp]
 739 0098 04F55073 		add	r3, r4, #832
ARM GAS  /tmp/ccQslxFB.s 			page 18


 740 009c 06F13002 		add	r2, r6, #48
 741 00a0 2946     		mov	r1, r5
 742 00a2 2846     		mov	r0, r5
 743 00a4 FFF7FEFF 		bl	_ZN7VoFA_Rx14vofa_get_batchEPS_PPKcPfh
 744              	.LVL62:
  53:My_Top/Task/Task_Vofa.cpp ****     vofa1.vofa_get_batch(&vofa1, Button_Names, Vafa_Button.val, Vafa_Button.len);
 745              		.loc 1 53 5 is_stmt 1 view .LVU188
 746              		.loc 1 53 25 is_stmt 0 view .LVU189
 747 00a8 04F58A67 		add	r7, r4, #1104
 748 00ac 94F85034 		ldrb	r3, [r4, #1104]	@ zero_extendqisi2
 749 00b0 0093     		str	r3, [sp]
 750 00b2 04F25443 		addw	r3, r4, #1108
 751 00b6 06F13C02 		add	r2, r6, #60
 752 00ba 2946     		mov	r1, r5
 753 00bc 2846     		mov	r0, r5
 754 00be FFF7FEFF 		bl	_ZN7VoFA_Rx14vofa_get_batchEPS_PPKcPfh
 755              	.LVL63:
  54:My_Top/Task/Task_Vofa.cpp **** 
  55:My_Top/Task/Task_Vofa.cpp ****     vofa_sync_last(&Vafa_IA);
 756              		.loc 1 55 5 is_stmt 1 view .LVU190
 757              		.loc 1 55 19 is_stmt 0 view .LVU191
 758 00c2 2046     		mov	r0, r4
 759 00c4 FFF7FEFF 		bl	_Z14vofa_sync_lastP9Vafa_data
 760              	.LVL64:
  56:My_Top/Task/Task_Vofa.cpp ****     vofa_sync_last(&Vafa_Speed);
 761              		.loc 1 56 5 is_stmt 1 view .LVU192
 762              		.loc 1 56 19 is_stmt 0 view .LVU193
 763 00c8 5046     		mov	r0, r10
 764 00ca FFF7FEFF 		bl	_Z14vofa_sync_lastP9Vafa_data
 765              	.LVL65:
  57:My_Top/Task/Task_Vofa.cpp ****     vofa_sync_last(&Vafa_Target);
 766              		.loc 1 57 5 is_stmt 1 view .LVU194
 767              		.loc 1 57 19 is_stmt 0 view .LVU195
 768 00ce 4846     		mov	r0, r9
 769 00d0 FFF7FEFF 		bl	_Z14vofa_sync_lastP9Vafa_data
 770              	.LVL66:
  58:My_Top/Task/Task_Vofa.cpp ****     vofa_sync_last(&Vafa_Location);
 771              		.loc 1 58 5 is_stmt 1 view .LVU196
 772              		.loc 1 58 19 is_stmt 0 view .LVU197
 773 00d4 4046     		mov	r0, r8
 774 00d6 FFF7FEFF 		bl	_Z14vofa_sync_lastP9Vafa_data
 775              	.LVL67:
  59:My_Top/Task/Task_Vofa.cpp ****     vofa_sync_last(&Vafa_Button);
 776              		.loc 1 59 5 is_stmt 1 view .LVU198
 777              		.loc 1 59 19 is_stmt 0 view .LVU199
 778 00da 3846     		mov	r0, r7
 779 00dc FFF7FEFF 		bl	_Z14vofa_sync_lastP9Vafa_data
 780              	.LVL68:
  60:My_Top/Task/Task_Vofa.cpp **** }
 781              		.loc 1 60 1 view .LVU200
 782 00e0 02B0     		add	sp, sp, #8
 783              		.cfi_def_cfa_offset 32
 784              		@ sp needed
 785 00e2 BDE8F087 		pop	{r4, r5, r6, r7, r8, r9, r10, pc}
 786              	.L47:
 787 00e6 00BF     		.align	2
 788              	.L46:
ARM GAS  /tmp/ccQslxFB.s 			page 19


 789 00e8 00000000 		.word	.LANCHOR0
 790 00ec 00000000 		.word	.LANCHOR1
 791 00f0 00000000 		.word	vofa1
 792              		.cfi_endproc
 793              	.LFE1368:
 795              		.section	.rodata.str1.4,"aMS",%progbits,1
 796              		.align	2
 797              	.LC0:
 798 0000 776F726B 		.ascii	"work_mode\000"
 798      5F6D6F64 
 798      6500
 799              		.text
 800              		.align	1
 801              		.global	_Z16vofa_update_modeP9Work_ModeS_P8DC_Motor
 802              		.syntax unified
 803              		.thumb
 804              		.thumb_func
 806              	_Z16vofa_update_modeP9Work_ModeS_P8DC_Motor:
 807              	.LVL69:
 808              	.LFB1369:
  61:My_Top/Task/Task_Vofa.cpp **** 
  62:My_Top/Task/Task_Vofa.cpp **** /* жЁЎејҸеҲҮжҚўдё“з”ЁеҮҪж•° */
  63:My_Top/Task/Task_Vofa.cpp **** void vofa_update_mode(Work_Mode *target, Work_Mode default_val , DC_Motor* motor) // еҸӘеңЁеҖјеҸҳдә
  64:My_Top/Task/Task_Vofa.cpp **** {
 809              		.loc 1 64 1 is_stmt 1 view -0
 810              		.cfi_startproc
 811              		@ args = 0, pretend = 0, frame = 8
 812              		@ frame_needed = 0, uses_anonymous_args = 0
 813              		.loc 1 64 1 is_stmt 0 view .LVU202
 814 00f4 30B5     		push	{r4, r5, lr}
 815              		.cfi_def_cfa_offset 12
 816              		.cfi_offset 4, -12
 817              		.cfi_offset 5, -8
 818              		.cfi_offset 14, -4
 819 00f6 83B0     		sub	sp, sp, #12
 820              		.cfi_def_cfa_offset 24
 821 00f8 0546     		mov	r5, r0
 822 00fa 00EE101A 		vmov	s0, r1	@ int
 823 00fe 1446     		mov	r4, r2
  65:My_Top/Task/Task_Vofa.cpp ****     static Work_Mode last_mode = (Work_Mode)0; 
 824              		.loc 1 65 5 is_stmt 1 view .LVU203
  66:My_Top/Task/Task_Vofa.cpp ****     float val = vofa1.get("work_mode", (float)default_val);
 825              		.loc 1 66 5 view .LVU204
 826              		.loc 1 66 26 is_stmt 0 view .LVU205
 827 0100 B8EE400A 		vcvt.f32.u32	s0, s0
 828 0104 1349     		ldr	r1, .L51
 829              	.LVL70:
 830              		.loc 1 66 26 view .LVU206
 831 0106 1448     		ldr	r0, .L51+4
 832              	.LVL71:
 833              		.loc 1 66 26 view .LVU207
 834 0108 FFF7FEFF 		bl	_ZN7VoFA_Rx3getEPKcf
 835              	.LVL72:
  67:My_Top/Task/Task_Vofa.cpp ****     Work_Mode new_mode = (Work_Mode)((int)val);
 836              		.loc 1 67 5 is_stmt 1 view .LVU208
 837              		.loc 1 67 38 is_stmt 0 view .LVU209
 838 010c FDEEC07A 		vcvt.s32.f32	s15, s0
ARM GAS  /tmp/ccQslxFB.s 			page 20


 839 0110 CDED017A 		vstr.32	s15, [sp, #4]	@ int
 840              		.loc 1 67 15 view .LVU210
 841 0114 9DF80430 		ldrb	r3, [sp, #4]	@ zero_extendqisi2
 842              	.LVL73:
  68:My_Top/Task/Task_Vofa.cpp **** 
  69:My_Top/Task/Task_Vofa.cpp ****     if (new_mode != last_mode)
 843              		.loc 1 69 5 is_stmt 1 view .LVU211
 844              		.loc 1 69 18 is_stmt 0 view .LVU212
 845 0118 104A     		ldr	r2, .L51+8
 846 011a 92F86425 		ldrb	r2, [r2, #1380]	@ zero_extendqisi2
 847              		.loc 1 69 5 view .LVU213
 848 011e 9A42     		cmp	r2, r3
 849 0120 15D0     		beq	.L48
  70:My_Top/Task/Task_Vofa.cpp ****     {
  71:My_Top/Task/Task_Vofa.cpp ****         *target = new_mode;
 850              		.loc 1 71 9 is_stmt 1 view .LVU214
 851              		.loc 1 71 17 is_stmt 0 view .LVU215
 852 0122 2B70     		strb	r3, [r5]
  72:My_Top/Task/Task_Vofa.cpp ****         last_mode = new_mode;
 853              		.loc 1 72 9 is_stmt 1 view .LVU216
 854              		.loc 1 72 19 is_stmt 0 view .LVU217
 855 0124 0D4A     		ldr	r2, .L51+8
 856 0126 82F86435 		strb	r3, [r2, #1380]
  73:My_Top/Task/Task_Vofa.cpp ****         if (motor != NULL)
 857              		.loc 1 73 9 is_stmt 1 view .LVU218
 858 012a 84B1     		cbz	r4, .L48
  74:My_Top/Task/Task_Vofa.cpp ****         {
  75:My_Top/Task/Task_Vofa.cpp ****             motor->updown_duty = 0.0;
 859              		.loc 1 75 13 view .LVU219
 860              		.loc 1 75 32 is_stmt 0 view .LVU220
 861 012c 0025     		movs	r5, #0
 862              	.LVL74:
 863              		.loc 1 75 32 view .LVU221
 864 012e 2561     		str	r5, [r4, #16]	@ float
  76:My_Top/Task/Task_Vofa.cpp ****             motor->Motor_EN(false);
 865              		.loc 1 76 13 is_stmt 1 view .LVU222
 866              		.loc 1 76 28 is_stmt 0 view .LVU223
 867 0130 0021     		movs	r1, #0
 868 0132 2046     		mov	r0, r4
 869 0134 FFF7FEFF 		bl	_ZN8DC_Motor8Motor_ENEb
 870              	.LVL75:
  77:My_Top/Task/Task_Vofa.cpp ****             motor->pid_speed_incparam->reset();
 871              		.loc 1 77 13 is_stmt 1 view .LVU224
 872              		.loc 1 77 20 is_stmt 0 view .LVU225
 873 0138 E36B     		ldr	r3, [r4, #60]
 874              	.LVL76:
 875              	.LBB33:
 876              	.LBI33:
 877              		.file 3 "Lib/compute/pid/pid_Increment.hpp"
   1:Lib/compute/pid/pid_Increment.hpp **** #pragma once
   2:Lib/compute/pid/pid_Increment.hpp **** 
   3:Lib/compute/pid/pid_Increment.hpp **** // ============================================================
   4:Lib/compute/pid/pid_Increment.hpp **** // еўһйҮҸејҸ PID жҺ§еҲ¶еҷЁ
   5:Lib/compute/pid/pid_Increment.hpp **** //
   6:Lib/compute/pid/pid_Increment.hpp **** // е…¬ејҸ:
   7:Lib/compute/pid/pid_Increment.hpp **** //   О”u(k) = Kp * (e(k) - e(k-1))
   8:Lib/compute/pid/pid_Increment.hpp **** //         + Ki * T * e(k)
ARM GAS  /tmp/ccQslxFB.s 			page 21


   9:Lib/compute/pid/pid_Increment.hpp **** //         + (Kd / T) * (e(k) - 2*e(k-1) + e(k-2))
  10:Lib/compute/pid/pid_Increment.hpp **** //
  11:Lib/compute/pid/pid_Increment.hpp **** //   u(k) = u(k-1) + О”u(k)
  12:Lib/compute/pid/pid_Increment.hpp **** //
  13:Lib/compute/pid/pid_Increment.hpp **** // е…¶дёӯ T = dtпјҲйҮҮж ·е‘Ёжңҹпјү
  14:Lib/compute/pid/pid_Increment.hpp **** // ============================================================
  15:Lib/compute/pid/pid_Increment.hpp **** 
  16:Lib/compute/pid/pid_Increment.hpp **** 
  17:Lib/compute/pid/pid_Increment.hpp **** class PID_Increment
  18:Lib/compute/pid/pid_Increment.hpp **** {
  19:Lib/compute/pid/pid_Increment.hpp **** public:
  20:Lib/compute/pid/pid_Increment.hpp ****     float _kp, _ki, _kd;
  21:Lib/compute/pid/pid_Increment.hpp ****     PID_Increment(void) //е®ҡд№үж—¶ж— еҸӮзҡ„жһ„йҖ еҮҪж•°ж јејҸ
  22:Lib/compute/pid/pid_Increment.hpp ****     {
  23:Lib/compute/pid/pid_Increment.hpp ****         _kp = _ki = _kd = _dt = 0.0f;
  24:Lib/compute/pid/pid_Increment.hpp ****         _max = _min = 0.0f;
  25:Lib/compute/pid/pid_Increment.hpp ****         _e_prev = _e_prev2 = 0.0f;
  26:Lib/compute/pid/pid_Increment.hpp ****         _delta_u = 0.0f;
  27:Lib/compute/pid/pid_Increment.hpp ****     }
  28:Lib/compute/pid/pid_Increment.hpp **** 
  29:Lib/compute/pid/pid_Increment.hpp ****     PID_Increment(float kp, float ki, float kd, float dt, float max, float min) //е®ҡд№үж—¶еёҰеҸӮзҡ
  30:Lib/compute/pid/pid_Increment.hpp ****     {
  31:Lib/compute/pid/pid_Increment.hpp ****         _kp = kp;
  32:Lib/compute/pid/pid_Increment.hpp ****         _ki = ki;
  33:Lib/compute/pid/pid_Increment.hpp ****         _kd = kd;
  34:Lib/compute/pid/pid_Increment.hpp ****         _dt = dt;
  35:Lib/compute/pid/pid_Increment.hpp ****         _max = max;
  36:Lib/compute/pid/pid_Increment.hpp ****         _min = min;
  37:Lib/compute/pid/pid_Increment.hpp ****         _e_prev = _e_prev2 = 0.0f;
  38:Lib/compute/pid/pid_Increment.hpp ****         _delta_u = 0.0f;
  39:Lib/compute/pid/pid_Increment.hpp ****     }
  40:Lib/compute/pid/pid_Increment.hpp **** 
  41:Lib/compute/pid/pid_Increment.hpp ****     // ============================================================
  42:Lib/compute/pid/pid_Increment.hpp ****     // ж ёеҝғжӣҙж–°еҮҪж•°
  43:Lib/compute/pid/pid_Increment.hpp ****     // @error: еҪ“еүҚиҜҜе·® e(k)
  44:Lib/compute/pid/pid_Increment.hpp ****     // @return: йҷҗе№…еҗҺзҡ„иҫ“еҮәеҖј u(k)
  45:Lib/compute/pid/pid_Increment.hpp ****     // ============================================================
  46:Lib/compute/pid/pid_Increment.hpp ****     float update(float error) 
  47:Lib/compute/pid/pid_Increment.hpp ****     {                         
  48:Lib/compute/pid/pid_Increment.hpp ****         
  49:Lib/compute/pid/pid_Increment.hpp ****         // О”u = Kp * (e - e_prev) + Ki * T * e + (Kd / T) * (e - 2*e_prev + e_prev2)
  50:Lib/compute/pid/pid_Increment.hpp ****         float p_term = _kp * (error - _e_prev);
  51:Lib/compute/pid/pid_Increment.hpp ****         float i_term = _ki * _dt * error;
  52:Lib/compute/pid/pid_Increment.hpp ****         float d_term = (_kd / _dt) * (error - 2.0f * _e_prev + _e_prev2);
  53:Lib/compute/pid/pid_Increment.hpp **** 
  54:Lib/compute/pid/pid_Increment.hpp ****         _delta_u = p_term + i_term + d_term; // и®Ўз®—еўһйҮҸ
  55:Lib/compute/pid/pid_Increment.hpp **** 
  56:Lib/compute/pid/pid_Increment.hpp ****         // йҷҗе№…еўһйҮҸиҫ“еҮә
  57:Lib/compute/pid/pid_Increment.hpp ****         if (_delta_u > _max)
  58:Lib/compute/pid/pid_Increment.hpp ****             _delta_u = _max;
  59:Lib/compute/pid/pid_Increment.hpp ****         else if (_delta_u < _min)
  60:Lib/compute/pid/pid_Increment.hpp ****             _delta_u = _min;
  61:Lib/compute/pid/pid_Increment.hpp **** 
  62:Lib/compute/pid/pid_Increment.hpp ****         // жӣҙж–°иҜҜе·®еҺҶеҸІ
  63:Lib/compute/pid/pid_Increment.hpp ****         _e_prev2 = _e_prev; //жӣҙж–°дёҠдёҠж¬ЎиҜҜе·®
  64:Lib/compute/pid/pid_Increment.hpp ****         _e_prev  = error; //жӣҙж–°дёҠдёҖж¬ЎиҜҜе·®
  65:Lib/compute/pid/pid_Increment.hpp **** 
ARM GAS  /tmp/ccQslxFB.s 			page 22


  66:Lib/compute/pid/pid_Increment.hpp ****         return _delta_u; // иҝ”еӣһеўһйҮҸиҫ“еҮә
  67:Lib/compute/pid/pid_Increment.hpp ****     }
  68:Lib/compute/pid/pid_Increment.hpp **** 
  69:Lib/compute/pid/pid_Increment.hpp ****     // ============================================================
  70:Lib/compute/pid/pid_Increment.hpp ****     // йҮҚзҪ®еҶ…йғЁзҠ¶жҖҒпјҲжё…йӣ¶еҺҶеҸІиҜҜе·®е’ҢзҙҜи®Ўиҫ“еҮәпјү
  71:Lib/compute/pid/pid_Increment.hpp ****     // ============================================================
  72:Lib/compute/pid/pid_Increment.hpp ****     void reset(void)
 878              		.loc 3 72 10 is_stmt 1 view .LVU226
 879              	.LBB34:
  73:Lib/compute/pid/pid_Increment.hpp ****     {
  74:Lib/compute/pid/pid_Increment.hpp ****         
  75:Lib/compute/pid/pid_Increment.hpp ****         _e_prev  = 0.0f;
 880              		.loc 3 75 9 view .LVU227
 881              		.loc 3 75 18 is_stmt 0 view .LVU228
 882 013a 9D61     		str	r5, [r3, #24]	@ float
  76:Lib/compute/pid/pid_Increment.hpp ****         _e_prev2 = 0.0f;
 883              		.loc 3 76 9 is_stmt 1 view .LVU229
 884              		.loc 3 76 18 is_stmt 0 view .LVU230
 885 013c DD61     		str	r5, [r3, #28]	@ float
  77:Lib/compute/pid/pid_Increment.hpp ****         _delta_u = 0.0f;
 886              		.loc 3 77 9 is_stmt 1 view .LVU231
 887              		.loc 3 77 18 is_stmt 0 view .LVU232
 888 013e 1D62     		str	r5, [r3, #32]	@ float
 889              	.LVL77:
 890              		.loc 3 77 18 view .LVU233
 891              	.LBE34:
 892              	.LBE33:
  78:My_Top/Task/Task_Vofa.cpp ****             motor->pid_location->reset();
 893              		.loc 1 78 13 is_stmt 1 view .LVU234
 894              		.loc 1 78 20 is_stmt 0 view .LVU235
 895 0140 236C     		ldr	r3, [r4, #64]
 896              	.LVL78:
 897              	.LBB35:
 898              	.LBI35:
 899              		.file 4 "Lib/compute/pid/pid.hpp"
   1:Lib/compute/pid/pid.hpp **** #pragma once
   2:Lib/compute/pid/pid.hpp **** 
   3:Lib/compute/pid/pid.hpp **** #define PID_DtHZ (1.0f/16000.0f)
   4:Lib/compute/pid/pid.hpp **** 
   5:Lib/compute/pid/pid.hpp **** class PID
   6:Lib/compute/pid/pid.hpp **** {
   7:Lib/compute/pid/pid.hpp **** public:
   8:Lib/compute/pid/pid.hpp **** 
   9:Lib/compute/pid/pid.hpp **** // жһ„йҖ еҮҪж•°пјҢеёҰй»ҳи®ӨеҸӮж•°пјҢж–№дҫҝдҪҝз”Ё
  10:Lib/compute/pid/pid.hpp ****     PID(float kp = 0.0f, float ki = 0.0f, float kd = 0.0f, float dt = PID_DtHZ, float i_max = 0.66*
  11:Lib/compute/pid/pid.hpp ****         float max = 1.0f, float min = -1.0f)
  12:Lib/compute/pid/pid.hpp ****         : _kp(kp), _ki(ki), _kd(kd), _dt(dt), _i_max(i_max),_max(max), _min(min),
  13:Lib/compute/pid/pid.hpp ****           _error(0.0f), _prev_error(0.0f), P_OUT(0.0f), I_OUT(0.0f), D_OUT(0.0f),
  14:Lib/compute/pid/pid.hpp ****           _output(0.0f), max_out_flag(false) {}
  15:Lib/compute/pid/pid.hpp **** 
  16:Lib/compute/pid/pid.hpp ****     float _kp; // жҜ”дҫӢеўһзӣҠ
  17:Lib/compute/pid/pid.hpp ****     float _ki; // з§ҜеҲҶеўһзӣҠ
  18:Lib/compute/pid/pid.hpp ****     float _kd; // еҫ®еҲҶеўһзӣҠ
  19:Lib/compute/pid/pid.hpp ****     float _dt; // йҮҮж ·ж—¶й—ҙ
  20:Lib/compute/pid/pid.hpp ****     float _i_max; //
  21:Lib/compute/pid/pid.hpp **** 
  22:Lib/compute/pid/pid.hpp ****     float _max; // иҫ“еҮәдёҠйҷҗ
ARM GAS  /tmp/ccQslxFB.s 			page 23


  23:Lib/compute/pid/pid.hpp ****     float _min; // иҫ“еҮәдёӢйҷҗ
  24:Lib/compute/pid/pid.hpp ****     float _error; // еҪ“еүҚиҜҜе·®
  25:Lib/compute/pid/pid.hpp ****     float _prev_error; // дёҠдёҖж¬ЎиҜҜе·®
  26:Lib/compute/pid/pid.hpp **** 
  27:Lib/compute/pid/pid.hpp **** 
  28:Lib/compute/pid/pid.hpp ****     float update(float error)
  29:Lib/compute/pid/pid.hpp ****     {
  30:Lib/compute/pid/pid.hpp ****         _error = error;
  31:Lib/compute/pid/pid.hpp **** 
  32:Lib/compute/pid/pid.hpp ****         P_OUT = _kp * _error; 
  33:Lib/compute/pid/pid.hpp **** 
  34:Lib/compute/pid/pid.hpp ****         I_OUT += _ki * _error*_dt;
  35:Lib/compute/pid/pid.hpp ****         if (I_OUT>=_i_max) I_OUT = _i_max;
  36:Lib/compute/pid/pid.hpp ****         if (I_OUT<=-_i_max) I_OUT = -_i_max;
  37:Lib/compute/pid/pid.hpp **** 
  38:Lib/compute/pid/pid.hpp ****         D_OUT = _kd * (_error - _prev_error)/_dt;
  39:Lib/compute/pid/pid.hpp ****         // Calculate output
  40:Lib/compute/pid/pid.hpp ****         _output = P_OUT + I_OUT + D_OUT; //???
  41:Lib/compute/pid/pid.hpp **** 
  42:Lib/compute/pid/pid.hpp ****         // Clamp output
  43:Lib/compute/pid/pid.hpp ****         if (_output > _max)
  44:Lib/compute/pid/pid.hpp ****         {
  45:Lib/compute/pid/pid.hpp ****             _output = _max;
  46:Lib/compute/pid/pid.hpp ****             // max_out_flag = true; // и®ҫзҪ®иҫ“еҮәдёҠйҷҗж Үеҝ—дҪҚ 
  47:Lib/compute/pid/pid.hpp ****         }else if (_output < _min)
  48:Lib/compute/pid/pid.hpp ****         {
  49:Lib/compute/pid/pid.hpp ****             _output = _min;
  50:Lib/compute/pid/pid.hpp ****             // max_out_flag = true; // и®ҫзҪ®иҫ“еҮәдёҠйҷҗж Үеҝ—дҪҚ
  51:Lib/compute/pid/pid.hpp ****         }
  52:Lib/compute/pid/pid.hpp ****         _prev_error = _error;
  53:Lib/compute/pid/pid.hpp **** 
  54:Lib/compute/pid/pid.hpp ****         return _output;
  55:Lib/compute/pid/pid.hpp ****     }
  56:Lib/compute/pid/pid.hpp **** 
  57:Lib/compute/pid/pid.hpp ****     void reset()
 900              		.loc 4 57 10 is_stmt 1 view .LVU236
 901              	.LBB36:
  58:Lib/compute/pid/pid.hpp ****     {
  59:Lib/compute/pid/pid.hpp ****         P_OUT = I_OUT = D_OUT = _output = _error =_prev_error = 0;
 902              		.loc 4 59 9 view .LVU237
 903              		.loc 4 59 63 is_stmt 0 view .LVU238
 904 0142 1D62     		str	r5, [r3, #32]	@ float
 905              		.loc 4 59 50 view .LVU239
 906 0144 DD61     		str	r5, [r3, #28]	@ float
 907              		.loc 4 59 41 view .LVU240
 908 0146 1D63     		str	r5, [r3, #48]	@ float
 909              		.loc 4 59 31 view .LVU241
 910 0148 DD62     		str	r5, [r3, #44]	@ float
 911              		.loc 4 59 23 view .LVU242
 912 014a 9D62     		str	r5, [r3, #40]	@ float
 913              		.loc 4 59 15 view .LVU243
 914 014c 5D62     		str	r5, [r3, #36]	@ float
 915              	.LVL79:
 916              	.L48:
 917              		.loc 4 59 15 view .LVU244
 918              	.LBE36:
 919              	.LBE35:
ARM GAS  /tmp/ccQslxFB.s 			page 24


  79:My_Top/Task/Task_Vofa.cpp ****         }
  80:My_Top/Task/Task_Vofa.cpp ****     }
  81:My_Top/Task/Task_Vofa.cpp **** }
 920              		.loc 1 81 1 view .LVU245
 921 014e 03B0     		add	sp, sp, #12
 922              		.cfi_def_cfa_offset 12
 923              		@ sp needed
 924 0150 30BD     		pop	{r4, r5, pc}
 925              	.LVL80:
 926              	.L52:
 927              		.loc 1 81 1 view .LVU246
 928 0152 00BF     		.align	2
 929              	.L51:
 930 0154 00000000 		.word	.LC0
 931 0158 00000000 		.word	vofa1
 932 015c 00000000 		.word	.LANCHOR0
 933              		.cfi_endproc
 934              	.LFE1369:
 936              		.align	1
 937              		.global	_Z22vofa_update_if_changedP9Vafa_datahPfP8DC_Motor
 938              		.syntax unified
 939              		.thumb
 940              		.thumb_func
 942              	_Z22vofa_update_if_changedP9Vafa_datahPfP8DC_Motor:
 943              	.LVL81:
 944              	.LFB1370:
  82:My_Top/Task/Task_Vofa.cpp **** 
  83:My_Top/Task/Task_Vofa.cpp **** 
  84:My_Top/Task/Task_Vofa.cpp **** 
  85:My_Top/Task/Task_Vofa.cpp **** void vofa_update_if_changed(Vafa_data *d, uint8_t idx, float *target,  DC_Motor* motor)
  86:My_Top/Task/Task_Vofa.cpp **** {
 945              		.loc 1 86 1 is_stmt 1 view -0
 946              		.cfi_startproc
 947              		@ args = 0, pretend = 0, frame = 0
 948              		@ frame_needed = 0, uses_anonymous_args = 0
 949              		@ link register save eliminated.
 950              		.loc 1 86 1 is_stmt 0 view .LVU248
 951 0160 10B4     		push	{r4}
 952              		.cfi_def_cfa_offset 4
 953              		.cfi_offset 4, -4
  87:My_Top/Task/Task_Vofa.cpp ****     if (!d->changed[idx]) return;// еҸӘеңЁеҖјеҸҳдәҶзҡ„ж—¶еҖҷ
 954              		.loc 1 87 5 is_stmt 1 view .LVU249
 955              		.loc 1 87 24 is_stmt 0 view .LVU250
 956 0162 4418     		adds	r4, r0, r1
 957 0164 94F8F440 		ldrb	r4, [r4, #244]	@ zero_extendqisi2
 958              		.loc 1 87 5 view .LVU251
 959 0168 D4B1     		cbz	r4, .L53
  88:My_Top/Task/Task_Vofa.cpp **** 
  89:My_Top/Task/Task_Vofa.cpp ****     *target = d->val[idx];      // еҶҷе…Ҙзӣ®ж Ү
 960              		.loc 1 89 5 is_stmt 1 view .LVU252
 961              		.loc 1 89 25 is_stmt 0 view .LVU253
 962 016a 00EB8104 		add	r4, r0, r1, lsl #2
 963 016e 6468     		ldr	r4, [r4, #4]	@ float
 964              		.loc 1 89 13 view .LVU254
 965 0170 1460     		str	r4, [r2]	@ float
  90:My_Top/Task/Task_Vofa.cpp **** 
  91:My_Top/Task/Task_Vofa.cpp ****     d->last_val[idx] = d->val[idx]; // жӣҙж–°last
ARM GAS  /tmp/ccQslxFB.s 			page 25


 966              		.loc 1 91 5 is_stmt 1 view .LVU255
 967              		.loc 1 91 22 is_stmt 0 view .LVU256
 968 0172 01F11E02 		add	r2, r1, #30
 969              	.LVL82:
 970              		.loc 1 91 22 view .LVU257
 971 0176 00EB8202 		add	r2, r0, r2, lsl #2
 972 017a 5460     		str	r4, [r2, #4]	@ float
  92:My_Top/Task/Task_Vofa.cpp ****     d->changed[idx] = false; // ж Үи®°ж— еҸҳеҢ–
 973              		.loc 1 92 5 is_stmt 1 view .LVU258
 974              		.loc 1 92 21 is_stmt 0 view .LVU259
 975 017c 0844     		add	r0, r0, r1
 976              	.LVL83:
 977              		.loc 1 92 21 view .LVU260
 978 017e 0022     		movs	r2, #0
 979 0180 80F8F420 		strb	r2, [r0, #244]
  93:My_Top/Task/Task_Vofa.cpp **** 
  94:My_Top/Task/Task_Vofa.cpp ****     if (motor == NULL) return; // еҰӮжһңжІЎжңүжҢҮе®ҡз”өжңәпјҢдёҚеӨҚдҪҚ
 980              		.loc 1 94 5 is_stmt 1 view .LVU261
 981 0184 63B1     		cbz	r3, .L53
  95:My_Top/Task/Task_Vofa.cpp ****     motor->pid_speed_incparam->reset();
 982              		.loc 1 95 5 view .LVU262
 983              		.loc 1 95 12 is_stmt 0 view .LVU263
 984 0186 D96B     		ldr	r1, [r3, #60]
 985              	.LVL84:
 986              	.LBB37:
 987              	.LBI37:
  72:Lib/compute/pid/pid_Increment.hpp ****     {
 988              		.loc 3 72 10 is_stmt 1 view .LVU264
 989              	.LBB38:
  75:Lib/compute/pid/pid_Increment.hpp ****         _e_prev2 = 0.0f;
 990              		.loc 3 75 9 view .LVU265
  75:Lib/compute/pid/pid_Increment.hpp ****         _e_prev2 = 0.0f;
 991              		.loc 3 75 18 is_stmt 0 view .LVU266
 992 0188 0022     		movs	r2, #0
 993 018a 8A61     		str	r2, [r1, #24]	@ float
  76:Lib/compute/pid/pid_Increment.hpp ****         _delta_u = 0.0f;
 994              		.loc 3 76 9 is_stmt 1 view .LVU267
  76:Lib/compute/pid/pid_Increment.hpp ****         _delta_u = 0.0f;
 995              		.loc 3 76 18 is_stmt 0 view .LVU268
 996 018c CA61     		str	r2, [r1, #28]	@ float
 997              		.loc 3 77 9 is_stmt 1 view .LVU269
 998              		.loc 3 77 18 is_stmt 0 view .LVU270
 999 018e 0A62     		str	r2, [r1, #32]	@ float
 1000              	.LVL85:
 1001              		.loc 3 77 18 view .LVU271
 1002              	.LBE38:
 1003              	.LBE37:
  96:My_Top/Task/Task_Vofa.cpp ****     motor->pid_location->reset();
 1004              		.loc 1 96 5 is_stmt 1 view .LVU272
 1005              		.loc 1 96 12 is_stmt 0 view .LVU273
 1006 0190 196C     		ldr	r1, [r3, #64]
 1007              	.LVL86:
 1008              	.LBB39:
 1009              	.LBI39:
  57:Lib/compute/pid/pid.hpp ****     {
 1010              		.loc 4 57 10 is_stmt 1 view .LVU274
 1011              	.LBB40:
ARM GAS  /tmp/ccQslxFB.s 			page 26


 1012              		.loc 4 59 9 view .LVU275
 1013              		.loc 4 59 63 is_stmt 0 view .LVU276
 1014 0192 0A62     		str	r2, [r1, #32]	@ float
 1015              		.loc 4 59 50 view .LVU277
 1016 0194 CA61     		str	r2, [r1, #28]	@ float
 1017              		.loc 4 59 41 view .LVU278
 1018 0196 0A63     		str	r2, [r1, #48]	@ float
 1019              		.loc 4 59 31 view .LVU279
 1020 0198 CA62     		str	r2, [r1, #44]	@ float
 1021              		.loc 4 59 23 view .LVU280
 1022 019a 8A62     		str	r2, [r1, #40]	@ float
 1023              		.loc 4 59 15 view .LVU281
 1024 019c 4A62     		str	r2, [r1, #36]	@ float
 1025              	.LVL87:
 1026              		.loc 4 59 15 view .LVU282
 1027              	.LBE40:
 1028              	.LBE39:
  97:My_Top/Task/Task_Vofa.cpp ****     motor->updown_duty = 0.0;
 1029              		.loc 1 97 5 is_stmt 1 view .LVU283
 1030              		.loc 1 97 24 is_stmt 0 view .LVU284
 1031 019e 1A61     		str	r2, [r3, #16]	@ float
 1032              	.L53:
  98:My_Top/Task/Task_Vofa.cpp **** 
  99:My_Top/Task/Task_Vofa.cpp **** }
 1033              		.loc 1 99 1 view .LVU285
 1034 01a0 5DF8044B 		ldr	r4, [sp], #4
 1035              		.cfi_restore 4
 1036              		.cfi_def_cfa_offset 0
 1037 01a4 7047     		bx	lr
 1038              		.cfi_endproc
 1039              	.LFE1370:
 1041              		.align	1
 1042              		.global	_Z19vofa_detect_changesP9Vafa_data
 1043              		.syntax unified
 1044              		.thumb
 1045              		.thumb_func
 1047              	_Z19vofa_detect_changesP9Vafa_data:
 1048              	.LVL88:
 1049              	.LFB1371:
 100:My_Top/Task/Task_Vofa.cpp **** 
 101:My_Top/Task/Task_Vofa.cpp **** 
 102:My_Top/Task/Task_Vofa.cpp **** 
 103:My_Top/Task/Task_Vofa.cpp **** 
 104:My_Top/Task/Task_Vofa.cpp **** void vofa_detect_changes(Vafa_data *d) // жЈҖжөӢж•°жҚ®зҡ„еҸҳеҢ– еҶҷе…Ҙж Үеҝ—дҪҚеҲ°changed
 105:My_Top/Task/Task_Vofa.cpp **** {
 1050              		.loc 1 105 1 is_stmt 1 view -0
 1051              		.cfi_startproc
 1052              		@ args = 0, pretend = 0, frame = 0
 1053              		@ frame_needed = 0, uses_anonymous_args = 0
 1054              		@ link register save eliminated.
 106:My_Top/Task/Task_Vofa.cpp ****     for (uint8_t i = 0; i < d->len; i++)
 1055              		.loc 1 106 5 view .LVU287
 1056              	.LBB41:
 1057              		.loc 1 106 18 is_stmt 0 view .LVU288
 1058 01a6 0023     		movs	r3, #0
 1059              		.loc 1 106 5 view .LVU289
 1060 01a8 15E0     		b	.L57
ARM GAS  /tmp/ccQslxFB.s 			page 27


 1061              	.LVL89:
 1062              	.L58:
 107:My_Top/Task/Task_Vofa.cpp ****     {
 108:My_Top/Task/Task_Vofa.cpp ****         d->changed[i] = (d->val[i] != d->last_val[i]);
 1063              		.loc 1 108 9 is_stmt 1 view .LVU290
 1064              		.loc 1 108 34 is_stmt 0 view .LVU291
 1065 01aa 00EB8302 		add	r2, r0, r3, lsl #2
 1066 01ae 92ED017A 		vldr.32	s14, [r2, #4]
 1067              		.loc 1 108 52 view .LVU292
 1068 01b2 03F11E02 		add	r2, r3, #30
 1069 01b6 00EB8202 		add	r2, r0, r2, lsl #2
 1070 01ba D2ED017A 		vldr.32	s15, [r2, #4]
 1071              		.loc 1 108 36 view .LVU293
 1072 01be B4EE677A 		vcmp.f32	s14, s15
 1073 01c2 F1EE10FA 		vmrs	APSR_nzcv, FPSCR
 1074 01c6 14BF     		ite	ne
 1075 01c8 0121     		movne	r1, #1
 1076 01ca 0021     		moveq	r1, #0
 1077              		.loc 1 108 23 view .LVU294
 1078 01cc C218     		adds	r2, r0, r3
 1079 01ce 82F8F410 		strb	r1, [r2, #244]
 106:My_Top/Task/Task_Vofa.cpp ****     for (uint8_t i = 0; i < d->len; i++)
 1080              		.loc 1 106 5 is_stmt 1 discriminator 3 view .LVU295
 1081 01d2 0133     		adds	r3, r3, #1
 1082              	.LVL90:
 106:My_Top/Task/Task_Vofa.cpp ****     for (uint8_t i = 0; i < d->len; i++)
 1083              		.loc 1 106 5 is_stmt 0 discriminator 3 view .LVU296
 1084 01d4 DBB2     		uxtb	r3, r3
 1085              	.LVL91:
 1086              	.L57:
 106:My_Top/Task/Task_Vofa.cpp ****     for (uint8_t i = 0; i < d->len; i++)
 1087              		.loc 1 106 27 is_stmt 1 discriminator 1 view .LVU297
 106:My_Top/Task/Task_Vofa.cpp ****     for (uint8_t i = 0; i < d->len; i++)
 1088              		.loc 1 106 32 is_stmt 0 discriminator 1 view .LVU298
 1089 01d6 0278     		ldrb	r2, [r0]	@ zero_extendqisi2
 106:My_Top/Task/Task_Vofa.cpp ****     for (uint8_t i = 0; i < d->len; i++)
 1090              		.loc 1 106 27 discriminator 1 view .LVU299
 1091 01d8 9A42     		cmp	r2, r3
 1092 01da E6D8     		bhi	.L58
 1093              	.LBE41:
 109:My_Top/Task/Task_Vofa.cpp ****     }
 110:My_Top/Task/Task_Vofa.cpp **** }
 1094              		.loc 1 110 1 view .LVU300
 1095 01dc 7047     		bx	lr
 1096              		.cfi_endproc
 1097              	.LFE1371:
 1099              		.align	1
 1100              		.global	_Z11Task_VofaRxPv
 1101              		.syntax unified
 1102              		.thumb
 1103              		.thumb_func
 1105              	_Z11Task_VofaRxPv:
 1106              	.LVL92:
 1107              	.LFB1372:
 111:My_Top/Task/Task_Vofa.cpp **** 
 112:My_Top/Task/Task_Vofa.cpp **** void Task_VofaRx(void *argument)
 113:My_Top/Task/Task_Vofa.cpp **** { 
ARM GAS  /tmp/ccQslxFB.s 			page 28


 1108              		.loc 1 113 1 is_stmt 1 view -0
 1109              		.cfi_startproc
 1110              		@ args = 0, pretend = 0, frame = 8
 1111              		@ frame_needed = 0, uses_anonymous_args = 0
 1112              		.loc 1 113 1 is_stmt 0 view .LVU302
 1113 01de 2DE9F047 		push	{r4, r5, r6, r7, r8, r9, r10, lr}
 1114              		.cfi_def_cfa_offset 32
 1115              		.cfi_offset 4, -32
 1116              		.cfi_offset 5, -28
 1117              		.cfi_offset 6, -24
 1118              		.cfi_offset 7, -20
 1119              		.cfi_offset 8, -16
 1120              		.cfi_offset 9, -12
 1121              		.cfi_offset 10, -8
 1122              		.cfi_offset 14, -4
 1123 01e2 84B0     		sub	sp, sp, #16
 1124              		.cfi_def_cfa_offset 48
 114:My_Top/Task/Task_Vofa.cpp ****     static float Motor_Select = 0.0; // з”өжңәйҖүжӢ©1-4
 1125              		.loc 1 114 5 is_stmt 1 view .LVU303
 115:My_Top/Task/Task_Vofa.cpp ****     static uint8_t last_idx = 0; // дёҠдёҖж¬Ўзҡ„з”өжңәйҖүжӢ©
 1126              		.loc 1 115 5 view .LVU304
 116:My_Top/Task/Task_Vofa.cpp ****     vofa_data_init();
 1127              		.loc 1 116 5 view .LVU305
 1128              		.loc 1 116 19 is_stmt 0 view .LVU306
 1129 01e4 FFF7FEFF 		bl	_Z14vofa_data_initv
 1130              	.LVL93:
 1131              		.loc 1 116 19 view .LVU307
 1132 01e8 7DE0     		b	.L60
 1133              	.LVL94:
 1134              	.L75:
 1135              	.LBB42:
 117:My_Top/Task/Task_Vofa.cpp ****     
 118:My_Top/Task/Task_Vofa.cpp ****     while (1)
 119:My_Top/Task/Task_Vofa.cpp ****     {
 120:My_Top/Task/Task_Vofa.cpp ****         vofa1.parse();                                                    // и§Јжһҗж”¶еҲ°зҡ„её§
 121:My_Top/Task/Task_Vofa.cpp ****         vofa1.vofa_get_batch(&vofa1, IA_Names, Vafa_IA.val, Vafa_IA.len); // иҜ»еҸ–IA_NamesеҸӮж•°еҖ
 122:My_Top/Task/Task_Vofa.cpp ****         vofa1.vofa_get_batch(&vofa1, Speed_Names, Vafa_Speed.val, Vafa_Speed.len); // иҜ»еҸ–Speed_N
 123:My_Top/Task/Task_Vofa.cpp ****         vofa1.vofa_get_batch(&vofa1, Target_Names, Vafa_Target.val, Vafa_Target.len); // иҜ»еҸ–Targ
 124:My_Top/Task/Task_Vofa.cpp ****         vofa1.vofa_get_batch(&vofa1, Location_Names, Vafa_Location.val, Vafa_Location.len); // иҜ»е
 125:My_Top/Task/Task_Vofa.cpp ****         vofa1.vofa_get_batch(&vofa1, Button_Names, Vafa_Button.val, Vafa_Button.len);       // иҜ»е
 126:My_Top/Task/Task_Vofa.cpp **** 
 127:My_Top/Task/Task_Vofa.cpp ****         vofa_detect_changes(&Vafa_IA); // жЈҖжөӢж•°жҚ®зҡ„еҸҳеҢ– еҶҷе…Ҙж Үеҝ—дҪҚеҲ°changed
 128:My_Top/Task/Task_Vofa.cpp ****         vofa_detect_changes(&Vafa_Speed);
 129:My_Top/Task/Task_Vofa.cpp ****         vofa_detect_changes(&Vafa_Target);
 130:My_Top/Task/Task_Vofa.cpp ****         vofa_detect_changes(&Vafa_Location);
 131:My_Top/Task/Task_Vofa.cpp ****         vofa_detect_changes(&Vafa_Button);
 132:My_Top/Task/Task_Vofa.cpp **** 
 133:My_Top/Task/Task_Vofa.cpp ****         
 134:My_Top/Task/Task_Vofa.cpp ****         vofa_update_if_changed(&Vafa_Button, 0, &Motor_Select, 0);
 135:My_Top/Task/Task_Vofa.cpp ****         
 136:My_Top/Task/Task_Vofa.cpp ****         uint8_t idx = (uint8_t)Motor_Select;  // 1=M1, 2=M2, 3=M3, 4=M4
 137:My_Top/Task/Task_Vofa.cpp ****         DC_Motor::selected_motor = idx;//и®°еҪ•еҪ“еүҚйҖүжӢ©зҡ„з”өжңә
 138:My_Top/Task/Task_Vofa.cpp ****         if (idx != last_idx) //з”өжңәеҲҮжҚўеҗҺ           
 139:My_Top/Task/Task_Vofa.cpp ****         {                                   
 140:My_Top/Task/Task_Vofa.cpp ****             vofa_sync_last(&Vafa_IA);  //еҗҢжӯҘlast_val = valдё”ж Үи®°ж— еҸҳеҢ– 
 1136              		.loc 1 140 13 is_stmt 1 view .LVU308
 1137              		.loc 1 140 27 is_stmt 0 view .LVU309
ARM GAS  /tmp/ccQslxFB.s 			page 29


 1138 01ea 2046     		mov	r0, r4
 1139 01ec FFF7FEFF 		bl	_Z14vofa_sync_lastP9Vafa_data
 1140              	.LVL95:
 141:My_Top/Task/Task_Vofa.cpp ****             vofa_sync_last(&Vafa_Speed); 
 1141              		.loc 1 141 13 is_stmt 1 view .LVU310
 1142              		.loc 1 141 27 is_stmt 0 view .LVU311
 1143 01f0 5046     		mov	r0, r10
 1144 01f2 FFF7FEFF 		bl	_Z14vofa_sync_lastP9Vafa_data
 1145              	.LVL96:
 142:My_Top/Task/Task_Vofa.cpp ****             vofa_sync_last(&Vafa_Target);
 1146              		.loc 1 142 13 is_stmt 1 view .LVU312
 1147              		.loc 1 142 27 is_stmt 0 view .LVU313
 1148 01f6 4846     		mov	r0, r9
 1149 01f8 FFF7FEFF 		bl	_Z14vofa_sync_lastP9Vafa_data
 1150              	.LVL97:
 143:My_Top/Task/Task_Vofa.cpp ****             vofa_sync_last(&Vafa_Location); 
 1151              		.loc 1 143 13 is_stmt 1 view .LVU314
 1152              		.loc 1 143 27 is_stmt 0 view .LVU315
 1153 01fc 4046     		mov	r0, r8
 1154 01fe FFF7FEFF 		bl	_Z14vofa_sync_lastP9Vafa_data
 1155              	.LVL98:
 144:My_Top/Task/Task_Vofa.cpp ****             vofa_sync_last(&Vafa_Button);
 1156              		.loc 1 144 13 is_stmt 1 view .LVU316
 1157              		.loc 1 144 27 is_stmt 0 view .LVU317
 1158 0202 3846     		mov	r0, r7
 1159 0204 FFF7FEFF 		bl	_Z14vofa_sync_lastP9Vafa_data
 1160              	.LVL99:
 145:My_Top/Task/Task_Vofa.cpp ****             last_idx = idx;
 1161              		.loc 1 145 13 is_stmt 1 view .LVU318
 1162              		.loc 1 145 22 is_stmt 0 view .LVU319
 1163 0208 84F86C55 		strb	r5, [r4, #1388]
 1164 020c D4E0     		b	.L61
 1165              	.L62:
 146:My_Top/Task/Task_Vofa.cpp ****         }
 147:My_Top/Task/Task_Vofa.cpp ****         if (idx < 1 || idx > 4)
 148:My_Top/Task/Task_Vofa.cpp ****         {
 149:My_Top/Task/Task_Vofa.cpp ****             vTaskDelay(pdMS_TO_TICKS(10));
 150:My_Top/Task/Task_Vofa.cpp ****             continue;                        // и·іиҝҮжң¬иҪ®пјҢдёҚйҖҖеҮәд»»еҠЎ
 151:My_Top/Task/Task_Vofa.cpp ****         }
 152:My_Top/Task/Task_Vofa.cpp **** 
 153:My_Top/Task/Task_Vofa.cpp ****         DC_Motor* m = NULL;
 1166              		.loc 1 153 9 is_stmt 1 view .LVU320
 1167              	.LVL100:
 154:My_Top/Task/Task_Vofa.cpp ****         switch (idx)
 1168              		.loc 1 154 9 view .LVU321
 1169 020e 013D     		subs	r5, r5, #1
 1170              	.LVL101:
 1171              		.loc 1 154 9 is_stmt 0 view .LVU322
 1172 0210 032D     		cmp	r5, #3
 1173 0212 03D8     		bhi	.L64
 1174 0214 DFE805F0 		tbb	[pc, r5]
 1175              	.L66:
 1176 0218 1E       		.byte	(.L73-.L66)/2
 1177 0219 04       		.byte	(.L68-.L66)/2
 1178 021a 1A       		.byte	(.L67-.L66)/2
 1179 021b 1C       		.byte	(.L65-.L66)/2
 1180              		.p2align 1
ARM GAS  /tmp/ccQslxFB.s 			page 30


 1181              	.L64:
 1182              		.loc 1 154 9 view .LVU323
 1183 021c 0024     		movs	r4, #0
 1184 021e 00E0     		b	.L69
 1185              	.L68:
 155:My_Top/Task/Task_Vofa.cpp ****         {
 156:My_Top/Task/Task_Vofa.cpp ****             case 1: m = &M1; break;
 157:My_Top/Task/Task_Vofa.cpp ****             case 2: m = &M2; break;
 1186              		.loc 1 157 13 is_stmt 1 view .LVU324
 1187              		.loc 1 157 21 view .LVU325
 1188              	.LVL102:
 1189              		.loc 1 157 30 view .LVU326
 1190              		.loc 1 157 23 is_stmt 0 view .LVU327
 1191 0220 6A4C     		ldr	r4, .L76
 1192              	.LVL103:
 1193              	.L69:
 158:My_Top/Task/Task_Vofa.cpp ****             case 3: m = &M3; break;
 159:My_Top/Task/Task_Vofa.cpp ****             case 4: m = &M4; break;
 160:My_Top/Task/Task_Vofa.cpp ****         }
 161:My_Top/Task/Task_Vofa.cpp ****         switch (m->work_mode) 
 1194              		.loc 1 161 9 is_stmt 1 view .LVU328
 1195              		.loc 1 161 20 is_stmt 0 view .LVU329
 1196 0222 2378     		ldrb	r3, [r4]	@ zero_extendqisi2
 1197              		.loc 1 161 9 view .LVU330
 1198 0224 012B     		cmp	r3, #1
 1199 0226 17D0     		beq	.L70
 1200 0228 022B     		cmp	r3, #2
 1201 022a 35D0     		beq	.L71
 1202 022c 002B     		cmp	r3, #0
 1203 022e 52D1     		bne	.L72
 162:My_Top/Task/Task_Vofa.cpp ****         {
 163:My_Top/Task/Task_Vofa.cpp ****             case open_loop: // ејҖзҺҜжЁЎејҸ
 1204              		.loc 1 163 13 is_stmt 1 view .LVU331
 164:My_Top/Task/Task_Vofa.cpp ****                 vofa_update_if_changed(&Vafa_Button, 1, &m->motor_freq, NULL); // з”өжңәйў‘зҺҮ
 1205              		.loc 1 164 17 view .LVU332
 1206              		.loc 1 164 39 is_stmt 0 view .LVU333
 1207 0230 674D     		ldr	r5, .L76+4
 1208              	.LVL104:
 1209              		.loc 1 164 39 view .LVU334
 1210 0232 221D     		adds	r2, r4, #4
 1211 0234 0121     		movs	r1, #1
 1212 0236 2846     		mov	r0, r5
 1213 0238 FFF7FEFF 		bl	_Z22vofa_update_if_changedP9Vafa_datahPfP8DC_Motor
 1214              	.LVL105:
 165:My_Top/Task/Task_Vofa.cpp ****                 vofa_update_if_changed(&Vafa_Button, 2, &m->updown_duty, NULL); // з”өжңәе…ЁеұҖеҚ з
 1215              		.loc 1 165 17 is_stmt 1 view .LVU335
 1216              		.loc 1 165 39 is_stmt 0 view .LVU336
 1217 023c 0023     		movs	r3, #0
 1218 023e 04F11002 		add	r2, r4, #16
 1219 0242 0221     		movs	r1, #2
 1220 0244 2846     		mov	r0, r5
 1221 0246 FFF7FEFF 		bl	_Z22vofa_update_if_changedP9Vafa_datahPfP8DC_Motor
 1222              	.LVL106:
 166:My_Top/Task/Task_Vofa.cpp ****                 break;
 1223              		.loc 1 166 17 is_stmt 1 view .LVU337
 1224 024a 44E0     		b	.L72
 1225              	.LVL107:
ARM GAS  /tmp/ccQslxFB.s 			page 31


 1226              	.L67:
 158:My_Top/Task/Task_Vofa.cpp ****             case 4: m = &M4; break;
 1227              		.loc 1 158 13 view .LVU338
 158:My_Top/Task/Task_Vofa.cpp ****             case 4: m = &M4; break;
 1228              		.loc 1 158 21 view .LVU339
 158:My_Top/Task/Task_Vofa.cpp ****             case 4: m = &M4; break;
 1229              		.loc 1 158 30 view .LVU340
 158:My_Top/Task/Task_Vofa.cpp ****             case 4: m = &M4; break;
 1230              		.loc 1 158 23 is_stmt 0 view .LVU341
 1231 024c 614C     		ldr	r4, .L76+8
 158:My_Top/Task/Task_Vofa.cpp ****             case 4: m = &M4; break;
 1232              		.loc 1 158 30 view .LVU342
 1233 024e E8E7     		b	.L69
 1234              	.LVL108:
 1235              	.L65:
 159:My_Top/Task/Task_Vofa.cpp ****         }
 1236              		.loc 1 159 13 is_stmt 1 view .LVU343
 159:My_Top/Task/Task_Vofa.cpp ****         }
 1237              		.loc 1 159 21 view .LVU344
 159:My_Top/Task/Task_Vofa.cpp ****         }
 1238              		.loc 1 159 30 view .LVU345
 159:My_Top/Task/Task_Vofa.cpp ****         }
 1239              		.loc 1 159 23 is_stmt 0 view .LVU346
 1240 0250 614C     		ldr	r4, .L76+12
 159:My_Top/Task/Task_Vofa.cpp ****         }
 1241              		.loc 1 159 30 view .LVU347
 1242 0252 E6E7     		b	.L69
 1243              	.LVL109:
 1244              	.L73:
 156:My_Top/Task/Task_Vofa.cpp ****             case 2: m = &M2; break;
 1245              		.loc 1 156 23 view .LVU348
 1246 0254 614C     		ldr	r4, .L76+16
 1247 0256 E4E7     		b	.L69
 1248              	.LVL110:
 1249              	.L70:
 167:My_Top/Task/Task_Vofa.cpp ****             case speed: // йҖҹеәҰй—ӯзҺҜжЁЎејҸ
 1250              		.loc 1 167 13 is_stmt 1 view .LVU349
 168:My_Top/Task/Task_Vofa.cpp ****                 vofa_update_if_changed(&Vafa_Speed,  0, &m->pid_speed_incparam->_kp, m);//йҖҹеәҰPID
 1251              		.loc 1 168 17 view .LVU350
 1252              		.loc 1 168 39 is_stmt 0 view .LVU351
 1253 0258 614E     		ldr	r6, .L76+20
 1254 025a 06F58A75 		add	r5, r6, #276
 1255 025e 2346     		mov	r3, r4
 1256 0260 E26B     		ldr	r2, [r4, #60]
 1257 0262 0021     		movs	r1, #0
 1258 0264 2846     		mov	r0, r5
 1259 0266 FFF7FEFF 		bl	_Z22vofa_update_if_changedP9Vafa_datahPfP8DC_Motor
 1260              	.LVL111:
 169:My_Top/Task/Task_Vofa.cpp ****                 vofa_update_if_changed(&Vafa_Speed,  1, &m->pid_speed_incparam->_ki, m);
 1261              		.loc 1 169 17 is_stmt 1 view .LVU352
 1262              		.loc 1 169 61 is_stmt 0 view .LVU353
 1263 026a E26B     		ldr	r2, [r4, #60]
 1264              		.loc 1 169 39 view .LVU354
 1265 026c 2346     		mov	r3, r4
 1266 026e 0432     		adds	r2, r2, #4
 1267 0270 0121     		movs	r1, #1
 1268 0272 2846     		mov	r0, r5
ARM GAS  /tmp/ccQslxFB.s 			page 32


 1269 0274 FFF7FEFF 		bl	_Z22vofa_update_if_changedP9Vafa_datahPfP8DC_Motor
 1270              	.LVL112:
 170:My_Top/Task/Task_Vofa.cpp ****                 vofa_update_if_changed(&Vafa_Speed,  2, &m->pid_speed_incparam->_kd, m);
 1271              		.loc 1 170 17 is_stmt 1 view .LVU355
 1272              		.loc 1 170 61 is_stmt 0 view .LVU356
 1273 0278 E26B     		ldr	r2, [r4, #60]
 1274              		.loc 1 170 39 view .LVU357
 1275 027a 2346     		mov	r3, r4
 1276 027c 0832     		adds	r2, r2, #8
 1277 027e 0221     		movs	r1, #2
 1278 0280 2846     		mov	r0, r5
 1279 0282 FFF7FEFF 		bl	_Z22vofa_update_if_changedP9Vafa_datahPfP8DC_Motor
 1280              	.LVL113:
 171:My_Top/Task/Task_Vofa.cpp ****                 vofa_update_if_changed(&Vafa_Target,  2, &m->_target_speed, NULL); //зӣ®ж ҮйҖҹеәҰ
 1281              		.loc 1 171 17 is_stmt 1 view .LVU358
 1282              		.loc 1 171 39 is_stmt 0 view .LVU359
 1283 0286 0023     		movs	r3, #0
 1284 0288 04F12802 		add	r2, r4, #40
 1285 028c 0221     		movs	r1, #2
 1286 028e 06F50A70 		add	r0, r6, #552
 1287 0292 FFF7FEFF 		bl	_Z22vofa_update_if_changedP9Vafa_datahPfP8DC_Motor
 1288              	.LVL114:
 172:My_Top/Task/Task_Vofa.cpp ****                 break;
 1289              		.loc 1 172 17 is_stmt 1 view .LVU360
 1290 0296 1EE0     		b	.L72
 1291              	.L71:
 173:My_Top/Task/Task_Vofa.cpp ****             case position: // дҪҚзҪ®й—ӯзҺҜжЁЎејҸ
 1292              		.loc 1 173 13 view .LVU361
 174:My_Top/Task/Task_Vofa.cpp ****                 vofa_update_if_changed(&Vafa_Location, 0, &m->pid_location->_kp, m);//дҪҚзҪ®PID
 1293              		.loc 1 174 17 view .LVU362
 1294              		.loc 1 174 39 is_stmt 0 view .LVU363
 1295 0298 514E     		ldr	r6, .L76+20
 1296 029a 06F54F75 		add	r5, r6, #828
 1297 029e 2346     		mov	r3, r4
 1298 02a0 226C     		ldr	r2, [r4, #64]
 1299 02a2 0021     		movs	r1, #0
 1300 02a4 2846     		mov	r0, r5
 1301 02a6 FFF7FEFF 		bl	_Z22vofa_update_if_changedP9Vafa_datahPfP8DC_Motor
 1302              	.LVL115:
 175:My_Top/Task/Task_Vofa.cpp ****                 vofa_update_if_changed(&Vafa_Location, 1, &m->pid_location->_ki, m);
 1303              		.loc 1 175 17 is_stmt 1 view .LVU364
 1304              		.loc 1 175 63 is_stmt 0 view .LVU365
 1305 02aa 226C     		ldr	r2, [r4, #64]
 1306              		.loc 1 175 39 view .LVU366
 1307 02ac 2346     		mov	r3, r4
 1308 02ae 0432     		adds	r2, r2, #4
 1309 02b0 0121     		movs	r1, #1
 1310 02b2 2846     		mov	r0, r5
 1311 02b4 FFF7FEFF 		bl	_Z22vofa_update_if_changedP9Vafa_datahPfP8DC_Motor
 1312              	.LVL116:
 176:My_Top/Task/Task_Vofa.cpp ****                 vofa_update_if_changed(&Vafa_Location, 2, &m->pid_location->_kd, m);
 1313              		.loc 1 176 17 is_stmt 1 view .LVU367
 1314              		.loc 1 176 63 is_stmt 0 view .LVU368
 1315 02b8 226C     		ldr	r2, [r4, #64]
 1316              		.loc 1 176 39 view .LVU369
 1317 02ba 2346     		mov	r3, r4
 1318 02bc 0832     		adds	r2, r2, #8
ARM GAS  /tmp/ccQslxFB.s 			page 33


 1319 02be 0221     		movs	r1, #2
 1320 02c0 2846     		mov	r0, r5
 1321 02c2 FFF7FEFF 		bl	_Z22vofa_update_if_changedP9Vafa_datahPfP8DC_Motor
 1322              	.LVL117:
 177:My_Top/Task/Task_Vofa.cpp ****                 vofa_update_if_changed(&Vafa_Target,  4, &m->_target_location2, NULL); //зӣ®ж ҮдҪҚз
 1323              		.loc 1 177 17 is_stmt 1 view .LVU370
 1324              		.loc 1 177 39 is_stmt 0 view .LVU371
 1325 02c6 0023     		movs	r3, #0
 1326 02c8 04F12C02 		add	r2, r4, #44
 1327 02cc 0421     		movs	r1, #4
 1328 02ce 06F50A70 		add	r0, r6, #552
 1329 02d2 FFF7FEFF 		bl	_Z22vofa_update_if_changedP9Vafa_datahPfP8DC_Motor
 1330              	.LVL118:
 178:My_Top/Task/Task_Vofa.cpp ****                 break;
 1331              		.loc 1 178 17 is_stmt 1 view .LVU372
 1332              	.L72:
 179:My_Top/Task/Task_Vofa.cpp ****         }
 180:My_Top/Task/Task_Vofa.cpp ****         vofa_update_mode(&m->work_mode, open_loop, m);        
 1333              		.loc 1 180 9 view .LVU373
 1334              		.loc 1 180 25 is_stmt 0 view .LVU374
 1335 02d6 2246     		mov	r2, r4
 1336 02d8 0021     		movs	r1, #0
 1337 02da 2046     		mov	r0, r4
 1338 02dc FFF7FEFF 		bl	_Z16vofa_update_modeP9Work_ModeS_P8DC_Motor
 1339              	.LVL119:
 181:My_Top/Task/Task_Vofa.cpp **** 
 182:My_Top/Task/Task_Vofa.cpp ****         vTaskDelay(pdMS_TO_TICKS(10));
 1340              		.loc 1 182 9 is_stmt 1 view .LVU375
 1341              		.loc 1 182 19 is_stmt 0 view .LVU376
 1342 02e0 0A20     		movs	r0, #10
 1343 02e2 FFF7FEFF 		bl	vTaskDelay
 1344              	.LVL120:
 1345              	.L60:
 1346              		.loc 1 182 19 view .LVU377
 1347              	.LBE42:
 118:My_Top/Task/Task_Vofa.cpp ****     {
 1348              		.loc 1 118 5 is_stmt 1 view .LVU378
 1349              	.LBB43:
 120:My_Top/Task/Task_Vofa.cpp ****         vofa1.vofa_get_batch(&vofa1, IA_Names, Vafa_IA.val, Vafa_IA.len); // иҜ»еҸ–IA_NamesеҸӮж•°еҖ
 1350              		.loc 1 120 9 view .LVU379
 120:My_Top/Task/Task_Vofa.cpp ****         vofa1.vofa_get_batch(&vofa1, IA_Names, Vafa_IA.val, Vafa_IA.len); // иҜ»еҸ–IA_NamesеҸӮж•°еҖ
 1351              		.loc 1 120 20 is_stmt 0 view .LVU380
 1352 02e6 3F4D     		ldr	r5, .L76+24
 1353 02e8 2846     		mov	r0, r5
 1354 02ea FFF7FEFF 		bl	_ZN7VoFA_Rx5parseEv
 1355              	.LVL121:
 121:My_Top/Task/Task_Vofa.cpp ****         vofa1.vofa_get_batch(&vofa1, Speed_Names, Vafa_Speed.val, Vafa_Speed.len); // иҜ»еҸ–Speed_N
 1356              		.loc 1 121 9 is_stmt 1 view .LVU381
 121:My_Top/Task/Task_Vofa.cpp ****         vofa1.vofa_get_batch(&vofa1, Speed_Names, Vafa_Speed.val, Vafa_Speed.len); // иҜ»еҸ–Speed_N
 1357              		.loc 1 121 29 is_stmt 0 view .LVU382
 1358 02ee 3C4C     		ldr	r4, .L76+20
 1359 02f0 2346     		mov	r3, r4
 1360 02f2 3D4E     		ldr	r6, .L76+28
 1361 02f4 13F8042B 		ldrb	r2, [r3], #4	@ zero_extendqisi2
 1362 02f8 0092     		str	r2, [sp]
 1363 02fa 3246     		mov	r2, r6
 1364 02fc 2946     		mov	r1, r5
ARM GAS  /tmp/ccQslxFB.s 			page 34


 1365 02fe 2846     		mov	r0, r5
 1366 0300 FFF7FEFF 		bl	_ZN7VoFA_Rx14vofa_get_batchEPS_PPKcPfh
 1367              	.LVL122:
 122:My_Top/Task/Task_Vofa.cpp ****         vofa1.vofa_get_batch(&vofa1, Target_Names, Vafa_Target.val, Vafa_Target.len); // иҜ»еҸ–Targ
 1368              		.loc 1 122 9 is_stmt 1 view .LVU383
 122:My_Top/Task/Task_Vofa.cpp ****         vofa1.vofa_get_batch(&vofa1, Target_Names, Vafa_Target.val, Vafa_Target.len); // иҜ»еҸ–Targ
 1369              		.loc 1 122 29 is_stmt 0 view .LVU384
 1370 0304 04F58A7A 		add	r10, r4, #276
 1371 0308 94F81431 		ldrb	r3, [r4, #276]	@ zero_extendqisi2
 1372 030c 0093     		str	r3, [sp]
 1373 030e 04F58C73 		add	r3, r4, #280
 1374 0312 06F11002 		add	r2, r6, #16
 1375 0316 2946     		mov	r1, r5
 1376 0318 2846     		mov	r0, r5
 1377 031a FFF7FEFF 		bl	_ZN7VoFA_Rx14vofa_get_batchEPS_PPKcPfh
 1378              	.LVL123:
 123:My_Top/Task/Task_Vofa.cpp ****         vofa1.vofa_get_batch(&vofa1, Location_Names, Vafa_Location.val, Vafa_Location.len); // иҜ»е
 1379              		.loc 1 123 9 is_stmt 1 view .LVU385
 123:My_Top/Task/Task_Vofa.cpp ****         vofa1.vofa_get_batch(&vofa1, Location_Names, Vafa_Location.val, Vafa_Location.len); // иҜ»е
 1380              		.loc 1 123 29 is_stmt 0 view .LVU386
 1381 031e 04F50A79 		add	r9, r4, #552
 1382 0322 94F82832 		ldrb	r3, [r4, #552]	@ zero_extendqisi2
 1383 0326 0093     		str	r3, [sp]
 1384 0328 04F50B73 		add	r3, r4, #556
 1385 032c 06F11C02 		add	r2, r6, #28
 1386 0330 2946     		mov	r1, r5
 1387 0332 2846     		mov	r0, r5
 1388 0334 FFF7FEFF 		bl	_ZN7VoFA_Rx14vofa_get_batchEPS_PPKcPfh
 1389              	.LVL124:
 124:My_Top/Task/Task_Vofa.cpp ****         vofa1.vofa_get_batch(&vofa1, Button_Names, Vafa_Button.val, Vafa_Button.len);       // иҜ»е
 1390              		.loc 1 124 9 is_stmt 1 view .LVU387
 124:My_Top/Task/Task_Vofa.cpp ****         vofa1.vofa_get_batch(&vofa1, Button_Names, Vafa_Button.val, Vafa_Button.len);       // иҜ»е
 1391              		.loc 1 124 29 is_stmt 0 view .LVU388
 1392 0338 04F54F78 		add	r8, r4, #828
 1393 033c 94F83C33 		ldrb	r3, [r4, #828]	@ zero_extendqisi2
 1394 0340 0093     		str	r3, [sp]
 1395 0342 04F55073 		add	r3, r4, #832
 1396 0346 06F13002 		add	r2, r6, #48
 1397 034a 2946     		mov	r1, r5
 1398 034c 2846     		mov	r0, r5
 1399 034e FFF7FEFF 		bl	_ZN7VoFA_Rx14vofa_get_batchEPS_PPKcPfh
 1400              	.LVL125:
 125:My_Top/Task/Task_Vofa.cpp **** 
 1401              		.loc 1 125 9 is_stmt 1 view .LVU389
 125:My_Top/Task/Task_Vofa.cpp **** 
 1402              		.loc 1 125 29 is_stmt 0 view .LVU390
 1403 0352 04F58A67 		add	r7, r4, #1104
 1404 0356 94F85034 		ldrb	r3, [r4, #1104]	@ zero_extendqisi2
 1405 035a 0093     		str	r3, [sp]
 1406 035c 04F25443 		addw	r3, r4, #1108
 1407 0360 06F13C02 		add	r2, r6, #60
 1408 0364 2946     		mov	r1, r5
 1409 0366 2846     		mov	r0, r5
 1410 0368 FFF7FEFF 		bl	_ZN7VoFA_Rx14vofa_get_batchEPS_PPKcPfh
 1411              	.LVL126:
 127:My_Top/Task/Task_Vofa.cpp ****         vofa_detect_changes(&Vafa_Speed);
 1412              		.loc 1 127 9 is_stmt 1 view .LVU391
ARM GAS  /tmp/ccQslxFB.s 			page 35


 127:My_Top/Task/Task_Vofa.cpp ****         vofa_detect_changes(&Vafa_Speed);
 1413              		.loc 1 127 28 is_stmt 0 view .LVU392
 1414 036c 2046     		mov	r0, r4
 1415 036e FFF7FEFF 		bl	_Z19vofa_detect_changesP9Vafa_data
 1416              	.LVL127:
 128:My_Top/Task/Task_Vofa.cpp ****         vofa_detect_changes(&Vafa_Target);
 1417              		.loc 1 128 9 is_stmt 1 view .LVU393
 128:My_Top/Task/Task_Vofa.cpp ****         vofa_detect_changes(&Vafa_Target);
 1418              		.loc 1 128 28 is_stmt 0 view .LVU394
 1419 0372 5046     		mov	r0, r10
 1420 0374 FFF7FEFF 		bl	_Z19vofa_detect_changesP9Vafa_data
 1421              	.LVL128:
 129:My_Top/Task/Task_Vofa.cpp ****         vofa_detect_changes(&Vafa_Location);
 1422              		.loc 1 129 9 is_stmt 1 view .LVU395
 129:My_Top/Task/Task_Vofa.cpp ****         vofa_detect_changes(&Vafa_Location);
 1423              		.loc 1 129 28 is_stmt 0 view .LVU396
 1424 0378 4846     		mov	r0, r9
 1425 037a FFF7FEFF 		bl	_Z19vofa_detect_changesP9Vafa_data
 1426              	.LVL129:
 130:My_Top/Task/Task_Vofa.cpp ****         vofa_detect_changes(&Vafa_Button);
 1427              		.loc 1 130 9 is_stmt 1 view .LVU397
 130:My_Top/Task/Task_Vofa.cpp ****         vofa_detect_changes(&Vafa_Button);
 1428              		.loc 1 130 28 is_stmt 0 view .LVU398
 1429 037e 4046     		mov	r0, r8
 1430 0380 FFF7FEFF 		bl	_Z19vofa_detect_changesP9Vafa_data
 1431              	.LVL130:
 131:My_Top/Task/Task_Vofa.cpp **** 
 1432              		.loc 1 131 9 is_stmt 1 view .LVU399
 131:My_Top/Task/Task_Vofa.cpp **** 
 1433              		.loc 1 131 28 is_stmt 0 view .LVU400
 1434 0384 3846     		mov	r0, r7
 1435 0386 FFF7FEFF 		bl	_Z19vofa_detect_changesP9Vafa_data
 1436              	.LVL131:
 134:My_Top/Task/Task_Vofa.cpp ****         
 1437              		.loc 1 134 9 is_stmt 1 view .LVU401
 134:My_Top/Task/Task_Vofa.cpp ****         
 1438              		.loc 1 134 31 is_stmt 0 view .LVU402
 1439 038a 04F5AD65 		add	r5, r4, #1384
 1440 038e 0023     		movs	r3, #0
 1441 0390 2A46     		mov	r2, r5
 1442 0392 1946     		mov	r1, r3
 1443 0394 3846     		mov	r0, r7
 1444 0396 FFF7FEFF 		bl	_Z22vofa_update_if_changedP9Vafa_datahPfP8DC_Motor
 1445              	.LVL132:
 136:My_Top/Task/Task_Vofa.cpp ****         DC_Motor::selected_motor = idx;//и®°еҪ•еҪ“еүҚйҖүжӢ©зҡ„з”өжңә
 1446              		.loc 1 136 9 is_stmt 1 view .LVU403
 136:My_Top/Task/Task_Vofa.cpp ****         DC_Motor::selected_motor = idx;//и®°еҪ•еҪ“еүҚйҖүжӢ©зҡ„з”өжңә
 1447              		.loc 1 136 23 is_stmt 0 view .LVU404
 1448 039a D5ED007A 		vldr.32	s15, [r5]
 136:My_Top/Task/Task_Vofa.cpp ****         DC_Motor::selected_motor = idx;//и®°еҪ•еҪ“еүҚйҖүжӢ©зҡ„з”өжңә
 1449              		.loc 1 136 17 view .LVU405
 1450 039e FCEEE77A 		vcvt.u32.f32	s15, s15
 1451 03a2 CDED037A 		vstr.32	s15, [sp, #12]	@ int
 1452 03a6 9DF80C50 		ldrb	r5, [sp, #12]	@ zero_extendqisi2
 1453              	.LVL133:
 137:My_Top/Task/Task_Vofa.cpp ****         if (idx != last_idx) //з”өжңәеҲҮжҚўеҗҺ           
 1454              		.loc 1 137 9 is_stmt 1 view .LVU406
ARM GAS  /tmp/ccQslxFB.s 			page 36


 137:My_Top/Task/Task_Vofa.cpp ****         if (idx != last_idx) //з”өжңәеҲҮжҚўеҗҺ           
 1455              		.loc 1 137 34 is_stmt 0 view .LVU407
 1456 03aa 104B     		ldr	r3, .L76+32
 1457 03ac 1D70     		strb	r5, [r3]
 138:My_Top/Task/Task_Vofa.cpp ****         {                                   
 1458              		.loc 1 138 9 is_stmt 1 view .LVU408
 138:My_Top/Task/Task_Vofa.cpp ****         {                                   
 1459              		.loc 1 138 17 is_stmt 0 view .LVU409
 1460 03ae 94F86C35 		ldrb	r3, [r4, #1388]	@ zero_extendqisi2
 138:My_Top/Task/Task_Vofa.cpp ****         {                                   
 1461              		.loc 1 138 9 view .LVU410
 1462 03b2 AB42     		cmp	r3, r5
 1463 03b4 7FF419AF 		bne	.L75
 1464              	.L61:
 147:My_Top/Task/Task_Vofa.cpp ****         {
 1465              		.loc 1 147 9 is_stmt 1 view .LVU411
 147:My_Top/Task/Task_Vofa.cpp ****         {
 1466              		.loc 1 147 21 is_stmt 0 view .LVU412
 1467 03b8 6B1E     		subs	r3, r5, #1
 1468 03ba DBB2     		uxtb	r3, r3
 147:My_Top/Task/Task_Vofa.cpp ****         {
 1469              		.loc 1 147 9 view .LVU413
 1470 03bc 032B     		cmp	r3, #3
 1471 03be 7FF626AF 		bls	.L62
 149:My_Top/Task/Task_Vofa.cpp ****             continue;                        // и·іиҝҮжң¬иҪ®пјҢдёҚйҖҖеҮәд»»еҠЎ
 1472              		.loc 1 149 13 is_stmt 1 view .LVU414
 149:My_Top/Task/Task_Vofa.cpp ****             continue;                        // и·іиҝҮжң¬иҪ®пјҢдёҚйҖҖеҮәд»»еҠЎ
 1473              		.loc 1 149 23 is_stmt 0 view .LVU415
 1474 03c2 0A20     		movs	r0, #10
 1475 03c4 FFF7FEFF 		bl	vTaskDelay
 1476              	.LVL134:
 150:My_Top/Task/Task_Vofa.cpp ****         }
 1477              		.loc 1 150 13 is_stmt 1 view .LVU416
 1478 03c8 8DE7     		b	.L60
 1479              	.L77:
 1480 03ca 00BF     		.align	2
 1481              	.L76:
 1482 03cc 00000000 		.word	M2
 1483 03d0 50040000 		.word	.LANCHOR0+1104
 1484 03d4 00000000 		.word	M3
 1485 03d8 00000000 		.word	M4
 1486 03dc 00000000 		.word	M1
 1487 03e0 00000000 		.word	.LANCHOR0
 1488 03e4 00000000 		.word	vofa1
 1489 03e8 00000000 		.word	.LANCHOR1
 1490 03ec 00000000 		.word	_ZN8DC_Motor14selected_motorE
 1491              	.LBE43:
 1492              		.cfi_endproc
 1493              	.LFE1372:
 1495              		.section	.rodata.str1.4
 1496 000a 0000     		.align	2
 1497              	.LC1:
 1498 000c 6D6F746F 		.ascii	"motor_telem\000"
 1498      725F7465 
 1498      6C656D00 
 1499              		.text
 1500              		.align	1
ARM GAS  /tmp/ccQslxFB.s 			page 37


 1501              		.global	_Z11Task_VofaTxPv
 1502              		.syntax unified
 1503              		.thumb
 1504              		.thumb_func
 1506              	_Z11Task_VofaTxPv:
 1507              	.LVL135:
 1508              	.LFB1373:
 183:My_Top/Task/Task_Vofa.cpp ****     }
 184:My_Top/Task/Task_Vofa.cpp **** }
 185:My_Top/Task/Task_Vofa.cpp **** 
 186:My_Top/Task/Task_Vofa.cpp **** 
 187:My_Top/Task/Task_Vofa.cpp **** 
 188:My_Top/Task/Task_Vofa.cpp **** 
 189:My_Top/Task/Task_Vofa.cpp **** 
 190:My_Top/Task/Task_Vofa.cpp **** // ===== Vofa еҸ‘йҖҒд»»еҠЎ =====
 191:My_Top/Task/Task_Vofa.cpp **** void Task_VofaTx(void *argument)
 192:My_Top/Task/Task_Vofa.cpp **** {
 1509              		.loc 1 192 1 view -0
 1510              		.cfi_startproc
 1511              		@ args = 0, pretend = 0, frame = 128
 1512              		@ frame_needed = 0, uses_anonymous_args = 0
 1513              		.loc 1 192 1 is_stmt 0 view .LVU418
 1514 03f0 2DE9F041 		push	{r4, r5, r6, r7, r8, lr}
 1515              		.cfi_def_cfa_offset 24
 1516              		.cfi_offset 4, -24
 1517              		.cfi_offset 5, -20
 1518              		.cfi_offset 6, -16
 1519              		.cfi_offset 7, -12
 1520              		.cfi_offset 8, -8
 1521              		.cfi_offset 14, -4
 1522 03f4 CEB0     		sub	sp, sp, #312
 1523              		.cfi_def_cfa_offset 336
 193:My_Top/Task/Task_Vofa.cpp ****     uorb_handle_t topic = uorb_subscribe(UORB_TOPIC_MOTOR); // и®ўйҳ…motor_stateиҜқйўҳ
 1524              		.loc 1 193 5 is_stmt 1 view .LVU419
 1525              		.loc 1 193 41 is_stmt 0 view .LVU420
 1526 03f6 4648     		ldr	r0, .L83+8
 1527              	.LVL136:
 1528              		.loc 1 193 41 view .LVU421
 1529 03f8 FFF7FEFF 		bl	uorb_subscribe
 1530              	.LVL137:
 1531 03fc 8046     		mov	r8, r0
 1532              	.LVL138:
 194:My_Top/Task/Task_Vofa.cpp ****     motor_telem_t buf[4];
 1533              		.loc 1 194 5 is_stmt 1 view .LVU422
 1534              		.loc 1 194 24 is_stmt 0 view .LVU423
 1535 03fe 0322     		movs	r2, #3
 1536 0400 2EAB     		add	r3, sp, #184
 1537 0402 04E0     		b	.L79
 1538              	.L80:
 1539              	.LVL139:
 1540              	.LBB44:
 1541              	.LBI44:
 1542              		.file 5 "My_Top/Task/task_topics.h"
   1:My_Top/Task/task_topics.h **** #pragma once
   2:My_Top/Task/task_topics.h **** 
   3:My_Top/Task/task_topics.h **** typedef struct {
   4:My_Top/Task/task_topics.h ****     // е®һйҷ…дҪҚзҪ®/йҖҹеәҰ
ARM GAS  /tmp/ccQslxFB.s 			page 38


   5:My_Top/Task/task_topics.h ****     float theta_m;               //з”өжңәеҺҹе§Ӣеј§еәҰ
   6:My_Top/Task/task_topics.h ****     float theta_deg_final;       //жңҖз»Ҳзҡ„з”өжңәи§’еәҰ (еәҰ)
   7:My_Top/Task/task_topics.h ****     float reg_final;             //жңҖз»Ҳзҡ„з”өжңәи§’еәҰ (еј§еәҰ)
   8:My_Top/Task/task_topics.h **** 
   9:My_Top/Task/task_topics.h ****     float Angular_velocity_final; //жңҖз»Ҳзҡ„и§’йҖҹеәҰ
  10:My_Top/Task/task_topics.h **** 
  11:My_Top/Task/task_topics.h ****     // зӣ®ж ҮдҪҚзҪ®/йҖҹеәҰ
  12:My_Top/Task/task_topics.h ****     float _target_location2;     //зӣ®ж ҮдҪҚзҪ® (еәҰ)
  13:My_Top/Task/task_topics.h ****     float _target_speed;         //зӣ®ж ҮйҖҹеәҰ
  14:My_Top/Task/task_topics.h **** 
  15:My_Top/Task/task_topics.h **** 
  16:My_Top/Task/task_topics.h ****     //зғӯж•Ҹз”өйҳ»
  17:My_Top/Task/task_topics.h ****     float ADC_Temp_Val = 0.0f; //зғӯж•Ҹз”өйҳ»жё©еәҰ
  18:My_Top/Task/task_topics.h **** 
  19:My_Top/Task/task_topics.h ****     //и°ғиҜ•дҝЎжҒҜ
  20:My_Top/Task/task_topics.h ****     float updown_duty = 0.0f;//з”өжңәе…ЁеұҖеҚ з©әжҜ”
  21:My_Top/Task/task_topics.h ****     
  22:My_Top/Task/task_topics.h **** 
  23:My_Top/Task/task_topics.h **** } motor_telem_t;                  // жҜҸи·Ҝз”өжңәдёҖдёӘз»“жһ„дҪ“
 1543              		.loc 5 23 3 is_stmt 1 view .LVU424
 1544              	.LBB45:
 1545 0404 0021     		movs	r1, #0
 1546 0406 9961     		str	r1, [r3, #24]	@ float
 1547 0408 D961     		str	r1, [r3, #28]	@ float
 1548              	.LVL140:
 1549              		.loc 5 23 3 is_stmt 0 view .LVU425
 1550              	.LBE45:
 1551              	.LBE44:
 1552              		.loc 1 194 24 discriminator 3 view .LVU426
 1553 040a 013A     		subs	r2, r2, #1
 1554 040c 2033     		adds	r3, r3, #32
 1555              	.L79:
 1556              		.loc 1 194 24 is_stmt 1 discriminator 2 view .LVU427
 1557 040e 002A     		cmp	r2, #0
 1558 0410 F8DA     		bge	.L80
 1559              	.LVL141:
 1560              	.L81:
 195:My_Top/Task/Task_Vofa.cpp **** 
 196:My_Top/Task/Task_Vofa.cpp ****     while (1)
 1561              		.loc 1 196 5 view .LVU428
 197:My_Top/Task/Task_Vofa.cpp ****     {
 198:My_Top/Task/Task_Vofa.cpp ****         uorb_copy(topic, buf);  // йҳ»еЎһзӯүж–°ж•°жҚ®
 1562              		.loc 1 198 9 view .LVU429
 1563              		.loc 1 198 18 is_stmt 0 view .LVU430
 1564 0412 2EA9     		add	r1, sp, #184
 1565 0414 4046     		mov	r0, r8
 1566 0416 FFF7FEFF 		bl	uorb_copy
 1567              	.LVL142:
 199:My_Top/Task/Task_Vofa.cpp **** 
 200:My_Top/Task/Task_Vofa.cpp ****         Vofa_SendFireWater_VA(21,
 1568              		.loc 1 200 9 is_stmt 1 discriminator 1 view .LVU431
 1569              		.loc 1 200 30 is_stmt 0 discriminator 1 view .LVU432
 1570 041a 2E98     		ldr	r0, [sp, #184]	@ float
 1571 041c FFF7FEFF 		bl	__aeabi_f2d
 1572              	.LVL143:
 1573 0420 0646     		mov	r6, r0
 1574 0422 0F46     		mov	r7, r1
ARM GAS  /tmp/ccQslxFB.s 			page 39


 1575 0424 38A5     		adr	r5, .L83
 1576 0426 D5E90045 		ldrd	r4, [r5]
 1577 042a CDE92C45 		strd	r4, [sp, #176]
 1578 042e 4B98     		ldr	r0, [sp, #300]	@ float
 1579 0430 FFF7FEFF 		bl	__aeabi_f2d
 1580              	.LVL144:
 1581 0434 CDE92A01 		strd	r0, [sp, #168]
 1582 0438 4A98     		ldr	r0, [sp, #296]	@ float
 1583 043a FFF7FEFF 		bl	__aeabi_f2d
 1584              	.LVL145:
 1585 043e CDE92801 		strd	r0, [sp, #160]
 1586 0442 4998     		ldr	r0, [sp, #292]	@ float
 1587 0444 FFF7FEFF 		bl	__aeabi_f2d
 1588              	.LVL146:
 1589 0448 CDE92601 		strd	r0, [sp, #152]
 1590 044c 4798     		ldr	r0, [sp, #284]	@ float
 1591 044e FFF7FEFF 		bl	__aeabi_f2d
 1592              	.LVL147:
 1593 0452 CDE92401 		strd	r0, [sp, #144]
 1594 0456 4698     		ldr	r0, [sp, #280]	@ float
 1595 0458 FFF7FEFF 		bl	__aeabi_f2d
 1596              	.LVL148:
 1597 045c CDE92201 		strd	r0, [sp, #136]
 1598 0460 CDE92045 		strd	r4, [sp, #128]
 1599 0464 4398     		ldr	r0, [sp, #268]	@ float
 1600 0466 FFF7FEFF 		bl	__aeabi_f2d
 1601              	.LVL149:
 1602 046a CDE91E01 		strd	r0, [sp, #120]
 1603 046e 4298     		ldr	r0, [sp, #264]	@ float
 1604 0470 FFF7FEFF 		bl	__aeabi_f2d
 1605              	.LVL150:
 1606 0474 CDE91C01 		strd	r0, [sp, #112]
 1607 0478 4198     		ldr	r0, [sp, #260]	@ float
 1608 047a FFF7FEFF 		bl	__aeabi_f2d
 1609              	.LVL151:
 1610 047e CDE91A01 		strd	r0, [sp, #104]
 1611 0482 3F98     		ldr	r0, [sp, #252]	@ float
 1612 0484 FFF7FEFF 		bl	__aeabi_f2d
 1613              	.LVL152:
 1614 0488 CDE91801 		strd	r0, [sp, #96]
 1615 048c 3E98     		ldr	r0, [sp, #248]	@ float
 1616 048e FFF7FEFF 		bl	__aeabi_f2d
 1617              	.LVL153:
 1618 0492 CDE91601 		strd	r0, [sp, #88]
 1619 0496 CDE91445 		strd	r4, [sp, #80]
 1620 049a 3B98     		ldr	r0, [sp, #236]	@ float
 1621 049c FFF7FEFF 		bl	__aeabi_f2d
 1622              	.LVL154:
 1623 04a0 CDE91201 		strd	r0, [sp, #72]
 1624 04a4 3A98     		ldr	r0, [sp, #232]	@ float
 1625 04a6 FFF7FEFF 		bl	__aeabi_f2d
 1626              	.LVL155:
 1627 04aa CDE91001 		strd	r0, [sp, #64]
 1628 04ae 3998     		ldr	r0, [sp, #228]	@ float
 1629 04b0 FFF7FEFF 		bl	__aeabi_f2d
 1630              	.LVL156:
 1631 04b4 CDE90E01 		strd	r0, [sp, #56]
ARM GAS  /tmp/ccQslxFB.s 			page 40


 1632 04b8 3798     		ldr	r0, [sp, #220]	@ float
 1633 04ba FFF7FEFF 		bl	__aeabi_f2d
 1634              	.LVL157:
 1635 04be CDE90C01 		strd	r0, [sp, #48]
 1636 04c2 3698     		ldr	r0, [sp, #216]	@ float
 1637 04c4 FFF7FEFF 		bl	__aeabi_f2d
 1638              	.LVL158:
 1639 04c8 CDE90A01 		strd	r0, [sp, #40]
 1640 04cc CDE90845 		strd	r4, [sp, #32]
 1641 04d0 3398     		ldr	r0, [sp, #204]	@ float
 1642 04d2 FFF7FEFF 		bl	__aeabi_f2d
 1643              	.LVL159:
 1644 04d6 CDE90601 		strd	r0, [sp, #24]
 1645 04da 3298     		ldr	r0, [sp, #200]	@ float
 1646 04dc FFF7FEFF 		bl	__aeabi_f2d
 1647              	.LVL160:
 1648 04e0 CDE90401 		strd	r0, [sp, #16]
 1649 04e4 3198     		ldr	r0, [sp, #196]	@ float
 1650 04e6 FFF7FEFF 		bl	__aeabi_f2d
 1651              	.LVL161:
 1652 04ea CDE90201 		strd	r0, [sp, #8]
 1653 04ee 2F98     		ldr	r0, [sp, #188]	@ float
 1654 04f0 FFF7FEFF 		bl	__aeabi_f2d
 1655              	.LVL162:
 1656 04f4 CDE90001 		strd	r0, [sp]
 1657 04f8 3246     		mov	r2, r6
 1658 04fa 3B46     		mov	r3, r7
 1659 04fc 1520     		movs	r0, #21
 1660 04fe FFF7FEFF 		bl	_Z21Vofa_SendFireWater_VAtz
 1661              	.LVL163:
 196:My_Top/Task/Task_Vofa.cpp ****     {
 1662              		.loc 1 196 5 is_stmt 1 view .LVU433
 1663 0502 86E7     		b	.L81
 1664              	.L84:
 1665 0504 AFF30080 		.align	3
 1666              	.L83:
 1667 0508 00000000 		.word	0
 1668 050c 00388F40 		.word	1083127808
 1669 0510 0C000000 		.word	.LC1
 1670              		.cfi_endproc
 1671              	.LFE1373:
 1673              		.global	Vafa_Button
 1674              		.global	Vafa_Location
 1675              		.global	Vafa_Target
 1676              		.global	Vafa_Speed
 1677              		.global	Vafa_IA
 1678              		.global	Button_Names
 1679              		.section	.rodata.str1.4
 1680              		.align	2
 1681              	.LC2:
 1682 0018 6D6F746F 		.ascii	"motor_selection\000"
 1682      725F7365 
 1682      6C656374 
 1682      696F6E00 
 1683              		.align	2
 1684              	.LC3:
 1685 0028 6D6F746F 		.ascii	"motor_fre\000"
ARM GAS  /tmp/ccQslxFB.s 			page 41


 1685      725F6672 
 1685      6500
 1686 0032 0000     		.align	2
 1687              	.LC4:
 1688 0034 6D6F746F 		.ascii	"motor_duty\000"
 1688      725F6475 
 1688      747900
 1689              		.global	Location_Names
 1690 003f 00       		.align	2
 1691              	.LC5:
 1692 0040 6C6F6361 		.ascii	"location_p\000"
 1692      74696F6E 
 1692      5F7000
 1693 004b 00       		.align	2
 1694              	.LC6:
 1695 004c 6C6F6361 		.ascii	"location_i\000"
 1695      74696F6E 
 1695      5F6900
 1696 0057 00       		.align	2
 1697              	.LC7:
 1698 0058 6C6F6361 		.ascii	"location_d\000"
 1698      74696F6E 
 1698      5F6400
 1699              		.global	Target_Names
 1700 0063 00       		.align	2
 1701              	.LC8:
 1702 0064 54617267 		.ascii	"Target_Iq\000"
 1702      65745F49 
 1702      7100
 1703 006e 0000     		.align	2
 1704              	.LC9:
 1705 0070 54617267 		.ascii	"Target_Id\000"
 1705      65745F49 
 1705      6400
 1706 007a 0000     		.align	2
 1707              	.LC10:
 1708 007c 54617267 		.ascii	"Target_speed\000"
 1708      65745F73 
 1708      70656564 
 1708      00
 1709 0089 000000   		.align	2
 1710              	.LC11:
 1711 008c 54617267 		.ascii	"Target_location1\000"
 1711      65745F6C 
 1711      6F636174 
 1711      696F6E31 
 1711      00
 1712 009d 000000   		.align	2
 1713              	.LC12:
 1714 00a0 54617267 		.ascii	"Target_location2\000"
 1714      65745F6C 
 1714      6F636174 
 1714      696F6E32 
 1714      00
 1715              		.global	Speed_Names
 1716 00b1 000000   		.align	2
 1717              	.LC13:
ARM GAS  /tmp/ccQslxFB.s 			page 42


 1718 00b4 73706565 		.ascii	"speed_p\000"
 1718      645F7000 
 1719              		.align	2
 1720              	.LC14:
 1721 00bc 73706565 		.ascii	"speed_i\000"
 1721      645F6900 
 1722              		.align	2
 1723              	.LC15:
 1724 00c4 73706565 		.ascii	"speed_d\000"
 1724      645F6400 
 1725              		.global	IA_Names
 1726              		.align	2
 1727              	.LC16:
 1728 00cc 69715F70 		.ascii	"iq_p\000"
 1728      00
 1729 00d1 000000   		.align	2
 1730              	.LC17:
 1731 00d4 69715F69 		.ascii	"iq_i\000"
 1731      00
 1732 00d9 000000   		.align	2
 1733              	.LC18:
 1734 00dc 69645F70 		.ascii	"id_p\000"
 1734      00
 1735 00e1 000000   		.align	2
 1736              	.LC19:
 1737 00e4 69645F69 		.ascii	"id_i\000"
 1737      00
 1738              		.data
 1739              		.align	2
 1740              		.set	.LANCHOR1,. + 0
 1743              	IA_Names:
 1744 0000 CC000000 		.word	.LC16
 1745 0004 D4000000 		.word	.LC17
 1746 0008 DC000000 		.word	.LC18
 1747 000c E4000000 		.word	.LC19
 1750              	Speed_Names:
 1751 0010 B4000000 		.word	.LC13
 1752 0014 BC000000 		.word	.LC14
 1753 0018 C4000000 		.word	.LC15
 1756              	Target_Names:
 1757 001c 64000000 		.word	.LC8
 1758 0020 70000000 		.word	.LC9
 1759 0024 7C000000 		.word	.LC10
 1760 0028 8C000000 		.word	.LC11
 1761 002c A0000000 		.word	.LC12
 1764              	Location_Names:
 1765 0030 40000000 		.word	.LC5
 1766 0034 4C000000 		.word	.LC6
 1767 0038 58000000 		.word	.LC7
 1770              	Button_Names:
 1771 003c 18000000 		.word	.LC2
 1772 0040 28000000 		.word	.LC3
 1773 0044 34000000 		.word	.LC4
 1774              		.bss
 1775              		.align	2
 1776              		.set	.LANCHOR0,. + 0
 1779              	Vafa_IA:
ARM GAS  /tmp/ccQslxFB.s 			page 43


 1780 0000 00000000 		.space	276
 1780      00000000 
 1780      00000000 
 1780      00000000 
 1780      00000000 
 1783              	Vafa_Speed:
 1784 0114 00000000 		.space	276
 1784      00000000 
 1784      00000000 
 1784      00000000 
 1784      00000000 
 1787              	Vafa_Target:
 1788 0228 00000000 		.space	276
 1788      00000000 
 1788      00000000 
 1788      00000000 
 1788      00000000 
 1791              	Vafa_Location:
 1792 033c 00000000 		.space	276
 1792      00000000 
 1792      00000000 
 1792      00000000 
 1792      00000000 
 1795              	Vafa_Button:
 1796 0450 00000000 		.space	276
 1796      00000000 
 1796      00000000 
 1796      00000000 
 1796      00000000 
 1799              	_ZZ16vofa_update_modeP9Work_ModeS_P8DC_MotorE9last_mode:
 1800 0564 00       		.space	1
 1801 0565 000000   		.space	3
 1804              	_ZZ11Task_VofaRxPvE12Motor_Select:
 1805 0568 00000000 		.space	4
 1808              	_ZZ11Task_VofaRxPvE8last_idx:
 1809 056c 00       		.space	1
 1810              		.text
 1811              	.Letext0:
 1812              		.file 6 "/opt/arm-gnu-toolchain-14.2/lib/gcc/arm-none-eabi/14.2.1/include/stddef.h"
 1813              		.file 7 "/opt/arm-gnu-toolchain-14.2/arm-none-eabi/include/machine/_default_types.h"
 1814              		.file 8 "/opt/arm-gnu-toolchain-14.2/arm-none-eabi/include/sys/_stdint.h"
 1815              		.file 9 "Middlewares/Third_Party/FreeRTOS/Source/portable/GCC/ARM_CM4F/portmacro.h"
 1816              		.file 10 "/opt/arm-gnu-toolchain-14.2/arm-none-eabi/include/stdlib.h"
 1817              		.file 11 "/opt/arm-gnu-toolchain-14.2/arm-none-eabi/include/c++/14.2.1/cstdlib"
 1818              		.file 12 "/opt/arm-gnu-toolchain-14.2/arm-none-eabi/include/c++/14.2.1/bits/std_abs.h"
 1819              		.file 13 "/opt/arm-gnu-toolchain-14.2/arm-none-eabi/include/c++/14.2.1/cmath"
 1820              		.file 14 "/opt/arm-gnu-toolchain-14.2/arm-none-eabi/include/c++/14.2.1/type_traits"
 1821              		.file 15 "/opt/arm-gnu-toolchain-14.2/arm-none-eabi/include/c++/14.2.1/debug/debug.h"
 1822              		.file 16 "/opt/arm-gnu-toolchain-14.2/arm-none-eabi/include/c++/14.2.1/bits/predefined_ops.h"
 1823              		.file 17 "/opt/arm-gnu-toolchain-14.2/arm-none-eabi/include/c++/14.2.1/stdlib.h"
 1824              		.file 18 "Drivers/CMSIS/Device/ST/STM32G4xx/Include/stm32g474xx.h"
 1825              		.file 19 "Drivers/STM32G4xx_HAL_Driver/Inc/stm32g4xx_hal_def.h"
 1826              		.file 20 "Drivers/STM32G4xx_HAL_Driver/Inc/stm32g4xx_hal_dma.h"
 1827              		.file 21 "Drivers/STM32G4xx_HAL_Driver/Inc/stm32g4xx_hal_spi.h"
 1828              		.file 22 "Drivers/STM32G4xx_HAL_Driver/Inc/stm32g4xx_hal_tim.h"
 1829              		.file 23 "My_Top/System/bsp.hpp"
 1830              		.file 24 "/opt/arm-gnu-toolchain-14.2/arm-none-eabi/include/math.h"
ARM GAS  /tmp/ccQslxFB.s 			page 44


 1831              		.file 25 "/opt/arm-gnu-toolchain-14.2/arm-none-eabi/include/c++/14.2.1/arm-none-eabi/thumb/v7e-m+f
 1832              		.file 26 "/opt/arm-gnu-toolchain-14.2/arm-none-eabi/include/c++/14.2.1/math.h"
 1833              		.file 27 "Lib/compute/ex_math.hpp"
 1834              		.file 28 "Lib/compute/pid/pll.hpp"
 1835              		.file 29 "Lib/compute/pid/LQR.hpp"
 1836              		.file 30 "My_Top/System/kth_read.hpp"
 1837              		.file 31 "My_Top/Motor_Control/DcMotor_ClosedLoop.hpp"
 1838              		.file 32 "Lib/uorb/uorb.hpp"
 1839              		.file 33 "/opt/arm-gnu-toolchain-14.2/arm-none-eabi/include/string.h"
 1840              		.file 34 "Middlewares/Third_Party/FreeRTOS/Source/include/task.h"
ARM GAS  /tmp/ccQslxFB.s 			page 45


DEFINED SYMBOLS
                            *ABS*:00000000 Task_Vofa.cpp
     /tmp/ccQslxFB.s:21     .text._ZN7VoFA_Rx3getEPKcf:00000000 $t
     /tmp/ccQslxFB.s:27     .text._ZN7VoFA_Rx3getEPKcf:00000000 _ZN7VoFA_Rx3getEPKcf
     /tmp/ccQslxFB.s:118    .text._ZN7VoFA_Rx14vofa_get_batchEPS_PPKcPfh:00000000 $t
     /tmp/ccQslxFB.s:124    .text._ZN7VoFA_Rx14vofa_get_batchEPS_PPKcPfh:00000000 _ZN7VoFA_Rx14vofa_get_batchEPS_PPKcPfh
     /tmp/ccQslxFB.s:246    .text._ZN7VoFA_Rx5_findEPKc:00000000 $t
     /tmp/ccQslxFB.s:252    .text._ZN7VoFA_Rx5_findEPKc:00000000 _ZN7VoFA_Rx5_findEPKc
     /tmp/ccQslxFB.s:365    .text._ZN7VoFA_Rx5parseEv:00000000 $t
     /tmp/ccQslxFB.s:371    .text._ZN7VoFA_Rx5parseEv:00000000 _ZN7VoFA_Rx5parseEv
     /tmp/ccQslxFB.s:604    .text:00000000 $t
     /tmp/ccQslxFB.s:610    .text:00000000 _Z14vofa_sync_lastP9Vafa_data
     /tmp/ccQslxFB.s:664    .text:00000028 _Z14vofa_data_initv
     /tmp/ccQslxFB.s:789    .text:000000e8 $d
     /tmp/ccQslxFB.s:796    .rodata.str1.4:00000000 $d
     /tmp/ccQslxFB.s:800    .text:000000f4 $t
     /tmp/ccQslxFB.s:806    .text:000000f4 _Z16vofa_update_modeP9Work_ModeS_P8DC_Motor
     /tmp/ccQslxFB.s:930    .text:00000154 $d
     /tmp/ccQslxFB.s:936    .text:00000160 $t
     /tmp/ccQslxFB.s:942    .text:00000160 _Z22vofa_update_if_changedP9Vafa_datahPfP8DC_Motor
     /tmp/ccQslxFB.s:1047   .text:000001a6 _Z19vofa_detect_changesP9Vafa_data
     /tmp/ccQslxFB.s:1105   .text:000001de _Z11Task_VofaRxPv
     /tmp/ccQslxFB.s:1176   .text:00000218 $d
     /tmp/ccQslxFB.s:1180   .text:0000021c $t
     /tmp/ccQslxFB.s:1482   .text:000003cc $d
     /tmp/ccQslxFB.s:1500   .text:000003f0 $t
     /tmp/ccQslxFB.s:1506   .text:000003f0 _Z11Task_VofaTxPv
     /tmp/ccQslxFB.s:1667   .text:00000508 $d
     /tmp/ccQslxFB.s:1795   .bss:00000450 Vafa_Button
     /tmp/ccQslxFB.s:1791   .bss:0000033c Vafa_Location
     /tmp/ccQslxFB.s:1787   .bss:00000228 Vafa_Target
     /tmp/ccQslxFB.s:1783   .bss:00000114 Vafa_Speed
     /tmp/ccQslxFB.s:1779   .bss:00000000 Vafa_IA
     /tmp/ccQslxFB.s:1770   .data:0000003c Button_Names
     /tmp/ccQslxFB.s:1764   .data:00000030 Location_Names
     /tmp/ccQslxFB.s:1756   .data:0000001c Target_Names
     /tmp/ccQslxFB.s:1750   .data:00000010 Speed_Names
     /tmp/ccQslxFB.s:1743   .data:00000000 IA_Names
     /tmp/ccQslxFB.s:1739   .data:00000000 $d
     /tmp/ccQslxFB.s:1775   .bss:00000000 $d
     /tmp/ccQslxFB.s:1799   .bss:00000564 _ZZ16vofa_update_modeP9Work_ModeS_P8DC_MotorE9last_mode
     /tmp/ccQslxFB.s:1804   .bss:00000568 _ZZ11Task_VofaRxPvE12Motor_Select
     /tmp/ccQslxFB.s:1808   .bss:0000056c _ZZ11Task_VofaRxPvE8last_idx

UNDEFINED SYMBOLS
strncmp
strncpy
atof
__aeabi_d2f
vofa1
_ZN8DC_Motor8Motor_ENEb
vTaskDelay
M2
M3
M4
M1
_ZN8DC_Motor14selected_motorE
ARM GAS  /tmp/ccQslxFB.s 			page 46


uorb_subscribe
uorb_copy
__aeabi_f2d
_Z21Vofa_SendFireWater_VAtz
