ARM GAS  /tmp/cc5avDBI.s 			page 1


   1              		.cpu cortex-m4
   2              		.arch armv7e-m
   3              		.fpu fpv4-sp-d16
   4              		.eabi_attribute 27, 1
   5              		.eabi_attribute 28, 1
   6              		.eabi_attribute 20, 1
   7              		.eabi_attribute 21, 1
   8              		.eabi_attribute 23, 3
   9              		.eabi_attribute 24, 1
  10              		.eabi_attribute 25, 1
  11              		.eabi_attribute 26, 1
  12              		.eabi_attribute 30, 1
  13              		.eabi_attribute 34, 1
  14              		.eabi_attribute 18, 4
  15              		.file	"usbd_composite.c"
  16              		.text
  17              	.Ltext0:
  18              		.cfi_sections	.debug_frame
  19              		.file 1 "Middlewares/Third_Party/AL94_USB_Composite/COMPOSITE/Class/COMPOSITE/Src/usbd_composite.c
  20              		.section	.text.USBD_COMPOSITE_Init,"ax",%progbits
  21              		.align	1
  22              		.syntax unified
  23              		.thumb
  24              		.thumb_func
  26              	USBD_COMPOSITE_Init:
  27              	.LVL0:
  28              	.LFB333:
   1:Middlewares/Third_Party/AL94_USB_Composite/COMPOSITE/Class/COMPOSITE/Src/usbd_composite.c **** /**
   2:Middlewares/Third_Party/AL94_USB_Composite/COMPOSITE/Class/COMPOSITE/Src/usbd_composite.c ****   ******************************************************************************
   3:Middlewares/Third_Party/AL94_USB_Composite/COMPOSITE/Class/COMPOSITE/Src/usbd_composite.c ****   * @file    usbd_composite.c
   4:Middlewares/Third_Party/AL94_USB_Composite/COMPOSITE/Class/COMPOSITE/Src/usbd_composite.c ****   * @author  MCD Application Team
   5:Middlewares/Third_Party/AL94_USB_Composite/COMPOSITE/Class/COMPOSITE/Src/usbd_composite.c ****   * @brief   This file provides the HID core functions.
   6:Middlewares/Third_Party/AL94_USB_Composite/COMPOSITE/Class/COMPOSITE/Src/usbd_composite.c ****   *
   7:Middlewares/Third_Party/AL94_USB_Composite/COMPOSITE/Class/COMPOSITE/Src/usbd_composite.c ****   * @verbatim
   8:Middlewares/Third_Party/AL94_USB_Composite/COMPOSITE/Class/COMPOSITE/Src/usbd_composite.c ****   *
   9:Middlewares/Third_Party/AL94_USB_Composite/COMPOSITE/Class/COMPOSITE/Src/usbd_composite.c ****   *          ===================================================================
  10:Middlewares/Third_Party/AL94_USB_Composite/COMPOSITE/Class/COMPOSITE/Src/usbd_composite.c ****   *                                COMPOSITE Class  Description
  11:Middlewares/Third_Party/AL94_USB_Composite/COMPOSITE/Class/COMPOSITE/Src/usbd_composite.c ****   *          ===================================================================
  12:Middlewares/Third_Party/AL94_USB_Composite/COMPOSITE/Class/COMPOSITE/Src/usbd_composite.c ****   *
  13:Middlewares/Third_Party/AL94_USB_Composite/COMPOSITE/Class/COMPOSITE/Src/usbd_composite.c ****   *
  14:Middlewares/Third_Party/AL94_USB_Composite/COMPOSITE/Class/COMPOSITE/Src/usbd_composite.c ****   *
  15:Middlewares/Third_Party/AL94_USB_Composite/COMPOSITE/Class/COMPOSITE/Src/usbd_composite.c ****   *
  16:Middlewares/Third_Party/AL94_USB_Composite/COMPOSITE/Class/COMPOSITE/Src/usbd_composite.c ****   *
  17:Middlewares/Third_Party/AL94_USB_Composite/COMPOSITE/Class/COMPOSITE/Src/usbd_composite.c ****   *
  18:Middlewares/Third_Party/AL94_USB_Composite/COMPOSITE/Class/COMPOSITE/Src/usbd_composite.c ****   * @note     In HS mode and when the DMA is used, all variables and data structures
  19:Middlewares/Third_Party/AL94_USB_Composite/COMPOSITE/Class/COMPOSITE/Src/usbd_composite.c ****   *           dealing with the DMA during the transaction process should be 32-bit aligned.
  20:Middlewares/Third_Party/AL94_USB_Composite/COMPOSITE/Class/COMPOSITE/Src/usbd_composite.c ****   *
  21:Middlewares/Third_Party/AL94_USB_Composite/COMPOSITE/Class/COMPOSITE/Src/usbd_composite.c ****   *
  22:Middlewares/Third_Party/AL94_USB_Composite/COMPOSITE/Class/COMPOSITE/Src/usbd_composite.c ****   *  @endverbatim
  23:Middlewares/Third_Party/AL94_USB_Composite/COMPOSITE/Class/COMPOSITE/Src/usbd_composite.c ****   *
  24:Middlewares/Third_Party/AL94_USB_Composite/COMPOSITE/Class/COMPOSITE/Src/usbd_composite.c ****   ******************************************************************************
  25:Middlewares/Third_Party/AL94_USB_Composite/COMPOSITE/Class/COMPOSITE/Src/usbd_composite.c ****   * @attention
  26:Middlewares/Third_Party/AL94_USB_Composite/COMPOSITE/Class/COMPOSITE/Src/usbd_composite.c ****   *
  27:Middlewares/Third_Party/AL94_USB_Composite/COMPOSITE/Class/COMPOSITE/Src/usbd_composite.c ****   * <h2><center>&copy; Copyright (c) 2015 STMicroelectronics.
  28:Middlewares/Third_Party/AL94_USB_Composite/COMPOSITE/Class/COMPOSITE/Src/usbd_composite.c ****   * All rights reserved.</center></h2>
  29:Middlewares/Third_Party/AL94_USB_Composite/COMPOSITE/Class/COMPOSITE/Src/usbd_composite.c ****   *
  30:Middlewares/Third_Party/AL94_USB_Composite/COMPOSITE/Class/COMPOSITE/Src/usbd_composite.c ****   * This software component is licensed by ST under Ultimate Liberty license
ARM GAS  /tmp/cc5avDBI.s 			page 2


  31:Middlewares/Third_Party/AL94_USB_Composite/COMPOSITE/Class/COMPOSITE/Src/usbd_composite.c ****   * SLA0044, the "License"; You may not use this file except in compliance with
  32:Middlewares/Third_Party/AL94_USB_Composite/COMPOSITE/Class/COMPOSITE/Src/usbd_composite.c ****   * the License. You may obtain a copy of the License at:
  33:Middlewares/Third_Party/AL94_USB_Composite/COMPOSITE/Class/COMPOSITE/Src/usbd_composite.c ****   *                      www.st.com/SLA0044
  34:Middlewares/Third_Party/AL94_USB_Composite/COMPOSITE/Class/COMPOSITE/Src/usbd_composite.c ****   *
  35:Middlewares/Third_Party/AL94_USB_Composite/COMPOSITE/Class/COMPOSITE/Src/usbd_composite.c ****   ******************************************************************************
  36:Middlewares/Third_Party/AL94_USB_Composite/COMPOSITE/Class/COMPOSITE/Src/usbd_composite.c ****   */
  37:Middlewares/Third_Party/AL94_USB_Composite/COMPOSITE/Class/COMPOSITE/Src/usbd_composite.c **** 
  38:Middlewares/Third_Party/AL94_USB_Composite/COMPOSITE/Class/COMPOSITE/Src/usbd_composite.c **** /* Includes ------------------------------------------------------------------*/
  39:Middlewares/Third_Party/AL94_USB_Composite/COMPOSITE/Class/COMPOSITE/Src/usbd_composite.c **** #include "usbd_composite.h"
  40:Middlewares/Third_Party/AL94_USB_Composite/COMPOSITE/Class/COMPOSITE/Src/usbd_composite.c **** #include "usbd_ctlreq.h"
  41:Middlewares/Third_Party/AL94_USB_Composite/COMPOSITE/Class/COMPOSITE/Src/usbd_composite.c **** 
  42:Middlewares/Third_Party/AL94_USB_Composite/COMPOSITE/Class/COMPOSITE/Src/usbd_composite.c **** /** @addtogroup STM32_USB_DEVICE_LIBRARY
  43:Middlewares/Third_Party/AL94_USB_Composite/COMPOSITE/Class/COMPOSITE/Src/usbd_composite.c ****   * @{
  44:Middlewares/Third_Party/AL94_USB_Composite/COMPOSITE/Class/COMPOSITE/Src/usbd_composite.c ****   */
  45:Middlewares/Third_Party/AL94_USB_Composite/COMPOSITE/Class/COMPOSITE/Src/usbd_composite.c **** 
  46:Middlewares/Third_Party/AL94_USB_Composite/COMPOSITE/Class/COMPOSITE/Src/usbd_composite.c **** /** @defgroup USBD_COMPOSITE
  47:Middlewares/Third_Party/AL94_USB_Composite/COMPOSITE/Class/COMPOSITE/Src/usbd_composite.c ****   * @brief usbd core module
  48:Middlewares/Third_Party/AL94_USB_Composite/COMPOSITE/Class/COMPOSITE/Src/usbd_composite.c ****   * @{
  49:Middlewares/Third_Party/AL94_USB_Composite/COMPOSITE/Class/COMPOSITE/Src/usbd_composite.c ****   */
  50:Middlewares/Third_Party/AL94_USB_Composite/COMPOSITE/Class/COMPOSITE/Src/usbd_composite.c **** 
  51:Middlewares/Third_Party/AL94_USB_Composite/COMPOSITE/Class/COMPOSITE/Src/usbd_composite.c **** /** @defgroup USBD_COMPOSITE_Private_TypesDefinitions
  52:Middlewares/Third_Party/AL94_USB_Composite/COMPOSITE/Class/COMPOSITE/Src/usbd_composite.c ****   * @{
  53:Middlewares/Third_Party/AL94_USB_Composite/COMPOSITE/Class/COMPOSITE/Src/usbd_composite.c ****   */
  54:Middlewares/Third_Party/AL94_USB_Composite/COMPOSITE/Class/COMPOSITE/Src/usbd_composite.c **** /**
  55:Middlewares/Third_Party/AL94_USB_Composite/COMPOSITE/Class/COMPOSITE/Src/usbd_composite.c ****   * @}
  56:Middlewares/Third_Party/AL94_USB_Composite/COMPOSITE/Class/COMPOSITE/Src/usbd_composite.c ****   */
  57:Middlewares/Third_Party/AL94_USB_Composite/COMPOSITE/Class/COMPOSITE/Src/usbd_composite.c **** 
  58:Middlewares/Third_Party/AL94_USB_Composite/COMPOSITE/Class/COMPOSITE/Src/usbd_composite.c **** /** @defgroup USBD_COMPOSITE_Private_Defines
  59:Middlewares/Third_Party/AL94_USB_Composite/COMPOSITE/Class/COMPOSITE/Src/usbd_composite.c ****   * @{
  60:Middlewares/Third_Party/AL94_USB_Composite/COMPOSITE/Class/COMPOSITE/Src/usbd_composite.c ****   */
  61:Middlewares/Third_Party/AL94_USB_Composite/COMPOSITE/Class/COMPOSITE/Src/usbd_composite.c **** 
  62:Middlewares/Third_Party/AL94_USB_Composite/COMPOSITE/Class/COMPOSITE/Src/usbd_composite.c **** /**
  63:Middlewares/Third_Party/AL94_USB_Composite/COMPOSITE/Class/COMPOSITE/Src/usbd_composite.c ****   * @}
  64:Middlewares/Third_Party/AL94_USB_Composite/COMPOSITE/Class/COMPOSITE/Src/usbd_composite.c ****   */
  65:Middlewares/Third_Party/AL94_USB_Composite/COMPOSITE/Class/COMPOSITE/Src/usbd_composite.c **** 
  66:Middlewares/Third_Party/AL94_USB_Composite/COMPOSITE/Class/COMPOSITE/Src/usbd_composite.c **** /** @defgroup USBD_COMPOSITE_Private_Macros
  67:Middlewares/Third_Party/AL94_USB_Composite/COMPOSITE/Class/COMPOSITE/Src/usbd_composite.c ****   * @{
  68:Middlewares/Third_Party/AL94_USB_Composite/COMPOSITE/Class/COMPOSITE/Src/usbd_composite.c ****   */
  69:Middlewares/Third_Party/AL94_USB_Composite/COMPOSITE/Class/COMPOSITE/Src/usbd_composite.c **** 
  70:Middlewares/Third_Party/AL94_USB_Composite/COMPOSITE/Class/COMPOSITE/Src/usbd_composite.c **** /**
  71:Middlewares/Third_Party/AL94_USB_Composite/COMPOSITE/Class/COMPOSITE/Src/usbd_composite.c ****   * @}
  72:Middlewares/Third_Party/AL94_USB_Composite/COMPOSITE/Class/COMPOSITE/Src/usbd_composite.c ****   */
  73:Middlewares/Third_Party/AL94_USB_Composite/COMPOSITE/Class/COMPOSITE/Src/usbd_composite.c **** 
  74:Middlewares/Third_Party/AL94_USB_Composite/COMPOSITE/Class/COMPOSITE/Src/usbd_composite.c **** /** @defgroup USBD_COMPOSITE_Private_FunctionPrototypes
  75:Middlewares/Third_Party/AL94_USB_Composite/COMPOSITE/Class/COMPOSITE/Src/usbd_composite.c ****   * @{
  76:Middlewares/Third_Party/AL94_USB_Composite/COMPOSITE/Class/COMPOSITE/Src/usbd_composite.c ****   */
  77:Middlewares/Third_Party/AL94_USB_Composite/COMPOSITE/Class/COMPOSITE/Src/usbd_composite.c **** 
  78:Middlewares/Third_Party/AL94_USB_Composite/COMPOSITE/Class/COMPOSITE/Src/usbd_composite.c **** static uint8_t USBD_COMPOSITE_Init(USBD_HandleTypeDef *pdev, uint8_t cfgidx);
  79:Middlewares/Third_Party/AL94_USB_Composite/COMPOSITE/Class/COMPOSITE/Src/usbd_composite.c **** static uint8_t USBD_COMPOSITE_DeInit(USBD_HandleTypeDef *pdev, uint8_t cfgidx);
  80:Middlewares/Third_Party/AL94_USB_Composite/COMPOSITE/Class/COMPOSITE/Src/usbd_composite.c **** static uint8_t USBD_COMPOSITE_Setup(USBD_HandleTypeDef *pdev, USBD_SetupReqTypedef *req);
  81:Middlewares/Third_Party/AL94_USB_Composite/COMPOSITE/Class/COMPOSITE/Src/usbd_composite.c **** static uint8_t USBD_COMPOSITE_DataIn(USBD_HandleTypeDef *pdev, uint8_t epnum);
  82:Middlewares/Third_Party/AL94_USB_Composite/COMPOSITE/Class/COMPOSITE/Src/usbd_composite.c **** static uint8_t USBD_COMPOSITE_DataOut(USBD_HandleTypeDef *pdev, uint8_t epnum);
  83:Middlewares/Third_Party/AL94_USB_Composite/COMPOSITE/Class/COMPOSITE/Src/usbd_composite.c **** static uint8_t USBD_COMPOSITE_EP0_RxReady(USBD_HandleTypeDef *pdev);
  84:Middlewares/Third_Party/AL94_USB_Composite/COMPOSITE/Class/COMPOSITE/Src/usbd_composite.c **** static uint8_t USBD_COMPOSITE_EP0_TxReady(USBD_HandleTypeDef *pdev);
  85:Middlewares/Third_Party/AL94_USB_Composite/COMPOSITE/Class/COMPOSITE/Src/usbd_composite.c **** static uint8_t USBD_COMPOSITE_SOF(USBD_HandleTypeDef *pdev);
  86:Middlewares/Third_Party/AL94_USB_Composite/COMPOSITE/Class/COMPOSITE/Src/usbd_composite.c **** static uint8_t USBD_COMPOSITE_IsoINIncomplete(USBD_HandleTypeDef *pdev, uint8_t epnum);
  87:Middlewares/Third_Party/AL94_USB_Composite/COMPOSITE/Class/COMPOSITE/Src/usbd_composite.c **** static uint8_t USBD_COMPOSITE_IsoOutIncomplete(USBD_HandleTypeDef *pdev, uint8_t epnum);
ARM GAS  /tmp/cc5avDBI.s 			page 3


  88:Middlewares/Third_Party/AL94_USB_Composite/COMPOSITE/Class/COMPOSITE/Src/usbd_composite.c **** 
  89:Middlewares/Third_Party/AL94_USB_Composite/COMPOSITE/Class/COMPOSITE/Src/usbd_composite.c **** static uint8_t *USBD_COMPOSITE_GetHSCfgDesc(uint16_t *length);
  90:Middlewares/Third_Party/AL94_USB_Composite/COMPOSITE/Class/COMPOSITE/Src/usbd_composite.c **** static uint8_t *USBD_COMPOSITE_GetFSCfgDesc(uint16_t *length);
  91:Middlewares/Third_Party/AL94_USB_Composite/COMPOSITE/Class/COMPOSITE/Src/usbd_composite.c **** static uint8_t *USBD_COMPOSITE_GetOtherSpeedCfgDesc(uint16_t *length);
  92:Middlewares/Third_Party/AL94_USB_Composite/COMPOSITE/Class/COMPOSITE/Src/usbd_composite.c **** static uint8_t *USBD_COMPOSITE_GetDeviceQualifierDesc(uint16_t *length);
  93:Middlewares/Third_Party/AL94_USB_Composite/COMPOSITE/Class/COMPOSITE/Src/usbd_composite.c **** static uint8_t *USBD_COMPOSITE_GetUsrStringDesc(USBD_HandleTypeDef *pdev, uint8_t index, uint16_t *
  94:Middlewares/Third_Party/AL94_USB_Composite/COMPOSITE/Class/COMPOSITE/Src/usbd_composite.c **** 
  95:Middlewares/Third_Party/AL94_USB_Composite/COMPOSITE/Class/COMPOSITE/Src/usbd_composite.c **** /**
  96:Middlewares/Third_Party/AL94_USB_Composite/COMPOSITE/Class/COMPOSITE/Src/usbd_composite.c ****   * @}
  97:Middlewares/Third_Party/AL94_USB_Composite/COMPOSITE/Class/COMPOSITE/Src/usbd_composite.c ****   */
  98:Middlewares/Third_Party/AL94_USB_Composite/COMPOSITE/Class/COMPOSITE/Src/usbd_composite.c **** 
  99:Middlewares/Third_Party/AL94_USB_Composite/COMPOSITE/Class/COMPOSITE/Src/usbd_composite.c **** /** @defgroup USBD_COMPOSITE_Private_Variables
 100:Middlewares/Third_Party/AL94_USB_Composite/COMPOSITE/Class/COMPOSITE/Src/usbd_composite.c ****   * @{
 101:Middlewares/Third_Party/AL94_USB_Composite/COMPOSITE/Class/COMPOSITE/Src/usbd_composite.c ****   */
 102:Middlewares/Third_Party/AL94_USB_Composite/COMPOSITE/Class/COMPOSITE/Src/usbd_composite.c **** 
 103:Middlewares/Third_Party/AL94_USB_Composite/COMPOSITE/Class/COMPOSITE/Src/usbd_composite.c **** USBD_ClassTypeDef USBD_COMPOSITE =
 104:Middlewares/Third_Party/AL94_USB_Composite/COMPOSITE/Class/COMPOSITE/Src/usbd_composite.c ****     {
 105:Middlewares/Third_Party/AL94_USB_Composite/COMPOSITE/Class/COMPOSITE/Src/usbd_composite.c ****         USBD_COMPOSITE_Init,
 106:Middlewares/Third_Party/AL94_USB_Composite/COMPOSITE/Class/COMPOSITE/Src/usbd_composite.c ****         USBD_COMPOSITE_DeInit,
 107:Middlewares/Third_Party/AL94_USB_Composite/COMPOSITE/Class/COMPOSITE/Src/usbd_composite.c ****         USBD_COMPOSITE_Setup,
 108:Middlewares/Third_Party/AL94_USB_Composite/COMPOSITE/Class/COMPOSITE/Src/usbd_composite.c ****         USBD_COMPOSITE_EP0_TxReady,
 109:Middlewares/Third_Party/AL94_USB_Composite/COMPOSITE/Class/COMPOSITE/Src/usbd_composite.c ****         USBD_COMPOSITE_EP0_RxReady,
 110:Middlewares/Third_Party/AL94_USB_Composite/COMPOSITE/Class/COMPOSITE/Src/usbd_composite.c ****         USBD_COMPOSITE_DataIn,
 111:Middlewares/Third_Party/AL94_USB_Composite/COMPOSITE/Class/COMPOSITE/Src/usbd_composite.c ****         USBD_COMPOSITE_DataOut,
 112:Middlewares/Third_Party/AL94_USB_Composite/COMPOSITE/Class/COMPOSITE/Src/usbd_composite.c ****         USBD_COMPOSITE_SOF,
 113:Middlewares/Third_Party/AL94_USB_Composite/COMPOSITE/Class/COMPOSITE/Src/usbd_composite.c ****         USBD_COMPOSITE_IsoINIncomplete,
 114:Middlewares/Third_Party/AL94_USB_Composite/COMPOSITE/Class/COMPOSITE/Src/usbd_composite.c ****         USBD_COMPOSITE_IsoOutIncomplete,
 115:Middlewares/Third_Party/AL94_USB_Composite/COMPOSITE/Class/COMPOSITE/Src/usbd_composite.c ****         USBD_COMPOSITE_GetHSCfgDesc,
 116:Middlewares/Third_Party/AL94_USB_Composite/COMPOSITE/Class/COMPOSITE/Src/usbd_composite.c ****         USBD_COMPOSITE_GetFSCfgDesc,
 117:Middlewares/Third_Party/AL94_USB_Composite/COMPOSITE/Class/COMPOSITE/Src/usbd_composite.c ****         USBD_COMPOSITE_GetOtherSpeedCfgDesc,
 118:Middlewares/Third_Party/AL94_USB_Composite/COMPOSITE/Class/COMPOSITE/Src/usbd_composite.c ****         USBD_COMPOSITE_GetDeviceQualifierDesc,
 119:Middlewares/Third_Party/AL94_USB_Composite/COMPOSITE/Class/COMPOSITE/Src/usbd_composite.c ****         USBD_COMPOSITE_GetUsrStringDesc};
 120:Middlewares/Third_Party/AL94_USB_Composite/COMPOSITE/Class/COMPOSITE/Src/usbd_composite.c **** 
 121:Middlewares/Third_Party/AL94_USB_Composite/COMPOSITE/Class/COMPOSITE/Src/usbd_composite.c **** typedef struct USBD_COMPOSITE_CFG_DESC_t
 122:Middlewares/Third_Party/AL94_USB_Composite/COMPOSITE/Class/COMPOSITE/Src/usbd_composite.c **** {
 123:Middlewares/Third_Party/AL94_USB_Composite/COMPOSITE/Class/COMPOSITE/Src/usbd_composite.c ****   uint8_t CONFIG_DESC[USB_CONF_DESC_SIZE];
 124:Middlewares/Third_Party/AL94_USB_Composite/COMPOSITE/Class/COMPOSITE/Src/usbd_composite.c **** #if (USBD_USE_CDC_RNDIS == 1)
 125:Middlewares/Third_Party/AL94_USB_Composite/COMPOSITE/Class/COMPOSITE/Src/usbd_composite.c ****   uint8_t USBD_CDC_RNDIS_DESC[CDC_RNDIS_CONFIG_DESC_SIZE - 0x09];
 126:Middlewares/Third_Party/AL94_USB_Composite/COMPOSITE/Class/COMPOSITE/Src/usbd_composite.c **** #endif
 127:Middlewares/Third_Party/AL94_USB_Composite/COMPOSITE/Class/COMPOSITE/Src/usbd_composite.c **** #if (USBD_USE_CDC_ECM == 1)
 128:Middlewares/Third_Party/AL94_USB_Composite/COMPOSITE/Class/COMPOSITE/Src/usbd_composite.c ****   uint8_t USBD_CDC_ECM_DESC[CDC_ECM_CONFIG_DESC_SIZE - 0x09];
 129:Middlewares/Third_Party/AL94_USB_Composite/COMPOSITE/Class/COMPOSITE/Src/usbd_composite.c **** #endif
 130:Middlewares/Third_Party/AL94_USB_Composite/COMPOSITE/Class/COMPOSITE/Src/usbd_composite.c **** #if (USBD_USE_HID_MOUSE == 1)
 131:Middlewares/Third_Party/AL94_USB_Composite/COMPOSITE/Class/COMPOSITE/Src/usbd_composite.c ****   uint8_t USBD_HID_MOUSE_DESC[USB_HID_CONFIG_DESC_SIZ - 0x09];
 132:Middlewares/Third_Party/AL94_USB_Composite/COMPOSITE/Class/COMPOSITE/Src/usbd_composite.c **** #endif
 133:Middlewares/Third_Party/AL94_USB_Composite/COMPOSITE/Class/COMPOSITE/Src/usbd_composite.c **** #if (USBD_USE_HID_KEYBOARD == 1)
 134:Middlewares/Third_Party/AL94_USB_Composite/COMPOSITE/Class/COMPOSITE/Src/usbd_composite.c ****   uint8_t USBD_HID_KEYBOARD_DESC[HID_KEYBOARD_CONFIG_DESC_SIZE - 0x09];
 135:Middlewares/Third_Party/AL94_USB_Composite/COMPOSITE/Class/COMPOSITE/Src/usbd_composite.c **** #endif
 136:Middlewares/Third_Party/AL94_USB_Composite/COMPOSITE/Class/COMPOSITE/Src/usbd_composite.c **** #if (USBD_USE_HID_CUSTOM == 1)
 137:Middlewares/Third_Party/AL94_USB_Composite/COMPOSITE/Class/COMPOSITE/Src/usbd_composite.c ****   uint8_t USBD_HID_CUSTOM_DESC[USB_CUSTOM_HID_CONFIG_DESC_SIZ - 0x09];
 138:Middlewares/Third_Party/AL94_USB_Composite/COMPOSITE/Class/COMPOSITE/Src/usbd_composite.c **** #endif
 139:Middlewares/Third_Party/AL94_USB_Composite/COMPOSITE/Class/COMPOSITE/Src/usbd_composite.c **** #if (USBD_USE_UAC_MIC == 1)
 140:Middlewares/Third_Party/AL94_USB_Composite/COMPOSITE/Class/COMPOSITE/Src/usbd_composite.c ****   uint8_t USBD_UAC_MIC_DESC[USBD_AUDIO_MIC_CONFIG_DESC_SIZE - 0x09];
 141:Middlewares/Third_Party/AL94_USB_Composite/COMPOSITE/Class/COMPOSITE/Src/usbd_composite.c **** #endif
 142:Middlewares/Third_Party/AL94_USB_Composite/COMPOSITE/Class/COMPOSITE/Src/usbd_composite.c **** #if (USBD_USE_UAC_SPKR == 1)
 143:Middlewares/Third_Party/AL94_USB_Composite/COMPOSITE/Class/COMPOSITE/Src/usbd_composite.c ****   uint8_t USBD_AUDIO_SPKR_DESC[USBD_AUDIO_SPKR_CONFIG_DESC_SIZE - 0x09];
 144:Middlewares/Third_Party/AL94_USB_Composite/COMPOSITE/Class/COMPOSITE/Src/usbd_composite.c **** #endif
ARM GAS  /tmp/cc5avDBI.s 			page 4


 145:Middlewares/Third_Party/AL94_USB_Composite/COMPOSITE/Class/COMPOSITE/Src/usbd_composite.c **** #if (USBD_USE_UVC == 1)
 146:Middlewares/Third_Party/AL94_USB_Composite/COMPOSITE/Class/COMPOSITE/Src/usbd_composite.c ****   uint8_t USBD_UVC_DESC[UVC_CONFIG_DESC_SIZE - 0x09];
 147:Middlewares/Third_Party/AL94_USB_Composite/COMPOSITE/Class/COMPOSITE/Src/usbd_composite.c **** #endif
 148:Middlewares/Third_Party/AL94_USB_Composite/COMPOSITE/Class/COMPOSITE/Src/usbd_composite.c **** #if (USBD_USE_MSC == 1)
 149:Middlewares/Third_Party/AL94_USB_Composite/COMPOSITE/Class/COMPOSITE/Src/usbd_composite.c ****   uint8_t USBD_MSC_DESC[USB_MSC_CONFIG_DESC_SIZ - 0x09];
 150:Middlewares/Third_Party/AL94_USB_Composite/COMPOSITE/Class/COMPOSITE/Src/usbd_composite.c **** #endif
 151:Middlewares/Third_Party/AL94_USB_Composite/COMPOSITE/Class/COMPOSITE/Src/usbd_composite.c **** #if (USBD_USE_DFU == 1)
 152:Middlewares/Third_Party/AL94_USB_Composite/COMPOSITE/Class/COMPOSITE/Src/usbd_composite.c ****   uint8_t USBD_DFU_DESC[USB_DFU_CONFIG_DESC_SIZ - 0x09];
 153:Middlewares/Third_Party/AL94_USB_Composite/COMPOSITE/Class/COMPOSITE/Src/usbd_composite.c **** #endif
 154:Middlewares/Third_Party/AL94_USB_Composite/COMPOSITE/Class/COMPOSITE/Src/usbd_composite.c **** #if (USBD_USE_PRNTR == 1)
 155:Middlewares/Third_Party/AL94_USB_Composite/COMPOSITE/Class/COMPOSITE/Src/usbd_composite.c ****   uint8_t USBD_PRNTR_DESC[USB_PRNT_CONFIG_DESC_SIZE - 0x09];
 156:Middlewares/Third_Party/AL94_USB_Composite/COMPOSITE/Class/COMPOSITE/Src/usbd_composite.c **** #endif
 157:Middlewares/Third_Party/AL94_USB_Composite/COMPOSITE/Class/COMPOSITE/Src/usbd_composite.c **** #if (USBD_USE_CDC_ACM == 1)
 158:Middlewares/Third_Party/AL94_USB_Composite/COMPOSITE/Class/COMPOSITE/Src/usbd_composite.c ****   uint8_t USBD_CDC_ACM_DESC[USB_CDC_CONFIG_DESC_SIZ - 0x09];
 159:Middlewares/Third_Party/AL94_USB_Composite/COMPOSITE/Class/COMPOSITE/Src/usbd_composite.c **** #endif
 160:Middlewares/Third_Party/AL94_USB_Composite/COMPOSITE/Class/COMPOSITE/Src/usbd_composite.c **** 
 161:Middlewares/Third_Party/AL94_USB_Composite/COMPOSITE/Class/COMPOSITE/Src/usbd_composite.c **** } __PACKED USBD_COMPOSITE_CFG_DESC_t;
 162:Middlewares/Third_Party/AL94_USB_Composite/COMPOSITE/Class/COMPOSITE/Src/usbd_composite.c **** 
 163:Middlewares/Third_Party/AL94_USB_Composite/COMPOSITE/Class/COMPOSITE/Src/usbd_composite.c **** #if defined(__ICCARM__) /*!< IAR Compiler */
 164:Middlewares/Third_Party/AL94_USB_Composite/COMPOSITE/Class/COMPOSITE/Src/usbd_composite.c **** #pragma data_alignment = 4
 165:Middlewares/Third_Party/AL94_USB_Composite/COMPOSITE/Class/COMPOSITE/Src/usbd_composite.c **** #endif
 166:Middlewares/Third_Party/AL94_USB_Composite/COMPOSITE/Class/COMPOSITE/Src/usbd_composite.c **** __ALIGN_BEGIN USBD_COMPOSITE_CFG_DESC_t USBD_COMPOSITE_FSCfgDesc, USBD_COMPOSITE_HSCfgDesc __ALIGN_
 167:Middlewares/Third_Party/AL94_USB_Composite/COMPOSITE/Class/COMPOSITE/Src/usbd_composite.c **** uint8_t USBD_Track_String_Index = (USBD_IDX_INTERFACE_STR + 1);
 168:Middlewares/Third_Party/AL94_USB_Composite/COMPOSITE/Class/COMPOSITE/Src/usbd_composite.c **** 
 169:Middlewares/Third_Party/AL94_USB_Composite/COMPOSITE/Class/COMPOSITE/Src/usbd_composite.c **** #if defined(__ICCARM__) /*!< IAR Compiler */
 170:Middlewares/Third_Party/AL94_USB_Composite/COMPOSITE/Class/COMPOSITE/Src/usbd_composite.c **** #pragma data_alignment = 4
 171:Middlewares/Third_Party/AL94_USB_Composite/COMPOSITE/Class/COMPOSITE/Src/usbd_composite.c **** #endif
 172:Middlewares/Third_Party/AL94_USB_Composite/COMPOSITE/Class/COMPOSITE/Src/usbd_composite.c **** /* USB Standard Device Descriptor */
 173:Middlewares/Third_Party/AL94_USB_Composite/COMPOSITE/Class/COMPOSITE/Src/usbd_composite.c **** __ALIGN_BEGIN static uint8_t USBD_COMPOSITE_DeviceQualifierDesc[USB_LEN_DEV_QUALIFIER_DESC] __ALIGN
 174:Middlewares/Third_Party/AL94_USB_Composite/COMPOSITE/Class/COMPOSITE/Src/usbd_composite.c ****     {
 175:Middlewares/Third_Party/AL94_USB_Composite/COMPOSITE/Class/COMPOSITE/Src/usbd_composite.c ****         USB_LEN_DEV_QUALIFIER_DESC,
 176:Middlewares/Third_Party/AL94_USB_Composite/COMPOSITE/Class/COMPOSITE/Src/usbd_composite.c ****         USB_DESC_TYPE_DEVICE_QUALIFIER,
 177:Middlewares/Third_Party/AL94_USB_Composite/COMPOSITE/Class/COMPOSITE/Src/usbd_composite.c ****         0x00,
 178:Middlewares/Third_Party/AL94_USB_Composite/COMPOSITE/Class/COMPOSITE/Src/usbd_composite.c ****         0x02,
 179:Middlewares/Third_Party/AL94_USB_Composite/COMPOSITE/Class/COMPOSITE/Src/usbd_composite.c ****         0xEF,
 180:Middlewares/Third_Party/AL94_USB_Composite/COMPOSITE/Class/COMPOSITE/Src/usbd_composite.c ****         0x02,
 181:Middlewares/Third_Party/AL94_USB_Composite/COMPOSITE/Class/COMPOSITE/Src/usbd_composite.c ****         0x01,
 182:Middlewares/Third_Party/AL94_USB_Composite/COMPOSITE/Class/COMPOSITE/Src/usbd_composite.c ****         0x40,
 183:Middlewares/Third_Party/AL94_USB_Composite/COMPOSITE/Class/COMPOSITE/Src/usbd_composite.c ****         0x01,
 184:Middlewares/Third_Party/AL94_USB_Composite/COMPOSITE/Class/COMPOSITE/Src/usbd_composite.c ****         0x00,
 185:Middlewares/Third_Party/AL94_USB_Composite/COMPOSITE/Class/COMPOSITE/Src/usbd_composite.c **** };
 186:Middlewares/Third_Party/AL94_USB_Composite/COMPOSITE/Class/COMPOSITE/Src/usbd_composite.c **** 
 187:Middlewares/Third_Party/AL94_USB_Composite/COMPOSITE/Class/COMPOSITE/Src/usbd_composite.c **** /**
 188:Middlewares/Third_Party/AL94_USB_Composite/COMPOSITE/Class/COMPOSITE/Src/usbd_composite.c ****   * @}
 189:Middlewares/Third_Party/AL94_USB_Composite/COMPOSITE/Class/COMPOSITE/Src/usbd_composite.c ****   */
 190:Middlewares/Third_Party/AL94_USB_Composite/COMPOSITE/Class/COMPOSITE/Src/usbd_composite.c **** 
 191:Middlewares/Third_Party/AL94_USB_Composite/COMPOSITE/Class/COMPOSITE/Src/usbd_composite.c **** /** @defgroup USBD_COMPOSITE_Private_Functions
 192:Middlewares/Third_Party/AL94_USB_Composite/COMPOSITE/Class/COMPOSITE/Src/usbd_composite.c ****   * @{
 193:Middlewares/Third_Party/AL94_USB_Composite/COMPOSITE/Class/COMPOSITE/Src/usbd_composite.c ****   */
 194:Middlewares/Third_Party/AL94_USB_Composite/COMPOSITE/Class/COMPOSITE/Src/usbd_composite.c **** 
 195:Middlewares/Third_Party/AL94_USB_Composite/COMPOSITE/Class/COMPOSITE/Src/usbd_composite.c **** /**
 196:Middlewares/Third_Party/AL94_USB_Composite/COMPOSITE/Class/COMPOSITE/Src/usbd_composite.c ****   * @brief  USBD_COMPOSITE_Init
 197:Middlewares/Third_Party/AL94_USB_Composite/COMPOSITE/Class/COMPOSITE/Src/usbd_composite.c ****   *         Initialize the COMPOSITE interface
 198:Middlewares/Third_Party/AL94_USB_Composite/COMPOSITE/Class/COMPOSITE/Src/usbd_composite.c ****   * @param  pdev: device instance
 199:Middlewares/Third_Party/AL94_USB_Composite/COMPOSITE/Class/COMPOSITE/Src/usbd_composite.c ****   * @param  cfgidx: Configuration index
 200:Middlewares/Third_Party/AL94_USB_Composite/COMPOSITE/Class/COMPOSITE/Src/usbd_composite.c ****   * @retval status
 201:Middlewares/Third_Party/AL94_USB_Composite/COMPOSITE/Class/COMPOSITE/Src/usbd_composite.c ****   */
ARM GAS  /tmp/cc5avDBI.s 			page 5


 202:Middlewares/Third_Party/AL94_USB_Composite/COMPOSITE/Class/COMPOSITE/Src/usbd_composite.c **** static uint8_t USBD_COMPOSITE_Init(USBD_HandleTypeDef *pdev, uint8_t cfgidx)
 203:Middlewares/Third_Party/AL94_USB_Composite/COMPOSITE/Class/COMPOSITE/Src/usbd_composite.c **** {
  29              		.loc 1 203 1 view -0
  30              		.cfi_startproc
  31              		@ args = 0, pretend = 0, frame = 0
  32              		@ frame_needed = 0, uses_anonymous_args = 0
  33              		.loc 1 203 1 is_stmt 0 view .LVU1
  34 0000 38B5     		push	{r3, r4, r5, lr}
  35              		.cfi_def_cfa_offset 16
  36              		.cfi_offset 3, -16
  37              		.cfi_offset 4, -12
  38              		.cfi_offset 5, -8
  39              		.cfi_offset 14, -4
  40 0002 0446     		mov	r4, r0
  41 0004 0D46     		mov	r5, r1
 204:Middlewares/Third_Party/AL94_USB_Composite/COMPOSITE/Class/COMPOSITE/Src/usbd_composite.c **** #if (USBD_USE_CDC_ACM == 1)
 205:Middlewares/Third_Party/AL94_USB_Composite/COMPOSITE/Class/COMPOSITE/Src/usbd_composite.c ****   USBD_CDC_ACM.Init(pdev, cfgidx);
  42              		.loc 1 205 3 is_stmt 1 view .LVU2
  43              		.loc 1 205 15 is_stmt 0 view .LVU3
  44 0006 074B     		ldr	r3, .L3
  45 0008 1B68     		ldr	r3, [r3]
  46              		.loc 1 205 3 view .LVU4
  47 000a 9847     		blx	r3
  48              	.LVL1:
 206:Middlewares/Third_Party/AL94_USB_Composite/COMPOSITE/Class/COMPOSITE/Src/usbd_composite.c **** #endif
 207:Middlewares/Third_Party/AL94_USB_Composite/COMPOSITE/Class/COMPOSITE/Src/usbd_composite.c **** #if (USBD_USE_CDC_ECM == 1)
 208:Middlewares/Third_Party/AL94_USB_Composite/COMPOSITE/Class/COMPOSITE/Src/usbd_composite.c ****   USBD_CDC_ECM.Init(pdev, cfgidx);
 209:Middlewares/Third_Party/AL94_USB_Composite/COMPOSITE/Class/COMPOSITE/Src/usbd_composite.c **** #endif
 210:Middlewares/Third_Party/AL94_USB_Composite/COMPOSITE/Class/COMPOSITE/Src/usbd_composite.c **** #if (USBD_USE_CDC_RNDIS == 1)
 211:Middlewares/Third_Party/AL94_USB_Composite/COMPOSITE/Class/COMPOSITE/Src/usbd_composite.c ****   USBD_CDC_RNDIS.Init(pdev, cfgidx);
 212:Middlewares/Third_Party/AL94_USB_Composite/COMPOSITE/Class/COMPOSITE/Src/usbd_composite.c **** #endif
 213:Middlewares/Third_Party/AL94_USB_Composite/COMPOSITE/Class/COMPOSITE/Src/usbd_composite.c **** #if (USBD_USE_HID_MOUSE == 1)
 214:Middlewares/Third_Party/AL94_USB_Composite/COMPOSITE/Class/COMPOSITE/Src/usbd_composite.c ****   USBD_HID_MOUSE.Init(pdev, cfgidx);
  49              		.loc 1 214 3 is_stmt 1 view .LVU5
  50              		.loc 1 214 17 is_stmt 0 view .LVU6
  51 000c 064B     		ldr	r3, .L3+4
  52 000e 1B68     		ldr	r3, [r3]
  53              		.loc 1 214 3 view .LVU7
  54 0010 2946     		mov	r1, r5
  55 0012 2046     		mov	r0, r4
  56 0014 9847     		blx	r3
  57              	.LVL2:
 215:Middlewares/Third_Party/AL94_USB_Composite/COMPOSITE/Class/COMPOSITE/Src/usbd_composite.c **** #endif
 216:Middlewares/Third_Party/AL94_USB_Composite/COMPOSITE/Class/COMPOSITE/Src/usbd_composite.c **** #if (USBD_USE_HID_KEYBOARD == 1)
 217:Middlewares/Third_Party/AL94_USB_Composite/COMPOSITE/Class/COMPOSITE/Src/usbd_composite.c ****   USBD_HID_KEYBOARD.Init(pdev, cfgidx);
  58              		.loc 1 217 3 is_stmt 1 view .LVU8
  59              		.loc 1 217 20 is_stmt 0 view .LVU9
  60 0016 054B     		ldr	r3, .L3+8
  61 0018 1B68     		ldr	r3, [r3]
  62              		.loc 1 217 3 view .LVU10
  63 001a 2946     		mov	r1, r5
  64 001c 2046     		mov	r0, r4
  65 001e 9847     		blx	r3
  66              	.LVL3:
 218:Middlewares/Third_Party/AL94_USB_Composite/COMPOSITE/Class/COMPOSITE/Src/usbd_composite.c **** #endif
 219:Middlewares/Third_Party/AL94_USB_Composite/COMPOSITE/Class/COMPOSITE/Src/usbd_composite.c **** #if (USBD_USE_HID_CUSTOM == 1)
 220:Middlewares/Third_Party/AL94_USB_Composite/COMPOSITE/Class/COMPOSITE/Src/usbd_composite.c ****   USBD_HID_CUSTOM.Init(pdev, cfgidx);
ARM GAS  /tmp/cc5avDBI.s 			page 6


 221:Middlewares/Third_Party/AL94_USB_Composite/COMPOSITE/Class/COMPOSITE/Src/usbd_composite.c **** #endif
 222:Middlewares/Third_Party/AL94_USB_Composite/COMPOSITE/Class/COMPOSITE/Src/usbd_composite.c **** #if (USBD_USE_UAC_MIC == 1)
 223:Middlewares/Third_Party/AL94_USB_Composite/COMPOSITE/Class/COMPOSITE/Src/usbd_composite.c ****   USBD_AUDIO_MIC.Init(pdev, cfgidx);
 224:Middlewares/Third_Party/AL94_USB_Composite/COMPOSITE/Class/COMPOSITE/Src/usbd_composite.c **** #endif
 225:Middlewares/Third_Party/AL94_USB_Composite/COMPOSITE/Class/COMPOSITE/Src/usbd_composite.c **** #if (USBD_USE_UAC_SPKR == 1)
 226:Middlewares/Third_Party/AL94_USB_Composite/COMPOSITE/Class/COMPOSITE/Src/usbd_composite.c ****   USBD_AUDIO_SPKR.Init(pdev, cfgidx);
 227:Middlewares/Third_Party/AL94_USB_Composite/COMPOSITE/Class/COMPOSITE/Src/usbd_composite.c **** #endif
 228:Middlewares/Third_Party/AL94_USB_Composite/COMPOSITE/Class/COMPOSITE/Src/usbd_composite.c **** #if (USBD_USE_UVC == 1)
 229:Middlewares/Third_Party/AL94_USB_Composite/COMPOSITE/Class/COMPOSITE/Src/usbd_composite.c ****   USBD_VIDEO.Init(pdev, cfgidx);
 230:Middlewares/Third_Party/AL94_USB_Composite/COMPOSITE/Class/COMPOSITE/Src/usbd_composite.c **** #endif
 231:Middlewares/Third_Party/AL94_USB_Composite/COMPOSITE/Class/COMPOSITE/Src/usbd_composite.c **** #if (USBD_USE_MSC == 1)
 232:Middlewares/Third_Party/AL94_USB_Composite/COMPOSITE/Class/COMPOSITE/Src/usbd_composite.c ****   USBD_MSC.Init(pdev, cfgidx);
 233:Middlewares/Third_Party/AL94_USB_Composite/COMPOSITE/Class/COMPOSITE/Src/usbd_composite.c **** #endif
 234:Middlewares/Third_Party/AL94_USB_Composite/COMPOSITE/Class/COMPOSITE/Src/usbd_composite.c **** #if (USBD_USE_DFU == 1)
 235:Middlewares/Third_Party/AL94_USB_Composite/COMPOSITE/Class/COMPOSITE/Src/usbd_composite.c ****   USBD_DFU.Init(pdev, cfgidx);
 236:Middlewares/Third_Party/AL94_USB_Composite/COMPOSITE/Class/COMPOSITE/Src/usbd_composite.c **** #endif
 237:Middlewares/Third_Party/AL94_USB_Composite/COMPOSITE/Class/COMPOSITE/Src/usbd_composite.c **** #if (USBD_USE_PRNTR == 1)
 238:Middlewares/Third_Party/AL94_USB_Composite/COMPOSITE/Class/COMPOSITE/Src/usbd_composite.c ****   USBD_PRNT.Init(pdev, cfgidx);
 239:Middlewares/Third_Party/AL94_USB_Composite/COMPOSITE/Class/COMPOSITE/Src/usbd_composite.c **** #endif
 240:Middlewares/Third_Party/AL94_USB_Composite/COMPOSITE/Class/COMPOSITE/Src/usbd_composite.c **** 
 241:Middlewares/Third_Party/AL94_USB_Composite/COMPOSITE/Class/COMPOSITE/Src/usbd_composite.c ****   return (uint8_t)USBD_OK;
  67              		.loc 1 241 3 is_stmt 1 view .LVU11
 242:Middlewares/Third_Party/AL94_USB_Composite/COMPOSITE/Class/COMPOSITE/Src/usbd_composite.c **** }
  68              		.loc 1 242 1 is_stmt 0 view .LVU12
  69 0020 0020     		movs	r0, #0
  70 0022 38BD     		pop	{r3, r4, r5, pc}
  71              	.LVL4:
  72              	.L4:
  73              		.loc 1 242 1 view .LVU13
  74              		.align	2
  75              	.L3:
  76 0024 00000000 		.word	USBD_CDC_ACM
  77 0028 00000000 		.word	USBD_HID_MOUSE
  78 002c 00000000 		.word	USBD_HID_KEYBOARD
  79              		.cfi_endproc
  80              	.LFE333:
  82              		.section	.text.USBD_COMPOSITE_DeInit,"ax",%progbits
  83              		.align	1
  84              		.syntax unified
  85              		.thumb
  86              		.thumb_func
  88              	USBD_COMPOSITE_DeInit:
  89              	.LVL5:
  90              	.LFB334:
 243:Middlewares/Third_Party/AL94_USB_Composite/COMPOSITE/Class/COMPOSITE/Src/usbd_composite.c **** 
 244:Middlewares/Third_Party/AL94_USB_Composite/COMPOSITE/Class/COMPOSITE/Src/usbd_composite.c **** /**
 245:Middlewares/Third_Party/AL94_USB_Composite/COMPOSITE/Class/COMPOSITE/Src/usbd_composite.c ****   * @brief  USBD_COMPOSITE_Init
 246:Middlewares/Third_Party/AL94_USB_Composite/COMPOSITE/Class/COMPOSITE/Src/usbd_composite.c ****   *         DeInitialize the COMPOSITE layer
 247:Middlewares/Third_Party/AL94_USB_Composite/COMPOSITE/Class/COMPOSITE/Src/usbd_composite.c ****   * @param  pdev: device instance
 248:Middlewares/Third_Party/AL94_USB_Composite/COMPOSITE/Class/COMPOSITE/Src/usbd_composite.c ****   * @param  cfgidx: Configuration index
 249:Middlewares/Third_Party/AL94_USB_Composite/COMPOSITE/Class/COMPOSITE/Src/usbd_composite.c ****   * @retval status
 250:Middlewares/Third_Party/AL94_USB_Composite/COMPOSITE/Class/COMPOSITE/Src/usbd_composite.c ****   */
 251:Middlewares/Third_Party/AL94_USB_Composite/COMPOSITE/Class/COMPOSITE/Src/usbd_composite.c **** static uint8_t USBD_COMPOSITE_DeInit(USBD_HandleTypeDef *pdev, uint8_t cfgidx)
 252:Middlewares/Third_Party/AL94_USB_Composite/COMPOSITE/Class/COMPOSITE/Src/usbd_composite.c **** {
  91              		.loc 1 252 1 is_stmt 1 view -0
  92              		.cfi_startproc
  93              		@ args = 0, pretend = 0, frame = 0
ARM GAS  /tmp/cc5avDBI.s 			page 7


  94              		@ frame_needed = 0, uses_anonymous_args = 0
  95              		.loc 1 252 1 is_stmt 0 view .LVU15
  96 0000 38B5     		push	{r3, r4, r5, lr}
  97              		.cfi_def_cfa_offset 16
  98              		.cfi_offset 3, -16
  99              		.cfi_offset 4, -12
 100              		.cfi_offset 5, -8
 101              		.cfi_offset 14, -4
 102 0002 0446     		mov	r4, r0
 103 0004 0D46     		mov	r5, r1
 253:Middlewares/Third_Party/AL94_USB_Composite/COMPOSITE/Class/COMPOSITE/Src/usbd_composite.c **** #if (USBD_USE_CDC_ACM == 1)
 254:Middlewares/Third_Party/AL94_USB_Composite/COMPOSITE/Class/COMPOSITE/Src/usbd_composite.c ****   USBD_CDC_ACM.DeInit(pdev, cfgidx);
 104              		.loc 1 254 3 is_stmt 1 view .LVU16
 105              		.loc 1 254 15 is_stmt 0 view .LVU17
 106 0006 074B     		ldr	r3, .L7
 107 0008 5B68     		ldr	r3, [r3, #4]
 108              		.loc 1 254 3 view .LVU18
 109 000a 9847     		blx	r3
 110              	.LVL6:
 255:Middlewares/Third_Party/AL94_USB_Composite/COMPOSITE/Class/COMPOSITE/Src/usbd_composite.c **** #endif
 256:Middlewares/Third_Party/AL94_USB_Composite/COMPOSITE/Class/COMPOSITE/Src/usbd_composite.c **** #if (USBD_USE_CDC_ECM == 1)
 257:Middlewares/Third_Party/AL94_USB_Composite/COMPOSITE/Class/COMPOSITE/Src/usbd_composite.c ****   USBD_CDC_ECM.DeInit(pdev, cfgidx);
 258:Middlewares/Third_Party/AL94_USB_Composite/COMPOSITE/Class/COMPOSITE/Src/usbd_composite.c **** #endif
 259:Middlewares/Third_Party/AL94_USB_Composite/COMPOSITE/Class/COMPOSITE/Src/usbd_composite.c **** #if (USBD_USE_CDC_RNDIS == 1)
 260:Middlewares/Third_Party/AL94_USB_Composite/COMPOSITE/Class/COMPOSITE/Src/usbd_composite.c ****   USBD_CDC_RNDIS.DeInit(pdev, cfgidx);
 261:Middlewares/Third_Party/AL94_USB_Composite/COMPOSITE/Class/COMPOSITE/Src/usbd_composite.c **** #endif
 262:Middlewares/Third_Party/AL94_USB_Composite/COMPOSITE/Class/COMPOSITE/Src/usbd_composite.c **** #if (USBD_USE_HID_MOUSE == 1)
 263:Middlewares/Third_Party/AL94_USB_Composite/COMPOSITE/Class/COMPOSITE/Src/usbd_composite.c ****   USBD_HID_MOUSE.DeInit(pdev, cfgidx);
 111              		.loc 1 263 3 is_stmt 1 view .LVU19
 112              		.loc 1 263 17 is_stmt 0 view .LVU20
 113 000c 064B     		ldr	r3, .L7+4
 114 000e 5B68     		ldr	r3, [r3, #4]
 115              		.loc 1 263 3 view .LVU21
 116 0010 2946     		mov	r1, r5
 117 0012 2046     		mov	r0, r4
 118 0014 9847     		blx	r3
 119              	.LVL7:
 264:Middlewares/Third_Party/AL94_USB_Composite/COMPOSITE/Class/COMPOSITE/Src/usbd_composite.c **** #endif
 265:Middlewares/Third_Party/AL94_USB_Composite/COMPOSITE/Class/COMPOSITE/Src/usbd_composite.c **** #if (USBD_USE_HID_KEYBOARD == 1)
 266:Middlewares/Third_Party/AL94_USB_Composite/COMPOSITE/Class/COMPOSITE/Src/usbd_composite.c ****   USBD_HID_KEYBOARD.DeInit(pdev, cfgidx);
 120              		.loc 1 266 3 is_stmt 1 view .LVU22
 121              		.loc 1 266 20 is_stmt 0 view .LVU23
 122 0016 054B     		ldr	r3, .L7+8
 123 0018 5B68     		ldr	r3, [r3, #4]
 124              		.loc 1 266 3 view .LVU24
 125 001a 2946     		mov	r1, r5
 126 001c 2046     		mov	r0, r4
 127 001e 9847     		blx	r3
 128              	.LVL8:
 267:Middlewares/Third_Party/AL94_USB_Composite/COMPOSITE/Class/COMPOSITE/Src/usbd_composite.c **** #endif
 268:Middlewares/Third_Party/AL94_USB_Composite/COMPOSITE/Class/COMPOSITE/Src/usbd_composite.c **** #if (USBD_USE_HID_CUSTOM == 1)
 269:Middlewares/Third_Party/AL94_USB_Composite/COMPOSITE/Class/COMPOSITE/Src/usbd_composite.c ****   USBD_HID_CUSTOM.DeInit(pdev, cfgidx);
 270:Middlewares/Third_Party/AL94_USB_Composite/COMPOSITE/Class/COMPOSITE/Src/usbd_composite.c **** #endif
 271:Middlewares/Third_Party/AL94_USB_Composite/COMPOSITE/Class/COMPOSITE/Src/usbd_composite.c **** #if (USBD_USE_UAC_MIC == 1)
 272:Middlewares/Third_Party/AL94_USB_Composite/COMPOSITE/Class/COMPOSITE/Src/usbd_composite.c ****   USBD_AUDIO_MIC.DeInit(pdev, cfgidx);
 273:Middlewares/Third_Party/AL94_USB_Composite/COMPOSITE/Class/COMPOSITE/Src/usbd_composite.c **** #endif
 274:Middlewares/Third_Party/AL94_USB_Composite/COMPOSITE/Class/COMPOSITE/Src/usbd_composite.c **** #if (USBD_USE_UAC_SPKR == 1)
ARM GAS  /tmp/cc5avDBI.s 			page 8


 275:Middlewares/Third_Party/AL94_USB_Composite/COMPOSITE/Class/COMPOSITE/Src/usbd_composite.c ****   USBD_AUDIO_SPKR.DeInit(pdev, cfgidx);
 276:Middlewares/Third_Party/AL94_USB_Composite/COMPOSITE/Class/COMPOSITE/Src/usbd_composite.c **** #endif
 277:Middlewares/Third_Party/AL94_USB_Composite/COMPOSITE/Class/COMPOSITE/Src/usbd_composite.c **** #if (USBD_USE_UVC == 1)
 278:Middlewares/Third_Party/AL94_USB_Composite/COMPOSITE/Class/COMPOSITE/Src/usbd_composite.c ****   USBD_VIDEO.DeInit(pdev, cfgidx);
 279:Middlewares/Third_Party/AL94_USB_Composite/COMPOSITE/Class/COMPOSITE/Src/usbd_composite.c **** #endif
 280:Middlewares/Third_Party/AL94_USB_Composite/COMPOSITE/Class/COMPOSITE/Src/usbd_composite.c **** #if (USBD_USE_MSC == 1)
 281:Middlewares/Third_Party/AL94_USB_Composite/COMPOSITE/Class/COMPOSITE/Src/usbd_composite.c ****   USBD_MSC.DeInit(pdev, cfgidx);
 282:Middlewares/Third_Party/AL94_USB_Composite/COMPOSITE/Class/COMPOSITE/Src/usbd_composite.c **** #endif
 283:Middlewares/Third_Party/AL94_USB_Composite/COMPOSITE/Class/COMPOSITE/Src/usbd_composite.c **** #if (USBD_USE_DFU == 1)
 284:Middlewares/Third_Party/AL94_USB_Composite/COMPOSITE/Class/COMPOSITE/Src/usbd_composite.c ****   USBD_DFU.DeInit(pdev, cfgidx);
 285:Middlewares/Third_Party/AL94_USB_Composite/COMPOSITE/Class/COMPOSITE/Src/usbd_composite.c **** #endif
 286:Middlewares/Third_Party/AL94_USB_Composite/COMPOSITE/Class/COMPOSITE/Src/usbd_composite.c **** #if (USBD_USE_PRNTR == 1)
 287:Middlewares/Third_Party/AL94_USB_Composite/COMPOSITE/Class/COMPOSITE/Src/usbd_composite.c ****   USBD_PRNT.DeInit(pdev, cfgidx);
 288:Middlewares/Third_Party/AL94_USB_Composite/COMPOSITE/Class/COMPOSITE/Src/usbd_composite.c **** #endif
 289:Middlewares/Third_Party/AL94_USB_Composite/COMPOSITE/Class/COMPOSITE/Src/usbd_composite.c **** 
 290:Middlewares/Third_Party/AL94_USB_Composite/COMPOSITE/Class/COMPOSITE/Src/usbd_composite.c ****   return (uint8_t)USBD_OK;
 129              		.loc 1 290 3 is_stmt 1 view .LVU25
 291:Middlewares/Third_Party/AL94_USB_Composite/COMPOSITE/Class/COMPOSITE/Src/usbd_composite.c **** }
 130              		.loc 1 291 1 is_stmt 0 view .LVU26
 131 0020 0020     		movs	r0, #0
 132 0022 38BD     		pop	{r3, r4, r5, pc}
 133              	.LVL9:
 134              	.L8:
 135              		.loc 1 291 1 view .LVU27
 136              		.align	2
 137              	.L7:
 138 0024 00000000 		.word	USBD_CDC_ACM
 139 0028 00000000 		.word	USBD_HID_MOUSE
 140 002c 00000000 		.word	USBD_HID_KEYBOARD
 141              		.cfi_endproc
 142              	.LFE334:
 144              		.section	.text.USBD_COMPOSITE_Setup,"ax",%progbits
 145              		.align	1
 146              		.syntax unified
 147              		.thumb
 148              		.thumb_func
 150              	USBD_COMPOSITE_Setup:
 151              	.LVL10:
 152              	.LFB335:
 292:Middlewares/Third_Party/AL94_USB_Composite/COMPOSITE/Class/COMPOSITE/Src/usbd_composite.c **** 
 293:Middlewares/Third_Party/AL94_USB_Composite/COMPOSITE/Class/COMPOSITE/Src/usbd_composite.c **** /**
 294:Middlewares/Third_Party/AL94_USB_Composite/COMPOSITE/Class/COMPOSITE/Src/usbd_composite.c ****   * @brief  USBD_COMPOSITE_Setup
 295:Middlewares/Third_Party/AL94_USB_Composite/COMPOSITE/Class/COMPOSITE/Src/usbd_composite.c ****   *         Handle the COMPOSITE specific requests
 296:Middlewares/Third_Party/AL94_USB_Composite/COMPOSITE/Class/COMPOSITE/Src/usbd_composite.c ****   * @param  pdev: instance
 297:Middlewares/Third_Party/AL94_USB_Composite/COMPOSITE/Class/COMPOSITE/Src/usbd_composite.c ****   * @param  req: usb requests
 298:Middlewares/Third_Party/AL94_USB_Composite/COMPOSITE/Class/COMPOSITE/Src/usbd_composite.c ****   * @retval status
 299:Middlewares/Third_Party/AL94_USB_Composite/COMPOSITE/Class/COMPOSITE/Src/usbd_composite.c ****   */
 300:Middlewares/Third_Party/AL94_USB_Composite/COMPOSITE/Class/COMPOSITE/Src/usbd_composite.c **** static uint8_t USBD_COMPOSITE_Setup(USBD_HandleTypeDef *pdev,
 301:Middlewares/Third_Party/AL94_USB_Composite/COMPOSITE/Class/COMPOSITE/Src/usbd_composite.c ****                                     USBD_SetupReqTypedef *req)
 302:Middlewares/Third_Party/AL94_USB_Composite/COMPOSITE/Class/COMPOSITE/Src/usbd_composite.c **** {
 153              		.loc 1 302 1 is_stmt 1 view -0
 154              		.cfi_startproc
 155              		@ args = 0, pretend = 0, frame = 0
 156              		@ frame_needed = 0, uses_anonymous_args = 0
 157              		.loc 1 302 1 is_stmt 0 view .LVU29
 158 0000 10B5     		push	{r4, lr}
 159              		.cfi_def_cfa_offset 8
ARM GAS  /tmp/cc5avDBI.s 			page 9


 160              		.cfi_offset 4, -8
 161              		.cfi_offset 14, -4
 303:Middlewares/Third_Party/AL94_USB_Composite/COMPOSITE/Class/COMPOSITE/Src/usbd_composite.c **** #if (USBD_USE_CDC_ACM == 1)
 304:Middlewares/Third_Party/AL94_USB_Composite/COMPOSITE/Class/COMPOSITE/Src/usbd_composite.c ****   for (uint8_t i = 0; i < USBD_CDC_ACM_COUNT; i++)
 162              		.loc 1 304 3 is_stmt 1 view .LVU30
 163              	.LBB2:
 164              		.loc 1 304 8 view .LVU31
 165              	.LVL11:
 166              		.loc 1 304 16 is_stmt 0 view .LVU32
 167 0002 0023     		movs	r3, #0
 168              	.LVL12:
 169              	.L10:
 170              		.loc 1 304 25 is_stmt 1 discriminator 1 view .LVU33
 171 0004 53B1     		cbz	r3, .L14
 172              	.LBE2:
 305:Middlewares/Third_Party/AL94_USB_Composite/COMPOSITE/Class/COMPOSITE/Src/usbd_composite.c ****   {
 306:Middlewares/Third_Party/AL94_USB_Composite/COMPOSITE/Class/COMPOSITE/Src/usbd_composite.c ****     if (LOBYTE(req->wIndex) == CDC_CMD_ITF_NBR[i] || LOBYTE(req->wIndex) == CDC_COM_ITF_NBR[i])
 307:Middlewares/Third_Party/AL94_USB_Composite/COMPOSITE/Class/COMPOSITE/Src/usbd_composite.c ****     {
 308:Middlewares/Third_Party/AL94_USB_Composite/COMPOSITE/Class/COMPOSITE/Src/usbd_composite.c ****       return USBD_CDC_ACM.Setup(pdev, req);
 309:Middlewares/Third_Party/AL94_USB_Composite/COMPOSITE/Class/COMPOSITE/Src/usbd_composite.c ****     }
 310:Middlewares/Third_Party/AL94_USB_Composite/COMPOSITE/Class/COMPOSITE/Src/usbd_composite.c ****   }
 311:Middlewares/Third_Party/AL94_USB_Composite/COMPOSITE/Class/COMPOSITE/Src/usbd_composite.c **** #endif
 312:Middlewares/Third_Party/AL94_USB_Composite/COMPOSITE/Class/COMPOSITE/Src/usbd_composite.c **** #if (USBD_USE_CDC_ECM == 1)
 313:Middlewares/Third_Party/AL94_USB_Composite/COMPOSITE/Class/COMPOSITE/Src/usbd_composite.c ****   if (LOBYTE(req->wIndex) == CDC_ECM_CMD_ITF_NBR || LOBYTE(req->wIndex) == CDC_ECM_COM_ITF_NBR)
 314:Middlewares/Third_Party/AL94_USB_Composite/COMPOSITE/Class/COMPOSITE/Src/usbd_composite.c ****   {
 315:Middlewares/Third_Party/AL94_USB_Composite/COMPOSITE/Class/COMPOSITE/Src/usbd_composite.c ****     return USBD_CDC_ECM.Setup(pdev, req);
 316:Middlewares/Third_Party/AL94_USB_Composite/COMPOSITE/Class/COMPOSITE/Src/usbd_composite.c ****   }
 317:Middlewares/Third_Party/AL94_USB_Composite/COMPOSITE/Class/COMPOSITE/Src/usbd_composite.c **** #endif
 318:Middlewares/Third_Party/AL94_USB_Composite/COMPOSITE/Class/COMPOSITE/Src/usbd_composite.c **** #if (USBD_USE_CDC_RNDIS == 1)
 319:Middlewares/Third_Party/AL94_USB_Composite/COMPOSITE/Class/COMPOSITE/Src/usbd_composite.c ****   if (LOBYTE(req->wIndex) == CDC_RNDIS_CMD_ITF_NBR || LOBYTE(req->wIndex) == CDC_RNDIS_COM_ITF_NBR)
 320:Middlewares/Third_Party/AL94_USB_Composite/COMPOSITE/Class/COMPOSITE/Src/usbd_composite.c ****   {
 321:Middlewares/Third_Party/AL94_USB_Composite/COMPOSITE/Class/COMPOSITE/Src/usbd_composite.c ****     return USBD_CDC_RNDIS.Setup(pdev, req);
 322:Middlewares/Third_Party/AL94_USB_Composite/COMPOSITE/Class/COMPOSITE/Src/usbd_composite.c ****   }
 323:Middlewares/Third_Party/AL94_USB_Composite/COMPOSITE/Class/COMPOSITE/Src/usbd_composite.c **** #endif
 324:Middlewares/Third_Party/AL94_USB_Composite/COMPOSITE/Class/COMPOSITE/Src/usbd_composite.c **** #if (USBD_USE_HID_MOUSE == 1)
 325:Middlewares/Third_Party/AL94_USB_Composite/COMPOSITE/Class/COMPOSITE/Src/usbd_composite.c ****   if (LOBYTE(req->wIndex) == HID_MOUSE_ITF_NBR)
 173              		.loc 1 325 3 view .LVU34
 174              		.loc 1 325 7 is_stmt 0 view .LVU35
 175 0006 0B79     		ldrb	r3, [r1, #4]	@ zero_extendqisi2
 176              	.LVL13:
 177              		.loc 1 325 27 view .LVU36
 178 0008 114A     		ldr	r2, .L20
 179 000a 1278     		ldrb	r2, [r2]	@ zero_extendqisi2
 180              		.loc 1 325 6 view .LVU37
 181 000c 9342     		cmp	r3, r2
 182 000e 16D0     		beq	.L18
 326:Middlewares/Third_Party/AL94_USB_Composite/COMPOSITE/Class/COMPOSITE/Src/usbd_composite.c ****   {
 327:Middlewares/Third_Party/AL94_USB_Composite/COMPOSITE/Class/COMPOSITE/Src/usbd_composite.c ****     return USBD_HID_MOUSE.Setup(pdev, req);
 328:Middlewares/Third_Party/AL94_USB_Composite/COMPOSITE/Class/COMPOSITE/Src/usbd_composite.c ****   }
 329:Middlewares/Third_Party/AL94_USB_Composite/COMPOSITE/Class/COMPOSITE/Src/usbd_composite.c **** #endif
 330:Middlewares/Third_Party/AL94_USB_Composite/COMPOSITE/Class/COMPOSITE/Src/usbd_composite.c **** #if (USBD_USE_HID_KEYBOARD == 1)
 331:Middlewares/Third_Party/AL94_USB_Composite/COMPOSITE/Class/COMPOSITE/Src/usbd_composite.c ****   if (LOBYTE(req->wIndex) == HID_KEYBOARD_ITF_NBR)
 183              		.loc 1 331 3 is_stmt 1 view .LVU38
 184              		.loc 1 331 27 is_stmt 0 view .LVU39
 185 0010 104A     		ldr	r2, .L20+4
 186 0012 1278     		ldrb	r2, [r2]	@ zero_extendqisi2
 187              		.loc 1 331 6 view .LVU40
ARM GAS  /tmp/cc5avDBI.s 			page 10


 188 0014 9342     		cmp	r3, r2
 189 0016 16D0     		beq	.L19
 332:Middlewares/Third_Party/AL94_USB_Composite/COMPOSITE/Class/COMPOSITE/Src/usbd_composite.c ****   {
 333:Middlewares/Third_Party/AL94_USB_Composite/COMPOSITE/Class/COMPOSITE/Src/usbd_composite.c ****     return USBD_HID_KEYBOARD.Setup(pdev, req);
 334:Middlewares/Third_Party/AL94_USB_Composite/COMPOSITE/Class/COMPOSITE/Src/usbd_composite.c ****   }
 335:Middlewares/Third_Party/AL94_USB_Composite/COMPOSITE/Class/COMPOSITE/Src/usbd_composite.c **** #endif
 336:Middlewares/Third_Party/AL94_USB_Composite/COMPOSITE/Class/COMPOSITE/Src/usbd_composite.c **** #if (USBD_USE_HID_CUSTOM == 1)
 337:Middlewares/Third_Party/AL94_USB_Composite/COMPOSITE/Class/COMPOSITE/Src/usbd_composite.c ****   if (LOBYTE(req->wIndex) == CUSTOM_HID_ITF_NBR)
 338:Middlewares/Third_Party/AL94_USB_Composite/COMPOSITE/Class/COMPOSITE/Src/usbd_composite.c ****   {
 339:Middlewares/Third_Party/AL94_USB_Composite/COMPOSITE/Class/COMPOSITE/Src/usbd_composite.c ****     return USBD_HID_CUSTOM.Setup(pdev, req);
 340:Middlewares/Third_Party/AL94_USB_Composite/COMPOSITE/Class/COMPOSITE/Src/usbd_composite.c ****   }
 341:Middlewares/Third_Party/AL94_USB_Composite/COMPOSITE/Class/COMPOSITE/Src/usbd_composite.c **** #endif
 342:Middlewares/Third_Party/AL94_USB_Composite/COMPOSITE/Class/COMPOSITE/Src/usbd_composite.c **** #if (USBD_USE_UAC_MIC == 1)
 343:Middlewares/Third_Party/AL94_USB_Composite/COMPOSITE/Class/COMPOSITE/Src/usbd_composite.c ****   if (LOBYTE(req->wIndex) == AUDIO_MIC_AC_ITF_NBR || LOBYTE(req->wIndex) == AUDIO_MIC_AS_ITF_NBR)
 344:Middlewares/Third_Party/AL94_USB_Composite/COMPOSITE/Class/COMPOSITE/Src/usbd_composite.c ****   {
 345:Middlewares/Third_Party/AL94_USB_Composite/COMPOSITE/Class/COMPOSITE/Src/usbd_composite.c ****     return USBD_AUDIO_MIC.Setup(pdev, req);
 346:Middlewares/Third_Party/AL94_USB_Composite/COMPOSITE/Class/COMPOSITE/Src/usbd_composite.c ****   }
 347:Middlewares/Third_Party/AL94_USB_Composite/COMPOSITE/Class/COMPOSITE/Src/usbd_composite.c **** #endif
 348:Middlewares/Third_Party/AL94_USB_Composite/COMPOSITE/Class/COMPOSITE/Src/usbd_composite.c **** #if (USBD_USE_UAC_SPKR == 1)
 349:Middlewares/Third_Party/AL94_USB_Composite/COMPOSITE/Class/COMPOSITE/Src/usbd_composite.c ****   if (LOBYTE(req->wIndex) == AUDIO_SPKR_AC_ITF_NBR || LOBYTE(req->wIndex) == AUDIO_SPKR_AS_ITF_NBR)
 350:Middlewares/Third_Party/AL94_USB_Composite/COMPOSITE/Class/COMPOSITE/Src/usbd_composite.c ****   {
 351:Middlewares/Third_Party/AL94_USB_Composite/COMPOSITE/Class/COMPOSITE/Src/usbd_composite.c ****     return USBD_AUDIO_SPKR.Setup(pdev, req);
 352:Middlewares/Third_Party/AL94_USB_Composite/COMPOSITE/Class/COMPOSITE/Src/usbd_composite.c ****   }
 353:Middlewares/Third_Party/AL94_USB_Composite/COMPOSITE/Class/COMPOSITE/Src/usbd_composite.c **** #endif
 354:Middlewares/Third_Party/AL94_USB_Composite/COMPOSITE/Class/COMPOSITE/Src/usbd_composite.c **** #if (USBD_USE_UVC == 1)
 355:Middlewares/Third_Party/AL94_USB_Composite/COMPOSITE/Class/COMPOSITE/Src/usbd_composite.c ****   if (LOBYTE(req->wIndex) == UVC_VC_IF_NUM || LOBYTE(req->wIndex) == UVC_VS_IF_NUM)
 356:Middlewares/Third_Party/AL94_USB_Composite/COMPOSITE/Class/COMPOSITE/Src/usbd_composite.c ****   {
 357:Middlewares/Third_Party/AL94_USB_Composite/COMPOSITE/Class/COMPOSITE/Src/usbd_composite.c ****     return USBD_VIDEO.Setup(pdev, req);
 358:Middlewares/Third_Party/AL94_USB_Composite/COMPOSITE/Class/COMPOSITE/Src/usbd_composite.c ****   }
 359:Middlewares/Third_Party/AL94_USB_Composite/COMPOSITE/Class/COMPOSITE/Src/usbd_composite.c **** #endif
 360:Middlewares/Third_Party/AL94_USB_Composite/COMPOSITE/Class/COMPOSITE/Src/usbd_composite.c **** #if (USBD_USE_MSC == 1)
 361:Middlewares/Third_Party/AL94_USB_Composite/COMPOSITE/Class/COMPOSITE/Src/usbd_composite.c ****   if (LOBYTE(req->wIndex) == MSC_ITF_NBR)
 362:Middlewares/Third_Party/AL94_USB_Composite/COMPOSITE/Class/COMPOSITE/Src/usbd_composite.c ****   {
 363:Middlewares/Third_Party/AL94_USB_Composite/COMPOSITE/Class/COMPOSITE/Src/usbd_composite.c ****     return USBD_MSC.Setup(pdev, req);
 364:Middlewares/Third_Party/AL94_USB_Composite/COMPOSITE/Class/COMPOSITE/Src/usbd_composite.c ****   }
 365:Middlewares/Third_Party/AL94_USB_Composite/COMPOSITE/Class/COMPOSITE/Src/usbd_composite.c **** #endif
 366:Middlewares/Third_Party/AL94_USB_Composite/COMPOSITE/Class/COMPOSITE/Src/usbd_composite.c **** #if (USBD_USE_DFU == 1)
 367:Middlewares/Third_Party/AL94_USB_Composite/COMPOSITE/Class/COMPOSITE/Src/usbd_composite.c ****   if (LOBYTE(req->wIndex) == DFU_ITF_NBR)
 368:Middlewares/Third_Party/AL94_USB_Composite/COMPOSITE/Class/COMPOSITE/Src/usbd_composite.c ****   {
 369:Middlewares/Third_Party/AL94_USB_Composite/COMPOSITE/Class/COMPOSITE/Src/usbd_composite.c ****     return USBD_DFU.Setup(pdev, req);
 370:Middlewares/Third_Party/AL94_USB_Composite/COMPOSITE/Class/COMPOSITE/Src/usbd_composite.c ****   }
 371:Middlewares/Third_Party/AL94_USB_Composite/COMPOSITE/Class/COMPOSITE/Src/usbd_composite.c **** #endif
 372:Middlewares/Third_Party/AL94_USB_Composite/COMPOSITE/Class/COMPOSITE/Src/usbd_composite.c **** #if (USBD_USE_PRNTR == 1)
 373:Middlewares/Third_Party/AL94_USB_Composite/COMPOSITE/Class/COMPOSITE/Src/usbd_composite.c ****   if (LOBYTE(req->wIndex) == PRNT_ITF_NBR)
 374:Middlewares/Third_Party/AL94_USB_Composite/COMPOSITE/Class/COMPOSITE/Src/usbd_composite.c ****   {
 375:Middlewares/Third_Party/AL94_USB_Composite/COMPOSITE/Class/COMPOSITE/Src/usbd_composite.c ****     USBD_PRNT.Setup(pdev, req);
 376:Middlewares/Third_Party/AL94_USB_Composite/COMPOSITE/Class/COMPOSITE/Src/usbd_composite.c ****   }
 377:Middlewares/Third_Party/AL94_USB_Composite/COMPOSITE/Class/COMPOSITE/Src/usbd_composite.c **** #endif
 378:Middlewares/Third_Party/AL94_USB_Composite/COMPOSITE/Class/COMPOSITE/Src/usbd_composite.c **** 
 379:Middlewares/Third_Party/AL94_USB_Composite/COMPOSITE/Class/COMPOSITE/Src/usbd_composite.c ****   return USBD_FAIL;
 190              		.loc 1 379 10 view .LVU41
 191 0018 0320     		movs	r0, #3
 192              	.LVL14:
 193              	.L13:
 380:Middlewares/Third_Party/AL94_USB_Composite/COMPOSITE/Class/COMPOSITE/Src/usbd_composite.c **** }
 194              		.loc 1 380 1 view .LVU42
 195 001a 10BD     		pop	{r4, pc}
ARM GAS  /tmp/cc5avDBI.s 			page 11


 196              	.LVL15:
 197              	.L14:
 198              	.LBB3:
 306:Middlewares/Third_Party/AL94_USB_Composite/COMPOSITE/Class/COMPOSITE/Src/usbd_composite.c ****     {
 199              		.loc 1 306 5 is_stmt 1 view .LVU43
 306:Middlewares/Third_Party/AL94_USB_Composite/COMPOSITE/Class/COMPOSITE/Src/usbd_composite.c ****     {
 200              		.loc 1 306 9 is_stmt 0 view .LVU44
 201 001c 0A79     		ldrb	r2, [r1, #4]	@ zero_extendqisi2
 306:Middlewares/Third_Party/AL94_USB_Composite/COMPOSITE/Class/COMPOSITE/Src/usbd_composite.c ****     {
 202              		.loc 1 306 47 view .LVU45
 203 001e 0E4C     		ldr	r4, .L20+8
 204 0020 14F803C0 		ldrb	ip, [r4, r3]	@ zero_extendqisi2
 306:Middlewares/Third_Party/AL94_USB_Composite/COMPOSITE/Class/COMPOSITE/Src/usbd_composite.c ****     {
 205              		.loc 1 306 8 view .LVU46
 206 0024 6245     		cmp	r2, ip
 207 0026 06D0     		beq	.L11
 306:Middlewares/Third_Party/AL94_USB_Composite/COMPOSITE/Class/COMPOSITE/Src/usbd_composite.c ****     {
 208              		.loc 1 306 92 discriminator 1 view .LVU47
 209 0028 0C4C     		ldr	r4, .L20+12
 210 002a E45C     		ldrb	r4, [r4, r3]	@ zero_extendqisi2
 306:Middlewares/Third_Party/AL94_USB_Composite/COMPOSITE/Class/COMPOSITE/Src/usbd_composite.c ****     {
 211              		.loc 1 306 51 discriminator 1 view .LVU48
 212 002c A242     		cmp	r2, r4
 213 002e 02D0     		beq	.L11
 304:Middlewares/Third_Party/AL94_USB_Composite/COMPOSITE/Class/COMPOSITE/Src/usbd_composite.c ****   {
 214              		.loc 1 304 48 is_stmt 1 discriminator 2 view .LVU49
 215 0030 0133     		adds	r3, r3, #1
 216              	.LVL16:
 304:Middlewares/Third_Party/AL94_USB_Composite/COMPOSITE/Class/COMPOSITE/Src/usbd_composite.c ****   {
 217              		.loc 1 304 48 is_stmt 0 discriminator 2 view .LVU50
 218 0032 DBB2     		uxtb	r3, r3
 219 0034 E6E7     		b	.L10
 220              	.LVL17:
 221              	.L11:
 308:Middlewares/Third_Party/AL94_USB_Composite/COMPOSITE/Class/COMPOSITE/Src/usbd_composite.c ****     }
 222              		.loc 1 308 7 is_stmt 1 view .LVU51
 308:Middlewares/Third_Party/AL94_USB_Composite/COMPOSITE/Class/COMPOSITE/Src/usbd_composite.c ****     }
 223              		.loc 1 308 26 is_stmt 0 view .LVU52
 224 0036 0A4B     		ldr	r3, .L20+16
 225              	.LVL18:
 308:Middlewares/Third_Party/AL94_USB_Composite/COMPOSITE/Class/COMPOSITE/Src/usbd_composite.c ****     }
 226              		.loc 1 308 26 view .LVU53
 227 0038 9B68     		ldr	r3, [r3, #8]
 308:Middlewares/Third_Party/AL94_USB_Composite/COMPOSITE/Class/COMPOSITE/Src/usbd_composite.c ****     }
 228              		.loc 1 308 14 view .LVU54
 229 003a 9847     		blx	r3
 230              	.LVL19:
 308:Middlewares/Third_Party/AL94_USB_Composite/COMPOSITE/Class/COMPOSITE/Src/usbd_composite.c ****     }
 231              		.loc 1 308 14 view .LVU55
 232 003c EDE7     		b	.L13
 233              	.LVL20:
 234              	.L18:
 308:Middlewares/Third_Party/AL94_USB_Composite/COMPOSITE/Class/COMPOSITE/Src/usbd_composite.c ****     }
 235              		.loc 1 308 14 view .LVU56
 236              	.LBE3:
 327:Middlewares/Third_Party/AL94_USB_Composite/COMPOSITE/Class/COMPOSITE/Src/usbd_composite.c ****   }
 237              		.loc 1 327 5 is_stmt 1 view .LVU57
ARM GAS  /tmp/cc5avDBI.s 			page 12


 327:Middlewares/Third_Party/AL94_USB_Composite/COMPOSITE/Class/COMPOSITE/Src/usbd_composite.c ****   }
 238              		.loc 1 327 26 is_stmt 0 view .LVU58
 239 003e 094B     		ldr	r3, .L20+20
 240 0040 9B68     		ldr	r3, [r3, #8]
 327:Middlewares/Third_Party/AL94_USB_Composite/COMPOSITE/Class/COMPOSITE/Src/usbd_composite.c ****   }
 241              		.loc 1 327 12 view .LVU59
 242 0042 9847     		blx	r3
 243              	.LVL21:
 327:Middlewares/Third_Party/AL94_USB_Composite/COMPOSITE/Class/COMPOSITE/Src/usbd_composite.c ****   }
 244              		.loc 1 327 12 view .LVU60
 245 0044 E9E7     		b	.L13
 246              	.LVL22:
 247              	.L19:
 333:Middlewares/Third_Party/AL94_USB_Composite/COMPOSITE/Class/COMPOSITE/Src/usbd_composite.c ****   }
 248              		.loc 1 333 5 is_stmt 1 view .LVU61
 333:Middlewares/Third_Party/AL94_USB_Composite/COMPOSITE/Class/COMPOSITE/Src/usbd_composite.c ****   }
 249              		.loc 1 333 29 is_stmt 0 view .LVU62
 250 0046 084B     		ldr	r3, .L20+24
 251 0048 9B68     		ldr	r3, [r3, #8]
 333:Middlewares/Third_Party/AL94_USB_Composite/COMPOSITE/Class/COMPOSITE/Src/usbd_composite.c ****   }
 252              		.loc 1 333 12 view .LVU63
 253 004a 9847     		blx	r3
 254              	.LVL23:
 333:Middlewares/Third_Party/AL94_USB_Composite/COMPOSITE/Class/COMPOSITE/Src/usbd_composite.c ****   }
 255              		.loc 1 333 12 view .LVU64
 256 004c E5E7     		b	.L13
 257              	.L21:
 258 004e 00BF     		.align	2
 259              	.L20:
 260 0050 00000000 		.word	HID_MOUSE_ITF_NBR
 261 0054 00000000 		.word	HID_KEYBOARD_ITF_NBR
 262 0058 00000000 		.word	CDC_CMD_ITF_NBR
 263 005c 00000000 		.word	CDC_COM_ITF_NBR
 264 0060 00000000 		.word	USBD_CDC_ACM
 265 0064 00000000 		.word	USBD_HID_MOUSE
 266 0068 00000000 		.word	USBD_HID_KEYBOARD
 267              		.cfi_endproc
 268              	.LFE335:
 270              		.section	.text.USBD_COMPOSITE_DataIn,"ax",%progbits
 271              		.align	1
 272              		.syntax unified
 273              		.thumb
 274              		.thumb_func
 276              	USBD_COMPOSITE_DataIn:
 277              	.LVL24:
 278              	.LFB336:
 381:Middlewares/Third_Party/AL94_USB_Composite/COMPOSITE/Class/COMPOSITE/Src/usbd_composite.c **** 
 382:Middlewares/Third_Party/AL94_USB_Composite/COMPOSITE/Class/COMPOSITE/Src/usbd_composite.c **** /**
 383:Middlewares/Third_Party/AL94_USB_Composite/COMPOSITE/Class/COMPOSITE/Src/usbd_composite.c ****   * @brief  USBD_COMPOSITE_DataIn
 384:Middlewares/Third_Party/AL94_USB_Composite/COMPOSITE/Class/COMPOSITE/Src/usbd_composite.c ****   *         handle data IN Stage
 385:Middlewares/Third_Party/AL94_USB_Composite/COMPOSITE/Class/COMPOSITE/Src/usbd_composite.c ****   * @param  pdev: device instance
 386:Middlewares/Third_Party/AL94_USB_Composite/COMPOSITE/Class/COMPOSITE/Src/usbd_composite.c ****   * @param  epnum: endpoint index
 387:Middlewares/Third_Party/AL94_USB_Composite/COMPOSITE/Class/COMPOSITE/Src/usbd_composite.c ****   * @retval status
 388:Middlewares/Third_Party/AL94_USB_Composite/COMPOSITE/Class/COMPOSITE/Src/usbd_composite.c ****   */
 389:Middlewares/Third_Party/AL94_USB_Composite/COMPOSITE/Class/COMPOSITE/Src/usbd_composite.c **** static uint8_t USBD_COMPOSITE_DataIn(USBD_HandleTypeDef *pdev, uint8_t epnum)
 390:Middlewares/Third_Party/AL94_USB_Composite/COMPOSITE/Class/COMPOSITE/Src/usbd_composite.c **** {
 279              		.loc 1 390 1 is_stmt 1 view -0
ARM GAS  /tmp/cc5avDBI.s 			page 13


 280              		.cfi_startproc
 281              		@ args = 0, pretend = 0, frame = 0
 282              		@ frame_needed = 0, uses_anonymous_args = 0
 283              		.loc 1 390 1 is_stmt 0 view .LVU66
 284 0000 08B5     		push	{r3, lr}
 285              		.cfi_def_cfa_offset 8
 286              		.cfi_offset 3, -8
 287              		.cfi_offset 14, -4
 391:Middlewares/Third_Party/AL94_USB_Composite/COMPOSITE/Class/COMPOSITE/Src/usbd_composite.c **** #if (USBD_USE_CDC_ACM == 1)
 392:Middlewares/Third_Party/AL94_USB_Composite/COMPOSITE/Class/COMPOSITE/Src/usbd_composite.c ****   for (uint8_t i = 0; i < USBD_CDC_ACM_COUNT; i++)
 288              		.loc 1 392 3 is_stmt 1 view .LVU67
 289              	.LBB4:
 290              		.loc 1 392 8 view .LVU68
 291              	.LVL25:
 292              		.loc 1 392 16 is_stmt 0 view .LVU69
 293 0002 0023     		movs	r3, #0
 294              	.LVL26:
 295              	.L23:
 296              		.loc 1 392 25 is_stmt 1 discriminator 1 view .LVU70
 297 0004 6BB1     		cbz	r3, .L27
 298              	.LBE4:
 393:Middlewares/Third_Party/AL94_USB_Composite/COMPOSITE/Class/COMPOSITE/Src/usbd_composite.c ****   {
 394:Middlewares/Third_Party/AL94_USB_Composite/COMPOSITE/Class/COMPOSITE/Src/usbd_composite.c ****     if (epnum == (CDC_IN_EP[i] & 0x7F) || epnum == (CDC_CMD_EP[i] & 0x7F))
 395:Middlewares/Third_Party/AL94_USB_Composite/COMPOSITE/Class/COMPOSITE/Src/usbd_composite.c ****     {
 396:Middlewares/Third_Party/AL94_USB_Composite/COMPOSITE/Class/COMPOSITE/Src/usbd_composite.c ****       return USBD_CDC_ACM.DataIn(pdev, epnum);
 397:Middlewares/Third_Party/AL94_USB_Composite/COMPOSITE/Class/COMPOSITE/Src/usbd_composite.c ****     }
 398:Middlewares/Third_Party/AL94_USB_Composite/COMPOSITE/Class/COMPOSITE/Src/usbd_composite.c ****   }
 399:Middlewares/Third_Party/AL94_USB_Composite/COMPOSITE/Class/COMPOSITE/Src/usbd_composite.c **** #endif
 400:Middlewares/Third_Party/AL94_USB_Composite/COMPOSITE/Class/COMPOSITE/Src/usbd_composite.c **** #if (USBD_USE_CDC_ECM == 1)
 401:Middlewares/Third_Party/AL94_USB_Composite/COMPOSITE/Class/COMPOSITE/Src/usbd_composite.c ****   if (epnum == (CDC_ECM_IN_EP & 0x7F) || epnum == (CDC_ECM_CMD_EP & 0x7F))
 402:Middlewares/Third_Party/AL94_USB_Composite/COMPOSITE/Class/COMPOSITE/Src/usbd_composite.c ****   {
 403:Middlewares/Third_Party/AL94_USB_Composite/COMPOSITE/Class/COMPOSITE/Src/usbd_composite.c ****     return USBD_CDC_ECM.DataIn(pdev, epnum);
 404:Middlewares/Third_Party/AL94_USB_Composite/COMPOSITE/Class/COMPOSITE/Src/usbd_composite.c ****   }
 405:Middlewares/Third_Party/AL94_USB_Composite/COMPOSITE/Class/COMPOSITE/Src/usbd_composite.c **** #endif
 406:Middlewares/Third_Party/AL94_USB_Composite/COMPOSITE/Class/COMPOSITE/Src/usbd_composite.c **** #if (USBD_USE_CDC_RNDIS == 1)
 407:Middlewares/Third_Party/AL94_USB_Composite/COMPOSITE/Class/COMPOSITE/Src/usbd_composite.c ****   if (epnum == (CDC_RNDIS_IN_EP & 0x7F) || epnum == (CDC_RNDIS_CMD_EP & 0x7F))
 408:Middlewares/Third_Party/AL94_USB_Composite/COMPOSITE/Class/COMPOSITE/Src/usbd_composite.c ****   {
 409:Middlewares/Third_Party/AL94_USB_Composite/COMPOSITE/Class/COMPOSITE/Src/usbd_composite.c ****     return USBD_CDC_RNDIS.DataIn(pdev, epnum);
 410:Middlewares/Third_Party/AL94_USB_Composite/COMPOSITE/Class/COMPOSITE/Src/usbd_composite.c ****   }
 411:Middlewares/Third_Party/AL94_USB_Composite/COMPOSITE/Class/COMPOSITE/Src/usbd_composite.c **** #endif
 412:Middlewares/Third_Party/AL94_USB_Composite/COMPOSITE/Class/COMPOSITE/Src/usbd_composite.c **** #if (USBD_USE_HID_MOUSE == 1)
 413:Middlewares/Third_Party/AL94_USB_Composite/COMPOSITE/Class/COMPOSITE/Src/usbd_composite.c ****   if (epnum == (HID_MOUSE_IN_EP & 0x7F))
 299              		.loc 1 413 3 view .LVU71
 300              		.loc 1 413 33 is_stmt 0 view .LVU72
 301 0006 144B     		ldr	r3, .L33
 302              	.LVL27:
 303              		.loc 1 413 33 view .LVU73
 304 0008 1B78     		ldrb	r3, [r3]	@ zero_extendqisi2
 305              		.loc 1 413 6 view .LVU74
 306 000a 03F07F03 		and	r3, r3, #127
 307 000e 9942     		cmp	r1, r3
 308 0010 1AD0     		beq	.L31
 414:Middlewares/Third_Party/AL94_USB_Composite/COMPOSITE/Class/COMPOSITE/Src/usbd_composite.c ****   {
 415:Middlewares/Third_Party/AL94_USB_Composite/COMPOSITE/Class/COMPOSITE/Src/usbd_composite.c ****     return USBD_HID_MOUSE.DataIn(pdev, epnum);
 416:Middlewares/Third_Party/AL94_USB_Composite/COMPOSITE/Class/COMPOSITE/Src/usbd_composite.c ****   }
 417:Middlewares/Third_Party/AL94_USB_Composite/COMPOSITE/Class/COMPOSITE/Src/usbd_composite.c **** #endif
 418:Middlewares/Third_Party/AL94_USB_Composite/COMPOSITE/Class/COMPOSITE/Src/usbd_composite.c **** #if (USBD_USE_HID_KEYBOARD == 1)
ARM GAS  /tmp/cc5avDBI.s 			page 14


 419:Middlewares/Third_Party/AL94_USB_Composite/COMPOSITE/Class/COMPOSITE/Src/usbd_composite.c ****   if (epnum == (HID_KEYBOARD_IN_EP & 0x7F))
 309              		.loc 1 419 3 is_stmt 1 view .LVU75
 310              		.loc 1 419 36 is_stmt 0 view .LVU76
 311 0012 124B     		ldr	r3, .L33+4
 312 0014 1B78     		ldrb	r3, [r3]	@ zero_extendqisi2
 313              		.loc 1 419 6 view .LVU77
 314 0016 03F07F03 		and	r3, r3, #127
 315 001a 8B42     		cmp	r3, r1
 316 001c 18D0     		beq	.L32
 420:Middlewares/Third_Party/AL94_USB_Composite/COMPOSITE/Class/COMPOSITE/Src/usbd_composite.c ****   {
 421:Middlewares/Third_Party/AL94_USB_Composite/COMPOSITE/Class/COMPOSITE/Src/usbd_composite.c ****     return USBD_HID_KEYBOARD.DataIn(pdev, epnum);
 422:Middlewares/Third_Party/AL94_USB_Composite/COMPOSITE/Class/COMPOSITE/Src/usbd_composite.c ****   }
 423:Middlewares/Third_Party/AL94_USB_Composite/COMPOSITE/Class/COMPOSITE/Src/usbd_composite.c **** #endif
 424:Middlewares/Third_Party/AL94_USB_Composite/COMPOSITE/Class/COMPOSITE/Src/usbd_composite.c **** #if (USBD_USE_HID_CUSTOM == 1)
 425:Middlewares/Third_Party/AL94_USB_Composite/COMPOSITE/Class/COMPOSITE/Src/usbd_composite.c ****   if (epnum == (CUSTOM_HID_IN_EP & 0x7F))
 426:Middlewares/Third_Party/AL94_USB_Composite/COMPOSITE/Class/COMPOSITE/Src/usbd_composite.c ****   {
 427:Middlewares/Third_Party/AL94_USB_Composite/COMPOSITE/Class/COMPOSITE/Src/usbd_composite.c ****     return USBD_HID_CUSTOM.DataIn(pdev, epnum);
 428:Middlewares/Third_Party/AL94_USB_Composite/COMPOSITE/Class/COMPOSITE/Src/usbd_composite.c ****   }
 429:Middlewares/Third_Party/AL94_USB_Composite/COMPOSITE/Class/COMPOSITE/Src/usbd_composite.c **** #endif
 430:Middlewares/Third_Party/AL94_USB_Composite/COMPOSITE/Class/COMPOSITE/Src/usbd_composite.c **** #if (USBD_USE_UAC_MIC == 1)
 431:Middlewares/Third_Party/AL94_USB_Composite/COMPOSITE/Class/COMPOSITE/Src/usbd_composite.c ****   if (epnum == (AUDIO_MIC_EP & 0x7F))
 432:Middlewares/Third_Party/AL94_USB_Composite/COMPOSITE/Class/COMPOSITE/Src/usbd_composite.c ****   {
 433:Middlewares/Third_Party/AL94_USB_Composite/COMPOSITE/Class/COMPOSITE/Src/usbd_composite.c ****     return USBD_AUDIO_MIC.DataIn(pdev, epnum);
 434:Middlewares/Third_Party/AL94_USB_Composite/COMPOSITE/Class/COMPOSITE/Src/usbd_composite.c ****   }
 435:Middlewares/Third_Party/AL94_USB_Composite/COMPOSITE/Class/COMPOSITE/Src/usbd_composite.c **** #endif
 436:Middlewares/Third_Party/AL94_USB_Composite/COMPOSITE/Class/COMPOSITE/Src/usbd_composite.c **** #if (USBD_USE_UAC_SPKR == 1)
 437:Middlewares/Third_Party/AL94_USB_Composite/COMPOSITE/Class/COMPOSITE/Src/usbd_composite.c **** #endif
 438:Middlewares/Third_Party/AL94_USB_Composite/COMPOSITE/Class/COMPOSITE/Src/usbd_composite.c **** #if (USBD_USE_UVC == 1)
 439:Middlewares/Third_Party/AL94_USB_Composite/COMPOSITE/Class/COMPOSITE/Src/usbd_composite.c ****   if (epnum == (UVC_IN_EP & 0x7F))
 440:Middlewares/Third_Party/AL94_USB_Composite/COMPOSITE/Class/COMPOSITE/Src/usbd_composite.c ****   {
 441:Middlewares/Third_Party/AL94_USB_Composite/COMPOSITE/Class/COMPOSITE/Src/usbd_composite.c ****     return USBD_VIDEO.DataIn(pdev, epnum);
 442:Middlewares/Third_Party/AL94_USB_Composite/COMPOSITE/Class/COMPOSITE/Src/usbd_composite.c ****   }
 443:Middlewares/Third_Party/AL94_USB_Composite/COMPOSITE/Class/COMPOSITE/Src/usbd_composite.c **** #endif
 444:Middlewares/Third_Party/AL94_USB_Composite/COMPOSITE/Class/COMPOSITE/Src/usbd_composite.c **** #if (USBD_USE_MSC == 1)
 445:Middlewares/Third_Party/AL94_USB_Composite/COMPOSITE/Class/COMPOSITE/Src/usbd_composite.c ****   if (epnum == (MSC_IN_EP & 0x7F))
 446:Middlewares/Third_Party/AL94_USB_Composite/COMPOSITE/Class/COMPOSITE/Src/usbd_composite.c ****   {
 447:Middlewares/Third_Party/AL94_USB_Composite/COMPOSITE/Class/COMPOSITE/Src/usbd_composite.c ****     return USBD_MSC.DataIn(pdev, epnum);
 448:Middlewares/Third_Party/AL94_USB_Composite/COMPOSITE/Class/COMPOSITE/Src/usbd_composite.c ****   }
 449:Middlewares/Third_Party/AL94_USB_Composite/COMPOSITE/Class/COMPOSITE/Src/usbd_composite.c **** #endif
 450:Middlewares/Third_Party/AL94_USB_Composite/COMPOSITE/Class/COMPOSITE/Src/usbd_composite.c **** #if (USBD_USE_DFU == 1)
 451:Middlewares/Third_Party/AL94_USB_Composite/COMPOSITE/Class/COMPOSITE/Src/usbd_composite.c **** #endif
 452:Middlewares/Third_Party/AL94_USB_Composite/COMPOSITE/Class/COMPOSITE/Src/usbd_composite.c **** #if (USBD_USE_PRNTR == 1)
 453:Middlewares/Third_Party/AL94_USB_Composite/COMPOSITE/Class/COMPOSITE/Src/usbd_composite.c ****   if (epnum == (PRNT_IN_EP & 0x7F))
 454:Middlewares/Third_Party/AL94_USB_Composite/COMPOSITE/Class/COMPOSITE/Src/usbd_composite.c ****   {
 455:Middlewares/Third_Party/AL94_USB_Composite/COMPOSITE/Class/COMPOSITE/Src/usbd_composite.c ****     USBD_PRNT.DataIn(pdev, epnum);
 456:Middlewares/Third_Party/AL94_USB_Composite/COMPOSITE/Class/COMPOSITE/Src/usbd_composite.c ****   }
 457:Middlewares/Third_Party/AL94_USB_Composite/COMPOSITE/Class/COMPOSITE/Src/usbd_composite.c **** #endif
 458:Middlewares/Third_Party/AL94_USB_Composite/COMPOSITE/Class/COMPOSITE/Src/usbd_composite.c **** 
 459:Middlewares/Third_Party/AL94_USB_Composite/COMPOSITE/Class/COMPOSITE/Src/usbd_composite.c ****   return USBD_FAIL;
 317              		.loc 1 459 10 view .LVU78
 318 001e 0320     		movs	r0, #3
 319              	.LVL28:
 320              	.L26:
 460:Middlewares/Third_Party/AL94_USB_Composite/COMPOSITE/Class/COMPOSITE/Src/usbd_composite.c **** }
 321              		.loc 1 460 1 view .LVU79
 322 0020 08BD     		pop	{r3, pc}
 323              	.LVL29:
ARM GAS  /tmp/cc5avDBI.s 			page 15


 324              	.L27:
 325              	.LBB5:
 394:Middlewares/Third_Party/AL94_USB_Composite/COMPOSITE/Class/COMPOSITE/Src/usbd_composite.c ****     {
 326              		.loc 1 394 5 is_stmt 1 view .LVU80
 394:Middlewares/Third_Party/AL94_USB_Composite/COMPOSITE/Class/COMPOSITE/Src/usbd_composite.c ****     {
 327              		.loc 1 394 28 is_stmt 0 view .LVU81
 328 0022 0F4A     		ldr	r2, .L33+8
 329 0024 D25C     		ldrb	r2, [r2, r3]	@ zero_extendqisi2
 394:Middlewares/Third_Party/AL94_USB_Composite/COMPOSITE/Class/COMPOSITE/Src/usbd_composite.c ****     {
 330              		.loc 1 394 8 view .LVU82
 331 0026 02F07F02 		and	r2, r2, #127
 332 002a 9142     		cmp	r1, r2
 333 002c 08D0     		beq	.L24
 394:Middlewares/Third_Party/AL94_USB_Composite/COMPOSITE/Class/COMPOSITE/Src/usbd_composite.c ****     {
 334              		.loc 1 394 63 discriminator 1 view .LVU83
 335 002e 0D4A     		ldr	r2, .L33+12
 336 0030 D25C     		ldrb	r2, [r2, r3]	@ zero_extendqisi2
 394:Middlewares/Third_Party/AL94_USB_Composite/COMPOSITE/Class/COMPOSITE/Src/usbd_composite.c ****     {
 337              		.loc 1 394 40 discriminator 1 view .LVU84
 338 0032 02F07F02 		and	r2, r2, #127
 339 0036 9142     		cmp	r1, r2
 340 0038 02D0     		beq	.L24
 392:Middlewares/Third_Party/AL94_USB_Composite/COMPOSITE/Class/COMPOSITE/Src/usbd_composite.c ****   {
 341              		.loc 1 392 48 is_stmt 1 discriminator 2 view .LVU85
 342 003a 0133     		adds	r3, r3, #1
 343              	.LVL30:
 392:Middlewares/Third_Party/AL94_USB_Composite/COMPOSITE/Class/COMPOSITE/Src/usbd_composite.c ****   {
 344              		.loc 1 392 48 is_stmt 0 discriminator 2 view .LVU86
 345 003c DBB2     		uxtb	r3, r3
 346 003e E1E7     		b	.L23
 347              	.LVL31:
 348              	.L24:
 396:Middlewares/Third_Party/AL94_USB_Composite/COMPOSITE/Class/COMPOSITE/Src/usbd_composite.c ****     }
 349              		.loc 1 396 7 is_stmt 1 view .LVU87
 396:Middlewares/Third_Party/AL94_USB_Composite/COMPOSITE/Class/COMPOSITE/Src/usbd_composite.c ****     }
 350              		.loc 1 396 26 is_stmt 0 view .LVU88
 351 0040 094B     		ldr	r3, .L33+16
 352              	.LVL32:
 396:Middlewares/Third_Party/AL94_USB_Composite/COMPOSITE/Class/COMPOSITE/Src/usbd_composite.c ****     }
 353              		.loc 1 396 26 view .LVU89
 354 0042 5B69     		ldr	r3, [r3, #20]
 396:Middlewares/Third_Party/AL94_USB_Composite/COMPOSITE/Class/COMPOSITE/Src/usbd_composite.c ****     }
 355              		.loc 1 396 14 view .LVU90
 356 0044 9847     		blx	r3
 357              	.LVL33:
 396:Middlewares/Third_Party/AL94_USB_Composite/COMPOSITE/Class/COMPOSITE/Src/usbd_composite.c ****     }
 358              		.loc 1 396 14 view .LVU91
 359 0046 EBE7     		b	.L26
 360              	.LVL34:
 361              	.L31:
 396:Middlewares/Third_Party/AL94_USB_Composite/COMPOSITE/Class/COMPOSITE/Src/usbd_composite.c ****     }
 362              		.loc 1 396 14 view .LVU92
 363              	.LBE5:
 415:Middlewares/Third_Party/AL94_USB_Composite/COMPOSITE/Class/COMPOSITE/Src/usbd_composite.c ****   }
 364              		.loc 1 415 5 is_stmt 1 view .LVU93
 415:Middlewares/Third_Party/AL94_USB_Composite/COMPOSITE/Class/COMPOSITE/Src/usbd_composite.c ****   }
 365              		.loc 1 415 26 is_stmt 0 view .LVU94
ARM GAS  /tmp/cc5avDBI.s 			page 16


 366 0048 084B     		ldr	r3, .L33+20
 367 004a 5B69     		ldr	r3, [r3, #20]
 415:Middlewares/Third_Party/AL94_USB_Composite/COMPOSITE/Class/COMPOSITE/Src/usbd_composite.c ****   }
 368              		.loc 1 415 12 view .LVU95
 369 004c 9847     		blx	r3
 370              	.LVL35:
 415:Middlewares/Third_Party/AL94_USB_Composite/COMPOSITE/Class/COMPOSITE/Src/usbd_composite.c ****   }
 371              		.loc 1 415 12 view .LVU96
 372 004e E7E7     		b	.L26
 373              	.LVL36:
 374              	.L32:
 421:Middlewares/Third_Party/AL94_USB_Composite/COMPOSITE/Class/COMPOSITE/Src/usbd_composite.c ****   }
 375              		.loc 1 421 5 is_stmt 1 view .LVU97
 421:Middlewares/Third_Party/AL94_USB_Composite/COMPOSITE/Class/COMPOSITE/Src/usbd_composite.c ****   }
 376              		.loc 1 421 29 is_stmt 0 view .LVU98
 377 0050 074B     		ldr	r3, .L33+24
 378 0052 5B69     		ldr	r3, [r3, #20]
 421:Middlewares/Third_Party/AL94_USB_Composite/COMPOSITE/Class/COMPOSITE/Src/usbd_composite.c ****   }
 379              		.loc 1 421 12 view .LVU99
 380 0054 9847     		blx	r3
 381              	.LVL37:
 421:Middlewares/Third_Party/AL94_USB_Composite/COMPOSITE/Class/COMPOSITE/Src/usbd_composite.c ****   }
 382              		.loc 1 421 12 view .LVU100
 383 0056 E3E7     		b	.L26
 384              	.L34:
 385              		.align	2
 386              	.L33:
 387 0058 00000000 		.word	HID_MOUSE_IN_EP
 388 005c 00000000 		.word	HID_KEYBOARD_IN_EP
 389 0060 00000000 		.word	CDC_IN_EP
 390 0064 00000000 		.word	CDC_CMD_EP
 391 0068 00000000 		.word	USBD_CDC_ACM
 392 006c 00000000 		.word	USBD_HID_MOUSE
 393 0070 00000000 		.word	USBD_HID_KEYBOARD
 394              		.cfi_endproc
 395              	.LFE336:
 397              		.section	.text.USBD_COMPOSITE_EP0_RxReady,"ax",%progbits
 398              		.align	1
 399              		.syntax unified
 400              		.thumb
 401              		.thumb_func
 403              	USBD_COMPOSITE_EP0_RxReady:
 404              	.LVL38:
 405              	.LFB337:
 461:Middlewares/Third_Party/AL94_USB_Composite/COMPOSITE/Class/COMPOSITE/Src/usbd_composite.c **** 
 462:Middlewares/Third_Party/AL94_USB_Composite/COMPOSITE/Class/COMPOSITE/Src/usbd_composite.c **** /**
 463:Middlewares/Third_Party/AL94_USB_Composite/COMPOSITE/Class/COMPOSITE/Src/usbd_composite.c ****   * @brief  USBD_COMPOSITE_EP0_RxReady
 464:Middlewares/Third_Party/AL94_USB_Composite/COMPOSITE/Class/COMPOSITE/Src/usbd_composite.c ****   *         handle EP0 Rx Ready event
 465:Middlewares/Third_Party/AL94_USB_Composite/COMPOSITE/Class/COMPOSITE/Src/usbd_composite.c ****   * @param  pdev: device instance
 466:Middlewares/Third_Party/AL94_USB_Composite/COMPOSITE/Class/COMPOSITE/Src/usbd_composite.c ****   * @retval status
 467:Middlewares/Third_Party/AL94_USB_Composite/COMPOSITE/Class/COMPOSITE/Src/usbd_composite.c ****   */
 468:Middlewares/Third_Party/AL94_USB_Composite/COMPOSITE/Class/COMPOSITE/Src/usbd_composite.c **** static uint8_t USBD_COMPOSITE_EP0_RxReady(USBD_HandleTypeDef *pdev)
 469:Middlewares/Third_Party/AL94_USB_Composite/COMPOSITE/Class/COMPOSITE/Src/usbd_composite.c **** {
 406              		.loc 1 469 1 is_stmt 1 view -0
 407              		.cfi_startproc
 408              		@ args = 0, pretend = 0, frame = 0
 409              		@ frame_needed = 0, uses_anonymous_args = 0
ARM GAS  /tmp/cc5avDBI.s 			page 17


 410              		.loc 1 469 1 is_stmt 0 view .LVU102
 411 0000 08B5     		push	{r3, lr}
 412              		.cfi_def_cfa_offset 8
 413              		.cfi_offset 3, -8
 414              		.cfi_offset 14, -4
 470:Middlewares/Third_Party/AL94_USB_Composite/COMPOSITE/Class/COMPOSITE/Src/usbd_composite.c **** #if (USBD_USE_CDC_ACM == 1)
 471:Middlewares/Third_Party/AL94_USB_Composite/COMPOSITE/Class/COMPOSITE/Src/usbd_composite.c ****   USBD_CDC_ACM.EP0_RxReady(pdev);
 415              		.loc 1 471 3 is_stmt 1 view .LVU103
 416              		.loc 1 471 15 is_stmt 0 view .LVU104
 417 0002 024B     		ldr	r3, .L37
 418 0004 1B69     		ldr	r3, [r3, #16]
 419              		.loc 1 471 3 view .LVU105
 420 0006 9847     		blx	r3
 421              	.LVL39:
 472:Middlewares/Third_Party/AL94_USB_Composite/COMPOSITE/Class/COMPOSITE/Src/usbd_composite.c **** #endif
 473:Middlewares/Third_Party/AL94_USB_Composite/COMPOSITE/Class/COMPOSITE/Src/usbd_composite.c **** #if (USBD_USE_CDC_ECM == 1)
 474:Middlewares/Third_Party/AL94_USB_Composite/COMPOSITE/Class/COMPOSITE/Src/usbd_composite.c ****   USBD_CDC_ECM.EP0_RxReady(pdev);
 475:Middlewares/Third_Party/AL94_USB_Composite/COMPOSITE/Class/COMPOSITE/Src/usbd_composite.c **** #endif
 476:Middlewares/Third_Party/AL94_USB_Composite/COMPOSITE/Class/COMPOSITE/Src/usbd_composite.c **** #if (USBD_USE_CDC_RNDIS == 1)
 477:Middlewares/Third_Party/AL94_USB_Composite/COMPOSITE/Class/COMPOSITE/Src/usbd_composite.c ****   USBD_CDC_RNDIS.EP0_RxReady(pdev);
 478:Middlewares/Third_Party/AL94_USB_Composite/COMPOSITE/Class/COMPOSITE/Src/usbd_composite.c **** #endif
 479:Middlewares/Third_Party/AL94_USB_Composite/COMPOSITE/Class/COMPOSITE/Src/usbd_composite.c **** #if (USBD_USE_HID_MOUSE == 1)
 480:Middlewares/Third_Party/AL94_USB_Composite/COMPOSITE/Class/COMPOSITE/Src/usbd_composite.c **** #endif
 481:Middlewares/Third_Party/AL94_USB_Composite/COMPOSITE/Class/COMPOSITE/Src/usbd_composite.c **** #if (USBD_USE_HID_KEYBOARD == 1)
 482:Middlewares/Third_Party/AL94_USB_Composite/COMPOSITE/Class/COMPOSITE/Src/usbd_composite.c **** #endif
 483:Middlewares/Third_Party/AL94_USB_Composite/COMPOSITE/Class/COMPOSITE/Src/usbd_composite.c **** #if (USBD_USE_HID_CUSTOM == 1)
 484:Middlewares/Third_Party/AL94_USB_Composite/COMPOSITE/Class/COMPOSITE/Src/usbd_composite.c ****   USBD_HID_CUSTOM.EP0_RxReady(pdev);
 485:Middlewares/Third_Party/AL94_USB_Composite/COMPOSITE/Class/COMPOSITE/Src/usbd_composite.c **** #endif
 486:Middlewares/Third_Party/AL94_USB_Composite/COMPOSITE/Class/COMPOSITE/Src/usbd_composite.c **** #if (USBD_USE_UAC_MIC == 1)
 487:Middlewares/Third_Party/AL94_USB_Composite/COMPOSITE/Class/COMPOSITE/Src/usbd_composite.c ****   USBD_AUDIO_MIC.EP0_RxReady(pdev);
 488:Middlewares/Third_Party/AL94_USB_Composite/COMPOSITE/Class/COMPOSITE/Src/usbd_composite.c **** #endif
 489:Middlewares/Third_Party/AL94_USB_Composite/COMPOSITE/Class/COMPOSITE/Src/usbd_composite.c **** #if (USBD_USE_UAC_SPKR == 1)
 490:Middlewares/Third_Party/AL94_USB_Composite/COMPOSITE/Class/COMPOSITE/Src/usbd_composite.c ****   USBD_AUDIO_SPKR.EP0_RxReady(pdev);
 491:Middlewares/Third_Party/AL94_USB_Composite/COMPOSITE/Class/COMPOSITE/Src/usbd_composite.c **** #endif
 492:Middlewares/Third_Party/AL94_USB_Composite/COMPOSITE/Class/COMPOSITE/Src/usbd_composite.c **** #if (USBD_USE_UVC == 1)
 493:Middlewares/Third_Party/AL94_USB_Composite/COMPOSITE/Class/COMPOSITE/Src/usbd_composite.c **** #endif
 494:Middlewares/Third_Party/AL94_USB_Composite/COMPOSITE/Class/COMPOSITE/Src/usbd_composite.c **** #if (USBD_USE_MSC == 1)
 495:Middlewares/Third_Party/AL94_USB_Composite/COMPOSITE/Class/COMPOSITE/Src/usbd_composite.c **** #endif
 496:Middlewares/Third_Party/AL94_USB_Composite/COMPOSITE/Class/COMPOSITE/Src/usbd_composite.c **** #if (USBD_USE_DFU == 1)
 497:Middlewares/Third_Party/AL94_USB_Composite/COMPOSITE/Class/COMPOSITE/Src/usbd_composite.c ****   USBD_DFU.EP0_RxReady(pdev);
 498:Middlewares/Third_Party/AL94_USB_Composite/COMPOSITE/Class/COMPOSITE/Src/usbd_composite.c **** #endif
 499:Middlewares/Third_Party/AL94_USB_Composite/COMPOSITE/Class/COMPOSITE/Src/usbd_composite.c **** #if (USBD_USE_PRNTR == 1)
 500:Middlewares/Third_Party/AL94_USB_Composite/COMPOSITE/Class/COMPOSITE/Src/usbd_composite.c **** #endif
 501:Middlewares/Third_Party/AL94_USB_Composite/COMPOSITE/Class/COMPOSITE/Src/usbd_composite.c **** 
 502:Middlewares/Third_Party/AL94_USB_Composite/COMPOSITE/Class/COMPOSITE/Src/usbd_composite.c ****   return (uint8_t)USBD_OK;
 422              		.loc 1 502 3 is_stmt 1 view .LVU106
 503:Middlewares/Third_Party/AL94_USB_Composite/COMPOSITE/Class/COMPOSITE/Src/usbd_composite.c **** }
 423              		.loc 1 503 1 is_stmt 0 view .LVU107
 424 0008 0020     		movs	r0, #0
 425 000a 08BD     		pop	{r3, pc}
 426              	.L38:
 427              		.align	2
 428              	.L37:
 429 000c 00000000 		.word	USBD_CDC_ACM
 430              		.cfi_endproc
 431              	.LFE337:
 433              		.section	.text.USBD_COMPOSITE_EP0_TxReady,"ax",%progbits
ARM GAS  /tmp/cc5avDBI.s 			page 18


 434              		.align	1
 435              		.syntax unified
 436              		.thumb
 437              		.thumb_func
 439              	USBD_COMPOSITE_EP0_TxReady:
 440              	.LVL40:
 441              	.LFB338:
 504:Middlewares/Third_Party/AL94_USB_Composite/COMPOSITE/Class/COMPOSITE/Src/usbd_composite.c **** 
 505:Middlewares/Third_Party/AL94_USB_Composite/COMPOSITE/Class/COMPOSITE/Src/usbd_composite.c **** /**
 506:Middlewares/Third_Party/AL94_USB_Composite/COMPOSITE/Class/COMPOSITE/Src/usbd_composite.c ****   * @brief  USBD_COMPOSITE_EP0_TxReady
 507:Middlewares/Third_Party/AL94_USB_Composite/COMPOSITE/Class/COMPOSITE/Src/usbd_composite.c ****   *         handle EP0 TRx Ready event
 508:Middlewares/Third_Party/AL94_USB_Composite/COMPOSITE/Class/COMPOSITE/Src/usbd_composite.c ****   * @param  pdev: device instance
 509:Middlewares/Third_Party/AL94_USB_Composite/COMPOSITE/Class/COMPOSITE/Src/usbd_composite.c ****   * @retval status
 510:Middlewares/Third_Party/AL94_USB_Composite/COMPOSITE/Class/COMPOSITE/Src/usbd_composite.c ****   */
 511:Middlewares/Third_Party/AL94_USB_Composite/COMPOSITE/Class/COMPOSITE/Src/usbd_composite.c **** static uint8_t USBD_COMPOSITE_EP0_TxReady(USBD_HandleTypeDef *pdev)
 512:Middlewares/Third_Party/AL94_USB_Composite/COMPOSITE/Class/COMPOSITE/Src/usbd_composite.c **** {
 442              		.loc 1 512 1 is_stmt 1 view -0
 443              		.cfi_startproc
 444              		@ args = 0, pretend = 0, frame = 0
 445              		@ frame_needed = 0, uses_anonymous_args = 0
 446              		@ link register save eliminated.
 513:Middlewares/Third_Party/AL94_USB_Composite/COMPOSITE/Class/COMPOSITE/Src/usbd_composite.c **** #if (USBD_USE_CDC_ACM == 1)
 514:Middlewares/Third_Party/AL94_USB_Composite/COMPOSITE/Class/COMPOSITE/Src/usbd_composite.c **** #endif
 515:Middlewares/Third_Party/AL94_USB_Composite/COMPOSITE/Class/COMPOSITE/Src/usbd_composite.c **** #if (USBD_USE_CDC_ECM == 1)
 516:Middlewares/Third_Party/AL94_USB_Composite/COMPOSITE/Class/COMPOSITE/Src/usbd_composite.c **** #endif
 517:Middlewares/Third_Party/AL94_USB_Composite/COMPOSITE/Class/COMPOSITE/Src/usbd_composite.c **** #if (USBD_USE_CDC_RNDIS == 1)
 518:Middlewares/Third_Party/AL94_USB_Composite/COMPOSITE/Class/COMPOSITE/Src/usbd_composite.c **** #endif
 519:Middlewares/Third_Party/AL94_USB_Composite/COMPOSITE/Class/COMPOSITE/Src/usbd_composite.c **** #if (USBD_USE_HID_MOUSE == 1)
 520:Middlewares/Third_Party/AL94_USB_Composite/COMPOSITE/Class/COMPOSITE/Src/usbd_composite.c **** #endif
 521:Middlewares/Third_Party/AL94_USB_Composite/COMPOSITE/Class/COMPOSITE/Src/usbd_composite.c **** #if (USBD_USE_HID_KEYBOARD == 1)
 522:Middlewares/Third_Party/AL94_USB_Composite/COMPOSITE/Class/COMPOSITE/Src/usbd_composite.c **** #endif
 523:Middlewares/Third_Party/AL94_USB_Composite/COMPOSITE/Class/COMPOSITE/Src/usbd_composite.c **** #if (USBD_USE_HID_CUSTOM == 1)
 524:Middlewares/Third_Party/AL94_USB_Composite/COMPOSITE/Class/COMPOSITE/Src/usbd_composite.c **** #endif
 525:Middlewares/Third_Party/AL94_USB_Composite/COMPOSITE/Class/COMPOSITE/Src/usbd_composite.c **** #if (USBD_USE_UAC_MIC == 1)
 526:Middlewares/Third_Party/AL94_USB_Composite/COMPOSITE/Class/COMPOSITE/Src/usbd_composite.c ****   USBD_AUDIO_MIC.EP0_TxSent(pdev);
 527:Middlewares/Third_Party/AL94_USB_Composite/COMPOSITE/Class/COMPOSITE/Src/usbd_composite.c **** #endif
 528:Middlewares/Third_Party/AL94_USB_Composite/COMPOSITE/Class/COMPOSITE/Src/usbd_composite.c **** #if (USBD_USE_UAC_SPKR == 1)
 529:Middlewares/Third_Party/AL94_USB_Composite/COMPOSITE/Class/COMPOSITE/Src/usbd_composite.c ****   USBD_AUDIO_SPKR.EP0_TxSent(pdev);
 530:Middlewares/Third_Party/AL94_USB_Composite/COMPOSITE/Class/COMPOSITE/Src/usbd_composite.c **** #endif
 531:Middlewares/Third_Party/AL94_USB_Composite/COMPOSITE/Class/COMPOSITE/Src/usbd_composite.c **** #if (USBD_USE_UVC == 1)
 532:Middlewares/Third_Party/AL94_USB_Composite/COMPOSITE/Class/COMPOSITE/Src/usbd_composite.c **** #endif
 533:Middlewares/Third_Party/AL94_USB_Composite/COMPOSITE/Class/COMPOSITE/Src/usbd_composite.c **** #if (USBD_USE_MSC == 1)
 534:Middlewares/Third_Party/AL94_USB_Composite/COMPOSITE/Class/COMPOSITE/Src/usbd_composite.c **** #endif
 535:Middlewares/Third_Party/AL94_USB_Composite/COMPOSITE/Class/COMPOSITE/Src/usbd_composite.c **** #if (USBD_USE_DFU == 1)
 536:Middlewares/Third_Party/AL94_USB_Composite/COMPOSITE/Class/COMPOSITE/Src/usbd_composite.c ****   USBD_DFU.EP0_TxSent(pdev);
 537:Middlewares/Third_Party/AL94_USB_Composite/COMPOSITE/Class/COMPOSITE/Src/usbd_composite.c **** #endif
 538:Middlewares/Third_Party/AL94_USB_Composite/COMPOSITE/Class/COMPOSITE/Src/usbd_composite.c **** #if (USBD_USE_PRNTR == 1)
 539:Middlewares/Third_Party/AL94_USB_Composite/COMPOSITE/Class/COMPOSITE/Src/usbd_composite.c **** #endif
 540:Middlewares/Third_Party/AL94_USB_Composite/COMPOSITE/Class/COMPOSITE/Src/usbd_composite.c **** 
 541:Middlewares/Third_Party/AL94_USB_Composite/COMPOSITE/Class/COMPOSITE/Src/usbd_composite.c ****   return (uint8_t)USBD_OK;
 447              		.loc 1 541 3 view .LVU109
 542:Middlewares/Third_Party/AL94_USB_Composite/COMPOSITE/Class/COMPOSITE/Src/usbd_composite.c **** }
 448              		.loc 1 542 1 is_stmt 0 view .LVU110
 449 0000 0020     		movs	r0, #0
 450              	.LVL41:
 451              		.loc 1 542 1 view .LVU111
 452 0002 7047     		bx	lr
ARM GAS  /tmp/cc5avDBI.s 			page 19


 453              		.cfi_endproc
 454              	.LFE338:
 456              		.section	.text.USBD_COMPOSITE_SOF,"ax",%progbits
 457              		.align	1
 458              		.syntax unified
 459              		.thumb
 460              		.thumb_func
 462              	USBD_COMPOSITE_SOF:
 463              	.LVL42:
 464              	.LFB339:
 543:Middlewares/Third_Party/AL94_USB_Composite/COMPOSITE/Class/COMPOSITE/Src/usbd_composite.c **** 
 544:Middlewares/Third_Party/AL94_USB_Composite/COMPOSITE/Class/COMPOSITE/Src/usbd_composite.c **** /**
 545:Middlewares/Third_Party/AL94_USB_Composite/COMPOSITE/Class/COMPOSITE/Src/usbd_composite.c ****   * @brief  USBD_COMPOSITE_SOF
 546:Middlewares/Third_Party/AL94_USB_Composite/COMPOSITE/Class/COMPOSITE/Src/usbd_composite.c ****   *         handle SOF event
 547:Middlewares/Third_Party/AL94_USB_Composite/COMPOSITE/Class/COMPOSITE/Src/usbd_composite.c ****   * @param  pdev: device instance
 548:Middlewares/Third_Party/AL94_USB_Composite/COMPOSITE/Class/COMPOSITE/Src/usbd_composite.c ****   * @retval status
 549:Middlewares/Third_Party/AL94_USB_Composite/COMPOSITE/Class/COMPOSITE/Src/usbd_composite.c ****   */
 550:Middlewares/Third_Party/AL94_USB_Composite/COMPOSITE/Class/COMPOSITE/Src/usbd_composite.c **** static uint8_t USBD_COMPOSITE_SOF(USBD_HandleTypeDef *pdev)
 551:Middlewares/Third_Party/AL94_USB_Composite/COMPOSITE/Class/COMPOSITE/Src/usbd_composite.c **** {
 465              		.loc 1 551 1 is_stmt 1 view -0
 466              		.cfi_startproc
 467              		@ args = 0, pretend = 0, frame = 0
 468              		@ frame_needed = 0, uses_anonymous_args = 0
 469              		@ link register save eliminated.
 552:Middlewares/Third_Party/AL94_USB_Composite/COMPOSITE/Class/COMPOSITE/Src/usbd_composite.c **** #if (USBD_USE_CDC_ACM == 1)
 553:Middlewares/Third_Party/AL94_USB_Composite/COMPOSITE/Class/COMPOSITE/Src/usbd_composite.c **** #endif
 554:Middlewares/Third_Party/AL94_USB_Composite/COMPOSITE/Class/COMPOSITE/Src/usbd_composite.c **** #if (USBD_USE_CDC_ECM == 1)
 555:Middlewares/Third_Party/AL94_USB_Composite/COMPOSITE/Class/COMPOSITE/Src/usbd_composite.c **** #endif
 556:Middlewares/Third_Party/AL94_USB_Composite/COMPOSITE/Class/COMPOSITE/Src/usbd_composite.c **** #if (USBD_USE_CDC_RNDIS == 1)
 557:Middlewares/Third_Party/AL94_USB_Composite/COMPOSITE/Class/COMPOSITE/Src/usbd_composite.c **** #endif
 558:Middlewares/Third_Party/AL94_USB_Composite/COMPOSITE/Class/COMPOSITE/Src/usbd_composite.c **** #if (USBD_USE_HID_MOUSE == 1)
 559:Middlewares/Third_Party/AL94_USB_Composite/COMPOSITE/Class/COMPOSITE/Src/usbd_composite.c **** #endif
 560:Middlewares/Third_Party/AL94_USB_Composite/COMPOSITE/Class/COMPOSITE/Src/usbd_composite.c **** #if (USBD_USE_HID_KEYBOARD == 1)
 561:Middlewares/Third_Party/AL94_USB_Composite/COMPOSITE/Class/COMPOSITE/Src/usbd_composite.c **** #endif
 562:Middlewares/Third_Party/AL94_USB_Composite/COMPOSITE/Class/COMPOSITE/Src/usbd_composite.c **** #if (USBD_USE_HID_CUSTOM == 1)
 563:Middlewares/Third_Party/AL94_USB_Composite/COMPOSITE/Class/COMPOSITE/Src/usbd_composite.c **** #endif
 564:Middlewares/Third_Party/AL94_USB_Composite/COMPOSITE/Class/COMPOSITE/Src/usbd_composite.c **** #if (USBD_USE_UAC_MIC == 1)
 565:Middlewares/Third_Party/AL94_USB_Composite/COMPOSITE/Class/COMPOSITE/Src/usbd_composite.c ****   USBD_AUDIO_MIC.SOF(pdev);
 566:Middlewares/Third_Party/AL94_USB_Composite/COMPOSITE/Class/COMPOSITE/Src/usbd_composite.c **** #endif
 567:Middlewares/Third_Party/AL94_USB_Composite/COMPOSITE/Class/COMPOSITE/Src/usbd_composite.c **** #if (USBD_USE_UAC_SPKR == 1)
 568:Middlewares/Third_Party/AL94_USB_Composite/COMPOSITE/Class/COMPOSITE/Src/usbd_composite.c ****   USBD_AUDIO_SPKR.SOF(pdev);
 569:Middlewares/Third_Party/AL94_USB_Composite/COMPOSITE/Class/COMPOSITE/Src/usbd_composite.c **** #endif
 570:Middlewares/Third_Party/AL94_USB_Composite/COMPOSITE/Class/COMPOSITE/Src/usbd_composite.c **** #if (USBD_USE_UVC == 1)
 571:Middlewares/Third_Party/AL94_USB_Composite/COMPOSITE/Class/COMPOSITE/Src/usbd_composite.c ****   USBD_VIDEO.SOF(pdev);
 572:Middlewares/Third_Party/AL94_USB_Composite/COMPOSITE/Class/COMPOSITE/Src/usbd_composite.c **** #endif
 573:Middlewares/Third_Party/AL94_USB_Composite/COMPOSITE/Class/COMPOSITE/Src/usbd_composite.c **** #if (USBD_USE_MSC == 1)
 574:Middlewares/Third_Party/AL94_USB_Composite/COMPOSITE/Class/COMPOSITE/Src/usbd_composite.c **** #endif
 575:Middlewares/Third_Party/AL94_USB_Composite/COMPOSITE/Class/COMPOSITE/Src/usbd_composite.c **** #if (USBD_USE_DFU == 1)
 576:Middlewares/Third_Party/AL94_USB_Composite/COMPOSITE/Class/COMPOSITE/Src/usbd_composite.c ****   USBD_DFU.SOF(pdev);
 577:Middlewares/Third_Party/AL94_USB_Composite/COMPOSITE/Class/COMPOSITE/Src/usbd_composite.c **** #endif
 578:Middlewares/Third_Party/AL94_USB_Composite/COMPOSITE/Class/COMPOSITE/Src/usbd_composite.c **** #if (USBD_USE_PRNTR == 1)
 579:Middlewares/Third_Party/AL94_USB_Composite/COMPOSITE/Class/COMPOSITE/Src/usbd_composite.c **** #endif
 580:Middlewares/Third_Party/AL94_USB_Composite/COMPOSITE/Class/COMPOSITE/Src/usbd_composite.c **** 
 581:Middlewares/Third_Party/AL94_USB_Composite/COMPOSITE/Class/COMPOSITE/Src/usbd_composite.c ****   return (uint8_t)USBD_OK;
 470              		.loc 1 581 3 view .LVU113
 582:Middlewares/Third_Party/AL94_USB_Composite/COMPOSITE/Class/COMPOSITE/Src/usbd_composite.c **** }
 471              		.loc 1 582 1 is_stmt 0 view .LVU114
ARM GAS  /tmp/cc5avDBI.s 			page 20


 472 0000 0020     		movs	r0, #0
 473              	.LVL43:
 474              		.loc 1 582 1 view .LVU115
 475 0002 7047     		bx	lr
 476              		.cfi_endproc
 477              	.LFE339:
 479              		.section	.text.USBD_COMPOSITE_IsoINIncomplete,"ax",%progbits
 480              		.align	1
 481              		.syntax unified
 482              		.thumb
 483              		.thumb_func
 485              	USBD_COMPOSITE_IsoINIncomplete:
 486              	.LVL44:
 487              	.LFB340:
 583:Middlewares/Third_Party/AL94_USB_Composite/COMPOSITE/Class/COMPOSITE/Src/usbd_composite.c **** 
 584:Middlewares/Third_Party/AL94_USB_Composite/COMPOSITE/Class/COMPOSITE/Src/usbd_composite.c **** /**
 585:Middlewares/Third_Party/AL94_USB_Composite/COMPOSITE/Class/COMPOSITE/Src/usbd_composite.c ****   * @brief  USBD_COMPOSITE_IsoINIncomplete
 586:Middlewares/Third_Party/AL94_USB_Composite/COMPOSITE/Class/COMPOSITE/Src/usbd_composite.c ****   *         handle data ISO IN Incomplete event
 587:Middlewares/Third_Party/AL94_USB_Composite/COMPOSITE/Class/COMPOSITE/Src/usbd_composite.c ****   * @param  pdev: device instance
 588:Middlewares/Third_Party/AL94_USB_Composite/COMPOSITE/Class/COMPOSITE/Src/usbd_composite.c ****   * @param  epnum: endpoint index
 589:Middlewares/Third_Party/AL94_USB_Composite/COMPOSITE/Class/COMPOSITE/Src/usbd_composite.c ****   * @retval status
 590:Middlewares/Third_Party/AL94_USB_Composite/COMPOSITE/Class/COMPOSITE/Src/usbd_composite.c ****   */
 591:Middlewares/Third_Party/AL94_USB_Composite/COMPOSITE/Class/COMPOSITE/Src/usbd_composite.c **** static uint8_t USBD_COMPOSITE_IsoINIncomplete(USBD_HandleTypeDef *pdev, uint8_t epnum)
 592:Middlewares/Third_Party/AL94_USB_Composite/COMPOSITE/Class/COMPOSITE/Src/usbd_composite.c **** {
 488              		.loc 1 592 1 is_stmt 1 view -0
 489              		.cfi_startproc
 490              		@ args = 0, pretend = 0, frame = 0
 491              		@ frame_needed = 0, uses_anonymous_args = 0
 492              		@ link register save eliminated.
 593:Middlewares/Third_Party/AL94_USB_Composite/COMPOSITE/Class/COMPOSITE/Src/usbd_composite.c **** #if (USBD_USE_CDC_ACM == 1)
 594:Middlewares/Third_Party/AL94_USB_Composite/COMPOSITE/Class/COMPOSITE/Src/usbd_composite.c **** #endif
 595:Middlewares/Third_Party/AL94_USB_Composite/COMPOSITE/Class/COMPOSITE/Src/usbd_composite.c **** #if (USBD_USE_CDC_ECM == 1)
 596:Middlewares/Third_Party/AL94_USB_Composite/COMPOSITE/Class/COMPOSITE/Src/usbd_composite.c **** #endif
 597:Middlewares/Third_Party/AL94_USB_Composite/COMPOSITE/Class/COMPOSITE/Src/usbd_composite.c **** #if (USBD_USE_CDC_RNDIS == 1)
 598:Middlewares/Third_Party/AL94_USB_Composite/COMPOSITE/Class/COMPOSITE/Src/usbd_composite.c **** #endif
 599:Middlewares/Third_Party/AL94_USB_Composite/COMPOSITE/Class/COMPOSITE/Src/usbd_composite.c **** #if (USBD_USE_HID_MOUSE == 1)
 600:Middlewares/Third_Party/AL94_USB_Composite/COMPOSITE/Class/COMPOSITE/Src/usbd_composite.c **** #endif
 601:Middlewares/Third_Party/AL94_USB_Composite/COMPOSITE/Class/COMPOSITE/Src/usbd_composite.c **** #if (USBD_USE_HID_KEYBOARD == 1)
 602:Middlewares/Third_Party/AL94_USB_Composite/COMPOSITE/Class/COMPOSITE/Src/usbd_composite.c **** #endif
 603:Middlewares/Third_Party/AL94_USB_Composite/COMPOSITE/Class/COMPOSITE/Src/usbd_composite.c **** #if (USBD_USE_HID_CUSTOM == 1)
 604:Middlewares/Third_Party/AL94_USB_Composite/COMPOSITE/Class/COMPOSITE/Src/usbd_composite.c **** #endif
 605:Middlewares/Third_Party/AL94_USB_Composite/COMPOSITE/Class/COMPOSITE/Src/usbd_composite.c **** #if (USBD_USE_UAC_MIC == 1)
 606:Middlewares/Third_Party/AL94_USB_Composite/COMPOSITE/Class/COMPOSITE/Src/usbd_composite.c ****   if (epnum == (AUDIO_MIC_EP & 0x7F))
 607:Middlewares/Third_Party/AL94_USB_Composite/COMPOSITE/Class/COMPOSITE/Src/usbd_composite.c ****   {
 608:Middlewares/Third_Party/AL94_USB_Composite/COMPOSITE/Class/COMPOSITE/Src/usbd_composite.c ****     USBD_AUDIO_MIC.IsoINIncomplete(pdev, epnum);
 609:Middlewares/Third_Party/AL94_USB_Composite/COMPOSITE/Class/COMPOSITE/Src/usbd_composite.c ****   }
 610:Middlewares/Third_Party/AL94_USB_Composite/COMPOSITE/Class/COMPOSITE/Src/usbd_composite.c **** #endif
 611:Middlewares/Third_Party/AL94_USB_Composite/COMPOSITE/Class/COMPOSITE/Src/usbd_composite.c **** #if (USBD_USE_UAC_SPKR == 1)
 612:Middlewares/Third_Party/AL94_USB_Composite/COMPOSITE/Class/COMPOSITE/Src/usbd_composite.c **** #endif
 613:Middlewares/Third_Party/AL94_USB_Composite/COMPOSITE/Class/COMPOSITE/Src/usbd_composite.c **** #if (USBD_USE_UVC == 1)
 614:Middlewares/Third_Party/AL94_USB_Composite/COMPOSITE/Class/COMPOSITE/Src/usbd_composite.c ****   if (epnum == (UVC_IN_EP & 0x7F))
 615:Middlewares/Third_Party/AL94_USB_Composite/COMPOSITE/Class/COMPOSITE/Src/usbd_composite.c ****   {
 616:Middlewares/Third_Party/AL94_USB_Composite/COMPOSITE/Class/COMPOSITE/Src/usbd_composite.c ****     USBD_VIDEO.IsoINIncomplete(pdev, epnum);
 617:Middlewares/Third_Party/AL94_USB_Composite/COMPOSITE/Class/COMPOSITE/Src/usbd_composite.c ****   }
 618:Middlewares/Third_Party/AL94_USB_Composite/COMPOSITE/Class/COMPOSITE/Src/usbd_composite.c **** #endif
 619:Middlewares/Third_Party/AL94_USB_Composite/COMPOSITE/Class/COMPOSITE/Src/usbd_composite.c **** #if (USBD_USE_MSC == 1)
 620:Middlewares/Third_Party/AL94_USB_Composite/COMPOSITE/Class/COMPOSITE/Src/usbd_composite.c **** #endif
ARM GAS  /tmp/cc5avDBI.s 			page 21


 621:Middlewares/Third_Party/AL94_USB_Composite/COMPOSITE/Class/COMPOSITE/Src/usbd_composite.c **** #if (USBD_USE_DFU == 1)
 622:Middlewares/Third_Party/AL94_USB_Composite/COMPOSITE/Class/COMPOSITE/Src/usbd_composite.c **** #endif
 623:Middlewares/Third_Party/AL94_USB_Composite/COMPOSITE/Class/COMPOSITE/Src/usbd_composite.c **** #if (USBD_USE_PRNTR == 1)
 624:Middlewares/Third_Party/AL94_USB_Composite/COMPOSITE/Class/COMPOSITE/Src/usbd_composite.c **** #endif
 625:Middlewares/Third_Party/AL94_USB_Composite/COMPOSITE/Class/COMPOSITE/Src/usbd_composite.c **** 
 626:Middlewares/Third_Party/AL94_USB_Composite/COMPOSITE/Class/COMPOSITE/Src/usbd_composite.c ****   return (uint8_t)USBD_OK;
 493              		.loc 1 626 3 view .LVU117
 627:Middlewares/Third_Party/AL94_USB_Composite/COMPOSITE/Class/COMPOSITE/Src/usbd_composite.c **** }
 494              		.loc 1 627 1 is_stmt 0 view .LVU118
 495 0000 0020     		movs	r0, #0
 496              	.LVL45:
 497              		.loc 1 627 1 view .LVU119
 498 0002 7047     		bx	lr
 499              		.cfi_endproc
 500              	.LFE340:
 502              		.section	.text.USBD_COMPOSITE_IsoOutIncomplete,"ax",%progbits
 503              		.align	1
 504              		.syntax unified
 505              		.thumb
 506              		.thumb_func
 508              	USBD_COMPOSITE_IsoOutIncomplete:
 509              	.LVL46:
 510              	.LFB341:
 628:Middlewares/Third_Party/AL94_USB_Composite/COMPOSITE/Class/COMPOSITE/Src/usbd_composite.c **** 
 629:Middlewares/Third_Party/AL94_USB_Composite/COMPOSITE/Class/COMPOSITE/Src/usbd_composite.c **** /**
 630:Middlewares/Third_Party/AL94_USB_Composite/COMPOSITE/Class/COMPOSITE/Src/usbd_composite.c ****   * @brief  USBD_COMPOSITE_IsoOutIncomplete
 631:Middlewares/Third_Party/AL94_USB_Composite/COMPOSITE/Class/COMPOSITE/Src/usbd_composite.c ****   *         handle data ISO OUT Incomplete event
 632:Middlewares/Third_Party/AL94_USB_Composite/COMPOSITE/Class/COMPOSITE/Src/usbd_composite.c ****   * @param  pdev: device instance
 633:Middlewares/Third_Party/AL94_USB_Composite/COMPOSITE/Class/COMPOSITE/Src/usbd_composite.c ****   * @param  epnum: endpoint index
 634:Middlewares/Third_Party/AL94_USB_Composite/COMPOSITE/Class/COMPOSITE/Src/usbd_composite.c ****   * @retval status
 635:Middlewares/Third_Party/AL94_USB_Composite/COMPOSITE/Class/COMPOSITE/Src/usbd_composite.c ****   */
 636:Middlewares/Third_Party/AL94_USB_Composite/COMPOSITE/Class/COMPOSITE/Src/usbd_composite.c **** static uint8_t USBD_COMPOSITE_IsoOutIncomplete(USBD_HandleTypeDef *pdev, uint8_t epnum)
 637:Middlewares/Third_Party/AL94_USB_Composite/COMPOSITE/Class/COMPOSITE/Src/usbd_composite.c **** {
 511              		.loc 1 637 1 is_stmt 1 view -0
 512              		.cfi_startproc
 513              		@ args = 0, pretend = 0, frame = 0
 514              		@ frame_needed = 0, uses_anonymous_args = 0
 515              		@ link register save eliminated.
 638:Middlewares/Third_Party/AL94_USB_Composite/COMPOSITE/Class/COMPOSITE/Src/usbd_composite.c **** #if (USBD_USE_CDC_ACM == 1)
 639:Middlewares/Third_Party/AL94_USB_Composite/COMPOSITE/Class/COMPOSITE/Src/usbd_composite.c **** #endif
 640:Middlewares/Third_Party/AL94_USB_Composite/COMPOSITE/Class/COMPOSITE/Src/usbd_composite.c **** #if (USBD_USE_CDC_ECM == 1)
 641:Middlewares/Third_Party/AL94_USB_Composite/COMPOSITE/Class/COMPOSITE/Src/usbd_composite.c **** #endif
 642:Middlewares/Third_Party/AL94_USB_Composite/COMPOSITE/Class/COMPOSITE/Src/usbd_composite.c **** #if (USBD_USE_CDC_RNDIS == 1)
 643:Middlewares/Third_Party/AL94_USB_Composite/COMPOSITE/Class/COMPOSITE/Src/usbd_composite.c **** #endif
 644:Middlewares/Third_Party/AL94_USB_Composite/COMPOSITE/Class/COMPOSITE/Src/usbd_composite.c **** #if (USBD_USE_HID_MOUSE == 1)
 645:Middlewares/Third_Party/AL94_USB_Composite/COMPOSITE/Class/COMPOSITE/Src/usbd_composite.c **** #endif
 646:Middlewares/Third_Party/AL94_USB_Composite/COMPOSITE/Class/COMPOSITE/Src/usbd_composite.c **** #if (USBD_USE_HID_KEYBOARD == 1)
 647:Middlewares/Third_Party/AL94_USB_Composite/COMPOSITE/Class/COMPOSITE/Src/usbd_composite.c **** #endif
 648:Middlewares/Third_Party/AL94_USB_Composite/COMPOSITE/Class/COMPOSITE/Src/usbd_composite.c **** #if (USBD_USE_HID_CUSTOM == 1)
 649:Middlewares/Third_Party/AL94_USB_Composite/COMPOSITE/Class/COMPOSITE/Src/usbd_composite.c **** #endif
 650:Middlewares/Third_Party/AL94_USB_Composite/COMPOSITE/Class/COMPOSITE/Src/usbd_composite.c **** #if (USBD_USE_UAC_MIC == 1)
 651:Middlewares/Third_Party/AL94_USB_Composite/COMPOSITE/Class/COMPOSITE/Src/usbd_composite.c **** #endif
 652:Middlewares/Third_Party/AL94_USB_Composite/COMPOSITE/Class/COMPOSITE/Src/usbd_composite.c **** #if (USBD_USE_UAC_SPKR == 1)
 653:Middlewares/Third_Party/AL94_USB_Composite/COMPOSITE/Class/COMPOSITE/Src/usbd_composite.c ****   if (epnum == AUDIO_SPKR_EP)
 654:Middlewares/Third_Party/AL94_USB_Composite/COMPOSITE/Class/COMPOSITE/Src/usbd_composite.c ****   {
 655:Middlewares/Third_Party/AL94_USB_Composite/COMPOSITE/Class/COMPOSITE/Src/usbd_composite.c ****     USBD_AUDIO_SPKR.IsoOUTIncomplete(pdev, epnum);
 656:Middlewares/Third_Party/AL94_USB_Composite/COMPOSITE/Class/COMPOSITE/Src/usbd_composite.c ****   }
ARM GAS  /tmp/cc5avDBI.s 			page 22


 657:Middlewares/Third_Party/AL94_USB_Composite/COMPOSITE/Class/COMPOSITE/Src/usbd_composite.c **** #endif
 658:Middlewares/Third_Party/AL94_USB_Composite/COMPOSITE/Class/COMPOSITE/Src/usbd_composite.c **** #if (USBD_USE_UVC == 1)
 659:Middlewares/Third_Party/AL94_USB_Composite/COMPOSITE/Class/COMPOSITE/Src/usbd_composite.c **** #endif
 660:Middlewares/Third_Party/AL94_USB_Composite/COMPOSITE/Class/COMPOSITE/Src/usbd_composite.c **** #if (USBD_USE_MSC == 1)
 661:Middlewares/Third_Party/AL94_USB_Composite/COMPOSITE/Class/COMPOSITE/Src/usbd_composite.c **** #endif
 662:Middlewares/Third_Party/AL94_USB_Composite/COMPOSITE/Class/COMPOSITE/Src/usbd_composite.c **** #if (USBD_USE_DFU == 1)
 663:Middlewares/Third_Party/AL94_USB_Composite/COMPOSITE/Class/COMPOSITE/Src/usbd_composite.c **** #endif
 664:Middlewares/Third_Party/AL94_USB_Composite/COMPOSITE/Class/COMPOSITE/Src/usbd_composite.c **** #if (USBD_USE_PRNTR == 1)
 665:Middlewares/Third_Party/AL94_USB_Composite/COMPOSITE/Class/COMPOSITE/Src/usbd_composite.c **** #endif
 666:Middlewares/Third_Party/AL94_USB_Composite/COMPOSITE/Class/COMPOSITE/Src/usbd_composite.c **** 
 667:Middlewares/Third_Party/AL94_USB_Composite/COMPOSITE/Class/COMPOSITE/Src/usbd_composite.c ****   return (uint8_t)USBD_OK;
 516              		.loc 1 667 3 view .LVU121
 668:Middlewares/Third_Party/AL94_USB_Composite/COMPOSITE/Class/COMPOSITE/Src/usbd_composite.c **** }
 517              		.loc 1 668 1 is_stmt 0 view .LVU122
 518 0000 0020     		movs	r0, #0
 519              	.LVL47:
 520              		.loc 1 668 1 view .LVU123
 521 0002 7047     		bx	lr
 522              		.cfi_endproc
 523              	.LFE341:
 525              		.section	.text.USBD_COMPOSITE_DataOut,"ax",%progbits
 526              		.align	1
 527              		.syntax unified
 528              		.thumb
 529              		.thumb_func
 531              	USBD_COMPOSITE_DataOut:
 532              	.LVL48:
 533              	.LFB342:
 669:Middlewares/Third_Party/AL94_USB_Composite/COMPOSITE/Class/COMPOSITE/Src/usbd_composite.c **** /**
 670:Middlewares/Third_Party/AL94_USB_Composite/COMPOSITE/Class/COMPOSITE/Src/usbd_composite.c ****   * @brief  USBD_COMPOSITE_DataOut
 671:Middlewares/Third_Party/AL94_USB_Composite/COMPOSITE/Class/COMPOSITE/Src/usbd_composite.c ****   *         handle data OUT Stage
 672:Middlewares/Third_Party/AL94_USB_Composite/COMPOSITE/Class/COMPOSITE/Src/usbd_composite.c ****   * @param  pdev: device instance
 673:Middlewares/Third_Party/AL94_USB_Composite/COMPOSITE/Class/COMPOSITE/Src/usbd_composite.c ****   * @param  epnum: endpoint index
 674:Middlewares/Third_Party/AL94_USB_Composite/COMPOSITE/Class/COMPOSITE/Src/usbd_composite.c ****   * @retval status
 675:Middlewares/Third_Party/AL94_USB_Composite/COMPOSITE/Class/COMPOSITE/Src/usbd_composite.c ****   */
 676:Middlewares/Third_Party/AL94_USB_Composite/COMPOSITE/Class/COMPOSITE/Src/usbd_composite.c **** static uint8_t USBD_COMPOSITE_DataOut(USBD_HandleTypeDef *pdev, uint8_t epnum)
 677:Middlewares/Third_Party/AL94_USB_Composite/COMPOSITE/Class/COMPOSITE/Src/usbd_composite.c **** {
 534              		.loc 1 677 1 is_stmt 1 view -0
 535              		.cfi_startproc
 536              		@ args = 0, pretend = 0, frame = 0
 537              		@ frame_needed = 0, uses_anonymous_args = 0
 538              		.loc 1 677 1 is_stmt 0 view .LVU125
 539 0000 08B5     		push	{r3, lr}
 540              		.cfi_def_cfa_offset 8
 541              		.cfi_offset 3, -8
 542              		.cfi_offset 14, -4
 678:Middlewares/Third_Party/AL94_USB_Composite/COMPOSITE/Class/COMPOSITE/Src/usbd_composite.c **** #if (USBD_USE_CDC_ACM == 1)
 679:Middlewares/Third_Party/AL94_USB_Composite/COMPOSITE/Class/COMPOSITE/Src/usbd_composite.c ****   for (uint8_t i = 0; i < USBD_CDC_ACM_COUNT; i++)
 543              		.loc 1 679 3 is_stmt 1 view .LVU126
 544              	.LBB6:
 545              		.loc 1 679 8 view .LVU127
 546              	.LVL49:
 547              		.loc 1 679 16 is_stmt 0 view .LVU128
 548 0002 0023     		movs	r3, #0
 549              	.LVL50:
 550              	.L44:
 551              		.loc 1 679 25 is_stmt 1 discriminator 1 view .LVU129
ARM GAS  /tmp/cc5avDBI.s 			page 23


 552 0004 0BB1     		cbz	r3, .L47
 553              	.LBE6:
 680:Middlewares/Third_Party/AL94_USB_Composite/COMPOSITE/Class/COMPOSITE/Src/usbd_composite.c ****   {
 681:Middlewares/Third_Party/AL94_USB_Composite/COMPOSITE/Class/COMPOSITE/Src/usbd_composite.c ****     if (epnum == CDC_OUT_EP[i])
 682:Middlewares/Third_Party/AL94_USB_Composite/COMPOSITE/Class/COMPOSITE/Src/usbd_composite.c ****     {
 683:Middlewares/Third_Party/AL94_USB_Composite/COMPOSITE/Class/COMPOSITE/Src/usbd_composite.c ****       return USBD_CDC_ACM.DataOut(pdev, epnum);
 684:Middlewares/Third_Party/AL94_USB_Composite/COMPOSITE/Class/COMPOSITE/Src/usbd_composite.c ****     }
 685:Middlewares/Third_Party/AL94_USB_Composite/COMPOSITE/Class/COMPOSITE/Src/usbd_composite.c ****   }
 686:Middlewares/Third_Party/AL94_USB_Composite/COMPOSITE/Class/COMPOSITE/Src/usbd_composite.c **** #endif
 687:Middlewares/Third_Party/AL94_USB_Composite/COMPOSITE/Class/COMPOSITE/Src/usbd_composite.c **** #if (USBD_USE_CDC_ECM == 1)
 688:Middlewares/Third_Party/AL94_USB_Composite/COMPOSITE/Class/COMPOSITE/Src/usbd_composite.c ****   if (epnum == CDC_ECM_OUT_EP)
 689:Middlewares/Third_Party/AL94_USB_Composite/COMPOSITE/Class/COMPOSITE/Src/usbd_composite.c ****   {
 690:Middlewares/Third_Party/AL94_USB_Composite/COMPOSITE/Class/COMPOSITE/Src/usbd_composite.c ****     return USBD_CDC_ECM.DataOut(pdev, epnum);
 691:Middlewares/Third_Party/AL94_USB_Composite/COMPOSITE/Class/COMPOSITE/Src/usbd_composite.c ****   }
 692:Middlewares/Third_Party/AL94_USB_Composite/COMPOSITE/Class/COMPOSITE/Src/usbd_composite.c **** #endif
 693:Middlewares/Third_Party/AL94_USB_Composite/COMPOSITE/Class/COMPOSITE/Src/usbd_composite.c **** #if (USBD_USE_CDC_RNDIS == 1)
 694:Middlewares/Third_Party/AL94_USB_Composite/COMPOSITE/Class/COMPOSITE/Src/usbd_composite.c ****   if (epnum == CDC_RNDIS_OUT_EP)
 695:Middlewares/Third_Party/AL94_USB_Composite/COMPOSITE/Class/COMPOSITE/Src/usbd_composite.c ****   {
 696:Middlewares/Third_Party/AL94_USB_Composite/COMPOSITE/Class/COMPOSITE/Src/usbd_composite.c ****     return USBD_CDC_RNDIS.DataOut(pdev, epnum);
 697:Middlewares/Third_Party/AL94_USB_Composite/COMPOSITE/Class/COMPOSITE/Src/usbd_composite.c ****   }
 698:Middlewares/Third_Party/AL94_USB_Composite/COMPOSITE/Class/COMPOSITE/Src/usbd_composite.c **** #endif
 699:Middlewares/Third_Party/AL94_USB_Composite/COMPOSITE/Class/COMPOSITE/Src/usbd_composite.c **** #if (USBD_USE_HID_MOUSE == 1)
 700:Middlewares/Third_Party/AL94_USB_Composite/COMPOSITE/Class/COMPOSITE/Src/usbd_composite.c **** #endif
 701:Middlewares/Third_Party/AL94_USB_Composite/COMPOSITE/Class/COMPOSITE/Src/usbd_composite.c **** #if (USBD_USE_HID_KEYBOARD == 1)
 702:Middlewares/Third_Party/AL94_USB_Composite/COMPOSITE/Class/COMPOSITE/Src/usbd_composite.c **** #endif
 703:Middlewares/Third_Party/AL94_USB_Composite/COMPOSITE/Class/COMPOSITE/Src/usbd_composite.c **** #if (USBD_USE_HID_CUSTOM == 1)
 704:Middlewares/Third_Party/AL94_USB_Composite/COMPOSITE/Class/COMPOSITE/Src/usbd_composite.c ****   if (epnum == CUSTOM_HID_OUT_EP)
 705:Middlewares/Third_Party/AL94_USB_Composite/COMPOSITE/Class/COMPOSITE/Src/usbd_composite.c ****   {
 706:Middlewares/Third_Party/AL94_USB_Composite/COMPOSITE/Class/COMPOSITE/Src/usbd_composite.c ****     return USBD_HID_CUSTOM.DataOut(pdev, epnum);
 707:Middlewares/Third_Party/AL94_USB_Composite/COMPOSITE/Class/COMPOSITE/Src/usbd_composite.c ****   }
 708:Middlewares/Third_Party/AL94_USB_Composite/COMPOSITE/Class/COMPOSITE/Src/usbd_composite.c **** #endif
 709:Middlewares/Third_Party/AL94_USB_Composite/COMPOSITE/Class/COMPOSITE/Src/usbd_composite.c **** #if (USBD_USE_UAC_MIC == 1)
 710:Middlewares/Third_Party/AL94_USB_Composite/COMPOSITE/Class/COMPOSITE/Src/usbd_composite.c **** #endif
 711:Middlewares/Third_Party/AL94_USB_Composite/COMPOSITE/Class/COMPOSITE/Src/usbd_composite.c **** #if (USBD_USE_UAC_SPKR == 1)
 712:Middlewares/Third_Party/AL94_USB_Composite/COMPOSITE/Class/COMPOSITE/Src/usbd_composite.c ****   if (epnum == AUDIO_SPKR_EP)
 713:Middlewares/Third_Party/AL94_USB_Composite/COMPOSITE/Class/COMPOSITE/Src/usbd_composite.c ****   {
 714:Middlewares/Third_Party/AL94_USB_Composite/COMPOSITE/Class/COMPOSITE/Src/usbd_composite.c ****     return USBD_AUDIO_SPKR.DataOut(pdev, epnum);
 715:Middlewares/Third_Party/AL94_USB_Composite/COMPOSITE/Class/COMPOSITE/Src/usbd_composite.c ****   }
 716:Middlewares/Third_Party/AL94_USB_Composite/COMPOSITE/Class/COMPOSITE/Src/usbd_composite.c **** #endif
 717:Middlewares/Third_Party/AL94_USB_Composite/COMPOSITE/Class/COMPOSITE/Src/usbd_composite.c **** #if (USBD_USE_UVC == 1)
 718:Middlewares/Third_Party/AL94_USB_Composite/COMPOSITE/Class/COMPOSITE/Src/usbd_composite.c **** #endif
 719:Middlewares/Third_Party/AL94_USB_Composite/COMPOSITE/Class/COMPOSITE/Src/usbd_composite.c **** #if (USBD_USE_MSC == 1)
 720:Middlewares/Third_Party/AL94_USB_Composite/COMPOSITE/Class/COMPOSITE/Src/usbd_composite.c ****   if (epnum == MSC_OUT_EP)
 721:Middlewares/Third_Party/AL94_USB_Composite/COMPOSITE/Class/COMPOSITE/Src/usbd_composite.c ****   {
 722:Middlewares/Third_Party/AL94_USB_Composite/COMPOSITE/Class/COMPOSITE/Src/usbd_composite.c ****     return USBD_MSC.DataOut(pdev, epnum);
 723:Middlewares/Third_Party/AL94_USB_Composite/COMPOSITE/Class/COMPOSITE/Src/usbd_composite.c ****   }
 724:Middlewares/Third_Party/AL94_USB_Composite/COMPOSITE/Class/COMPOSITE/Src/usbd_composite.c **** #endif
 725:Middlewares/Third_Party/AL94_USB_Composite/COMPOSITE/Class/COMPOSITE/Src/usbd_composite.c **** #if (USBD_USE_DFU == 1)
 726:Middlewares/Third_Party/AL94_USB_Composite/COMPOSITE/Class/COMPOSITE/Src/usbd_composite.c **** #endif
 727:Middlewares/Third_Party/AL94_USB_Composite/COMPOSITE/Class/COMPOSITE/Src/usbd_composite.c **** #if (USBD_USE_PRNTR == 1)
 728:Middlewares/Third_Party/AL94_USB_Composite/COMPOSITE/Class/COMPOSITE/Src/usbd_composite.c ****   if (epnum == PRNT_OUT_EP)
 729:Middlewares/Third_Party/AL94_USB_Composite/COMPOSITE/Class/COMPOSITE/Src/usbd_composite.c ****   {
 730:Middlewares/Third_Party/AL94_USB_Composite/COMPOSITE/Class/COMPOSITE/Src/usbd_composite.c ****     USBD_PRNT.DataOut(pdev, epnum);
 731:Middlewares/Third_Party/AL94_USB_Composite/COMPOSITE/Class/COMPOSITE/Src/usbd_composite.c ****   }
 732:Middlewares/Third_Party/AL94_USB_Composite/COMPOSITE/Class/COMPOSITE/Src/usbd_composite.c **** #endif
 733:Middlewares/Third_Party/AL94_USB_Composite/COMPOSITE/Class/COMPOSITE/Src/usbd_composite.c **** 
 734:Middlewares/Third_Party/AL94_USB_Composite/COMPOSITE/Class/COMPOSITE/Src/usbd_composite.c ****   return USBD_FAIL;
ARM GAS  /tmp/cc5avDBI.s 			page 24


 554              		.loc 1 734 10 is_stmt 0 view .LVU130
 555 0006 0320     		movs	r0, #3
 556              	.LVL51:
 557              	.L46:
 735:Middlewares/Third_Party/AL94_USB_Composite/COMPOSITE/Class/COMPOSITE/Src/usbd_composite.c **** }
 558              		.loc 1 735 1 view .LVU131
 559 0008 08BD     		pop	{r3, pc}
 560              	.LVL52:
 561              	.L47:
 562              	.LBB7:
 681:Middlewares/Third_Party/AL94_USB_Composite/COMPOSITE/Class/COMPOSITE/Src/usbd_composite.c ****     {
 563              		.loc 1 681 5 is_stmt 1 view .LVU132
 681:Middlewares/Third_Party/AL94_USB_Composite/COMPOSITE/Class/COMPOSITE/Src/usbd_composite.c ****     {
 564              		.loc 1 681 28 is_stmt 0 view .LVU133
 565 000a 054A     		ldr	r2, .L50
 566 000c D25C     		ldrb	r2, [r2, r3]	@ zero_extendqisi2
 681:Middlewares/Third_Party/AL94_USB_Composite/COMPOSITE/Class/COMPOSITE/Src/usbd_composite.c ****     {
 567              		.loc 1 681 8 view .LVU134
 568 000e 8A42     		cmp	r2, r1
 569 0010 02D0     		beq	.L49
 679:Middlewares/Third_Party/AL94_USB_Composite/COMPOSITE/Class/COMPOSITE/Src/usbd_composite.c ****   {
 570              		.loc 1 679 48 is_stmt 1 discriminator 2 view .LVU135
 571 0012 0133     		adds	r3, r3, #1
 572              	.LVL53:
 679:Middlewares/Third_Party/AL94_USB_Composite/COMPOSITE/Class/COMPOSITE/Src/usbd_composite.c ****   {
 573              		.loc 1 679 48 is_stmt 0 discriminator 2 view .LVU136
 574 0014 DBB2     		uxtb	r3, r3
 575 0016 F5E7     		b	.L44
 576              	.LVL54:
 577              	.L49:
 683:Middlewares/Third_Party/AL94_USB_Composite/COMPOSITE/Class/COMPOSITE/Src/usbd_composite.c ****     }
 578              		.loc 1 683 7 is_stmt 1 view .LVU137
 683:Middlewares/Third_Party/AL94_USB_Composite/COMPOSITE/Class/COMPOSITE/Src/usbd_composite.c ****     }
 579              		.loc 1 683 26 is_stmt 0 view .LVU138
 580 0018 024B     		ldr	r3, .L50+4
 581              	.LVL55:
 683:Middlewares/Third_Party/AL94_USB_Composite/COMPOSITE/Class/COMPOSITE/Src/usbd_composite.c ****     }
 582              		.loc 1 683 26 view .LVU139
 583 001a 9B69     		ldr	r3, [r3, #24]
 683:Middlewares/Third_Party/AL94_USB_Composite/COMPOSITE/Class/COMPOSITE/Src/usbd_composite.c ****     }
 584              		.loc 1 683 14 view .LVU140
 585 001c 9847     		blx	r3
 586              	.LVL56:
 683:Middlewares/Third_Party/AL94_USB_Composite/COMPOSITE/Class/COMPOSITE/Src/usbd_composite.c ****     }
 587              		.loc 1 683 14 view .LVU141
 588 001e F3E7     		b	.L46
 589              	.L51:
 590              		.align	2
 591              	.L50:
 592 0020 00000000 		.word	CDC_OUT_EP
 593 0024 00000000 		.word	USBD_CDC_ACM
 594              	.LBE7:
 595              		.cfi_endproc
 596              	.LFE342:
 598              		.section	.text.USBD_COMPOSITE_GetHSCfgDesc,"ax",%progbits
 599              		.align	1
 600              		.syntax unified
ARM GAS  /tmp/cc5avDBI.s 			page 25


 601              		.thumb
 602              		.thumb_func
 604              	USBD_COMPOSITE_GetHSCfgDesc:
 605              	.LVL57:
 606              	.LFB343:
 736:Middlewares/Third_Party/AL94_USB_Composite/COMPOSITE/Class/COMPOSITE/Src/usbd_composite.c **** 
 737:Middlewares/Third_Party/AL94_USB_Composite/COMPOSITE/Class/COMPOSITE/Src/usbd_composite.c **** /**
 738:Middlewares/Third_Party/AL94_USB_Composite/COMPOSITE/Class/COMPOSITE/Src/usbd_composite.c ****   * @brief  USBD_COMPOSITE_GetHSCfgDesc
 739:Middlewares/Third_Party/AL94_USB_Composite/COMPOSITE/Class/COMPOSITE/Src/usbd_composite.c ****   *         return configuration descriptor
 740:Middlewares/Third_Party/AL94_USB_Composite/COMPOSITE/Class/COMPOSITE/Src/usbd_composite.c ****   * @param  length : pointer data length
 741:Middlewares/Third_Party/AL94_USB_Composite/COMPOSITE/Class/COMPOSITE/Src/usbd_composite.c ****   * @retval pointer to descriptor buffer
 742:Middlewares/Third_Party/AL94_USB_Composite/COMPOSITE/Class/COMPOSITE/Src/usbd_composite.c ****   */
 743:Middlewares/Third_Party/AL94_USB_Composite/COMPOSITE/Class/COMPOSITE/Src/usbd_composite.c **** static uint8_t *USBD_COMPOSITE_GetHSCfgDesc(uint16_t *length)
 744:Middlewares/Third_Party/AL94_USB_Composite/COMPOSITE/Class/COMPOSITE/Src/usbd_composite.c **** {
 607              		.loc 1 744 1 is_stmt 1 view -0
 608              		.cfi_startproc
 609              		@ args = 0, pretend = 0, frame = 0
 610              		@ frame_needed = 0, uses_anonymous_args = 0
 611              		@ link register save eliminated.
 745:Middlewares/Third_Party/AL94_USB_Composite/COMPOSITE/Class/COMPOSITE/Src/usbd_composite.c ****   *length = (uint16_t)sizeof(USBD_COMPOSITE_HSCfgDesc);
 612              		.loc 1 745 3 view .LVU143
 613              		.loc 1 745 11 is_stmt 0 view .LVU144
 614 0000 7D23     		movs	r3, #125
 615 0002 0380     		strh	r3, [r0]	@ movhi
 746:Middlewares/Third_Party/AL94_USB_Composite/COMPOSITE/Class/COMPOSITE/Src/usbd_composite.c ****   return (uint8_t *)&USBD_COMPOSITE_HSCfgDesc;
 616              		.loc 1 746 3 is_stmt 1 view .LVU145
 747:Middlewares/Third_Party/AL94_USB_Composite/COMPOSITE/Class/COMPOSITE/Src/usbd_composite.c **** }
 617              		.loc 1 747 1 is_stmt 0 view .LVU146
 618 0004 0048     		ldr	r0, .L53
 619              	.LVL58:
 620              		.loc 1 747 1 view .LVU147
 621 0006 7047     		bx	lr
 622              	.L54:
 623              		.align	2
 624              	.L53:
 625 0008 00000000 		.word	USBD_COMPOSITE_HSCfgDesc
 626              		.cfi_endproc
 627              	.LFE343:
 629              		.section	.text.USBD_COMPOSITE_GetFSCfgDesc,"ax",%progbits
 630              		.align	1
 631              		.syntax unified
 632              		.thumb
 633              		.thumb_func
 635              	USBD_COMPOSITE_GetFSCfgDesc:
 636              	.LVL59:
 637              	.LFB344:
 748:Middlewares/Third_Party/AL94_USB_Composite/COMPOSITE/Class/COMPOSITE/Src/usbd_composite.c **** 
 749:Middlewares/Third_Party/AL94_USB_Composite/COMPOSITE/Class/COMPOSITE/Src/usbd_composite.c **** /**
 750:Middlewares/Third_Party/AL94_USB_Composite/COMPOSITE/Class/COMPOSITE/Src/usbd_composite.c ****   * @brief  USBD_COMPOSITE_GetFSCfgDesc
 751:Middlewares/Third_Party/AL94_USB_Composite/COMPOSITE/Class/COMPOSITE/Src/usbd_composite.c ****   *         return configuration descriptor
 752:Middlewares/Third_Party/AL94_USB_Composite/COMPOSITE/Class/COMPOSITE/Src/usbd_composite.c ****   * @param  length : pointer data length
 753:Middlewares/Third_Party/AL94_USB_Composite/COMPOSITE/Class/COMPOSITE/Src/usbd_composite.c ****   * @retval pointer to descriptor buffer
 754:Middlewares/Third_Party/AL94_USB_Composite/COMPOSITE/Class/COMPOSITE/Src/usbd_composite.c ****   */
 755:Middlewares/Third_Party/AL94_USB_Composite/COMPOSITE/Class/COMPOSITE/Src/usbd_composite.c **** static uint8_t *USBD_COMPOSITE_GetFSCfgDesc(uint16_t *length)
 756:Middlewares/Third_Party/AL94_USB_Composite/COMPOSITE/Class/COMPOSITE/Src/usbd_composite.c **** {
 638              		.loc 1 756 1 is_stmt 1 view -0
 639              		.cfi_startproc
ARM GAS  /tmp/cc5avDBI.s 			page 26


 640              		@ args = 0, pretend = 0, frame = 0
 641              		@ frame_needed = 0, uses_anonymous_args = 0
 642              		@ link register save eliminated.
 757:Middlewares/Third_Party/AL94_USB_Composite/COMPOSITE/Class/COMPOSITE/Src/usbd_composite.c ****   *length = (uint16_t)sizeof(USBD_COMPOSITE_FSCfgDesc);
 643              		.loc 1 757 3 view .LVU149
 644              		.loc 1 757 11 is_stmt 0 view .LVU150
 645 0000 7D23     		movs	r3, #125
 646 0002 0380     		strh	r3, [r0]	@ movhi
 758:Middlewares/Third_Party/AL94_USB_Composite/COMPOSITE/Class/COMPOSITE/Src/usbd_composite.c ****   return (uint8_t *)&USBD_COMPOSITE_FSCfgDesc;
 647              		.loc 1 758 3 is_stmt 1 view .LVU151
 759:Middlewares/Third_Party/AL94_USB_Composite/COMPOSITE/Class/COMPOSITE/Src/usbd_composite.c **** }
 648              		.loc 1 759 1 is_stmt 0 view .LVU152
 649 0004 0048     		ldr	r0, .L56
 650              	.LVL60:
 651              		.loc 1 759 1 view .LVU153
 652 0006 7047     		bx	lr
 653              	.L57:
 654              		.align	2
 655              	.L56:
 656 0008 00000000 		.word	USBD_COMPOSITE_FSCfgDesc
 657              		.cfi_endproc
 658              	.LFE344:
 660              		.section	.text.USBD_COMPOSITE_GetOtherSpeedCfgDesc,"ax",%progbits
 661              		.align	1
 662              		.syntax unified
 663              		.thumb
 664              		.thumb_func
 666              	USBD_COMPOSITE_GetOtherSpeedCfgDesc:
 667              	.LVL61:
 668              	.LFB345:
 760:Middlewares/Third_Party/AL94_USB_Composite/COMPOSITE/Class/COMPOSITE/Src/usbd_composite.c **** 
 761:Middlewares/Third_Party/AL94_USB_Composite/COMPOSITE/Class/COMPOSITE/Src/usbd_composite.c **** /**
 762:Middlewares/Third_Party/AL94_USB_Composite/COMPOSITE/Class/COMPOSITE/Src/usbd_composite.c ****   * @brief  USBD_COMPOSITE_GetOtherSpeedCfgDesc
 763:Middlewares/Third_Party/AL94_USB_Composite/COMPOSITE/Class/COMPOSITE/Src/usbd_composite.c ****   *         return configuration descriptor
 764:Middlewares/Third_Party/AL94_USB_Composite/COMPOSITE/Class/COMPOSITE/Src/usbd_composite.c ****   * @param  length : pointer data length
 765:Middlewares/Third_Party/AL94_USB_Composite/COMPOSITE/Class/COMPOSITE/Src/usbd_composite.c ****   * @retval pointer to descriptor buffer
 766:Middlewares/Third_Party/AL94_USB_Composite/COMPOSITE/Class/COMPOSITE/Src/usbd_composite.c ****   */
 767:Middlewares/Third_Party/AL94_USB_Composite/COMPOSITE/Class/COMPOSITE/Src/usbd_composite.c **** static uint8_t *USBD_COMPOSITE_GetOtherSpeedCfgDesc(uint16_t *length)
 768:Middlewares/Third_Party/AL94_USB_Composite/COMPOSITE/Class/COMPOSITE/Src/usbd_composite.c **** {
 669              		.loc 1 768 1 is_stmt 1 view -0
 670              		.cfi_startproc
 671              		@ args = 0, pretend = 0, frame = 0
 672              		@ frame_needed = 0, uses_anonymous_args = 0
 673              		@ link register save eliminated.
 769:Middlewares/Third_Party/AL94_USB_Composite/COMPOSITE/Class/COMPOSITE/Src/usbd_composite.c **** #if (USBD_USE_HS == 1)
 770:Middlewares/Third_Party/AL94_USB_Composite/COMPOSITE/Class/COMPOSITE/Src/usbd_composite.c ****   *length = (uint16_t)sizeof(USBD_COMPOSITE_FSCfgDesc);
 771:Middlewares/Third_Party/AL94_USB_Composite/COMPOSITE/Class/COMPOSITE/Src/usbd_composite.c ****   return (uint8_t *)&USBD_COMPOSITE_FSCfgDesc;
 772:Middlewares/Third_Party/AL94_USB_Composite/COMPOSITE/Class/COMPOSITE/Src/usbd_composite.c **** #else
 773:Middlewares/Third_Party/AL94_USB_Composite/COMPOSITE/Class/COMPOSITE/Src/usbd_composite.c ****   *length = (uint16_t)sizeof(USBD_COMPOSITE_HSCfgDesc);
 674              		.loc 1 773 3 view .LVU155
 675              		.loc 1 773 11 is_stmt 0 view .LVU156
 676 0000 7D23     		movs	r3, #125
 677 0002 0380     		strh	r3, [r0]	@ movhi
 774:Middlewares/Third_Party/AL94_USB_Composite/COMPOSITE/Class/COMPOSITE/Src/usbd_composite.c ****   return (uint8_t *)&USBD_COMPOSITE_HSCfgDesc;
 678              		.loc 1 774 3 is_stmt 1 view .LVU157
 775:Middlewares/Third_Party/AL94_USB_Composite/COMPOSITE/Class/COMPOSITE/Src/usbd_composite.c **** #endif
 776:Middlewares/Third_Party/AL94_USB_Composite/COMPOSITE/Class/COMPOSITE/Src/usbd_composite.c **** }
ARM GAS  /tmp/cc5avDBI.s 			page 27


 679              		.loc 1 776 1 is_stmt 0 view .LVU158
 680 0004 0048     		ldr	r0, .L59
 681              	.LVL62:
 682              		.loc 1 776 1 view .LVU159
 683 0006 7047     		bx	lr
 684              	.L60:
 685              		.align	2
 686              	.L59:
 687 0008 00000000 		.word	USBD_COMPOSITE_HSCfgDesc
 688              		.cfi_endproc
 689              	.LFE345:
 691              		.section	.text.USBD_COMPOSITE_GetDeviceQualifierDesc,"ax",%progbits
 692              		.align	1
 693              		.syntax unified
 694              		.thumb
 695              		.thumb_func
 697              	USBD_COMPOSITE_GetDeviceQualifierDesc:
 698              	.LVL63:
 699              	.LFB346:
 777:Middlewares/Third_Party/AL94_USB_Composite/COMPOSITE/Class/COMPOSITE/Src/usbd_composite.c **** 
 778:Middlewares/Third_Party/AL94_USB_Composite/COMPOSITE/Class/COMPOSITE/Src/usbd_composite.c **** /**
 779:Middlewares/Third_Party/AL94_USB_Composite/COMPOSITE/Class/COMPOSITE/Src/usbd_composite.c ****   * @brief  DeviceQualifierDescriptor
 780:Middlewares/Third_Party/AL94_USB_Composite/COMPOSITE/Class/COMPOSITE/Src/usbd_composite.c ****   *         return Device Qualifier descriptor
 781:Middlewares/Third_Party/AL94_USB_Composite/COMPOSITE/Class/COMPOSITE/Src/usbd_composite.c ****   * @param  length : pointer data length
 782:Middlewares/Third_Party/AL94_USB_Composite/COMPOSITE/Class/COMPOSITE/Src/usbd_composite.c ****   * @retval pointer to descriptor buffer
 783:Middlewares/Third_Party/AL94_USB_Composite/COMPOSITE/Class/COMPOSITE/Src/usbd_composite.c ****   */
 784:Middlewares/Third_Party/AL94_USB_Composite/COMPOSITE/Class/COMPOSITE/Src/usbd_composite.c **** uint8_t *USBD_COMPOSITE_GetDeviceQualifierDesc(uint16_t *length)
 785:Middlewares/Third_Party/AL94_USB_Composite/COMPOSITE/Class/COMPOSITE/Src/usbd_composite.c **** {
 700              		.loc 1 785 1 is_stmt 1 view -0
 701              		.cfi_startproc
 702              		@ args = 0, pretend = 0, frame = 0
 703              		@ frame_needed = 0, uses_anonymous_args = 0
 704              		@ link register save eliminated.
 786:Middlewares/Third_Party/AL94_USB_Composite/COMPOSITE/Class/COMPOSITE/Src/usbd_composite.c ****   *length = (uint16_t)sizeof(USBD_COMPOSITE_DeviceQualifierDesc);
 705              		.loc 1 786 3 view .LVU161
 706              		.loc 1 786 11 is_stmt 0 view .LVU162
 707 0000 0A23     		movs	r3, #10
 708 0002 0380     		strh	r3, [r0]	@ movhi
 787:Middlewares/Third_Party/AL94_USB_Composite/COMPOSITE/Class/COMPOSITE/Src/usbd_composite.c ****   return USBD_COMPOSITE_DeviceQualifierDesc;
 709              		.loc 1 787 3 is_stmt 1 view .LVU163
 788:Middlewares/Third_Party/AL94_USB_Composite/COMPOSITE/Class/COMPOSITE/Src/usbd_composite.c **** }
 710              		.loc 1 788 1 is_stmt 0 view .LVU164
 711 0004 0048     		ldr	r0, .L62
 712              	.LVL64:
 713              		.loc 1 788 1 view .LVU165
 714 0006 7047     		bx	lr
 715              	.L63:
 716              		.align	2
 717              	.L62:
 718 0008 00000000 		.word	USBD_COMPOSITE_DeviceQualifierDesc
 719              		.cfi_endproc
 720              	.LFE346:
 722              		.section	.rodata.USBD_COMPOSITE_GetUsrStringDesc.str1.4,"aMS",%progbits,1
 723              		.align	2
 724              	.LC0:
 725 0000 53544D33 		.ascii	"STM32 CDC ACM%d\000"
 725      32204344 
ARM GAS  /tmp/cc5avDBI.s 			page 28


 725      43204143 
 725      4D256400 
 726              		.align	2
 727              	.LC1:
 728 0010 53544D33 		.ascii	"STM32 USB MOUSE\000"
 728      32205553 
 728      42204D4F 
 728      55534500 
 729              		.align	2
 730              	.LC2:
 731 0020 53544D33 		.ascii	"STM32 USB KEYBOARD\000"
 731      32205553 
 731      42204B45 
 731      59424F41 
 731      524400
 732              		.section	.text.USBD_COMPOSITE_GetUsrStringDesc,"ax",%progbits
 733              		.align	1
 734              		.syntax unified
 735              		.thumb
 736              		.thumb_func
 738              	USBD_COMPOSITE_GetUsrStringDesc:
 739              	.LVL65:
 740              	.LFB347:
 789:Middlewares/Third_Party/AL94_USB_Composite/COMPOSITE/Class/COMPOSITE/Src/usbd_composite.c **** 
 790:Middlewares/Third_Party/AL94_USB_Composite/COMPOSITE/Class/COMPOSITE/Src/usbd_composite.c **** /**
 791:Middlewares/Third_Party/AL94_USB_Composite/COMPOSITE/Class/COMPOSITE/Src/usbd_composite.c ****   * @brief  USBD_COMPOSITE_GetUsrStringDesc
 792:Middlewares/Third_Party/AL94_USB_Composite/COMPOSITE/Class/COMPOSITE/Src/usbd_composite.c ****   *         Manages the transfer of memory interfaces string descriptors.
 793:Middlewares/Third_Party/AL94_USB_Composite/COMPOSITE/Class/COMPOSITE/Src/usbd_composite.c ****   * @param  speed : current device speed
 794:Middlewares/Third_Party/AL94_USB_Composite/COMPOSITE/Class/COMPOSITE/Src/usbd_composite.c ****   * @param  index: descriptor index
 795:Middlewares/Third_Party/AL94_USB_Composite/COMPOSITE/Class/COMPOSITE/Src/usbd_composite.c ****   * @param  length : pointer data length
 796:Middlewares/Third_Party/AL94_USB_Composite/COMPOSITE/Class/COMPOSITE/Src/usbd_composite.c ****   * @retval pointer to the descriptor table or NULL if the descriptor is not supported.
 797:Middlewares/Third_Party/AL94_USB_Composite/COMPOSITE/Class/COMPOSITE/Src/usbd_composite.c ****   */
 798:Middlewares/Third_Party/AL94_USB_Composite/COMPOSITE/Class/COMPOSITE/Src/usbd_composite.c **** #if (USBD_SUPPORT_USER_STRING_DESC == 1U)
 799:Middlewares/Third_Party/AL94_USB_Composite/COMPOSITE/Class/COMPOSITE/Src/usbd_composite.c **** static uint8_t *USBD_COMPOSITE_GetUsrStringDesc(USBD_HandleTypeDef *pdev, uint8_t index, uint16_t *
 800:Middlewares/Third_Party/AL94_USB_Composite/COMPOSITE/Class/COMPOSITE/Src/usbd_composite.c **** {
 741              		.loc 1 800 1 is_stmt 1 view -0
 742              		.cfi_startproc
 743              		@ args = 0, pretend = 0, frame = 16
 744              		@ frame_needed = 0, uses_anonymous_args = 0
 801:Middlewares/Third_Party/AL94_USB_Composite/COMPOSITE/Class/COMPOSITE/Src/usbd_composite.c ****   static uint8_t USBD_StrDesc[64];
 745              		.loc 1 801 3 view .LVU167
 802:Middlewares/Third_Party/AL94_USB_Composite/COMPOSITE/Class/COMPOSITE/Src/usbd_composite.c **** 
 803:Middlewares/Third_Party/AL94_USB_Composite/COMPOSITE/Class/COMPOSITE/Src/usbd_composite.c ****   /* Check if the requested string interface is supported */
 804:Middlewares/Third_Party/AL94_USB_Composite/COMPOSITE/Class/COMPOSITE/Src/usbd_composite.c ****   if (index <= USBD_Track_String_Index)
 746              		.loc 1 804 3 view .LVU168
 747              		.loc 1 804 13 is_stmt 0 view .LVU169
 748 0000 1D4B     		ldr	r3, .L79
 749 0002 1B78     		ldrb	r3, [r3]	@ zero_extendqisi2
 750              		.loc 1 804 6 view .LVU170
 751 0004 8B42     		cmp	r3, r1
 752 0006 34D3     		bcc	.L71
 800:Middlewares/Third_Party/AL94_USB_Composite/COMPOSITE/Class/COMPOSITE/Src/usbd_composite.c ****   static uint8_t USBD_StrDesc[64];
 753              		.loc 1 800 1 view .LVU171
 754 0008 F0B5     		push	{r4, r5, r6, r7, lr}
 755              		.cfi_def_cfa_offset 20
 756              		.cfi_offset 4, -20
 757              		.cfi_offset 5, -16
ARM GAS  /tmp/cc5avDBI.s 			page 29


 758              		.cfi_offset 6, -12
 759              		.cfi_offset 7, -8
 760              		.cfi_offset 14, -4
 761 000a 85B0     		sub	sp, sp, #20
 762              		.cfi_def_cfa_offset 40
 763 000c 0D46     		mov	r5, r1
 764 000e 1646     		mov	r6, r2
 765              	.LBB8:
 805:Middlewares/Third_Party/AL94_USB_Composite/COMPOSITE/Class/COMPOSITE/Src/usbd_composite.c ****   {
 806:Middlewares/Third_Party/AL94_USB_Composite/COMPOSITE/Class/COMPOSITE/Src/usbd_composite.c **** #if (USBD_USE_CDC_ACM == 1)
 807:Middlewares/Third_Party/AL94_USB_Composite/COMPOSITE/Class/COMPOSITE/Src/usbd_composite.c ****     char str_buffer[16] = "";
 766              		.loc 1 807 5 is_stmt 1 view .LVU172
 767              		.loc 1 807 10 is_stmt 0 view .LVU173
 768 0010 0024     		movs	r4, #0
 769 0012 0094     		str	r4, [sp]
 770 0014 0194     		str	r4, [sp, #4]
 771 0016 0294     		str	r4, [sp, #8]
 772 0018 0394     		str	r4, [sp, #12]
 808:Middlewares/Third_Party/AL94_USB_Composite/COMPOSITE/Class/COMPOSITE/Src/usbd_composite.c ****     for (uint8_t i = 0; i < USBD_CDC_ACM_COUNT; i++)
 773              		.loc 1 808 5 is_stmt 1 view .LVU174
 774              	.LBB9:
 775              		.loc 1 808 10 view .LVU175
 776              	.LVL66:
 777              		.loc 1 808 5 is_stmt 0 view .LVU176
 778 001a 05E0     		b	.L66
 779              	.LVL67:
 780              	.L68:
 809:Middlewares/Third_Party/AL94_USB_Composite/COMPOSITE/Class/COMPOSITE/Src/usbd_composite.c ****     {
 810:Middlewares/Third_Party/AL94_USB_Composite/COMPOSITE/Class/COMPOSITE/Src/usbd_composite.c ****       if (index == CDC_STR_DESC_IDX[i])
 781              		.loc 1 810 7 is_stmt 1 view .LVU177
 782              		.loc 1 810 36 is_stmt 0 view .LVU178
 783 001c 174B     		ldr	r3, .L79+4
 784 001e 1B5D     		ldrb	r3, [r3, r4]	@ zero_extendqisi2
 785              		.loc 1 810 10 view .LVU179
 786 0020 AB42     		cmp	r3, r5
 787 0022 0ED0     		beq	.L76
 788              	.L67:
 808:Middlewares/Third_Party/AL94_USB_Composite/COMPOSITE/Class/COMPOSITE/Src/usbd_composite.c ****     for (uint8_t i = 0; i < USBD_CDC_ACM_COUNT; i++)
 789              		.loc 1 808 50 is_stmt 1 discriminator 2 view .LVU180
 790 0024 0134     		adds	r4, r4, #1
 791              	.LVL68:
 808:Middlewares/Third_Party/AL94_USB_Composite/COMPOSITE/Class/COMPOSITE/Src/usbd_composite.c ****     for (uint8_t i = 0; i < USBD_CDC_ACM_COUNT; i++)
 792              		.loc 1 808 50 is_stmt 0 discriminator 2 view .LVU181
 793 0026 E4B2     		uxtb	r4, r4
 794              	.LVL69:
 795              	.L66:
 808:Middlewares/Third_Party/AL94_USB_Composite/COMPOSITE/Class/COMPOSITE/Src/usbd_composite.c ****     for (uint8_t i = 0; i < USBD_CDC_ACM_COUNT; i++)
 796              		.loc 1 808 27 is_stmt 1 discriminator 1 view .LVU182
 797 0028 002C     		cmp	r4, #0
 798 002a F7D0     		beq	.L68
 799              	.LBE9:
 811:Middlewares/Third_Party/AL94_USB_Composite/COMPOSITE/Class/COMPOSITE/Src/usbd_composite.c ****       {
 812:Middlewares/Third_Party/AL94_USB_Composite/COMPOSITE/Class/COMPOSITE/Src/usbd_composite.c ****         snprintf(str_buffer, sizeof(str_buffer), CDC_ACM_STR_DESC, i);
 813:Middlewares/Third_Party/AL94_USB_Composite/COMPOSITE/Class/COMPOSITE/Src/usbd_composite.c ****         USBD_GetString((uint8_t *)str_buffer, USBD_StrDesc, length);
 814:Middlewares/Third_Party/AL94_USB_Composite/COMPOSITE/Class/COMPOSITE/Src/usbd_composite.c ****       }
 815:Middlewares/Third_Party/AL94_USB_Composite/COMPOSITE/Class/COMPOSITE/Src/usbd_composite.c ****     }
 816:Middlewares/Third_Party/AL94_USB_Composite/COMPOSITE/Class/COMPOSITE/Src/usbd_composite.c **** #endif
ARM GAS  /tmp/cc5avDBI.s 			page 30


 817:Middlewares/Third_Party/AL94_USB_Composite/COMPOSITE/Class/COMPOSITE/Src/usbd_composite.c **** #if (USBD_USE_CDC_ECM == 1)
 818:Middlewares/Third_Party/AL94_USB_Composite/COMPOSITE/Class/COMPOSITE/Src/usbd_composite.c ****     if (index == CDC_ECM_STR_DESC_IDX)
 819:Middlewares/Third_Party/AL94_USB_Composite/COMPOSITE/Class/COMPOSITE/Src/usbd_composite.c ****     {
 820:Middlewares/Third_Party/AL94_USB_Composite/COMPOSITE/Class/COMPOSITE/Src/usbd_composite.c ****       USBD_GetString((uint8_t *)CDC_ECM_STR_DESC, USBD_StrDesc, length);
 821:Middlewares/Third_Party/AL94_USB_Composite/COMPOSITE/Class/COMPOSITE/Src/usbd_composite.c ****     }
 822:Middlewares/Third_Party/AL94_USB_Composite/COMPOSITE/Class/COMPOSITE/Src/usbd_composite.c **** #endif
 823:Middlewares/Third_Party/AL94_USB_Composite/COMPOSITE/Class/COMPOSITE/Src/usbd_composite.c **** #if (USBD_USE_CDC_RNDIS == 1)
 824:Middlewares/Third_Party/AL94_USB_Composite/COMPOSITE/Class/COMPOSITE/Src/usbd_composite.c ****     if (index == CDC_RNDIS_STR_DESC_IDX)
 825:Middlewares/Third_Party/AL94_USB_Composite/COMPOSITE/Class/COMPOSITE/Src/usbd_composite.c ****     {
 826:Middlewares/Third_Party/AL94_USB_Composite/COMPOSITE/Class/COMPOSITE/Src/usbd_composite.c ****       USBD_GetString((uint8_t *)CDC_RNDIS_STR_DESC, USBD_StrDesc, length);
 827:Middlewares/Third_Party/AL94_USB_Composite/COMPOSITE/Class/COMPOSITE/Src/usbd_composite.c ****     }
 828:Middlewares/Third_Party/AL94_USB_Composite/COMPOSITE/Class/COMPOSITE/Src/usbd_composite.c **** #endif
 829:Middlewares/Third_Party/AL94_USB_Composite/COMPOSITE/Class/COMPOSITE/Src/usbd_composite.c **** #if (USBD_USE_HID_MOUSE == 1)
 830:Middlewares/Third_Party/AL94_USB_Composite/COMPOSITE/Class/COMPOSITE/Src/usbd_composite.c ****     if (index == HID_MOUSE_STR_DESC_IDX)
 800              		.loc 1 830 5 view .LVU183
 801              		.loc 1 830 15 is_stmt 0 view .LVU184
 802 002c 144B     		ldr	r3, .L79+8
 803 002e 1B78     		ldrb	r3, [r3]	@ zero_extendqisi2
 804              		.loc 1 830 8 view .LVU185
 805 0030 AB42     		cmp	r3, r5
 806 0032 12D0     		beq	.L77
 807              	.L69:
 831:Middlewares/Third_Party/AL94_USB_Composite/COMPOSITE/Class/COMPOSITE/Src/usbd_composite.c ****     {
 832:Middlewares/Third_Party/AL94_USB_Composite/COMPOSITE/Class/COMPOSITE/Src/usbd_composite.c ****       USBD_GetString((uint8_t *)HID_MOUSE_STR_DESC, USBD_StrDesc, length);
 833:Middlewares/Third_Party/AL94_USB_Composite/COMPOSITE/Class/COMPOSITE/Src/usbd_composite.c ****     }
 834:Middlewares/Third_Party/AL94_USB_Composite/COMPOSITE/Class/COMPOSITE/Src/usbd_composite.c **** #endif
 835:Middlewares/Third_Party/AL94_USB_Composite/COMPOSITE/Class/COMPOSITE/Src/usbd_composite.c **** #if (USBD_USE_HID_KEYBOARD == 1)
 836:Middlewares/Third_Party/AL94_USB_Composite/COMPOSITE/Class/COMPOSITE/Src/usbd_composite.c ****     if (index == HID_KEYBOARD_STR_DESC_IDX)
 808              		.loc 1 836 5 is_stmt 1 view .LVU186
 809              		.loc 1 836 15 is_stmt 0 view .LVU187
 810 0034 134B     		ldr	r3, .L79+12
 811 0036 1B78     		ldrb	r3, [r3]	@ zero_extendqisi2
 812              		.loc 1 836 8 view .LVU188
 813 0038 AB42     		cmp	r3, r5
 814 003a 14D0     		beq	.L78
 815              	.L70:
 837:Middlewares/Third_Party/AL94_USB_Composite/COMPOSITE/Class/COMPOSITE/Src/usbd_composite.c ****     {
 838:Middlewares/Third_Party/AL94_USB_Composite/COMPOSITE/Class/COMPOSITE/Src/usbd_composite.c ****       USBD_GetString((uint8_t *)HID_KEYBOARD_STR_DESC, USBD_StrDesc, length);
 839:Middlewares/Third_Party/AL94_USB_Composite/COMPOSITE/Class/COMPOSITE/Src/usbd_composite.c ****     }
 840:Middlewares/Third_Party/AL94_USB_Composite/COMPOSITE/Class/COMPOSITE/Src/usbd_composite.c **** #endif
 841:Middlewares/Third_Party/AL94_USB_Composite/COMPOSITE/Class/COMPOSITE/Src/usbd_composite.c **** #if (USBD_USE_HID_CUSTOM == 1)
 842:Middlewares/Third_Party/AL94_USB_Composite/COMPOSITE/Class/COMPOSITE/Src/usbd_composite.c ****     if (index == CUSTOM_HID_STR_DESC_IDX)
 843:Middlewares/Third_Party/AL94_USB_Composite/COMPOSITE/Class/COMPOSITE/Src/usbd_composite.c ****     {
 844:Middlewares/Third_Party/AL94_USB_Composite/COMPOSITE/Class/COMPOSITE/Src/usbd_composite.c ****       USBD_GetString((uint8_t *)CUSTOM_HID_STR_DESC, USBD_StrDesc, length);
 845:Middlewares/Third_Party/AL94_USB_Composite/COMPOSITE/Class/COMPOSITE/Src/usbd_composite.c ****     }
 846:Middlewares/Third_Party/AL94_USB_Composite/COMPOSITE/Class/COMPOSITE/Src/usbd_composite.c **** #endif
 847:Middlewares/Third_Party/AL94_USB_Composite/COMPOSITE/Class/COMPOSITE/Src/usbd_composite.c **** #if (USBD_USE_UAC_MIC == 1)
 848:Middlewares/Third_Party/AL94_USB_Composite/COMPOSITE/Class/COMPOSITE/Src/usbd_composite.c ****     if (index == AUDIO_MIC_STR_DESC_IDX)
 849:Middlewares/Third_Party/AL94_USB_Composite/COMPOSITE/Class/COMPOSITE/Src/usbd_composite.c ****     {
 850:Middlewares/Third_Party/AL94_USB_Composite/COMPOSITE/Class/COMPOSITE/Src/usbd_composite.c ****       USBD_GetString((uint8_t *)AUDIO_MIC_STR_DESC, USBD_StrDesc, length);
 851:Middlewares/Third_Party/AL94_USB_Composite/COMPOSITE/Class/COMPOSITE/Src/usbd_composite.c ****     }
 852:Middlewares/Third_Party/AL94_USB_Composite/COMPOSITE/Class/COMPOSITE/Src/usbd_composite.c **** #endif
 853:Middlewares/Third_Party/AL94_USB_Composite/COMPOSITE/Class/COMPOSITE/Src/usbd_composite.c **** #if (USBD_USE_UAC_SPKR == 1)
 854:Middlewares/Third_Party/AL94_USB_Composite/COMPOSITE/Class/COMPOSITE/Src/usbd_composite.c ****     if (index == AUDIO_SPKR_STR_DESC_IDX)
 855:Middlewares/Third_Party/AL94_USB_Composite/COMPOSITE/Class/COMPOSITE/Src/usbd_composite.c ****     {
 856:Middlewares/Third_Party/AL94_USB_Composite/COMPOSITE/Class/COMPOSITE/Src/usbd_composite.c ****       USBD_GetString((uint8_t *)AUDIO_SPKR_STR_DESC, USBD_StrDesc, length);
 857:Middlewares/Third_Party/AL94_USB_Composite/COMPOSITE/Class/COMPOSITE/Src/usbd_composite.c ****     }
ARM GAS  /tmp/cc5avDBI.s 			page 31


 858:Middlewares/Third_Party/AL94_USB_Composite/COMPOSITE/Class/COMPOSITE/Src/usbd_composite.c **** #endif
 859:Middlewares/Third_Party/AL94_USB_Composite/COMPOSITE/Class/COMPOSITE/Src/usbd_composite.c **** #if (USBD_USE_UVC == 1)
 860:Middlewares/Third_Party/AL94_USB_Composite/COMPOSITE/Class/COMPOSITE/Src/usbd_composite.c ****     if (index == UVC_STR_DESC_IDX)
 861:Middlewares/Third_Party/AL94_USB_Composite/COMPOSITE/Class/COMPOSITE/Src/usbd_composite.c ****     {
 862:Middlewares/Third_Party/AL94_USB_Composite/COMPOSITE/Class/COMPOSITE/Src/usbd_composite.c ****       USBD_GetString((uint8_t *)UVC_STR_DESC, USBD_StrDesc, length);
 863:Middlewares/Third_Party/AL94_USB_Composite/COMPOSITE/Class/COMPOSITE/Src/usbd_composite.c ****     }
 864:Middlewares/Third_Party/AL94_USB_Composite/COMPOSITE/Class/COMPOSITE/Src/usbd_composite.c **** #endif
 865:Middlewares/Third_Party/AL94_USB_Composite/COMPOSITE/Class/COMPOSITE/Src/usbd_composite.c **** #if (USBD_USE_MSC == 1)
 866:Middlewares/Third_Party/AL94_USB_Composite/COMPOSITE/Class/COMPOSITE/Src/usbd_composite.c ****     if (index == MSC_BOT_STR_DESC_IDX)
 867:Middlewares/Third_Party/AL94_USB_Composite/COMPOSITE/Class/COMPOSITE/Src/usbd_composite.c ****     {
 868:Middlewares/Third_Party/AL94_USB_Composite/COMPOSITE/Class/COMPOSITE/Src/usbd_composite.c ****       USBD_GetString((uint8_t *)MSC_BOT_STR_DESC, USBD_StrDesc, length);
 869:Middlewares/Third_Party/AL94_USB_Composite/COMPOSITE/Class/COMPOSITE/Src/usbd_composite.c ****     }
 870:Middlewares/Third_Party/AL94_USB_Composite/COMPOSITE/Class/COMPOSITE/Src/usbd_composite.c **** #endif
 871:Middlewares/Third_Party/AL94_USB_Composite/COMPOSITE/Class/COMPOSITE/Src/usbd_composite.c **** #if (USBD_USE_DFU == 1)
 872:Middlewares/Third_Party/AL94_USB_Composite/COMPOSITE/Class/COMPOSITE/Src/usbd_composite.c ****     if (index == DFU_STR_DESC_IDX)
 873:Middlewares/Third_Party/AL94_USB_Composite/COMPOSITE/Class/COMPOSITE/Src/usbd_composite.c ****     {
 874:Middlewares/Third_Party/AL94_USB_Composite/COMPOSITE/Class/COMPOSITE/Src/usbd_composite.c ****       USBD_GetString((uint8_t *)DFU_STR_DESC, USBD_StrDesc, length);
 875:Middlewares/Third_Party/AL94_USB_Composite/COMPOSITE/Class/COMPOSITE/Src/usbd_composite.c ****     }
 876:Middlewares/Third_Party/AL94_USB_Composite/COMPOSITE/Class/COMPOSITE/Src/usbd_composite.c **** #endif
 877:Middlewares/Third_Party/AL94_USB_Composite/COMPOSITE/Class/COMPOSITE/Src/usbd_composite.c **** #if (USBD_USE_PRNTR == 1)
 878:Middlewares/Third_Party/AL94_USB_Composite/COMPOSITE/Class/COMPOSITE/Src/usbd_composite.c ****     if (index == PRINTER_STR_DESC_IDX)
 879:Middlewares/Third_Party/AL94_USB_Composite/COMPOSITE/Class/COMPOSITE/Src/usbd_composite.c ****     {
 880:Middlewares/Third_Party/AL94_USB_Composite/COMPOSITE/Class/COMPOSITE/Src/usbd_composite.c ****       USBD_GetString((uint8_t *)PRNT_STR_DESC, USBD_StrDesc, length);
 881:Middlewares/Third_Party/AL94_USB_Composite/COMPOSITE/Class/COMPOSITE/Src/usbd_composite.c ****     }
 882:Middlewares/Third_Party/AL94_USB_Composite/COMPOSITE/Class/COMPOSITE/Src/usbd_composite.c **** #endif
 883:Middlewares/Third_Party/AL94_USB_Composite/COMPOSITE/Class/COMPOSITE/Src/usbd_composite.c ****     return USBD_StrDesc;
 816              		.loc 1 883 5 is_stmt 1 view .LVU189
 817              		.loc 1 883 12 is_stmt 0 view .LVU190
 818 003c 1248     		ldr	r0, .L79+16
 819              	.LBE8:
 884:Middlewares/Third_Party/AL94_USB_Composite/COMPOSITE/Class/COMPOSITE/Src/usbd_composite.c ****   }
 885:Middlewares/Third_Party/AL94_USB_Composite/COMPOSITE/Class/COMPOSITE/Src/usbd_composite.c ****   else
 886:Middlewares/Third_Party/AL94_USB_Composite/COMPOSITE/Class/COMPOSITE/Src/usbd_composite.c ****   {
 887:Middlewares/Third_Party/AL94_USB_Composite/COMPOSITE/Class/COMPOSITE/Src/usbd_composite.c ****     /* Not supported Interface Descriptor index */
 888:Middlewares/Third_Party/AL94_USB_Composite/COMPOSITE/Class/COMPOSITE/Src/usbd_composite.c ****     return NULL;
 889:Middlewares/Third_Party/AL94_USB_Composite/COMPOSITE/Class/COMPOSITE/Src/usbd_composite.c ****   }
 890:Middlewares/Third_Party/AL94_USB_Composite/COMPOSITE/Class/COMPOSITE/Src/usbd_composite.c **** }
 820              		.loc 1 890 1 view .LVU191
 821 003e 05B0     		add	sp, sp, #20
 822              		.cfi_remember_state
 823              		.cfi_def_cfa_offset 20
 824              		@ sp needed
 825 0040 F0BD     		pop	{r4, r5, r6, r7, pc}
 826              	.LVL70:
 827              	.L76:
 828              		.cfi_restore_state
 829              	.LBB11:
 830              	.LBB10:
 812:Middlewares/Third_Party/AL94_USB_Composite/COMPOSITE/Class/COMPOSITE/Src/usbd_composite.c ****         USBD_GetString((uint8_t *)str_buffer, USBD_StrDesc, length);
 831              		.loc 1 812 9 is_stmt 1 view .LVU192
 832 0042 2346     		mov	r3, r4
 833 0044 114A     		ldr	r2, .L79+20
 834 0046 1021     		movs	r1, #16
 835 0048 6846     		mov	r0, sp
 836 004a FFF7FEFF 		bl	snprintf
 837              	.LVL71:
 813:Middlewares/Third_Party/AL94_USB_Composite/COMPOSITE/Class/COMPOSITE/Src/usbd_composite.c ****       }
ARM GAS  /tmp/cc5avDBI.s 			page 32


 838              		.loc 1 813 9 view .LVU193
 839 004e 3246     		mov	r2, r6
 840 0050 0D49     		ldr	r1, .L79+16
 841 0052 6846     		mov	r0, sp
 842 0054 FFF7FEFF 		bl	USBD_GetString
 843              	.LVL72:
 844 0058 E4E7     		b	.L67
 845              	.L77:
 813:Middlewares/Third_Party/AL94_USB_Composite/COMPOSITE/Class/COMPOSITE/Src/usbd_composite.c ****       }
 846              		.loc 1 813 9 is_stmt 0 view .LVU194
 847              	.LBE10:
 832:Middlewares/Third_Party/AL94_USB_Composite/COMPOSITE/Class/COMPOSITE/Src/usbd_composite.c ****     }
 848              		.loc 1 832 7 is_stmt 1 view .LVU195
 849 005a 3246     		mov	r2, r6
 850 005c 0A49     		ldr	r1, .L79+16
 851 005e 0C48     		ldr	r0, .L79+24
 852 0060 FFF7FEFF 		bl	USBD_GetString
 853              	.LVL73:
 854 0064 E6E7     		b	.L69
 855              	.L78:
 838:Middlewares/Third_Party/AL94_USB_Composite/COMPOSITE/Class/COMPOSITE/Src/usbd_composite.c ****     }
 856              		.loc 1 838 7 view .LVU196
 857 0066 3246     		mov	r2, r6
 858 0068 0749     		ldr	r1, .L79+16
 859 006a 0A48     		ldr	r0, .L79+28
 860 006c FFF7FEFF 		bl	USBD_GetString
 861              	.LVL74:
 862 0070 E4E7     		b	.L70
 863              	.LVL75:
 864              	.L71:
 865              		.cfi_def_cfa_offset 0
 866              		.cfi_restore 4
 867              		.cfi_restore 5
 868              		.cfi_restore 6
 869              		.cfi_restore 7
 870              		.cfi_restore 14
 838:Middlewares/Third_Party/AL94_USB_Composite/COMPOSITE/Class/COMPOSITE/Src/usbd_composite.c ****     }
 871              		.loc 1 838 7 is_stmt 0 view .LVU197
 872              	.LBE11:
 888:Middlewares/Third_Party/AL94_USB_Composite/COMPOSITE/Class/COMPOSITE/Src/usbd_composite.c ****   }
 873              		.loc 1 888 12 view .LVU198
 874 0072 0020     		movs	r0, #0
 875              	.LVL76:
 876              		.loc 1 890 1 view .LVU199
 877 0074 7047     		bx	lr
 878              	.L80:
 879 0076 00BF     		.align	2
 880              	.L79:
 881 0078 00000000 		.word	USBD_Track_String_Index
 882 007c 00000000 		.word	CDC_STR_DESC_IDX
 883 0080 00000000 		.word	HID_MOUSE_STR_DESC_IDX
 884 0084 00000000 		.word	HID_KEYBOARD_STR_DESC_IDX
 885 0088 00000000 		.word	USBD_StrDesc.0
 886 008c 00000000 		.word	.LC0
 887 0090 10000000 		.word	.LC1
 888 0094 20000000 		.word	.LC2
 889              		.cfi_endproc
ARM GAS  /tmp/cc5avDBI.s 			page 33


 890              	.LFE347:
 892              		.section	.text.USBD_COMPOSITE_Mount_Class,"ax",%progbits
 893              		.align	1
 894              		.global	USBD_COMPOSITE_Mount_Class
 895              		.syntax unified
 896              		.thumb
 897              		.thumb_func
 899              	USBD_COMPOSITE_Mount_Class:
 900              	.LFB348:
 891:Middlewares/Third_Party/AL94_USB_Composite/COMPOSITE/Class/COMPOSITE/Src/usbd_composite.c **** #endif
 892:Middlewares/Third_Party/AL94_USB_Composite/COMPOSITE/Class/COMPOSITE/Src/usbd_composite.c **** 
 893:Middlewares/Third_Party/AL94_USB_Composite/COMPOSITE/Class/COMPOSITE/Src/usbd_composite.c **** void USBD_COMPOSITE_Mount_Class(void)
 894:Middlewares/Third_Party/AL94_USB_Composite/COMPOSITE/Class/COMPOSITE/Src/usbd_composite.c **** {
 901              		.loc 1 894 1 is_stmt 1 view -0
 902              		.cfi_startproc
 903              		@ args = 0, pretend = 0, frame = 16
 904              		@ frame_needed = 0, uses_anonymous_args = 0
 905 0000 2DE9F04F 		push	{r4, r5, r6, r7, r8, r9, r10, fp, lr}
 906              		.cfi_def_cfa_offset 36
 907              		.cfi_offset 4, -36
 908              		.cfi_offset 5, -32
 909              		.cfi_offset 6, -28
 910              		.cfi_offset 7, -24
 911              		.cfi_offset 8, -20
 912              		.cfi_offset 9, -16
 913              		.cfi_offset 10, -12
 914              		.cfi_offset 11, -8
 915              		.cfi_offset 14, -4
 916 0004 89B0     		sub	sp, sp, #36
 917              		.cfi_def_cfa_offset 72
 895:Middlewares/Third_Party/AL94_USB_Composite/COMPOSITE/Class/COMPOSITE/Src/usbd_composite.c ****   uint16_t len = 0;
 918              		.loc 1 895 3 view .LVU201
 919              		.loc 1 895 12 is_stmt 0 view .LVU202
 920 0006 0025     		movs	r5, #0
 921 0008 ADF81E50 		strh	r5, [sp, #30]	@ movhi
 896:Middlewares/Third_Party/AL94_USB_Composite/COMPOSITE/Class/COMPOSITE/Src/usbd_composite.c ****   uint8_t *ptr = NULL;
 922              		.loc 1 896 3 is_stmt 1 view .LVU203
 923              	.LVL77:
 897:Middlewares/Third_Party/AL94_USB_Composite/COMPOSITE/Class/COMPOSITE/Src/usbd_composite.c **** 
 898:Middlewares/Third_Party/AL94_USB_Composite/COMPOSITE/Class/COMPOSITE/Src/usbd_composite.c ****   uint8_t in_ep_track = 0x81;
 924              		.loc 1 898 3 view .LVU204
 899:Middlewares/Third_Party/AL94_USB_Composite/COMPOSITE/Class/COMPOSITE/Src/usbd_composite.c ****   uint8_t out_ep_track = 0x01;
 925              		.loc 1 899 3 view .LVU205
 900:Middlewares/Third_Party/AL94_USB_Composite/COMPOSITE/Class/COMPOSITE/Src/usbd_composite.c ****   uint8_t interface_no_track = 0x00;
 926              		.loc 1 900 3 view .LVU206
 901:Middlewares/Third_Party/AL94_USB_Composite/COMPOSITE/Class/COMPOSITE/Src/usbd_composite.c **** 
 902:Middlewares/Third_Party/AL94_USB_Composite/COMPOSITE/Class/COMPOSITE/Src/usbd_composite.c **** #if (USBD_USE_CDC_RNDIS == 1)
 903:Middlewares/Third_Party/AL94_USB_Composite/COMPOSITE/Class/COMPOSITE/Src/usbd_composite.c ****   ptr = USBD_CDC_RNDIS.GetFSConfigDescriptor(&len);
 904:Middlewares/Third_Party/AL94_USB_Composite/COMPOSITE/Class/COMPOSITE/Src/usbd_composite.c ****   USBD_Update_CDC_RNDIS_DESC(ptr,
 905:Middlewares/Third_Party/AL94_USB_Composite/COMPOSITE/Class/COMPOSITE/Src/usbd_composite.c ****                              interface_no_track,
 906:Middlewares/Third_Party/AL94_USB_Composite/COMPOSITE/Class/COMPOSITE/Src/usbd_composite.c ****                              interface_no_track + 1,
 907:Middlewares/Third_Party/AL94_USB_Composite/COMPOSITE/Class/COMPOSITE/Src/usbd_composite.c ****                              in_ep_track,
 908:Middlewares/Third_Party/AL94_USB_Composite/COMPOSITE/Class/COMPOSITE/Src/usbd_composite.c ****                              in_ep_track + 1,
 909:Middlewares/Third_Party/AL94_USB_Composite/COMPOSITE/Class/COMPOSITE/Src/usbd_composite.c ****                              out_ep_track,
 910:Middlewares/Third_Party/AL94_USB_Composite/COMPOSITE/Class/COMPOSITE/Src/usbd_composite.c ****                              USBD_Track_String_Index);
 911:Middlewares/Third_Party/AL94_USB_Composite/COMPOSITE/Class/COMPOSITE/Src/usbd_composite.c ****   memcpy(USBD_COMPOSITE_FSCfgDesc.USBD_CDC_RNDIS_DESC, ptr + 0x09, len - 0x09);
 912:Middlewares/Third_Party/AL94_USB_Composite/COMPOSITE/Class/COMPOSITE/Src/usbd_composite.c **** 
ARM GAS  /tmp/cc5avDBI.s 			page 34


 913:Middlewares/Third_Party/AL94_USB_Composite/COMPOSITE/Class/COMPOSITE/Src/usbd_composite.c ****   ptr = USBD_CDC_RNDIS.GetHSConfigDescriptor(&len);
 914:Middlewares/Third_Party/AL94_USB_Composite/COMPOSITE/Class/COMPOSITE/Src/usbd_composite.c ****   USBD_Update_CDC_RNDIS_DESC(ptr,
 915:Middlewares/Third_Party/AL94_USB_Composite/COMPOSITE/Class/COMPOSITE/Src/usbd_composite.c ****                              interface_no_track,
 916:Middlewares/Third_Party/AL94_USB_Composite/COMPOSITE/Class/COMPOSITE/Src/usbd_composite.c ****                              interface_no_track + 1,
 917:Middlewares/Third_Party/AL94_USB_Composite/COMPOSITE/Class/COMPOSITE/Src/usbd_composite.c ****                              in_ep_track,
 918:Middlewares/Third_Party/AL94_USB_Composite/COMPOSITE/Class/COMPOSITE/Src/usbd_composite.c ****                              in_ep_track + 1,
 919:Middlewares/Third_Party/AL94_USB_Composite/COMPOSITE/Class/COMPOSITE/Src/usbd_composite.c ****                              out_ep_track,
 920:Middlewares/Third_Party/AL94_USB_Composite/COMPOSITE/Class/COMPOSITE/Src/usbd_composite.c ****                              USBD_Track_String_Index);
 921:Middlewares/Third_Party/AL94_USB_Composite/COMPOSITE/Class/COMPOSITE/Src/usbd_composite.c ****   memcpy(USBD_COMPOSITE_HSCfgDesc.USBD_CDC_RNDIS_DESC, ptr + 0x09, len - 0x09);
 922:Middlewares/Third_Party/AL94_USB_Composite/COMPOSITE/Class/COMPOSITE/Src/usbd_composite.c **** 
 923:Middlewares/Third_Party/AL94_USB_Composite/COMPOSITE/Class/COMPOSITE/Src/usbd_composite.c ****   in_ep_track += 2;
 924:Middlewares/Third_Party/AL94_USB_Composite/COMPOSITE/Class/COMPOSITE/Src/usbd_composite.c ****   out_ep_track += 1;
 925:Middlewares/Third_Party/AL94_USB_Composite/COMPOSITE/Class/COMPOSITE/Src/usbd_composite.c ****   interface_no_track += 2;
 926:Middlewares/Third_Party/AL94_USB_Composite/COMPOSITE/Class/COMPOSITE/Src/usbd_composite.c ****   USBD_Track_String_Index += 1;
 927:Middlewares/Third_Party/AL94_USB_Composite/COMPOSITE/Class/COMPOSITE/Src/usbd_composite.c **** #endif
 928:Middlewares/Third_Party/AL94_USB_Composite/COMPOSITE/Class/COMPOSITE/Src/usbd_composite.c **** 
 929:Middlewares/Third_Party/AL94_USB_Composite/COMPOSITE/Class/COMPOSITE/Src/usbd_composite.c **** #if (USBD_USE_CDC_ECM == 1)
 930:Middlewares/Third_Party/AL94_USB_Composite/COMPOSITE/Class/COMPOSITE/Src/usbd_composite.c ****   ptr = USBD_CDC_ECM.GetFSConfigDescriptor(&len);
 931:Middlewares/Third_Party/AL94_USB_Composite/COMPOSITE/Class/COMPOSITE/Src/usbd_composite.c ****   USBD_Update_CDC_ECM_DESC(ptr,
 932:Middlewares/Third_Party/AL94_USB_Composite/COMPOSITE/Class/COMPOSITE/Src/usbd_composite.c ****                            interface_no_track,
 933:Middlewares/Third_Party/AL94_USB_Composite/COMPOSITE/Class/COMPOSITE/Src/usbd_composite.c ****                            interface_no_track + 1,
 934:Middlewares/Third_Party/AL94_USB_Composite/COMPOSITE/Class/COMPOSITE/Src/usbd_composite.c ****                            in_ep_track,
 935:Middlewares/Third_Party/AL94_USB_Composite/COMPOSITE/Class/COMPOSITE/Src/usbd_composite.c ****                            in_ep_track + 1,
 936:Middlewares/Third_Party/AL94_USB_Composite/COMPOSITE/Class/COMPOSITE/Src/usbd_composite.c ****                            out_ep_track,
 937:Middlewares/Third_Party/AL94_USB_Composite/COMPOSITE/Class/COMPOSITE/Src/usbd_composite.c ****                            USBD_Track_String_Index);
 938:Middlewares/Third_Party/AL94_USB_Composite/COMPOSITE/Class/COMPOSITE/Src/usbd_composite.c ****   memcpy(USBD_COMPOSITE_FSCfgDesc.USBD_CDC_ECM_DESC, ptr + 0x09, len - 0x09);
 939:Middlewares/Third_Party/AL94_USB_Composite/COMPOSITE/Class/COMPOSITE/Src/usbd_composite.c **** 
 940:Middlewares/Third_Party/AL94_USB_Composite/COMPOSITE/Class/COMPOSITE/Src/usbd_composite.c ****   ptr = USBD_CDC_ECM.GetHSConfigDescriptor(&len);
 941:Middlewares/Third_Party/AL94_USB_Composite/COMPOSITE/Class/COMPOSITE/Src/usbd_composite.c ****   USBD_Update_CDC_ECM_DESC(ptr,
 942:Middlewares/Third_Party/AL94_USB_Composite/COMPOSITE/Class/COMPOSITE/Src/usbd_composite.c ****                            interface_no_track,
 943:Middlewares/Third_Party/AL94_USB_Composite/COMPOSITE/Class/COMPOSITE/Src/usbd_composite.c ****                            interface_no_track + 1,
 944:Middlewares/Third_Party/AL94_USB_Composite/COMPOSITE/Class/COMPOSITE/Src/usbd_composite.c ****                            in_ep_track,
 945:Middlewares/Third_Party/AL94_USB_Composite/COMPOSITE/Class/COMPOSITE/Src/usbd_composite.c ****                            in_ep_track + 1,
 946:Middlewares/Third_Party/AL94_USB_Composite/COMPOSITE/Class/COMPOSITE/Src/usbd_composite.c ****                            out_ep_track,
 947:Middlewares/Third_Party/AL94_USB_Composite/COMPOSITE/Class/COMPOSITE/Src/usbd_composite.c ****                            USBD_Track_String_Index);
 948:Middlewares/Third_Party/AL94_USB_Composite/COMPOSITE/Class/COMPOSITE/Src/usbd_composite.c ****   memcpy(USBD_COMPOSITE_HSCfgDesc.USBD_CDC_ECM_DESC, ptr + 0x09, len - 0x09);
 949:Middlewares/Third_Party/AL94_USB_Composite/COMPOSITE/Class/COMPOSITE/Src/usbd_composite.c **** 
 950:Middlewares/Third_Party/AL94_USB_Composite/COMPOSITE/Class/COMPOSITE/Src/usbd_composite.c ****   in_ep_track += 2;
 951:Middlewares/Third_Party/AL94_USB_Composite/COMPOSITE/Class/COMPOSITE/Src/usbd_composite.c ****   out_ep_track += 1;
 952:Middlewares/Third_Party/AL94_USB_Composite/COMPOSITE/Class/COMPOSITE/Src/usbd_composite.c ****   interface_no_track += 2;
 953:Middlewares/Third_Party/AL94_USB_Composite/COMPOSITE/Class/COMPOSITE/Src/usbd_composite.c ****   USBD_Track_String_Index += 1;
 954:Middlewares/Third_Party/AL94_USB_Composite/COMPOSITE/Class/COMPOSITE/Src/usbd_composite.c **** #endif
 955:Middlewares/Third_Party/AL94_USB_Composite/COMPOSITE/Class/COMPOSITE/Src/usbd_composite.c **** 
 956:Middlewares/Third_Party/AL94_USB_Composite/COMPOSITE/Class/COMPOSITE/Src/usbd_composite.c **** #if (USBD_USE_HID_MOUSE == 1)
 957:Middlewares/Third_Party/AL94_USB_Composite/COMPOSITE/Class/COMPOSITE/Src/usbd_composite.c ****   ptr = USBD_HID_MOUSE.GetFSConfigDescriptor(&len);
 927              		.loc 1 957 3 view .LVU207
 928              		.loc 1 957 23 is_stmt 0 view .LVU208
 929 000c DFF88C91 		ldr	r9, .L83+8
 930 0010 D9F82C30 		ldr	r3, [r9, #44]
 931              		.loc 1 957 9 view .LVU209
 932 0014 0DF11E06 		add	r6, sp, #30
 933 0018 3046     		mov	r0, r6
 934 001a 9847     		blx	r3
 935              	.LVL78:
 936 001c 8046     		mov	r8, r0
 937              	.LVL79:
 958:Middlewares/Third_Party/AL94_USB_Composite/COMPOSITE/Class/COMPOSITE/Src/usbd_composite.c ****   USBD_Update_HID_Mouse_DESC(ptr, interface_no_track, in_ep_track, USBD_Track_String_Index);
ARM GAS  /tmp/cc5avDBI.s 			page 35


 938              		.loc 1 958 3 is_stmt 1 view .LVU210
 939 001e 5D4C     		ldr	r4, .L83
 940 0020 2378     		ldrb	r3, [r4]	@ zero_extendqisi2
 941 0022 8122     		movs	r2, #129
 942 0024 2946     		mov	r1, r5
 943 0026 FFF7FEFF 		bl	USBD_Update_HID_Mouse_DESC
 944              	.LVL80:
 959:Middlewares/Third_Party/AL94_USB_Composite/COMPOSITE/Class/COMPOSITE/Src/usbd_composite.c ****   memcpy(USBD_COMPOSITE_FSCfgDesc.USBD_HID_MOUSE_DESC, ptr + 0x09, len - 0x09);
 945              		.loc 1 959 3 view .LVU211
 946              		.loc 1 959 72 is_stmt 0 view .LVU212
 947 002a BDF81E20 		ldrh	r2, [sp, #30]
 948              		.loc 1 959 3 view .LVU213
 949 002e 5A4F     		ldr	r7, .L83+4
 950 0030 093A     		subs	r2, r2, #9
 951 0032 08F10901 		add	r1, r8, #9
 952 0036 3846     		mov	r0, r7
 953 0038 FFF7FEFF 		bl	memcpy
 954              	.LVL81:
 960:Middlewares/Third_Party/AL94_USB_Composite/COMPOSITE/Class/COMPOSITE/Src/usbd_composite.c **** 
 961:Middlewares/Third_Party/AL94_USB_Composite/COMPOSITE/Class/COMPOSITE/Src/usbd_composite.c ****   ptr = USBD_HID_MOUSE.GetHSConfigDescriptor(&len);
 955              		.loc 1 961 3 is_stmt 1 view .LVU214
 956              		.loc 1 961 23 is_stmt 0 view .LVU215
 957 003c D9F82830 		ldr	r3, [r9, #40]
 958              		.loc 1 961 9 view .LVU216
 959 0040 3046     		mov	r0, r6
 960 0042 9847     		blx	r3
 961              	.LVL82:
 962 0044 8146     		mov	r9, r0
 963              	.LVL83:
 962:Middlewares/Third_Party/AL94_USB_Composite/COMPOSITE/Class/COMPOSITE/Src/usbd_composite.c ****   USBD_Update_HID_Mouse_DESC(ptr, interface_no_track, in_ep_track, USBD_Track_String_Index);
 964              		.loc 1 962 3 is_stmt 1 view .LVU217
 965 0046 2378     		ldrb	r3, [r4]	@ zero_extendqisi2
 966 0048 8122     		movs	r2, #129
 967 004a 2946     		mov	r1, r5
 968 004c FFF7FEFF 		bl	USBD_Update_HID_Mouse_DESC
 969              	.LVL84:
 963:Middlewares/Third_Party/AL94_USB_Composite/COMPOSITE/Class/COMPOSITE/Src/usbd_composite.c ****   memcpy(USBD_COMPOSITE_HSCfgDesc.USBD_HID_MOUSE_DESC, ptr + 0x09, len - 0x09);
 970              		.loc 1 963 3 view .LVU218
 971              		.loc 1 963 72 is_stmt 0 view .LVU219
 972 0050 BDF81E20 		ldrh	r2, [sp, #30]
 973              		.loc 1 963 3 view .LVU220
 974 0054 DFF84881 		ldr	r8, .L83+12
 975 0058 093A     		subs	r2, r2, #9
 976 005a 09F10901 		add	r1, r9, #9
 977 005e 4046     		mov	r0, r8
 978 0060 FFF7FEFF 		bl	memcpy
 979              	.LVL85:
 964:Middlewares/Third_Party/AL94_USB_Composite/COMPOSITE/Class/COMPOSITE/Src/usbd_composite.c **** 
 965:Middlewares/Third_Party/AL94_USB_Composite/COMPOSITE/Class/COMPOSITE/Src/usbd_composite.c ****   in_ep_track += 1;
 980              		.loc 1 965 3 is_stmt 1 view .LVU221
 966:Middlewares/Third_Party/AL94_USB_Composite/COMPOSITE/Class/COMPOSITE/Src/usbd_composite.c ****   interface_no_track += 1;
 981              		.loc 1 966 3 view .LVU222
 967:Middlewares/Third_Party/AL94_USB_Composite/COMPOSITE/Class/COMPOSITE/Src/usbd_composite.c ****   USBD_Track_String_Index += 1;
 982              		.loc 1 967 3 view .LVU223
 983              		.loc 1 967 27 is_stmt 0 view .LVU224
 984 0064 2378     		ldrb	r3, [r4]	@ zero_extendqisi2
 985 0066 0133     		adds	r3, r3, #1
ARM GAS  /tmp/cc5avDBI.s 			page 36


 986 0068 2370     		strb	r3, [r4]
 968:Middlewares/Third_Party/AL94_USB_Composite/COMPOSITE/Class/COMPOSITE/Src/usbd_composite.c **** #endif
 969:Middlewares/Third_Party/AL94_USB_Composite/COMPOSITE/Class/COMPOSITE/Src/usbd_composite.c **** 
 970:Middlewares/Third_Party/AL94_USB_Composite/COMPOSITE/Class/COMPOSITE/Src/usbd_composite.c **** #if (USBD_USE_HID_KEYBOARD == 1)
 971:Middlewares/Third_Party/AL94_USB_Composite/COMPOSITE/Class/COMPOSITE/Src/usbd_composite.c ****   ptr = USBD_HID_KEYBOARD.GetFSConfigDescriptor(&len);
 987              		.loc 1 971 3 is_stmt 1 view .LVU225
 988              		.loc 1 971 26 is_stmt 0 view .LVU226
 989 006a DFF838A1 		ldr	r10, .L83+16
 990 006e DAF82C30 		ldr	r3, [r10, #44]
 991              		.loc 1 971 9 view .LVU227
 992 0072 3046     		mov	r0, r6
 993 0074 9847     		blx	r3
 994              	.LVL86:
 995 0076 8146     		mov	r9, r0
 996              	.LVL87:
 972:Middlewares/Third_Party/AL94_USB_Composite/COMPOSITE/Class/COMPOSITE/Src/usbd_composite.c ****   USBD_Update_HID_KBD_DESC(ptr, interface_no_track, in_ep_track, USBD_Track_String_Index);
 997              		.loc 1 972 3 is_stmt 1 view .LVU228
 998 0078 2378     		ldrb	r3, [r4]	@ zero_extendqisi2
 999 007a 8222     		movs	r2, #130
 1000 007c 0121     		movs	r1, #1
 1001 007e FFF7FEFF 		bl	USBD_Update_HID_KBD_DESC
 1002              	.LVL88:
 973:Middlewares/Third_Party/AL94_USB_Composite/COMPOSITE/Class/COMPOSITE/Src/usbd_composite.c ****   memcpy(USBD_COMPOSITE_FSCfgDesc.USBD_HID_KEYBOARD_DESC, ptr + 0x09, len - 0x09);
 1003              		.loc 1 973 3 view .LVU229
 1004              		.loc 1 973 75 is_stmt 0 view .LVU230
 1005 0082 BDF81E20 		ldrh	r2, [sp, #30]
 1006              		.loc 1 973 3 view .LVU231
 1007 0086 093A     		subs	r2, r2, #9
 1008 0088 09F10901 		add	r1, r9, #9
 1009 008c 07F11900 		add	r0, r7, #25
 1010 0090 FFF7FEFF 		bl	memcpy
 1011              	.LVL89:
 974:Middlewares/Third_Party/AL94_USB_Composite/COMPOSITE/Class/COMPOSITE/Src/usbd_composite.c **** 
 975:Middlewares/Third_Party/AL94_USB_Composite/COMPOSITE/Class/COMPOSITE/Src/usbd_composite.c ****   ptr = USBD_HID_KEYBOARD.GetHSConfigDescriptor(&len);
 1012              		.loc 1 975 3 is_stmt 1 view .LVU232
 1013              		.loc 1 975 26 is_stmt 0 view .LVU233
 1014 0094 DAF82830 		ldr	r3, [r10, #40]
 1015              		.loc 1 975 9 view .LVU234
 1016 0098 3046     		mov	r0, r6
 1017 009a 9847     		blx	r3
 1018              	.LVL90:
 1019 009c 8146     		mov	r9, r0
 1020              	.LVL91:
 976:Middlewares/Third_Party/AL94_USB_Composite/COMPOSITE/Class/COMPOSITE/Src/usbd_composite.c ****   USBD_Update_HID_KBD_DESC(ptr, interface_no_track, in_ep_track, USBD_Track_String_Index);
 1021              		.loc 1 976 3 is_stmt 1 view .LVU235
 1022 009e 2378     		ldrb	r3, [r4]	@ zero_extendqisi2
 1023 00a0 8222     		movs	r2, #130
 1024 00a2 0121     		movs	r1, #1
 1025 00a4 FFF7FEFF 		bl	USBD_Update_HID_KBD_DESC
 1026              	.LVL92:
 977:Middlewares/Third_Party/AL94_USB_Composite/COMPOSITE/Class/COMPOSITE/Src/usbd_composite.c ****   memcpy(USBD_COMPOSITE_HSCfgDesc.USBD_HID_KEYBOARD_DESC, ptr + 0x09, len - 0x09);
 1027              		.loc 1 977 3 view .LVU236
 1028              		.loc 1 977 75 is_stmt 0 view .LVU237
 1029 00a8 BDF81E20 		ldrh	r2, [sp, #30]
 1030              		.loc 1 977 3 view .LVU238
 1031 00ac 093A     		subs	r2, r2, #9
 1032 00ae 09F10901 		add	r1, r9, #9
ARM GAS  /tmp/cc5avDBI.s 			page 37


 1033 00b2 08F11900 		add	r0, r8, #25
 1034 00b6 FFF7FEFF 		bl	memcpy
 1035              	.LVL93:
 978:Middlewares/Third_Party/AL94_USB_Composite/COMPOSITE/Class/COMPOSITE/Src/usbd_composite.c **** 
 979:Middlewares/Third_Party/AL94_USB_Composite/COMPOSITE/Class/COMPOSITE/Src/usbd_composite.c ****   in_ep_track += 1;
 1036              		.loc 1 979 3 is_stmt 1 view .LVU239
 980:Middlewares/Third_Party/AL94_USB_Composite/COMPOSITE/Class/COMPOSITE/Src/usbd_composite.c ****   interface_no_track += 1;
 1037              		.loc 1 980 3 view .LVU240
 981:Middlewares/Third_Party/AL94_USB_Composite/COMPOSITE/Class/COMPOSITE/Src/usbd_composite.c ****   USBD_Track_String_Index += 1;
 1038              		.loc 1 981 3 view .LVU241
 1039              		.loc 1 981 27 is_stmt 0 view .LVU242
 1040 00ba 2378     		ldrb	r3, [r4]	@ zero_extendqisi2
 1041 00bc 0133     		adds	r3, r3, #1
 1042 00be 2370     		strb	r3, [r4]
 982:Middlewares/Third_Party/AL94_USB_Composite/COMPOSITE/Class/COMPOSITE/Src/usbd_composite.c **** #endif
 983:Middlewares/Third_Party/AL94_USB_Composite/COMPOSITE/Class/COMPOSITE/Src/usbd_composite.c **** 
 984:Middlewares/Third_Party/AL94_USB_Composite/COMPOSITE/Class/COMPOSITE/Src/usbd_composite.c **** #if (USBD_USE_HID_CUSTOM == 1)
 985:Middlewares/Third_Party/AL94_USB_Composite/COMPOSITE/Class/COMPOSITE/Src/usbd_composite.c ****   ptr = USBD_HID_CUSTOM.GetFSConfigDescriptor(&len);
 986:Middlewares/Third_Party/AL94_USB_Composite/COMPOSITE/Class/COMPOSITE/Src/usbd_composite.c ****   USBD_Update_HID_Custom_DESC(ptr, interface_no_track, in_ep_track, out_ep_track, USBD_Track_String
 987:Middlewares/Third_Party/AL94_USB_Composite/COMPOSITE/Class/COMPOSITE/Src/usbd_composite.c ****   memcpy(USBD_COMPOSITE_FSCfgDesc.USBD_HID_CUSTOM_DESC, ptr + 0x09, len - 0x09);
 988:Middlewares/Third_Party/AL94_USB_Composite/COMPOSITE/Class/COMPOSITE/Src/usbd_composite.c **** 
 989:Middlewares/Third_Party/AL94_USB_Composite/COMPOSITE/Class/COMPOSITE/Src/usbd_composite.c ****   ptr = USBD_HID_CUSTOM.GetHSConfigDescriptor(&len);
 990:Middlewares/Third_Party/AL94_USB_Composite/COMPOSITE/Class/COMPOSITE/Src/usbd_composite.c ****   USBD_Update_HID_Custom_DESC(ptr, interface_no_track, in_ep_track, out_ep_track, USBD_Track_String
 991:Middlewares/Third_Party/AL94_USB_Composite/COMPOSITE/Class/COMPOSITE/Src/usbd_composite.c ****   memcpy(USBD_COMPOSITE_HSCfgDesc.USBD_HID_CUSTOM_DESC, ptr + 0x09, len - 0x09);
 992:Middlewares/Third_Party/AL94_USB_Composite/COMPOSITE/Class/COMPOSITE/Src/usbd_composite.c **** 
 993:Middlewares/Third_Party/AL94_USB_Composite/COMPOSITE/Class/COMPOSITE/Src/usbd_composite.c ****   in_ep_track += 1;
 994:Middlewares/Third_Party/AL94_USB_Composite/COMPOSITE/Class/COMPOSITE/Src/usbd_composite.c ****   out_ep_track += 1;
 995:Middlewares/Third_Party/AL94_USB_Composite/COMPOSITE/Class/COMPOSITE/Src/usbd_composite.c ****   interface_no_track += 1;
 996:Middlewares/Third_Party/AL94_USB_Composite/COMPOSITE/Class/COMPOSITE/Src/usbd_composite.c ****   USBD_Track_String_Index += 1;
 997:Middlewares/Third_Party/AL94_USB_Composite/COMPOSITE/Class/COMPOSITE/Src/usbd_composite.c **** #endif
 998:Middlewares/Third_Party/AL94_USB_Composite/COMPOSITE/Class/COMPOSITE/Src/usbd_composite.c **** 
 999:Middlewares/Third_Party/AL94_USB_Composite/COMPOSITE/Class/COMPOSITE/Src/usbd_composite.c **** #if (USBD_USE_UAC_MIC == 1)
1000:Middlewares/Third_Party/AL94_USB_Composite/COMPOSITE/Class/COMPOSITE/Src/usbd_composite.c ****   ptr = USBD_AUDIO_MIC.GetFSConfigDescriptor(&len);
1001:Middlewares/Third_Party/AL94_USB_Composite/COMPOSITE/Class/COMPOSITE/Src/usbd_composite.c ****   USBD_Update_Audio_MIC_DESC(ptr,
1002:Middlewares/Third_Party/AL94_USB_Composite/COMPOSITE/Class/COMPOSITE/Src/usbd_composite.c ****                              interface_no_track,
1003:Middlewares/Third_Party/AL94_USB_Composite/COMPOSITE/Class/COMPOSITE/Src/usbd_composite.c ****                              interface_no_track + 1,
1004:Middlewares/Third_Party/AL94_USB_Composite/COMPOSITE/Class/COMPOSITE/Src/usbd_composite.c ****                              in_ep_track,
1005:Middlewares/Third_Party/AL94_USB_Composite/COMPOSITE/Class/COMPOSITE/Src/usbd_composite.c ****                              USBD_Track_String_Index);
1006:Middlewares/Third_Party/AL94_USB_Composite/COMPOSITE/Class/COMPOSITE/Src/usbd_composite.c ****   memcpy(USBD_COMPOSITE_FSCfgDesc.USBD_UAC_MIC_DESC, ptr + 0x09, len - 0x09);
1007:Middlewares/Third_Party/AL94_USB_Composite/COMPOSITE/Class/COMPOSITE/Src/usbd_composite.c **** 
1008:Middlewares/Third_Party/AL94_USB_Composite/COMPOSITE/Class/COMPOSITE/Src/usbd_composite.c ****   ptr = USBD_AUDIO_MIC.GetHSConfigDescriptor(&len);
1009:Middlewares/Third_Party/AL94_USB_Composite/COMPOSITE/Class/COMPOSITE/Src/usbd_composite.c ****   USBD_Update_Audio_MIC_DESC(ptr,
1010:Middlewares/Third_Party/AL94_USB_Composite/COMPOSITE/Class/COMPOSITE/Src/usbd_composite.c ****                              interface_no_track,
1011:Middlewares/Third_Party/AL94_USB_Composite/COMPOSITE/Class/COMPOSITE/Src/usbd_composite.c ****                              interface_no_track + 1,
1012:Middlewares/Third_Party/AL94_USB_Composite/COMPOSITE/Class/COMPOSITE/Src/usbd_composite.c ****                              in_ep_track,
1013:Middlewares/Third_Party/AL94_USB_Composite/COMPOSITE/Class/COMPOSITE/Src/usbd_composite.c ****                              USBD_Track_String_Index);
1014:Middlewares/Third_Party/AL94_USB_Composite/COMPOSITE/Class/COMPOSITE/Src/usbd_composite.c **** 
1015:Middlewares/Third_Party/AL94_USB_Composite/COMPOSITE/Class/COMPOSITE/Src/usbd_composite.c ****   memcpy(USBD_COMPOSITE_HSCfgDesc.USBD_UAC_MIC_DESC, ptr + 0x09, len - 0x09);
1016:Middlewares/Third_Party/AL94_USB_Composite/COMPOSITE/Class/COMPOSITE/Src/usbd_composite.c ****   in_ep_track += 1;
1017:Middlewares/Third_Party/AL94_USB_Composite/COMPOSITE/Class/COMPOSITE/Src/usbd_composite.c ****   interface_no_track += 2;
1018:Middlewares/Third_Party/AL94_USB_Composite/COMPOSITE/Class/COMPOSITE/Src/usbd_composite.c ****   USBD_Track_String_Index += 1;
1019:Middlewares/Third_Party/AL94_USB_Composite/COMPOSITE/Class/COMPOSITE/Src/usbd_composite.c **** #endif
1020:Middlewares/Third_Party/AL94_USB_Composite/COMPOSITE/Class/COMPOSITE/Src/usbd_composite.c **** 
1021:Middlewares/Third_Party/AL94_USB_Composite/COMPOSITE/Class/COMPOSITE/Src/usbd_composite.c **** #if (USBD_USE_UAC_SPKR == 1)
1022:Middlewares/Third_Party/AL94_USB_Composite/COMPOSITE/Class/COMPOSITE/Src/usbd_composite.c ****   ptr = USBD_AUDIO_SPKR.GetFSConfigDescriptor(&len);
1023:Middlewares/Third_Party/AL94_USB_Composite/COMPOSITE/Class/COMPOSITE/Src/usbd_composite.c ****   USBD_Update_Audio_SPKR_DESC(ptr, interface_no_track, interface_no_track + 1, out_ep_track, USBD_T
1024:Middlewares/Third_Party/AL94_USB_Composite/COMPOSITE/Class/COMPOSITE/Src/usbd_composite.c ****   memcpy(USBD_COMPOSITE_FSCfgDesc.USBD_AUDIO_SPKR_DESC, ptr + 0x09, len - 0x09);
ARM GAS  /tmp/cc5avDBI.s 			page 38


1025:Middlewares/Third_Party/AL94_USB_Composite/COMPOSITE/Class/COMPOSITE/Src/usbd_composite.c **** 
1026:Middlewares/Third_Party/AL94_USB_Composite/COMPOSITE/Class/COMPOSITE/Src/usbd_composite.c ****   ptr = USBD_AUDIO_SPKR.GetHSConfigDescriptor(&len);
1027:Middlewares/Third_Party/AL94_USB_Composite/COMPOSITE/Class/COMPOSITE/Src/usbd_composite.c ****   USBD_Update_Audio_SPKR_DESC(ptr, interface_no_track, interface_no_track + 1, out_ep_track, USBD_T
1028:Middlewares/Third_Party/AL94_USB_Composite/COMPOSITE/Class/COMPOSITE/Src/usbd_composite.c ****   memcpy(USBD_COMPOSITE_HSCfgDesc.USBD_AUDIO_SPKR_DESC, ptr + 0x09, len - 0x09);
1029:Middlewares/Third_Party/AL94_USB_Composite/COMPOSITE/Class/COMPOSITE/Src/usbd_composite.c **** 
1030:Middlewares/Third_Party/AL94_USB_Composite/COMPOSITE/Class/COMPOSITE/Src/usbd_composite.c ****   out_ep_track += 1;
1031:Middlewares/Third_Party/AL94_USB_Composite/COMPOSITE/Class/COMPOSITE/Src/usbd_composite.c ****   interface_no_track += 2;
1032:Middlewares/Third_Party/AL94_USB_Composite/COMPOSITE/Class/COMPOSITE/Src/usbd_composite.c ****   USBD_Track_String_Index += 1;
1033:Middlewares/Third_Party/AL94_USB_Composite/COMPOSITE/Class/COMPOSITE/Src/usbd_composite.c **** #endif
1034:Middlewares/Third_Party/AL94_USB_Composite/COMPOSITE/Class/COMPOSITE/Src/usbd_composite.c **** 
1035:Middlewares/Third_Party/AL94_USB_Composite/COMPOSITE/Class/COMPOSITE/Src/usbd_composite.c **** #if (USBD_USE_UVC == 1)
1036:Middlewares/Third_Party/AL94_USB_Composite/COMPOSITE/Class/COMPOSITE/Src/usbd_composite.c ****   ptr = USBD_VIDEO.GetFSConfigDescriptor(&len);
1037:Middlewares/Third_Party/AL94_USB_Composite/COMPOSITE/Class/COMPOSITE/Src/usbd_composite.c ****   USBD_Update_UVC_DESC(ptr, interface_no_track, interface_no_track + 1, in_ep_track, USBD_Track_Str
1038:Middlewares/Third_Party/AL94_USB_Composite/COMPOSITE/Class/COMPOSITE/Src/usbd_composite.c ****   memcpy(USBD_COMPOSITE_FSCfgDesc.USBD_UVC_DESC, ptr + 0x09, len - 0x09);
1039:Middlewares/Third_Party/AL94_USB_Composite/COMPOSITE/Class/COMPOSITE/Src/usbd_composite.c **** 
1040:Middlewares/Third_Party/AL94_USB_Composite/COMPOSITE/Class/COMPOSITE/Src/usbd_composite.c ****   ptr = USBD_VIDEO.GetHSConfigDescriptor(&len);
1041:Middlewares/Third_Party/AL94_USB_Composite/COMPOSITE/Class/COMPOSITE/Src/usbd_composite.c ****   USBD_Update_UVC_DESC(ptr, interface_no_track, interface_no_track + 1, in_ep_track, USBD_Track_Str
1042:Middlewares/Third_Party/AL94_USB_Composite/COMPOSITE/Class/COMPOSITE/Src/usbd_composite.c ****   memcpy(USBD_COMPOSITE_HSCfgDesc.USBD_UVC_DESC, ptr + 0x09, len - 0x09);
1043:Middlewares/Third_Party/AL94_USB_Composite/COMPOSITE/Class/COMPOSITE/Src/usbd_composite.c **** 
1044:Middlewares/Third_Party/AL94_USB_Composite/COMPOSITE/Class/COMPOSITE/Src/usbd_composite.c ****   in_ep_track += 1;
1045:Middlewares/Third_Party/AL94_USB_Composite/COMPOSITE/Class/COMPOSITE/Src/usbd_composite.c ****   interface_no_track += 2;
1046:Middlewares/Third_Party/AL94_USB_Composite/COMPOSITE/Class/COMPOSITE/Src/usbd_composite.c ****   USBD_Track_String_Index += 1;
1047:Middlewares/Third_Party/AL94_USB_Composite/COMPOSITE/Class/COMPOSITE/Src/usbd_composite.c **** #endif
1048:Middlewares/Third_Party/AL94_USB_Composite/COMPOSITE/Class/COMPOSITE/Src/usbd_composite.c **** 
1049:Middlewares/Third_Party/AL94_USB_Composite/COMPOSITE/Class/COMPOSITE/Src/usbd_composite.c **** #if (USBD_USE_MSC == 1)
1050:Middlewares/Third_Party/AL94_USB_Composite/COMPOSITE/Class/COMPOSITE/Src/usbd_composite.c ****   ptr = USBD_MSC.GetFSConfigDescriptor(&len);
1051:Middlewares/Third_Party/AL94_USB_Composite/COMPOSITE/Class/COMPOSITE/Src/usbd_composite.c ****   USBD_Update_MSC_DESC(ptr, interface_no_track, in_ep_track, out_ep_track, USBD_Track_String_Index)
1052:Middlewares/Third_Party/AL94_USB_Composite/COMPOSITE/Class/COMPOSITE/Src/usbd_composite.c ****   memcpy(USBD_COMPOSITE_FSCfgDesc.USBD_MSC_DESC, ptr + 0x09, len - 0x09);
1053:Middlewares/Third_Party/AL94_USB_Composite/COMPOSITE/Class/COMPOSITE/Src/usbd_composite.c **** 
1054:Middlewares/Third_Party/AL94_USB_Composite/COMPOSITE/Class/COMPOSITE/Src/usbd_composite.c ****   ptr = USBD_MSC.GetHSConfigDescriptor(&len);
1055:Middlewares/Third_Party/AL94_USB_Composite/COMPOSITE/Class/COMPOSITE/Src/usbd_composite.c ****   USBD_Update_MSC_DESC(ptr, interface_no_track, in_ep_track, out_ep_track, USBD_Track_String_Index)
1056:Middlewares/Third_Party/AL94_USB_Composite/COMPOSITE/Class/COMPOSITE/Src/usbd_composite.c ****   memcpy(USBD_COMPOSITE_HSCfgDesc.USBD_MSC_DESC, ptr + 0x09, len - 0x09);
1057:Middlewares/Third_Party/AL94_USB_Composite/COMPOSITE/Class/COMPOSITE/Src/usbd_composite.c **** 
1058:Middlewares/Third_Party/AL94_USB_Composite/COMPOSITE/Class/COMPOSITE/Src/usbd_composite.c ****   in_ep_track += 1;
1059:Middlewares/Third_Party/AL94_USB_Composite/COMPOSITE/Class/COMPOSITE/Src/usbd_composite.c ****   out_ep_track += 1;
1060:Middlewares/Third_Party/AL94_USB_Composite/COMPOSITE/Class/COMPOSITE/Src/usbd_composite.c ****   interface_no_track += 1;
1061:Middlewares/Third_Party/AL94_USB_Composite/COMPOSITE/Class/COMPOSITE/Src/usbd_composite.c ****   USBD_Track_String_Index += 1;
1062:Middlewares/Third_Party/AL94_USB_Composite/COMPOSITE/Class/COMPOSITE/Src/usbd_composite.c **** #endif
1063:Middlewares/Third_Party/AL94_USB_Composite/COMPOSITE/Class/COMPOSITE/Src/usbd_composite.c **** 
1064:Middlewares/Third_Party/AL94_USB_Composite/COMPOSITE/Class/COMPOSITE/Src/usbd_composite.c **** #if (USBD_USE_DFU == 1)
1065:Middlewares/Third_Party/AL94_USB_Composite/COMPOSITE/Class/COMPOSITE/Src/usbd_composite.c ****   ptr = USBD_DFU.GetFSConfigDescriptor(&len);
1066:Middlewares/Third_Party/AL94_USB_Composite/COMPOSITE/Class/COMPOSITE/Src/usbd_composite.c ****   USBD_Update_DFU_DESC(ptr, interface_no_track, USBD_Track_String_Index);
1067:Middlewares/Third_Party/AL94_USB_Composite/COMPOSITE/Class/COMPOSITE/Src/usbd_composite.c ****   memcpy(USBD_COMPOSITE_FSCfgDesc.USBD_DFU_DESC, ptr + 0x09, len - 0x09);
1068:Middlewares/Third_Party/AL94_USB_Composite/COMPOSITE/Class/COMPOSITE/Src/usbd_composite.c **** 
1069:Middlewares/Third_Party/AL94_USB_Composite/COMPOSITE/Class/COMPOSITE/Src/usbd_composite.c ****   ptr = USBD_DFU.GetHSConfigDescriptor(&len);
1070:Middlewares/Third_Party/AL94_USB_Composite/COMPOSITE/Class/COMPOSITE/Src/usbd_composite.c ****   USBD_Update_DFU_DESC(ptr, interface_no_track, USBD_Track_String_Index);
1071:Middlewares/Third_Party/AL94_USB_Composite/COMPOSITE/Class/COMPOSITE/Src/usbd_composite.c ****   memcpy(USBD_COMPOSITE_HSCfgDesc.USBD_DFU_DESC, ptr + 0x09, len - 0x09);
1072:Middlewares/Third_Party/AL94_USB_Composite/COMPOSITE/Class/COMPOSITE/Src/usbd_composite.c **** 
1073:Middlewares/Third_Party/AL94_USB_Composite/COMPOSITE/Class/COMPOSITE/Src/usbd_composite.c ****   interface_no_track += USBD_DFU_MAX_ITF_NUM;
1074:Middlewares/Third_Party/AL94_USB_Composite/COMPOSITE/Class/COMPOSITE/Src/usbd_composite.c ****   USBD_Track_String_Index += USBD_DFU_MAX_ITF_NUM;
1075:Middlewares/Third_Party/AL94_USB_Composite/COMPOSITE/Class/COMPOSITE/Src/usbd_composite.c **** #endif
1076:Middlewares/Third_Party/AL94_USB_Composite/COMPOSITE/Class/COMPOSITE/Src/usbd_composite.c **** 
1077:Middlewares/Third_Party/AL94_USB_Composite/COMPOSITE/Class/COMPOSITE/Src/usbd_composite.c **** #if (USBD_USE_PRNTR == 1)
1078:Middlewares/Third_Party/AL94_USB_Composite/COMPOSITE/Class/COMPOSITE/Src/usbd_composite.c ****   ptr = USBD_PRNT.GetFSConfigDescriptor(&len);
1079:Middlewares/Third_Party/AL94_USB_Composite/COMPOSITE/Class/COMPOSITE/Src/usbd_composite.c ****   USBD_Update_PRNT_DESC(ptr, interface_no_track, in_ep_track, out_ep_track, USBD_Track_String_Index
1080:Middlewares/Third_Party/AL94_USB_Composite/COMPOSITE/Class/COMPOSITE/Src/usbd_composite.c ****   memcpy(USBD_COMPOSITE_FSCfgDesc.USBD_PRNTR_DESC, ptr + 0x09, len - 0x09);
1081:Middlewares/Third_Party/AL94_USB_Composite/COMPOSITE/Class/COMPOSITE/Src/usbd_composite.c **** 
ARM GAS  /tmp/cc5avDBI.s 			page 39


1082:Middlewares/Third_Party/AL94_USB_Composite/COMPOSITE/Class/COMPOSITE/Src/usbd_composite.c ****   ptr = USBD_PRNT.GetHSConfigDescriptor(&len);
1083:Middlewares/Third_Party/AL94_USB_Composite/COMPOSITE/Class/COMPOSITE/Src/usbd_composite.c ****   USBD_Update_PRNT_DESC(ptr, interface_no_track, in_ep_track, out_ep_track, USBD_Track_String_Index
1084:Middlewares/Third_Party/AL94_USB_Composite/COMPOSITE/Class/COMPOSITE/Src/usbd_composite.c ****   memcpy(USBD_COMPOSITE_HSCfgDesc.USBD_PRNTR_DESC, ptr + 0x09, len - 0x09);
1085:Middlewares/Third_Party/AL94_USB_Composite/COMPOSITE/Class/COMPOSITE/Src/usbd_composite.c ****   
1086:Middlewares/Third_Party/AL94_USB_Composite/COMPOSITE/Class/COMPOSITE/Src/usbd_composite.c ****   in_ep_track += 1;
1087:Middlewares/Third_Party/AL94_USB_Composite/COMPOSITE/Class/COMPOSITE/Src/usbd_composite.c ****   out_ep_track += 1;
1088:Middlewares/Third_Party/AL94_USB_Composite/COMPOSITE/Class/COMPOSITE/Src/usbd_composite.c ****   interface_no_track += 1;
1089:Middlewares/Third_Party/AL94_USB_Composite/COMPOSITE/Class/COMPOSITE/Src/usbd_composite.c ****   USBD_Track_String_Index += 1;
1090:Middlewares/Third_Party/AL94_USB_Composite/COMPOSITE/Class/COMPOSITE/Src/usbd_composite.c **** #endif
1091:Middlewares/Third_Party/AL94_USB_Composite/COMPOSITE/Class/COMPOSITE/Src/usbd_composite.c **** 
1092:Middlewares/Third_Party/AL94_USB_Composite/COMPOSITE/Class/COMPOSITE/Src/usbd_composite.c **** #if (USBD_USE_CDC_ACM == 1)
1093:Middlewares/Third_Party/AL94_USB_Composite/COMPOSITE/Class/COMPOSITE/Src/usbd_composite.c ****   ptr = USBD_CDC_ACM.GetFSConfigDescriptor(&len);
 1043              		.loc 1 1093 3 is_stmt 1 view .LVU243
 1044              		.loc 1 1093 21 is_stmt 0 view .LVU244
 1045 00c0 DFF8E4B0 		ldr	fp, .L83+20
 1046 00c4 DBF82C30 		ldr	r3, [fp, #44]
 1047              		.loc 1 1093 9 view .LVU245
 1048 00c8 3046     		mov	r0, r6
 1049 00ca 9847     		blx	r3
 1050              	.LVL94:
 1051 00cc 0590     		str	r0, [sp, #20]
 1052              	.LVL95:
1094:Middlewares/Third_Party/AL94_USB_Composite/COMPOSITE/Class/COMPOSITE/Src/usbd_composite.c ****   USBD_Update_CDC_ACM_DESC(ptr,
 1053              		.loc 1 1094 3 is_stmt 1 view .LVU246
 1054 00ce 2378     		ldrb	r3, [r4]	@ zero_extendqisi2
 1055 00d0 0293     		str	r3, [sp, #8]
 1056 00d2 4FF00109 		mov	r9, #1
 1057 00d6 CDF80490 		str	r9, [sp, #4]
 1058 00da 4FF0840A 		mov	r10, #132
 1059 00de CDF800A0 		str	r10, [sp]
 1060 00e2 8323     		movs	r3, #131
 1061 00e4 0322     		movs	r2, #3
 1062 00e6 0221     		movs	r1, #2
 1063 00e8 FFF7FEFF 		bl	USBD_Update_CDC_ACM_DESC
 1064              	.LVL96:
1095:Middlewares/Third_Party/AL94_USB_Composite/COMPOSITE/Class/COMPOSITE/Src/usbd_composite.c ****                            interface_no_track,
1096:Middlewares/Third_Party/AL94_USB_Composite/COMPOSITE/Class/COMPOSITE/Src/usbd_composite.c ****                            interface_no_track + 1,
1097:Middlewares/Third_Party/AL94_USB_Composite/COMPOSITE/Class/COMPOSITE/Src/usbd_composite.c ****                            in_ep_track,
1098:Middlewares/Third_Party/AL94_USB_Composite/COMPOSITE/Class/COMPOSITE/Src/usbd_composite.c ****                            in_ep_track + 1,
1099:Middlewares/Third_Party/AL94_USB_Composite/COMPOSITE/Class/COMPOSITE/Src/usbd_composite.c ****                            out_ep_track,
1100:Middlewares/Third_Party/AL94_USB_Composite/COMPOSITE/Class/COMPOSITE/Src/usbd_composite.c ****                            USBD_Track_String_Index);
1101:Middlewares/Third_Party/AL94_USB_Composite/COMPOSITE/Class/COMPOSITE/Src/usbd_composite.c ****   memcpy(USBD_COMPOSITE_FSCfgDesc.USBD_CDC_ACM_DESC, ptr + 0x09, len - 0x09);
 1065              		.loc 1 1101 3 view .LVU247
 1066              		.loc 1 1101 70 is_stmt 0 view .LVU248
 1067 00ec BDF81E20 		ldrh	r2, [sp, #30]
 1068              		.loc 1 1101 3 view .LVU249
 1069 00f0 093A     		subs	r2, r2, #9
 1070 00f2 0599     		ldr	r1, [sp, #20]
 1071 00f4 0931     		adds	r1, r1, #9
 1072 00f6 07F13200 		add	r0, r7, #50
 1073 00fa FFF7FEFF 		bl	memcpy
 1074              	.LVL97:
1102:Middlewares/Third_Party/AL94_USB_Composite/COMPOSITE/Class/COMPOSITE/Src/usbd_composite.c **** 
1103:Middlewares/Third_Party/AL94_USB_Composite/COMPOSITE/Class/COMPOSITE/Src/usbd_composite.c ****   ptr = USBD_CDC_ACM.GetHSConfigDescriptor(&len);
 1075              		.loc 1 1103 3 is_stmt 1 view .LVU250
 1076              		.loc 1 1103 21 is_stmt 0 view .LVU251
 1077 00fe DBF82830 		ldr	r3, [fp, #40]
ARM GAS  /tmp/cc5avDBI.s 			page 40


 1078              		.loc 1 1103 9 view .LVU252
 1079 0102 3046     		mov	r0, r6
 1080 0104 9847     		blx	r3
 1081              	.LVL98:
 1082 0106 0646     		mov	r6, r0
 1083              	.LVL99:
1104:Middlewares/Third_Party/AL94_USB_Composite/COMPOSITE/Class/COMPOSITE/Src/usbd_composite.c ****   USBD_Update_CDC_ACM_DESC(ptr,
 1084              		.loc 1 1104 3 is_stmt 1 view .LVU253
 1085 0108 2378     		ldrb	r3, [r4]	@ zero_extendqisi2
 1086 010a 0293     		str	r3, [sp, #8]
 1087 010c CDF80490 		str	r9, [sp, #4]
 1088 0110 CDF800A0 		str	r10, [sp]
 1089 0114 8323     		movs	r3, #131
 1090 0116 0322     		movs	r2, #3
 1091 0118 0221     		movs	r1, #2
 1092 011a FFF7FEFF 		bl	USBD_Update_CDC_ACM_DESC
 1093              	.LVL100:
1105:Middlewares/Third_Party/AL94_USB_Composite/COMPOSITE/Class/COMPOSITE/Src/usbd_composite.c ****                            interface_no_track,
1106:Middlewares/Third_Party/AL94_USB_Composite/COMPOSITE/Class/COMPOSITE/Src/usbd_composite.c ****                            interface_no_track + 1,
1107:Middlewares/Third_Party/AL94_USB_Composite/COMPOSITE/Class/COMPOSITE/Src/usbd_composite.c ****                            in_ep_track,
1108:Middlewares/Third_Party/AL94_USB_Composite/COMPOSITE/Class/COMPOSITE/Src/usbd_composite.c ****                            in_ep_track + 1,
1109:Middlewares/Third_Party/AL94_USB_Composite/COMPOSITE/Class/COMPOSITE/Src/usbd_composite.c ****                            out_ep_track,
1110:Middlewares/Third_Party/AL94_USB_Composite/COMPOSITE/Class/COMPOSITE/Src/usbd_composite.c ****                            USBD_Track_String_Index);
1111:Middlewares/Third_Party/AL94_USB_Composite/COMPOSITE/Class/COMPOSITE/Src/usbd_composite.c ****   memcpy(USBD_COMPOSITE_HSCfgDesc.USBD_CDC_ACM_DESC, ptr + 0x09, len - 0x09);
 1094              		.loc 1 1111 3 view .LVU254
 1095              		.loc 1 1111 70 is_stmt 0 view .LVU255
 1096 011e BDF81E20 		ldrh	r2, [sp, #30]
 1097              		.loc 1 1111 3 view .LVU256
 1098 0122 093A     		subs	r2, r2, #9
 1099 0124 06F10901 		add	r1, r6, #9
 1100 0128 08F13200 		add	r0, r8, #50
 1101 012c FFF7FEFF 		bl	memcpy
 1102              	.LVL101:
1112:Middlewares/Third_Party/AL94_USB_Composite/COMPOSITE/Class/COMPOSITE/Src/usbd_composite.c **** 
1113:Middlewares/Third_Party/AL94_USB_Composite/COMPOSITE/Class/COMPOSITE/Src/usbd_composite.c ****   in_ep_track += 2 * USBD_CDC_ACM_COUNT;
 1103              		.loc 1 1113 3 is_stmt 1 view .LVU257
1114:Middlewares/Third_Party/AL94_USB_Composite/COMPOSITE/Class/COMPOSITE/Src/usbd_composite.c ****   out_ep_track += 1 * USBD_CDC_ACM_COUNT;
 1104              		.loc 1 1114 3 view .LVU258
1115:Middlewares/Third_Party/AL94_USB_Composite/COMPOSITE/Class/COMPOSITE/Src/usbd_composite.c ****   interface_no_track += 2 * USBD_CDC_ACM_COUNT;
 1105              		.loc 1 1115 3 view .LVU259
1116:Middlewares/Third_Party/AL94_USB_Composite/COMPOSITE/Class/COMPOSITE/Src/usbd_composite.c ****   USBD_Track_String_Index += USBD_CDC_ACM_COUNT;
 1106              		.loc 1 1116 3 view .LVU260
 1107              		.loc 1 1116 27 is_stmt 0 view .LVU261
 1108 0130 2378     		ldrb	r3, [r4]	@ zero_extendqisi2
 1109 0132 4B44     		add	r3, r3, r9
 1110 0134 2370     		strb	r3, [r4]
1117:Middlewares/Third_Party/AL94_USB_Composite/COMPOSITE/Class/COMPOSITE/Src/usbd_composite.c **** #endif
1118:Middlewares/Third_Party/AL94_USB_Composite/COMPOSITE/Class/COMPOSITE/Src/usbd_composite.c **** 
1119:Middlewares/Third_Party/AL94_USB_Composite/COMPOSITE/Class/COMPOSITE/Src/usbd_composite.c ****   uint16_t CFG_SIZE = sizeof(USBD_COMPOSITE_CFG_DESC_t);
 1111              		.loc 1 1119 3 is_stmt 1 view .LVU262
 1112              	.LVL102:
1120:Middlewares/Third_Party/AL94_USB_Composite/COMPOSITE/Class/COMPOSITE/Src/usbd_composite.c ****   ptr = USBD_COMPOSITE_HSCfgDesc.CONFIG_DESC;
 1113              		.loc 1 1120 3 view .LVU263
1121:Middlewares/Third_Party/AL94_USB_Composite/COMPOSITE/Class/COMPOSITE/Src/usbd_composite.c ****   /* Configuration Descriptor */
1122:Middlewares/Third_Party/AL94_USB_Composite/COMPOSITE/Class/COMPOSITE/Src/usbd_composite.c ****   ptr[0] = 0x09;                        /* bLength: Configuration Descriptor size */
 1114              		.loc 1 1122 3 view .LVU264
 1115              		.loc 1 1122 10 is_stmt 0 view .LVU265
ARM GAS  /tmp/cc5avDBI.s 			page 41


 1116 0136 4FF0090C 		mov	ip, #9
 1117 013a 08F809CC 		strb	ip, [r8, #-9]
1123:Middlewares/Third_Party/AL94_USB_Composite/COMPOSITE/Class/COMPOSITE/Src/usbd_composite.c ****   ptr[1] = USB_DESC_TYPE_CONFIGURATION; /* bDescriptorType: Configuration */
 1118              		.loc 1 1123 3 is_stmt 1 view .LVU266
 1119              		.loc 1 1123 10 is_stmt 0 view .LVU267
 1120 013e 0226     		movs	r6, #2
 1121 0140 08F8086C 		strb	r6, [r8, #-8]
1124:Middlewares/Third_Party/AL94_USB_Composite/COMPOSITE/Class/COMPOSITE/Src/usbd_composite.c ****   ptr[2] = LOBYTE(CFG_SIZE);            /* wTotalLength:no of returned bytes */
 1122              		.loc 1 1124 3 is_stmt 1 view .LVU268
 1123              		.loc 1 1124 10 is_stmt 0 view .LVU269
 1124 0144 7D24     		movs	r4, #125
 1125 0146 08F8074C 		strb	r4, [r8, #-7]
1125:Middlewares/Third_Party/AL94_USB_Composite/COMPOSITE/Class/COMPOSITE/Src/usbd_composite.c ****   ptr[3] = HIBYTE(CFG_SIZE);
 1126              		.loc 1 1125 3 is_stmt 1 view .LVU270
 1127              		.loc 1 1125 10 is_stmt 0 view .LVU271
 1128 014a 08F8065C 		strb	r5, [r8, #-6]
1126:Middlewares/Third_Party/AL94_USB_Composite/COMPOSITE/Class/COMPOSITE/Src/usbd_composite.c ****   ptr[4] = interface_no_track; /* bNumInterfaces: 2 interface */
 1129              		.loc 1 1126 3 is_stmt 1 view .LVU272
 1130              		.loc 1 1126 10 is_stmt 0 view .LVU273
 1131 014e 0420     		movs	r0, #4
 1132 0150 08F8050C 		strb	r0, [r8, #-5]
1127:Middlewares/Third_Party/AL94_USB_Composite/COMPOSITE/Class/COMPOSITE/Src/usbd_composite.c ****   ptr[5] = 0x01;               /* bConfigurationValue: Configuration value */
 1133              		.loc 1 1127 3 is_stmt 1 view .LVU274
 1134              		.loc 1 1127 10 is_stmt 0 view .LVU275
 1135 0154 08F8049C 		strb	r9, [r8, #-4]
1128:Middlewares/Third_Party/AL94_USB_Composite/COMPOSITE/Class/COMPOSITE/Src/usbd_composite.c ****   ptr[6] = 0x00;               /* iConfiguration: Index of string descriptor describing the configu
 1136              		.loc 1 1128 3 is_stmt 1 view .LVU276
 1137              		.loc 1 1128 10 is_stmt 0 view .LVU277
 1138 0158 08F8035C 		strb	r5, [r8, #-3]
1129:Middlewares/Third_Party/AL94_USB_Composite/COMPOSITE/Class/COMPOSITE/Src/usbd_composite.c **** #if (USBD_SELF_POWERED == 1U)
1130:Middlewares/Third_Party/AL94_USB_Composite/COMPOSITE/Class/COMPOSITE/Src/usbd_composite.c ****   ptr[7] = 0xC0; /* bmAttributes: Bus Powered according to user configuration */
 1139              		.loc 1 1130 3 is_stmt 1 view .LVU278
 1140              		.loc 1 1130 10 is_stmt 0 view .LVU279
 1141 015c C021     		movs	r1, #192
 1142 015e 08F8021C 		strb	r1, [r8, #-2]
1131:Middlewares/Third_Party/AL94_USB_Composite/COMPOSITE/Class/COMPOSITE/Src/usbd_composite.c **** #else
1132:Middlewares/Third_Party/AL94_USB_Composite/COMPOSITE/Class/COMPOSITE/Src/usbd_composite.c ****   ptr[7] = 0x80; /* bmAttributes: Bus Powered according to user configuration */
1133:Middlewares/Third_Party/AL94_USB_Composite/COMPOSITE/Class/COMPOSITE/Src/usbd_composite.c **** #endif
1134:Middlewares/Third_Party/AL94_USB_Composite/COMPOSITE/Class/COMPOSITE/Src/usbd_composite.c ****   ptr[8] = USBD_MAX_POWER; /* MaxPower 100 mA */
 1143              		.loc 1 1134 3 is_stmt 1 view .LVU280
 1144              		.loc 1 1134 10 is_stmt 0 view .LVU281
 1145 0162 3222     		movs	r2, #50
 1146 0164 08F8012C 		strb	r2, [r8, #-1]
1135:Middlewares/Third_Party/AL94_USB_Composite/COMPOSITE/Class/COMPOSITE/Src/usbd_composite.c **** 
1136:Middlewares/Third_Party/AL94_USB_Composite/COMPOSITE/Class/COMPOSITE/Src/usbd_composite.c ****   ptr = USBD_COMPOSITE_FSCfgDesc.CONFIG_DESC;
 1147              		.loc 1 1136 3 is_stmt 1 view .LVU282
 1148              	.LVL103:
1137:Middlewares/Third_Party/AL94_USB_Composite/COMPOSITE/Class/COMPOSITE/Src/usbd_composite.c ****   /* Configuration Descriptor */
1138:Middlewares/Third_Party/AL94_USB_Composite/COMPOSITE/Class/COMPOSITE/Src/usbd_composite.c ****   ptr[0] = 0x09;                        /* bLength: Configuration Descriptor size */
 1149              		.loc 1 1138 3 view .LVU283
 1150              		.loc 1 1138 10 is_stmt 0 view .LVU284
 1151 0168 07F809CC 		strb	ip, [r7, #-9]
1139:Middlewares/Third_Party/AL94_USB_Composite/COMPOSITE/Class/COMPOSITE/Src/usbd_composite.c ****   ptr[1] = USB_DESC_TYPE_CONFIGURATION; /* bDescriptorType: Configuration */
 1152              		.loc 1 1139 3 is_stmt 1 view .LVU285
 1153              		.loc 1 1139 10 is_stmt 0 view .LVU286
 1154 016c 07F8086C 		strb	r6, [r7, #-8]
1140:Middlewares/Third_Party/AL94_USB_Composite/COMPOSITE/Class/COMPOSITE/Src/usbd_composite.c ****   ptr[2] = LOBYTE(CFG_SIZE);            /* wTotalLength:no of returned bytes */
ARM GAS  /tmp/cc5avDBI.s 			page 42


 1155              		.loc 1 1140 3 is_stmt 1 view .LVU287
 1156              		.loc 1 1140 10 is_stmt 0 view .LVU288
 1157 0170 07F8074C 		strb	r4, [r7, #-7]
1141:Middlewares/Third_Party/AL94_USB_Composite/COMPOSITE/Class/COMPOSITE/Src/usbd_composite.c ****   ptr[3] = HIBYTE(CFG_SIZE);
 1158              		.loc 1 1141 3 is_stmt 1 view .LVU289
 1159              		.loc 1 1141 10 is_stmt 0 view .LVU290
 1160 0174 07F8065C 		strb	r5, [r7, #-6]
1142:Middlewares/Third_Party/AL94_USB_Composite/COMPOSITE/Class/COMPOSITE/Src/usbd_composite.c ****   ptr[4] = interface_no_track; /* bNumInterfaces: 2 interface */
 1161              		.loc 1 1142 3 is_stmt 1 view .LVU291
 1162              		.loc 1 1142 10 is_stmt 0 view .LVU292
 1163 0178 07F8050C 		strb	r0, [r7, #-5]
1143:Middlewares/Third_Party/AL94_USB_Composite/COMPOSITE/Class/COMPOSITE/Src/usbd_composite.c ****   ptr[5] = 0x01;               /* bConfigurationValue: Configuration value */
 1164              		.loc 1 1143 3 is_stmt 1 view .LVU293
 1165              		.loc 1 1143 10 is_stmt 0 view .LVU294
 1166 017c 07F8049C 		strb	r9, [r7, #-4]
1144:Middlewares/Third_Party/AL94_USB_Composite/COMPOSITE/Class/COMPOSITE/Src/usbd_composite.c ****   ptr[6] = 0x00;               /* iConfiguration: Index of string descriptor describing the configu
 1167              		.loc 1 1144 3 is_stmt 1 view .LVU295
 1168              		.loc 1 1144 10 is_stmt 0 view .LVU296
 1169 0180 07F8035C 		strb	r5, [r7, #-3]
1145:Middlewares/Third_Party/AL94_USB_Composite/COMPOSITE/Class/COMPOSITE/Src/usbd_composite.c **** #if (USBD_SELF_POWERED == 1U)
1146:Middlewares/Third_Party/AL94_USB_Composite/COMPOSITE/Class/COMPOSITE/Src/usbd_composite.c ****   ptr[7] = 0xC0; /* bmAttributes: Bus Powered according to user configuration */
 1170              		.loc 1 1146 3 is_stmt 1 view .LVU297
 1171              		.loc 1 1146 10 is_stmt 0 view .LVU298
 1172 0184 07F8021C 		strb	r1, [r7, #-2]
1147:Middlewares/Third_Party/AL94_USB_Composite/COMPOSITE/Class/COMPOSITE/Src/usbd_composite.c **** #else
1148:Middlewares/Third_Party/AL94_USB_Composite/COMPOSITE/Class/COMPOSITE/Src/usbd_composite.c ****   ptr[7] = 0x80; /* bmAttributes: Bus Powered according to user configuration */
1149:Middlewares/Third_Party/AL94_USB_Composite/COMPOSITE/Class/COMPOSITE/Src/usbd_composite.c **** #endif
1150:Middlewares/Third_Party/AL94_USB_Composite/COMPOSITE/Class/COMPOSITE/Src/usbd_composite.c ****   ptr[8] = USBD_MAX_POWER; /* MaxPower 100 mA */
 1173              		.loc 1 1150 3 is_stmt 1 view .LVU299
 1174              		.loc 1 1150 10 is_stmt 0 view .LVU300
 1175 0188 07F8012C 		strb	r2, [r7, #-1]
1151:Middlewares/Third_Party/AL94_USB_Composite/COMPOSITE/Class/COMPOSITE/Src/usbd_composite.c **** 
1152:Middlewares/Third_Party/AL94_USB_Composite/COMPOSITE/Class/COMPOSITE/Src/usbd_composite.c ****   (void)out_ep_track;
 1176              		.loc 1 1152 3 is_stmt 1 view .LVU301
1153:Middlewares/Third_Party/AL94_USB_Composite/COMPOSITE/Class/COMPOSITE/Src/usbd_composite.c ****   (void)in_ep_track;
 1177              		.loc 1 1153 3 view .LVU302
1154:Middlewares/Third_Party/AL94_USB_Composite/COMPOSITE/Class/COMPOSITE/Src/usbd_composite.c **** }
 1178              		.loc 1 1154 1 is_stmt 0 view .LVU303
 1179 018c 09B0     		add	sp, sp, #36
 1180              		.cfi_def_cfa_offset 36
 1181              		@ sp needed
 1182 018e BDE8F08F 		pop	{r4, r5, r6, r7, r8, r9, r10, fp, pc}
 1183              	.L84:
 1184 0192 00BF     		.align	2
 1185              	.L83:
 1186 0194 00000000 		.word	USBD_Track_String_Index
 1187 0198 09000000 		.word	USBD_COMPOSITE_FSCfgDesc+9
 1188 019c 00000000 		.word	USBD_HID_MOUSE
 1189 01a0 09000000 		.word	USBD_COMPOSITE_HSCfgDesc+9
 1190 01a4 00000000 		.word	USBD_HID_KEYBOARD
 1191 01a8 00000000 		.word	USBD_CDC_ACM
 1192              		.cfi_endproc
 1193              	.LFE348:
 1195              		.section	.bss.USBD_StrDesc.0,"aw",%nobits
 1196              		.align	2
 1199              	USBD_StrDesc.0:
 1200 0000 00000000 		.space	64
ARM GAS  /tmp/cc5avDBI.s 			page 43


 1200      00000000 
 1200      00000000 
 1200      00000000 
 1200      00000000 
 1201              		.section	.data.USBD_COMPOSITE_DeviceQualifierDesc,"aw"
 1202              		.align	2
 1205              	USBD_COMPOSITE_DeviceQualifierDesc:
 1206 0000 0A060002 		.ascii	"\012\006\000\002\357\002\001@\001\000"
 1206      EF020140 
 1206      0100
 1207              		.global	USBD_Track_String_Index
 1208              		.section	.data.USBD_Track_String_Index,"aw"
 1211              	USBD_Track_String_Index:
 1212 0000 06       		.byte	6
 1213              		.global	USBD_COMPOSITE_HSCfgDesc
 1214              		.section	.bss.USBD_COMPOSITE_HSCfgDesc,"aw",%nobits
 1215              		.align	2
 1218              	USBD_COMPOSITE_HSCfgDesc:
 1219 0000 00000000 		.space	125
 1219      00000000 
 1219      00000000 
 1219      00000000 
 1219      00000000 
 1220              		.global	USBD_COMPOSITE_FSCfgDesc
 1221              		.section	.bss.USBD_COMPOSITE_FSCfgDesc,"aw",%nobits
 1222              		.align	2
 1225              	USBD_COMPOSITE_FSCfgDesc:
 1226 0000 00000000 		.space	125
 1226      00000000 
 1226      00000000 
 1226      00000000 
 1226      00000000 
 1227              		.global	USBD_COMPOSITE
 1228              		.section	.data.USBD_COMPOSITE,"aw"
 1229              		.align	2
 1232              	USBD_COMPOSITE:
 1233 0000 00000000 		.word	USBD_COMPOSITE_Init
 1234 0004 00000000 		.word	USBD_COMPOSITE_DeInit
 1235 0008 00000000 		.word	USBD_COMPOSITE_Setup
 1236 000c 00000000 		.word	USBD_COMPOSITE_EP0_TxReady
 1237 0010 00000000 		.word	USBD_COMPOSITE_EP0_RxReady
 1238 0014 00000000 		.word	USBD_COMPOSITE_DataIn
 1239 0018 00000000 		.word	USBD_COMPOSITE_DataOut
 1240 001c 00000000 		.word	USBD_COMPOSITE_SOF
 1241 0020 00000000 		.word	USBD_COMPOSITE_IsoINIncomplete
 1242 0024 00000000 		.word	USBD_COMPOSITE_IsoOutIncomplete
 1243 0028 00000000 		.word	USBD_COMPOSITE_GetHSCfgDesc
 1244 002c 00000000 		.word	USBD_COMPOSITE_GetFSCfgDesc
 1245 0030 00000000 		.word	USBD_COMPOSITE_GetOtherSpeedCfgDesc
 1246 0034 00000000 		.word	USBD_COMPOSITE_GetDeviceQualifierDesc
 1247 0038 00000000 		.word	USBD_COMPOSITE_GetUsrStringDesc
 1248              		.text
 1249              	.Letext0:
 1250              		.file 2 "/opt/arm-gnu-toolchain-14.2/arm-none-eabi/include/machine/_default_types.h"
 1251              		.file 3 "/opt/arm-gnu-toolchain-14.2/arm-none-eabi/include/sys/_stdint.h"
 1252              		.file 4 "Middlewares/Third_Party/AL94_USB_Composite/COMPOSITE/Core/Inc/usbd_def.h"
 1253              		.file 5 "Middlewares/Third_Party/AL94_USB_Composite/COMPOSITE/Class/CDC_ACM/Inc/usbd_cdc_acm.h"
ARM GAS  /tmp/cc5avDBI.s 			page 44


 1254              		.file 6 "Middlewares/Third_Party/AL94_USB_Composite/COMPOSITE/Class/HID_MOUSE/Inc/usbd_hid_mouse.h
 1255              		.file 7 "Middlewares/Third_Party/AL94_USB_Composite/COMPOSITE/Class/HID_KEYBOARD/Inc/usbd_hid_keyb
 1256              		.file 8 "Middlewares/Third_Party/AL94_USB_Composite/COMPOSITE/Class/COMPOSITE/Inc/usbd_composite.h
 1257              		.file 9 "Middlewares/Third_Party/AL94_USB_Composite/COMPOSITE/Core/Inc/usbd_ctlreq.h"
 1258              		.file 10 "/opt/arm-gnu-toolchain-14.2/arm-none-eabi/include/string.h"
 1259              		.file 11 "/opt/arm-gnu-toolchain-14.2/arm-none-eabi/include/stdio.h"
 1260              		.file 12 "<built-in>"
ARM GAS  /tmp/cc5avDBI.s 			page 45

