ARM GAS  /tmp/ccj7hFdo.s 			page 1


   1              		.cpu cortex-m4
   2              		.arch armv7e-m
   3              		.fpu fpv4-sp-d16
   4              		.eabi_attribute 27, 1
   5              		.eabi_attribute 28, 1
   6              		.eabi_attribute 20, 1
   7              		.eabi_attribute 21, 1
   8              		.eabi_attribute 23, 3
   9              		.eabi_attribute 24, 1
  10              		.eabi_attribute 25, 1
  11              		.eabi_attribute 26, 1
  12              		.eabi_attribute 30, 1
  13              		.eabi_attribute 34, 1
  14              		.eabi_attribute 18, 4
  15              		.file	"usbd_cdc_if.c"
  16              		.text
  17              	.Ltext0:
  18              		.cfi_sections	.debug_frame
  19              		.file 1 "USB_Device/App/usbd_cdc_if.c"
  20              		.section	.text.CDC_DeInit_FS,"ax",%progbits
  21              		.align	1
  22              		.syntax unified
  23              		.thumb
  24              		.thumb_func
  26              	CDC_DeInit_FS:
  27              	.LFB335:
   1:USB_Device/App/usbd_cdc_if.c **** /* USER CODE BEGIN Header */
   2:USB_Device/App/usbd_cdc_if.c **** /**
   3:USB_Device/App/usbd_cdc_if.c ****   ******************************************************************************
   4:USB_Device/App/usbd_cdc_if.c ****   * @file           : usbd_cdc_if.c
   5:USB_Device/App/usbd_cdc_if.c ****   * @version        : v3.0_Cube
   6:USB_Device/App/usbd_cdc_if.c ****   * @brief          : Usb device for Virtual Com Port.
   7:USB_Device/App/usbd_cdc_if.c ****   ******************************************************************************
   8:USB_Device/App/usbd_cdc_if.c ****   * @attention
   9:USB_Device/App/usbd_cdc_if.c ****   *
  10:USB_Device/App/usbd_cdc_if.c ****   * Copyright (c) 2026 STMicroelectronics.
  11:USB_Device/App/usbd_cdc_if.c ****   * All rights reserved.
  12:USB_Device/App/usbd_cdc_if.c ****   *
  13:USB_Device/App/usbd_cdc_if.c ****   * This software is licensed under terms that can be found in the LICENSE file
  14:USB_Device/App/usbd_cdc_if.c ****   * in the root directory of this software component.
  15:USB_Device/App/usbd_cdc_if.c ****   * If no LICENSE file comes with this software, it is provided AS-IS.
  16:USB_Device/App/usbd_cdc_if.c ****   *
  17:USB_Device/App/usbd_cdc_if.c ****   ******************************************************************************
  18:USB_Device/App/usbd_cdc_if.c ****   */
  19:USB_Device/App/usbd_cdc_if.c **** /* USER CODE END Header */
  20:USB_Device/App/usbd_cdc_if.c **** 
  21:USB_Device/App/usbd_cdc_if.c **** /* Includes ------------------------------------------------------------------*/
  22:USB_Device/App/usbd_cdc_if.c **** #include "usbd_cdc_if.h"
  23:USB_Device/App/usbd_cdc_if.c **** 
  24:USB_Device/App/usbd_cdc_if.c **** /* USER CODE BEGIN INCLUDE */
  25:USB_Device/App/usbd_cdc_if.c **** 
  26:USB_Device/App/usbd_cdc_if.c **** //My_Add_code
  27:USB_Device/App/usbd_cdc_if.c **** static USB_RxCallback _usb_rx_cb = NULL;  //
  28:USB_Device/App/usbd_cdc_if.c **** void USB_Register_RxCallback(USB_RxCallback cb)
  29:USB_Device/App/usbd_cdc_if.c **** {
  30:USB_Device/App/usbd_cdc_if.c ****     _usb_rx_cb = cb;
  31:USB_Device/App/usbd_cdc_if.c **** }
ARM GAS  /tmp/ccj7hFdo.s 			page 2


  32:USB_Device/App/usbd_cdc_if.c **** //My_Add_code
  33:USB_Device/App/usbd_cdc_if.c **** 
  34:USB_Device/App/usbd_cdc_if.c **** /* USER CODE END INCLUDE */
  35:USB_Device/App/usbd_cdc_if.c **** 
  36:USB_Device/App/usbd_cdc_if.c **** /* Private typedef -----------------------------------------------------------*/
  37:USB_Device/App/usbd_cdc_if.c **** /* Private define ------------------------------------------------------------*/
  38:USB_Device/App/usbd_cdc_if.c **** /* Private macro -------------------------------------------------------------*/
  39:USB_Device/App/usbd_cdc_if.c **** 
  40:USB_Device/App/usbd_cdc_if.c **** /* USER CODE BEGIN PV */
  41:USB_Device/App/usbd_cdc_if.c **** /* Private variables ---------------------------------------------------------*/
  42:USB_Device/App/usbd_cdc_if.c **** 
  43:USB_Device/App/usbd_cdc_if.c **** /* USER CODE END PV */
  44:USB_Device/App/usbd_cdc_if.c **** 
  45:USB_Device/App/usbd_cdc_if.c **** /** @addtogroup STM32_USB_OTG_DEVICE_LIBRARY
  46:USB_Device/App/usbd_cdc_if.c ****   * @brief Usb device library.
  47:USB_Device/App/usbd_cdc_if.c ****   * @{
  48:USB_Device/App/usbd_cdc_if.c ****   */
  49:USB_Device/App/usbd_cdc_if.c **** 
  50:USB_Device/App/usbd_cdc_if.c **** /** @addtogroup USBD_CDC_IF
  51:USB_Device/App/usbd_cdc_if.c ****   * @{
  52:USB_Device/App/usbd_cdc_if.c ****   */
  53:USB_Device/App/usbd_cdc_if.c **** 
  54:USB_Device/App/usbd_cdc_if.c **** /** @defgroup USBD_CDC_IF_Private_TypesDefinitions USBD_CDC_IF_Private_TypesDefinitions
  55:USB_Device/App/usbd_cdc_if.c ****   * @brief Private types.
  56:USB_Device/App/usbd_cdc_if.c ****   * @{
  57:USB_Device/App/usbd_cdc_if.c ****   */
  58:USB_Device/App/usbd_cdc_if.c **** 
  59:USB_Device/App/usbd_cdc_if.c **** /* USER CODE BEGIN PRIVATE_TYPES */
  60:USB_Device/App/usbd_cdc_if.c **** 
  61:USB_Device/App/usbd_cdc_if.c **** /* USER CODE END PRIVATE_TYPES */
  62:USB_Device/App/usbd_cdc_if.c **** 
  63:USB_Device/App/usbd_cdc_if.c **** /**
  64:USB_Device/App/usbd_cdc_if.c ****   * @}
  65:USB_Device/App/usbd_cdc_if.c ****   */
  66:USB_Device/App/usbd_cdc_if.c **** 
  67:USB_Device/App/usbd_cdc_if.c **** /** @defgroup USBD_CDC_IF_Private_Defines USBD_CDC_IF_Private_Defines
  68:USB_Device/App/usbd_cdc_if.c ****   * @brief Private defines.
  69:USB_Device/App/usbd_cdc_if.c ****   * @{
  70:USB_Device/App/usbd_cdc_if.c ****   */
  71:USB_Device/App/usbd_cdc_if.c **** 
  72:USB_Device/App/usbd_cdc_if.c **** /* USER CODE BEGIN PRIVATE_DEFINES */
  73:USB_Device/App/usbd_cdc_if.c **** /* USER CODE END PRIVATE_DEFINES */
  74:USB_Device/App/usbd_cdc_if.c **** 
  75:USB_Device/App/usbd_cdc_if.c **** /**
  76:USB_Device/App/usbd_cdc_if.c ****   * @}
  77:USB_Device/App/usbd_cdc_if.c ****   */
  78:USB_Device/App/usbd_cdc_if.c **** 
  79:USB_Device/App/usbd_cdc_if.c **** /** @defgroup USBD_CDC_IF_Private_Macros USBD_CDC_IF_Private_Macros
  80:USB_Device/App/usbd_cdc_if.c ****   * @brief Private macros.
  81:USB_Device/App/usbd_cdc_if.c ****   * @{
  82:USB_Device/App/usbd_cdc_if.c ****   */
  83:USB_Device/App/usbd_cdc_if.c **** 
  84:USB_Device/App/usbd_cdc_if.c **** /* USER CODE BEGIN PRIVATE_MACRO */
  85:USB_Device/App/usbd_cdc_if.c **** 
  86:USB_Device/App/usbd_cdc_if.c **** /* USER CODE END PRIVATE_MACRO */
  87:USB_Device/App/usbd_cdc_if.c **** 
  88:USB_Device/App/usbd_cdc_if.c **** /**
ARM GAS  /tmp/ccj7hFdo.s 			page 3


  89:USB_Device/App/usbd_cdc_if.c ****   * @}
  90:USB_Device/App/usbd_cdc_if.c ****   */
  91:USB_Device/App/usbd_cdc_if.c **** 
  92:USB_Device/App/usbd_cdc_if.c **** /** @defgroup USBD_CDC_IF_Private_Variables USBD_CDC_IF_Private_Variables
  93:USB_Device/App/usbd_cdc_if.c ****   * @brief Private variables.
  94:USB_Device/App/usbd_cdc_if.c ****   * @{
  95:USB_Device/App/usbd_cdc_if.c ****   */
  96:USB_Device/App/usbd_cdc_if.c **** /* Create buffer for reception and transmission           */
  97:USB_Device/App/usbd_cdc_if.c **** /* It's up to user to redefine and/or remove those define */
  98:USB_Device/App/usbd_cdc_if.c **** /** Received data over USB are stored in this buffer      */
  99:USB_Device/App/usbd_cdc_if.c **** uint8_t UserRxBufferFS[APP_RX_DATA_SIZE];
 100:USB_Device/App/usbd_cdc_if.c **** 
 101:USB_Device/App/usbd_cdc_if.c **** /** Data to send over USB CDC are stored in this buffer   */
 102:USB_Device/App/usbd_cdc_if.c **** uint8_t UserTxBufferFS[APP_TX_DATA_SIZE];
 103:USB_Device/App/usbd_cdc_if.c **** 
 104:USB_Device/App/usbd_cdc_if.c **** /* USER CODE BEGIN PRIVATE_VARIABLES */
 105:USB_Device/App/usbd_cdc_if.c **** 
 106:USB_Device/App/usbd_cdc_if.c **** /* USER CODE END PRIVATE_VARIABLES */
 107:USB_Device/App/usbd_cdc_if.c **** 
 108:USB_Device/App/usbd_cdc_if.c **** /**
 109:USB_Device/App/usbd_cdc_if.c ****   * @}
 110:USB_Device/App/usbd_cdc_if.c ****   */
 111:USB_Device/App/usbd_cdc_if.c **** 
 112:USB_Device/App/usbd_cdc_if.c **** /** @defgroup USBD_CDC_IF_Exported_Variables USBD_CDC_IF_Exported_Variables
 113:USB_Device/App/usbd_cdc_if.c ****   * @brief Public variables.
 114:USB_Device/App/usbd_cdc_if.c ****   * @{
 115:USB_Device/App/usbd_cdc_if.c ****   */
 116:USB_Device/App/usbd_cdc_if.c **** 
 117:USB_Device/App/usbd_cdc_if.c **** extern USBD_HandleTypeDef hUsbDeviceFS;
 118:USB_Device/App/usbd_cdc_if.c **** 
 119:USB_Device/App/usbd_cdc_if.c **** /* USER CODE BEGIN EXPORTED_VARIABLES */
 120:USB_Device/App/usbd_cdc_if.c **** 
 121:USB_Device/App/usbd_cdc_if.c **** /* USER CODE END EXPORTED_VARIABLES */
 122:USB_Device/App/usbd_cdc_if.c **** 
 123:USB_Device/App/usbd_cdc_if.c **** /**
 124:USB_Device/App/usbd_cdc_if.c ****   * @}
 125:USB_Device/App/usbd_cdc_if.c ****   */
 126:USB_Device/App/usbd_cdc_if.c **** 
 127:USB_Device/App/usbd_cdc_if.c **** /** @defgroup USBD_CDC_IF_Private_FunctionPrototypes USBD_CDC_IF_Private_FunctionPrototypes
 128:USB_Device/App/usbd_cdc_if.c ****   * @brief Private functions declaration.
 129:USB_Device/App/usbd_cdc_if.c ****   * @{
 130:USB_Device/App/usbd_cdc_if.c ****   */
 131:USB_Device/App/usbd_cdc_if.c **** 
 132:USB_Device/App/usbd_cdc_if.c **** static int8_t CDC_Init_FS(void);
 133:USB_Device/App/usbd_cdc_if.c **** static int8_t CDC_DeInit_FS(void);
 134:USB_Device/App/usbd_cdc_if.c **** static int8_t CDC_Control_FS(uint8_t cmd, uint8_t* pbuf, uint16_t length);
 135:USB_Device/App/usbd_cdc_if.c **** static int8_t CDC_Receive_FS(uint8_t* pbuf, uint32_t *Len);
 136:USB_Device/App/usbd_cdc_if.c **** static int8_t CDC_TransmitCplt_FS(uint8_t *pbuf, uint32_t *Len, uint8_t epnum);
 137:USB_Device/App/usbd_cdc_if.c **** 
 138:USB_Device/App/usbd_cdc_if.c **** /* USER CODE BEGIN PRIVATE_FUNCTIONS_DECLARATION */
 139:USB_Device/App/usbd_cdc_if.c **** 
 140:USB_Device/App/usbd_cdc_if.c **** /* USER CODE END PRIVATE_FUNCTIONS_DECLARATION */
 141:USB_Device/App/usbd_cdc_if.c **** 
 142:USB_Device/App/usbd_cdc_if.c **** /**
 143:USB_Device/App/usbd_cdc_if.c ****   * @}
 144:USB_Device/App/usbd_cdc_if.c ****   */
 145:USB_Device/App/usbd_cdc_if.c **** 
ARM GAS  /tmp/ccj7hFdo.s 			page 4


 146:USB_Device/App/usbd_cdc_if.c **** USBD_CDC_ItfTypeDef USBD_Interface_fops_FS =
 147:USB_Device/App/usbd_cdc_if.c **** {
 148:USB_Device/App/usbd_cdc_if.c ****   CDC_Init_FS,
 149:USB_Device/App/usbd_cdc_if.c ****   CDC_DeInit_FS,
 150:USB_Device/App/usbd_cdc_if.c ****   CDC_Control_FS,
 151:USB_Device/App/usbd_cdc_if.c ****   CDC_Receive_FS,
 152:USB_Device/App/usbd_cdc_if.c ****   CDC_TransmitCplt_FS
 153:USB_Device/App/usbd_cdc_if.c **** };
 154:USB_Device/App/usbd_cdc_if.c **** 
 155:USB_Device/App/usbd_cdc_if.c **** /* Private functions ---------------------------------------------------------*/
 156:USB_Device/App/usbd_cdc_if.c **** /**
 157:USB_Device/App/usbd_cdc_if.c ****   * @brief  Initializes the CDC media low layer over the FS USB IP
 158:USB_Device/App/usbd_cdc_if.c ****   * @retval USBD_OK if all operations are OK else USBD_FAIL
 159:USB_Device/App/usbd_cdc_if.c ****   */
 160:USB_Device/App/usbd_cdc_if.c **** static int8_t CDC_Init_FS(void)
 161:USB_Device/App/usbd_cdc_if.c **** {
 162:USB_Device/App/usbd_cdc_if.c ****   /* USER CODE BEGIN 3 */
 163:USB_Device/App/usbd_cdc_if.c ****   /* Set Application Buffers */
 164:USB_Device/App/usbd_cdc_if.c ****   USBD_CDC_SetTxBuffer(&hUsbDeviceFS, UserTxBufferFS, 0);
 165:USB_Device/App/usbd_cdc_if.c ****   USBD_CDC_SetRxBuffer(&hUsbDeviceFS, UserRxBufferFS);
 166:USB_Device/App/usbd_cdc_if.c ****   return (USBD_OK);
 167:USB_Device/App/usbd_cdc_if.c ****   /* USER CODE END 3 */
 168:USB_Device/App/usbd_cdc_if.c **** }
 169:USB_Device/App/usbd_cdc_if.c **** 
 170:USB_Device/App/usbd_cdc_if.c **** /**
 171:USB_Device/App/usbd_cdc_if.c ****   * @brief  DeInitializes the CDC media low layer
 172:USB_Device/App/usbd_cdc_if.c ****   * @retval USBD_OK if all operations are OK else USBD_FAIL
 173:USB_Device/App/usbd_cdc_if.c ****   */
 174:USB_Device/App/usbd_cdc_if.c **** static int8_t CDC_DeInit_FS(void)
 175:USB_Device/App/usbd_cdc_if.c **** {
  28              		.loc 1 175 1 view -0
  29              		.cfi_startproc
  30              		@ args = 0, pretend = 0, frame = 0
  31              		@ frame_needed = 0, uses_anonymous_args = 0
  32              		@ link register save eliminated.
 176:USB_Device/App/usbd_cdc_if.c ****   /* USER CODE BEGIN 4 */
 177:USB_Device/App/usbd_cdc_if.c ****   return (USBD_OK);
  33              		.loc 1 177 3 view .LVU1
 178:USB_Device/App/usbd_cdc_if.c ****   /* USER CODE END 4 */
 179:USB_Device/App/usbd_cdc_if.c **** }
  34              		.loc 1 179 1 is_stmt 0 view .LVU2
  35 0000 0020     		movs	r0, #0
  36 0002 7047     		bx	lr
  37              		.cfi_endproc
  38              	.LFE335:
  40              		.section	.text.CDC_Control_FS,"ax",%progbits
  41              		.align	1
  42              		.syntax unified
  43              		.thumb
  44              		.thumb_func
  46              	CDC_Control_FS:
  47              	.LVL0:
  48              	.LFB336:
 180:USB_Device/App/usbd_cdc_if.c **** 
 181:USB_Device/App/usbd_cdc_if.c **** /**
 182:USB_Device/App/usbd_cdc_if.c ****   * @brief  Manage the CDC class requests
 183:USB_Device/App/usbd_cdc_if.c ****   * @param  cmd: Command code
ARM GAS  /tmp/ccj7hFdo.s 			page 5


 184:USB_Device/App/usbd_cdc_if.c ****   * @param  pbuf: Buffer containing command data (request parameters)
 185:USB_Device/App/usbd_cdc_if.c ****   * @param  length: Number of data to be sent (in bytes)
 186:USB_Device/App/usbd_cdc_if.c ****   * @retval Result of the operation: USBD_OK if all operations are OK else USBD_FAIL
 187:USB_Device/App/usbd_cdc_if.c ****   */
 188:USB_Device/App/usbd_cdc_if.c **** static int8_t CDC_Control_FS(uint8_t cmd, uint8_t* pbuf, uint16_t length)
 189:USB_Device/App/usbd_cdc_if.c **** {
  49              		.loc 1 189 1 is_stmt 1 view -0
  50              		.cfi_startproc
  51              		@ args = 0, pretend = 0, frame = 0
  52              		@ frame_needed = 0, uses_anonymous_args = 0
  53              		@ link register save eliminated.
 190:USB_Device/App/usbd_cdc_if.c ****   /* USER CODE BEGIN 5 */
 191:USB_Device/App/usbd_cdc_if.c ****   switch(cmd)
  54              		.loc 1 191 3 view .LVU4
 192:USB_Device/App/usbd_cdc_if.c ****   {
 193:USB_Device/App/usbd_cdc_if.c ****     case CDC_SEND_ENCAPSULATED_COMMAND:
 194:USB_Device/App/usbd_cdc_if.c **** 
 195:USB_Device/App/usbd_cdc_if.c ****     break;
 196:USB_Device/App/usbd_cdc_if.c **** 
 197:USB_Device/App/usbd_cdc_if.c ****     case CDC_GET_ENCAPSULATED_RESPONSE:
 198:USB_Device/App/usbd_cdc_if.c **** 
 199:USB_Device/App/usbd_cdc_if.c ****     break;
 200:USB_Device/App/usbd_cdc_if.c **** 
 201:USB_Device/App/usbd_cdc_if.c ****     case CDC_SET_COMM_FEATURE:
 202:USB_Device/App/usbd_cdc_if.c **** 
 203:USB_Device/App/usbd_cdc_if.c ****     break;
 204:USB_Device/App/usbd_cdc_if.c **** 
 205:USB_Device/App/usbd_cdc_if.c ****     case CDC_GET_COMM_FEATURE:
 206:USB_Device/App/usbd_cdc_if.c **** 
 207:USB_Device/App/usbd_cdc_if.c ****     break;
 208:USB_Device/App/usbd_cdc_if.c **** 
 209:USB_Device/App/usbd_cdc_if.c ****     case CDC_CLEAR_COMM_FEATURE:
 210:USB_Device/App/usbd_cdc_if.c **** 
 211:USB_Device/App/usbd_cdc_if.c ****     break;
 212:USB_Device/App/usbd_cdc_if.c **** 
 213:USB_Device/App/usbd_cdc_if.c ****   /*******************************************************************************/
 214:USB_Device/App/usbd_cdc_if.c ****   /* Line Coding Structure                                                       */
 215:USB_Device/App/usbd_cdc_if.c ****   /*-----------------------------------------------------------------------------*/
 216:USB_Device/App/usbd_cdc_if.c ****   /* Offset | Field       | Size | Value  | Description                          */
 217:USB_Device/App/usbd_cdc_if.c ****   /* 0      | dwDTERate   |   4  | Number |Data terminal rate, in bits per second*/
 218:USB_Device/App/usbd_cdc_if.c ****   /* 4      | bCharFormat |   1  | Number | Stop bits                            */
 219:USB_Device/App/usbd_cdc_if.c ****   /*                                        0 - 1 Stop bit                       */
 220:USB_Device/App/usbd_cdc_if.c ****   /*                                        1 - 1.5 Stop bits                    */
 221:USB_Device/App/usbd_cdc_if.c ****   /*                                        2 - 2 Stop bits                      */
 222:USB_Device/App/usbd_cdc_if.c ****   /* 5      | bParityType |  1   | Number | Parity                               */
 223:USB_Device/App/usbd_cdc_if.c ****   /*                                        0 - None                             */
 224:USB_Device/App/usbd_cdc_if.c ****   /*                                        1 - Odd                              */
 225:USB_Device/App/usbd_cdc_if.c ****   /*                                        2 - Even                             */
 226:USB_Device/App/usbd_cdc_if.c ****   /*                                        3 - Mark                             */
 227:USB_Device/App/usbd_cdc_if.c ****   /*                                        4 - Space                            */
 228:USB_Device/App/usbd_cdc_if.c ****   /* 6      | bDataBits  |   1   | Number Data bits (5, 6, 7, 8 or 16).          */
 229:USB_Device/App/usbd_cdc_if.c ****   /*******************************************************************************/
 230:USB_Device/App/usbd_cdc_if.c ****     case CDC_SET_LINE_CODING:
 231:USB_Device/App/usbd_cdc_if.c **** 
 232:USB_Device/App/usbd_cdc_if.c ****     break;
 233:USB_Device/App/usbd_cdc_if.c **** 
 234:USB_Device/App/usbd_cdc_if.c ****     case CDC_GET_LINE_CODING:
ARM GAS  /tmp/ccj7hFdo.s 			page 6


 235:USB_Device/App/usbd_cdc_if.c **** 
 236:USB_Device/App/usbd_cdc_if.c ****     break;
 237:USB_Device/App/usbd_cdc_if.c **** 
 238:USB_Device/App/usbd_cdc_if.c ****     case CDC_SET_CONTROL_LINE_STATE:
 239:USB_Device/App/usbd_cdc_if.c **** 
 240:USB_Device/App/usbd_cdc_if.c ****     break;
 241:USB_Device/App/usbd_cdc_if.c **** 
 242:USB_Device/App/usbd_cdc_if.c ****     case CDC_SEND_BREAK:
 243:USB_Device/App/usbd_cdc_if.c **** 
 244:USB_Device/App/usbd_cdc_if.c ****     break;
 245:USB_Device/App/usbd_cdc_if.c **** 
 246:USB_Device/App/usbd_cdc_if.c ****   default:
 247:USB_Device/App/usbd_cdc_if.c ****     break;
  55              		.loc 1 247 5 view .LVU5
 248:USB_Device/App/usbd_cdc_if.c ****   }
 249:USB_Device/App/usbd_cdc_if.c **** 
 250:USB_Device/App/usbd_cdc_if.c ****   return (USBD_OK);
  56              		.loc 1 250 3 view .LVU6
 251:USB_Device/App/usbd_cdc_if.c ****   /* USER CODE END 5 */
 252:USB_Device/App/usbd_cdc_if.c **** }
  57              		.loc 1 252 1 is_stmt 0 view .LVU7
  58 0000 0020     		movs	r0, #0
  59              	.LVL1:
  60              		.loc 1 252 1 view .LVU8
  61 0002 7047     		bx	lr
  62              		.cfi_endproc
  63              	.LFE336:
  65              		.section	.text.CDC_TransmitCplt_FS,"ax",%progbits
  66              		.align	1
  67              		.syntax unified
  68              		.thumb
  69              		.thumb_func
  71              	CDC_TransmitCplt_FS:
  72              	.LVL2:
  73              	.LFB339:
 253:USB_Device/App/usbd_cdc_if.c **** 
 254:USB_Device/App/usbd_cdc_if.c **** /**
 255:USB_Device/App/usbd_cdc_if.c ****   * @brief  Data received over USB OUT endpoint are sent over CDC interface
 256:USB_Device/App/usbd_cdc_if.c ****   *         through this function.
 257:USB_Device/App/usbd_cdc_if.c ****   *
 258:USB_Device/App/usbd_cdc_if.c ****   *         @note
 259:USB_Device/App/usbd_cdc_if.c ****   *         This function will issue a NAK packet on any OUT packet received on
 260:USB_Device/App/usbd_cdc_if.c ****   *         USB endpoint until exiting this function. If you exit this function
 261:USB_Device/App/usbd_cdc_if.c ****   *         before transfer is complete on CDC interface (ie. using DMA controller)
 262:USB_Device/App/usbd_cdc_if.c ****   *         it will result in receiving more data while previous ones are still
 263:USB_Device/App/usbd_cdc_if.c ****   *         not sent.
 264:USB_Device/App/usbd_cdc_if.c ****   *
 265:USB_Device/App/usbd_cdc_if.c ****   * @param  Buf: Buffer of data to be received
 266:USB_Device/App/usbd_cdc_if.c ****   * @param  Len: Number of data received (in bytes)
 267:USB_Device/App/usbd_cdc_if.c ****   * @retval Result of the operation: USBD_OK if all operations are OK else USBD_FAIL
 268:USB_Device/App/usbd_cdc_if.c ****   */
 269:USB_Device/App/usbd_cdc_if.c **** static int8_t CDC_Receive_FS(uint8_t* Buf, uint32_t *Len)
 270:USB_Device/App/usbd_cdc_if.c **** {
 271:USB_Device/App/usbd_cdc_if.c ****   /* USER CODE BEGIN 6 */
 272:USB_Device/App/usbd_cdc_if.c ****   USBD_CDC_SetRxBuffer(&hUsbDeviceFS, &Buf[0]);
 273:USB_Device/App/usbd_cdc_if.c ****   USBD_CDC_ReceivePacket(&hUsbDeviceFS);
 274:USB_Device/App/usbd_cdc_if.c ****   if (_usb_rx_cb != NULL)  //注册过函数
ARM GAS  /tmp/ccj7hFdo.s 			page 7


 275:USB_Device/App/usbd_cdc_if.c ****     _usb_rx_cb(Buf, *Len); 
 276:USB_Device/App/usbd_cdc_if.c ****   return (USBD_OK);
 277:USB_Device/App/usbd_cdc_if.c ****   /* USER CODE END 6 */
 278:USB_Device/App/usbd_cdc_if.c **** }
 279:USB_Device/App/usbd_cdc_if.c **** 
 280:USB_Device/App/usbd_cdc_if.c **** /**
 281:USB_Device/App/usbd_cdc_if.c ****   * @brief  CDC_Transmit_FS
 282:USB_Device/App/usbd_cdc_if.c ****   *         Data to send over USB IN endpoint are sent over CDC interface
 283:USB_Device/App/usbd_cdc_if.c ****   *         through this function.
 284:USB_Device/App/usbd_cdc_if.c ****   *         @note
 285:USB_Device/App/usbd_cdc_if.c ****   *
 286:USB_Device/App/usbd_cdc_if.c ****   *
 287:USB_Device/App/usbd_cdc_if.c ****   * @param  Buf: Buffer of data to be sent
 288:USB_Device/App/usbd_cdc_if.c ****   * @param  Len: Number of data to be sent (in bytes)
 289:USB_Device/App/usbd_cdc_if.c ****   * @retval USBD_OK if all operations are OK else USBD_FAIL or USBD_BUSY
 290:USB_Device/App/usbd_cdc_if.c ****   */
 291:USB_Device/App/usbd_cdc_if.c **** uint8_t CDC_Transmit_FS(uint8_t* Buf, uint16_t Len)
 292:USB_Device/App/usbd_cdc_if.c **** {
 293:USB_Device/App/usbd_cdc_if.c ****   uint8_t result = USBD_OK;
 294:USB_Device/App/usbd_cdc_if.c ****   /* USER CODE BEGIN 7 */
 295:USB_Device/App/usbd_cdc_if.c ****   USBD_CDC_HandleTypeDef *hcdc = (USBD_CDC_HandleTypeDef*)hUsbDeviceFS.pClassData;
 296:USB_Device/App/usbd_cdc_if.c ****   if (hcdc->TxState != 0){
 297:USB_Device/App/usbd_cdc_if.c ****     return USBD_BUSY;
 298:USB_Device/App/usbd_cdc_if.c ****   }
 299:USB_Device/App/usbd_cdc_if.c ****   USBD_CDC_SetTxBuffer(&hUsbDeviceFS, Buf, Len);
 300:USB_Device/App/usbd_cdc_if.c ****   result = USBD_CDC_TransmitPacket(&hUsbDeviceFS);
 301:USB_Device/App/usbd_cdc_if.c ****   /* USER CODE END 7 */
 302:USB_Device/App/usbd_cdc_if.c ****   return result;
 303:USB_Device/App/usbd_cdc_if.c **** }
 304:USB_Device/App/usbd_cdc_if.c **** 
 305:USB_Device/App/usbd_cdc_if.c **** /**
 306:USB_Device/App/usbd_cdc_if.c ****   * @brief  CDC_TransmitCplt_FS
 307:USB_Device/App/usbd_cdc_if.c ****   *         Data transmitted callback
 308:USB_Device/App/usbd_cdc_if.c ****   *
 309:USB_Device/App/usbd_cdc_if.c ****   *         @note
 310:USB_Device/App/usbd_cdc_if.c ****   *         This function is IN transfer complete callback used to inform user that
 311:USB_Device/App/usbd_cdc_if.c ****   *         the submitted Data is successfully sent over USB.
 312:USB_Device/App/usbd_cdc_if.c ****   *
 313:USB_Device/App/usbd_cdc_if.c ****   * @param  Buf: Buffer of data to be received
 314:USB_Device/App/usbd_cdc_if.c ****   * @param  Len: Number of data received (in bytes)
 315:USB_Device/App/usbd_cdc_if.c ****   * @retval Result of the operation: USBD_OK if all operations are OK else USBD_FAIL
 316:USB_Device/App/usbd_cdc_if.c ****   */
 317:USB_Device/App/usbd_cdc_if.c **** static int8_t CDC_TransmitCplt_FS(uint8_t *Buf, uint32_t *Len, uint8_t epnum)
 318:USB_Device/App/usbd_cdc_if.c **** {
  74              		.loc 1 318 1 is_stmt 1 view -0
  75              		.cfi_startproc
  76              		@ args = 0, pretend = 0, frame = 0
  77              		@ frame_needed = 0, uses_anonymous_args = 0
  78              		@ link register save eliminated.
 319:USB_Device/App/usbd_cdc_if.c ****   uint8_t result = USBD_OK;
  79              		.loc 1 319 3 view .LVU10
 320:USB_Device/App/usbd_cdc_if.c ****   /* USER CODE BEGIN 13 */
 321:USB_Device/App/usbd_cdc_if.c ****   UNUSED(Buf);
  80              		.loc 1 321 3 view .LVU11
 322:USB_Device/App/usbd_cdc_if.c ****   UNUSED(Len);
  81              		.loc 1 322 3 view .LVU12
 323:USB_Device/App/usbd_cdc_if.c ****   UNUSED(epnum);
ARM GAS  /tmp/ccj7hFdo.s 			page 8


  82              		.loc 1 323 3 view .LVU13
 324:USB_Device/App/usbd_cdc_if.c ****   /* USER CODE END 13 */
 325:USB_Device/App/usbd_cdc_if.c ****   return result;
  83              		.loc 1 325 3 view .LVU14
 326:USB_Device/App/usbd_cdc_if.c **** }
  84              		.loc 1 326 1 is_stmt 0 view .LVU15
  85 0000 0020     		movs	r0, #0
  86              	.LVL3:
  87              		.loc 1 326 1 view .LVU16
  88 0002 7047     		bx	lr
  89              		.cfi_endproc
  90              	.LFE339:
  92              		.section	.text.CDC_Receive_FS,"ax",%progbits
  93              		.align	1
  94              		.syntax unified
  95              		.thumb
  96              		.thumb_func
  98              	CDC_Receive_FS:
  99              	.LVL4:
 100              	.LFB337:
 270:USB_Device/App/usbd_cdc_if.c ****   /* USER CODE BEGIN 6 */
 101              		.loc 1 270 1 is_stmt 1 view -0
 102              		.cfi_startproc
 103              		@ args = 0, pretend = 0, frame = 0
 104              		@ frame_needed = 0, uses_anonymous_args = 0
 270:USB_Device/App/usbd_cdc_if.c ****   /* USER CODE BEGIN 6 */
 105              		.loc 1 270 1 is_stmt 0 view .LVU18
 106 0000 70B5     		push	{r4, r5, r6, lr}
 107              		.cfi_def_cfa_offset 16
 108              		.cfi_offset 4, -16
 109              		.cfi_offset 5, -12
 110              		.cfi_offset 6, -8
 111              		.cfi_offset 14, -4
 112 0002 0446     		mov	r4, r0
 113 0004 0D46     		mov	r5, r1
 272:USB_Device/App/usbd_cdc_if.c ****   USBD_CDC_ReceivePacket(&hUsbDeviceFS);
 114              		.loc 1 272 3 is_stmt 1 view .LVU19
 115 0006 084E     		ldr	r6, .L7
 116 0008 0146     		mov	r1, r0
 117              	.LVL5:
 272:USB_Device/App/usbd_cdc_if.c ****   USBD_CDC_ReceivePacket(&hUsbDeviceFS);
 118              		.loc 1 272 3 is_stmt 0 view .LVU20
 119 000a 3046     		mov	r0, r6
 120              	.LVL6:
 272:USB_Device/App/usbd_cdc_if.c ****   USBD_CDC_ReceivePacket(&hUsbDeviceFS);
 121              		.loc 1 272 3 view .LVU21
 122 000c FFF7FEFF 		bl	USBD_CDC_SetRxBuffer
 123              	.LVL7:
 273:USB_Device/App/usbd_cdc_if.c ****   if (_usb_rx_cb != NULL)  //注册过函数
 124              		.loc 1 273 3 is_stmt 1 view .LVU22
 125 0010 3046     		mov	r0, r6
 126 0012 FFF7FEFF 		bl	USBD_CDC_ReceivePacket
 127              	.LVL8:
 274:USB_Device/App/usbd_cdc_if.c ****     _usb_rx_cb(Buf, *Len); 
 128              		.loc 1 274 3 view .LVU23
 274:USB_Device/App/usbd_cdc_if.c ****     _usb_rx_cb(Buf, *Len); 
 129              		.loc 1 274 18 is_stmt 0 view .LVU24
ARM GAS  /tmp/ccj7hFdo.s 			page 9


 130 0016 054B     		ldr	r3, .L7+4
 131 0018 1B68     		ldr	r3, [r3]
 274:USB_Device/App/usbd_cdc_if.c ****     _usb_rx_cb(Buf, *Len); 
 132              		.loc 1 274 6 view .LVU25
 133 001a 13B1     		cbz	r3, .L5
 275:USB_Device/App/usbd_cdc_if.c ****   return (USBD_OK);
 134              		.loc 1 275 5 is_stmt 1 view .LVU26
 135 001c 2968     		ldr	r1, [r5]
 136 001e 2046     		mov	r0, r4
 137 0020 9847     		blx	r3
 138              	.LVL9:
 139              	.L5:
 276:USB_Device/App/usbd_cdc_if.c ****   /* USER CODE END 6 */
 140              		.loc 1 276 3 view .LVU27
 278:USB_Device/App/usbd_cdc_if.c **** 
 141              		.loc 1 278 1 is_stmt 0 view .LVU28
 142 0022 0020     		movs	r0, #0
 143 0024 70BD     		pop	{r4, r5, r6, pc}
 144              	.LVL10:
 145              	.L8:
 278:USB_Device/App/usbd_cdc_if.c **** 
 146              		.loc 1 278 1 view .LVU29
 147 0026 00BF     		.align	2
 148              	.L7:
 149 0028 00000000 		.word	hUsbDeviceFS
 150 002c 00000000 		.word	_usb_rx_cb
 151              		.cfi_endproc
 152              	.LFE337:
 154              		.section	.text.CDC_Init_FS,"ax",%progbits
 155              		.align	1
 156              		.syntax unified
 157              		.thumb
 158              		.thumb_func
 160              	CDC_Init_FS:
 161              	.LFB334:
 161:USB_Device/App/usbd_cdc_if.c ****   /* USER CODE BEGIN 3 */
 162              		.loc 1 161 1 is_stmt 1 view -0
 163              		.cfi_startproc
 164              		@ args = 0, pretend = 0, frame = 0
 165              		@ frame_needed = 0, uses_anonymous_args = 0
 166 0000 10B5     		push	{r4, lr}
 167              		.cfi_def_cfa_offset 8
 168              		.cfi_offset 4, -8
 169              		.cfi_offset 14, -4
 164:USB_Device/App/usbd_cdc_if.c ****   USBD_CDC_SetRxBuffer(&hUsbDeviceFS, UserRxBufferFS);
 170              		.loc 1 164 3 view .LVU31
 171 0002 064C     		ldr	r4, .L11
 172 0004 0022     		movs	r2, #0
 173 0006 0649     		ldr	r1, .L11+4
 174 0008 2046     		mov	r0, r4
 175 000a FFF7FEFF 		bl	USBD_CDC_SetTxBuffer
 176              	.LVL11:
 165:USB_Device/App/usbd_cdc_if.c ****   return (USBD_OK);
 177              		.loc 1 165 3 view .LVU32
 178 000e 0549     		ldr	r1, .L11+8
 179 0010 2046     		mov	r0, r4
 180 0012 FFF7FEFF 		bl	USBD_CDC_SetRxBuffer
ARM GAS  /tmp/ccj7hFdo.s 			page 10


 181              	.LVL12:
 166:USB_Device/App/usbd_cdc_if.c ****   /* USER CODE END 3 */
 182              		.loc 1 166 3 view .LVU33
 168:USB_Device/App/usbd_cdc_if.c **** 
 183              		.loc 1 168 1 is_stmt 0 view .LVU34
 184 0016 0020     		movs	r0, #0
 185 0018 10BD     		pop	{r4, pc}
 186              	.L12:
 187 001a 00BF     		.align	2
 188              	.L11:
 189 001c 00000000 		.word	hUsbDeviceFS
 190 0020 00000000 		.word	UserTxBufferFS
 191 0024 00000000 		.word	UserRxBufferFS
 192              		.cfi_endproc
 193              	.LFE334:
 195              		.section	.text.USB_Register_RxCallback,"ax",%progbits
 196              		.align	1
 197              		.global	USB_Register_RxCallback
 198              		.syntax unified
 199              		.thumb
 200              		.thumb_func
 202              	USB_Register_RxCallback:
 203              	.LVL13:
 204              	.LFB333:
  29:USB_Device/App/usbd_cdc_if.c ****     _usb_rx_cb = cb;
 205              		.loc 1 29 1 is_stmt 1 view -0
 206              		.cfi_startproc
 207              		@ args = 0, pretend = 0, frame = 0
 208              		@ frame_needed = 0, uses_anonymous_args = 0
 209              		@ link register save eliminated.
  30:USB_Device/App/usbd_cdc_if.c **** }
 210              		.loc 1 30 5 view .LVU36
  30:USB_Device/App/usbd_cdc_if.c **** }
 211              		.loc 1 30 16 is_stmt 0 view .LVU37
 212 0000 014B     		ldr	r3, .L14
 213 0002 1860     		str	r0, [r3]
  31:USB_Device/App/usbd_cdc_if.c **** //My_Add_code
 214              		.loc 1 31 1 view .LVU38
 215 0004 7047     		bx	lr
 216              	.L15:
 217 0006 00BF     		.align	2
 218              	.L14:
 219 0008 00000000 		.word	_usb_rx_cb
 220              		.cfi_endproc
 221              	.LFE333:
 223              		.section	.text.CDC_Transmit_FS,"ax",%progbits
 224              		.align	1
 225              		.global	CDC_Transmit_FS
 226              		.syntax unified
 227              		.thumb
 228              		.thumb_func
 230              	CDC_Transmit_FS:
 231              	.LVL14:
 232              	.LFB338:
 292:USB_Device/App/usbd_cdc_if.c ****   uint8_t result = USBD_OK;
 233              		.loc 1 292 1 is_stmt 1 view -0
 234              		.cfi_startproc
ARM GAS  /tmp/ccj7hFdo.s 			page 11


 235              		@ args = 0, pretend = 0, frame = 0
 236              		@ frame_needed = 0, uses_anonymous_args = 0
 293:USB_Device/App/usbd_cdc_if.c ****   /* USER CODE BEGIN 7 */
 237              		.loc 1 293 3 view .LVU40
 295:USB_Device/App/usbd_cdc_if.c ****   if (hcdc->TxState != 0){
 238              		.loc 1 295 3 view .LVU41
 295:USB_Device/App/usbd_cdc_if.c ****   if (hcdc->TxState != 0){
 239              		.loc 1 295 27 is_stmt 0 view .LVU42
 240 0000 094B     		ldr	r3, .L24
 241 0002 D3F8BC32 		ldr	r3, [r3, #700]
 242              	.LVL15:
 296:USB_Device/App/usbd_cdc_if.c ****     return USBD_BUSY;
 243              		.loc 1 296 3 is_stmt 1 view .LVU43
 296:USB_Device/App/usbd_cdc_if.c ****     return USBD_BUSY;
 244              		.loc 1 296 11 is_stmt 0 view .LVU44
 245 0006 D3F81432 		ldr	r3, [r3, #532]
 246              	.LVL16:
 296:USB_Device/App/usbd_cdc_if.c ****     return USBD_BUSY;
 247              		.loc 1 296 6 view .LVU45
 248 000a 0BB1     		cbz	r3, .L23
 297:USB_Device/App/usbd_cdc_if.c ****   }
 249              		.loc 1 297 12 view .LVU46
 250 000c 0120     		movs	r0, #1
 251              	.LVL17:
 303:USB_Device/App/usbd_cdc_if.c **** 
 252              		.loc 1 303 1 view .LVU47
 253 000e 7047     		bx	lr
 254              	.LVL18:
 255              	.L23:
 292:USB_Device/App/usbd_cdc_if.c ****   uint8_t result = USBD_OK;
 256              		.loc 1 292 1 view .LVU48
 257 0010 10B5     		push	{r4, lr}
 258              		.cfi_def_cfa_offset 8
 259              		.cfi_offset 4, -8
 260              		.cfi_offset 14, -4
 299:USB_Device/App/usbd_cdc_if.c ****   result = USBD_CDC_TransmitPacket(&hUsbDeviceFS);
 261              		.loc 1 299 3 is_stmt 1 view .LVU49
 262 0012 054C     		ldr	r4, .L24
 263              	.LVL19:
 299:USB_Device/App/usbd_cdc_if.c ****   result = USBD_CDC_TransmitPacket(&hUsbDeviceFS);
 264              		.loc 1 299 3 is_stmt 0 view .LVU50
 265 0014 0A46     		mov	r2, r1
 266 0016 0146     		mov	r1, r0
 267              	.LVL20:
 299:USB_Device/App/usbd_cdc_if.c ****   result = USBD_CDC_TransmitPacket(&hUsbDeviceFS);
 268              		.loc 1 299 3 view .LVU51
 269 0018 2046     		mov	r0, r4
 270              	.LVL21:
 299:USB_Device/App/usbd_cdc_if.c ****   result = USBD_CDC_TransmitPacket(&hUsbDeviceFS);
 271              		.loc 1 299 3 view .LVU52
 272 001a FFF7FEFF 		bl	USBD_CDC_SetTxBuffer
 273              	.LVL22:
 300:USB_Device/App/usbd_cdc_if.c ****   /* USER CODE END 7 */
 274              		.loc 1 300 3 is_stmt 1 view .LVU53
 300:USB_Device/App/usbd_cdc_if.c ****   /* USER CODE END 7 */
 275              		.loc 1 300 12 is_stmt 0 view .LVU54
 276 001e 2046     		mov	r0, r4
ARM GAS  /tmp/ccj7hFdo.s 			page 12


 277 0020 FFF7FEFF 		bl	USBD_CDC_TransmitPacket
 278              	.LVL23:
 302:USB_Device/App/usbd_cdc_if.c **** }
 279              		.loc 1 302 3 is_stmt 1 view .LVU55
 303:USB_Device/App/usbd_cdc_if.c **** 
 280              		.loc 1 303 1 is_stmt 0 view .LVU56
 281 0024 10BD     		pop	{r4, pc}
 282              	.L25:
 283 0026 00BF     		.align	2
 284              	.L24:
 285 0028 00000000 		.word	hUsbDeviceFS
 286              		.cfi_endproc
 287              	.LFE338:
 289              		.global	USBD_Interface_fops_FS
 290              		.section	.data.USBD_Interface_fops_FS,"aw"
 291              		.align	2
 294              	USBD_Interface_fops_FS:
 295 0000 00000000 		.word	CDC_Init_FS
 296 0004 00000000 		.word	CDC_DeInit_FS
 297 0008 00000000 		.word	CDC_Control_FS
 298 000c 00000000 		.word	CDC_Receive_FS
 299 0010 00000000 		.word	CDC_TransmitCplt_FS
 300              		.global	UserTxBufferFS
 301              		.section	.bss.UserTxBufferFS,"aw",%nobits
 302              		.align	2
 305              	UserTxBufferFS:
 306 0000 00000000 		.space	2048
 306      00000000 
 306      00000000 
 306      00000000 
 306      00000000 
 307              		.global	UserRxBufferFS
 308              		.section	.bss.UserRxBufferFS,"aw",%nobits
 309              		.align	2
 312              	UserRxBufferFS:
 313 0000 00000000 		.space	2048
 313      00000000 
 313      00000000 
 313      00000000 
 313      00000000 
 314              		.section	.bss._usb_rx_cb,"aw",%nobits
 315              		.align	2
 318              	_usb_rx_cb:
 319 0000 00000000 		.space	4
 320              		.text
 321              	.Letext0:
 322              		.file 2 "/opt/arm-gnu-toolchain-14.2/arm-none-eabi/include/machine/_default_types.h"
 323              		.file 3 "/opt/arm-gnu-toolchain-14.2/arm-none-eabi/include/sys/_stdint.h"
 324              		.file 4 "Middlewares/ST/STM32_USB_Device_Library/Core/Inc/usbd_def.h"
 325              		.file 5 "Middlewares/ST/STM32_USB_Device_Library/Class/CDC/Inc/usbd_cdc.h"
 326              		.file 6 "USB_Device/App/usbd_cdc_if.h"
ARM GAS  /tmp/ccj7hFdo.s 			page 13

