ARM GAS  /tmp/cc5lIE3f.s 			page 1


   1              		.cpu cortex-m4
   2              		.arch armv7e-m
   3              		.fpu fpv4-sp-d16
   4              		.eabi_attribute 27, 1
   5              		.eabi_attribute 28, 1
   6              		.eabi_attribute 20, 1
   7              		.eabi_attribute 21, 1
   8              		.eabi_attribute 23, 3
   9              		.eabi_attribute 24, 1
  10              		.eabi_attribute 25, 1
  11              		.eabi_attribute 26, 1
  12              		.eabi_attribute 30, 1
  13              		.eabi_attribute 34, 1
  14              		.eabi_attribute 18, 4
  15              		.file	"usbd_conf.c"
  16              		.text
  17              	.Ltext0:
  18              		.cfi_sections	.debug_frame
  19              		.file 1 "USB_Device/Target/usbd_conf.c"
  20              		.section	.text.USBD_Get_USB_Status,"ax",%progbits
  21              		.align	1
  22              		.syntax unified
  23              		.thumb
  24              		.thumb_func
  26              	USBD_Get_USB_Status:
  27              	.LVL0:
  28              	.LFB365:
   1:USB_Device/Target/usbd_conf.c **** /* USER CODE BEGIN Header */
   2:USB_Device/Target/usbd_conf.c **** /**
   3:USB_Device/Target/usbd_conf.c ****   ******************************************************************************
   4:USB_Device/Target/usbd_conf.c ****   * @file           : Target/usbd_conf.c
   5:USB_Device/Target/usbd_conf.c ****   * @version        : v3.0_Cube
   6:USB_Device/Target/usbd_conf.c ****   * @brief          : This file implements the board support package for the USB device library
   7:USB_Device/Target/usbd_conf.c ****   ******************************************************************************
   8:USB_Device/Target/usbd_conf.c ****   * @attention
   9:USB_Device/Target/usbd_conf.c ****   *
  10:USB_Device/Target/usbd_conf.c ****   * Copyright (c) 2026 STMicroelectronics.
  11:USB_Device/Target/usbd_conf.c ****   * All rights reserved.
  12:USB_Device/Target/usbd_conf.c ****   *
  13:USB_Device/Target/usbd_conf.c ****   * This software is licensed under terms that can be found in the LICENSE file
  14:USB_Device/Target/usbd_conf.c ****   * in the root directory of this software component.
  15:USB_Device/Target/usbd_conf.c ****   * If no LICENSE file comes with this software, it is provided AS-IS.
  16:USB_Device/Target/usbd_conf.c ****   *
  17:USB_Device/Target/usbd_conf.c ****   ******************************************************************************
  18:USB_Device/Target/usbd_conf.c ****   */
  19:USB_Device/Target/usbd_conf.c **** /* USER CODE END Header */
  20:USB_Device/Target/usbd_conf.c **** 
  21:USB_Device/Target/usbd_conf.c **** /* Includes ------------------------------------------------------------------*/
  22:USB_Device/Target/usbd_conf.c **** #include "stm32g4xx.h"
  23:USB_Device/Target/usbd_conf.c **** #include "stm32g4xx_hal.h"
  24:USB_Device/Target/usbd_conf.c **** #include "usbd_def.h"
  25:USB_Device/Target/usbd_conf.c **** #include "usbd_core.h"
  26:USB_Device/Target/usbd_conf.c **** 
  27:USB_Device/Target/usbd_conf.c **** #include "usbd_cdc.h"
  28:USB_Device/Target/usbd_conf.c **** 
  29:USB_Device/Target/usbd_conf.c **** /* USER CODE BEGIN Includes */
  30:USB_Device/Target/usbd_conf.c **** 
ARM GAS  /tmp/cc5lIE3f.s 			page 2


  31:USB_Device/Target/usbd_conf.c **** /* USER CODE END Includes */
  32:USB_Device/Target/usbd_conf.c **** 
  33:USB_Device/Target/usbd_conf.c **** /* Private typedef -----------------------------------------------------------*/
  34:USB_Device/Target/usbd_conf.c **** /* Private define ------------------------------------------------------------*/
  35:USB_Device/Target/usbd_conf.c **** /* Private macro -------------------------------------------------------------*/
  36:USB_Device/Target/usbd_conf.c **** 
  37:USB_Device/Target/usbd_conf.c **** /* Private variables ---------------------------------------------------------*/
  38:USB_Device/Target/usbd_conf.c **** /* USER CODE BEGIN PV */
  39:USB_Device/Target/usbd_conf.c **** 
  40:USB_Device/Target/usbd_conf.c **** /* USER CODE END PV */
  41:USB_Device/Target/usbd_conf.c **** 
  42:USB_Device/Target/usbd_conf.c **** PCD_HandleTypeDef hpcd_USB_FS;
  43:USB_Device/Target/usbd_conf.c **** void Error_Handler(void);
  44:USB_Device/Target/usbd_conf.c **** 
  45:USB_Device/Target/usbd_conf.c **** /* USER CODE BEGIN 0 */
  46:USB_Device/Target/usbd_conf.c **** 
  47:USB_Device/Target/usbd_conf.c **** /* USER CODE END 0 */
  48:USB_Device/Target/usbd_conf.c **** 
  49:USB_Device/Target/usbd_conf.c **** /* Exported function prototypes ----------------------------------------------*/
  50:USB_Device/Target/usbd_conf.c **** 
  51:USB_Device/Target/usbd_conf.c **** /* USER CODE BEGIN PFP */
  52:USB_Device/Target/usbd_conf.c **** /* Private function prototypes -----------------------------------------------*/
  53:USB_Device/Target/usbd_conf.c **** 
  54:USB_Device/Target/usbd_conf.c **** /* USER CODE END PFP */
  55:USB_Device/Target/usbd_conf.c **** 
  56:USB_Device/Target/usbd_conf.c **** /* Private functions ---------------------------------------------------------*/
  57:USB_Device/Target/usbd_conf.c **** static USBD_StatusTypeDef USBD_Get_USB_Status(HAL_StatusTypeDef hal_status);
  58:USB_Device/Target/usbd_conf.c **** /* USER CODE BEGIN 1 */
  59:USB_Device/Target/usbd_conf.c **** static void SystemClockConfig_Resume(void);
  60:USB_Device/Target/usbd_conf.c **** 
  61:USB_Device/Target/usbd_conf.c **** /* USER CODE END 1 */
  62:USB_Device/Target/usbd_conf.c **** extern void SystemClock_Config(void);
  63:USB_Device/Target/usbd_conf.c **** 
  64:USB_Device/Target/usbd_conf.c **** /*******************************************************************************
  65:USB_Device/Target/usbd_conf.c ****                        LL Driver Callbacks (PCD -> USB Device Library)
  66:USB_Device/Target/usbd_conf.c **** *******************************************************************************/
  67:USB_Device/Target/usbd_conf.c **** /* MSP Init */
  68:USB_Device/Target/usbd_conf.c **** 
  69:USB_Device/Target/usbd_conf.c **** #if (USE_HAL_PCD_REGISTER_CALLBACKS == 1U)
  70:USB_Device/Target/usbd_conf.c **** static void HAL_PCD_MspInit(PCD_HandleTypeDef* pcdHandle)
  71:USB_Device/Target/usbd_conf.c **** #else
  72:USB_Device/Target/usbd_conf.c **** void HAL_PCD_MspInit(PCD_HandleTypeDef* pcdHandle)
  73:USB_Device/Target/usbd_conf.c **** #endif /* USE_HAL_PCD_REGISTER_CALLBACKS */
  74:USB_Device/Target/usbd_conf.c **** {
  75:USB_Device/Target/usbd_conf.c ****   RCC_PeriphCLKInitTypeDef PeriphClkInit = {0};
  76:USB_Device/Target/usbd_conf.c ****   if(pcdHandle->Instance==USB)
  77:USB_Device/Target/usbd_conf.c ****   {
  78:USB_Device/Target/usbd_conf.c ****   /* USER CODE BEGIN USB_MspInit 0 */
  79:USB_Device/Target/usbd_conf.c **** 
  80:USB_Device/Target/usbd_conf.c ****   /* USER CODE END USB_MspInit 0 */
  81:USB_Device/Target/usbd_conf.c **** 
  82:USB_Device/Target/usbd_conf.c ****   /** Initializes the peripherals clocks
  83:USB_Device/Target/usbd_conf.c ****   */
  84:USB_Device/Target/usbd_conf.c ****     PeriphClkInit.PeriphClockSelection = RCC_PERIPHCLK_USB;
  85:USB_Device/Target/usbd_conf.c ****     PeriphClkInit.UsbClockSelection = RCC_USBCLKSOURCE_HSI48;
  86:USB_Device/Target/usbd_conf.c ****     if (HAL_RCCEx_PeriphCLKConfig(&PeriphClkInit) != HAL_OK)
  87:USB_Device/Target/usbd_conf.c ****     {
ARM GAS  /tmp/cc5lIE3f.s 			page 3


  88:USB_Device/Target/usbd_conf.c ****       Error_Handler();
  89:USB_Device/Target/usbd_conf.c ****     }
  90:USB_Device/Target/usbd_conf.c **** 
  91:USB_Device/Target/usbd_conf.c ****     /* Peripheral clock enable */
  92:USB_Device/Target/usbd_conf.c ****     __HAL_RCC_USB_CLK_ENABLE();
  93:USB_Device/Target/usbd_conf.c **** 
  94:USB_Device/Target/usbd_conf.c ****     /* Peripheral interrupt init */
  95:USB_Device/Target/usbd_conf.c ****     HAL_NVIC_SetPriority(USB_LP_IRQn, 5, 0);
  96:USB_Device/Target/usbd_conf.c ****     HAL_NVIC_EnableIRQ(USB_LP_IRQn);
  97:USB_Device/Target/usbd_conf.c ****   /* USER CODE BEGIN USB_MspInit 1 */
  98:USB_Device/Target/usbd_conf.c **** 
  99:USB_Device/Target/usbd_conf.c ****   /* USER CODE END USB_MspInit 1 */
 100:USB_Device/Target/usbd_conf.c ****   }
 101:USB_Device/Target/usbd_conf.c **** }
 102:USB_Device/Target/usbd_conf.c **** 
 103:USB_Device/Target/usbd_conf.c **** #if (USE_HAL_PCD_REGISTER_CALLBACKS == 1U)
 104:USB_Device/Target/usbd_conf.c **** static void HAL_PCD_MspDeInit(PCD_HandleTypeDef* pcdHandle)
 105:USB_Device/Target/usbd_conf.c **** #else
 106:USB_Device/Target/usbd_conf.c **** void HAL_PCD_MspDeInit(PCD_HandleTypeDef* pcdHandle)
 107:USB_Device/Target/usbd_conf.c **** #endif /* USE_HAL_PCD_REGISTER_CALLBACKS */
 108:USB_Device/Target/usbd_conf.c **** {
 109:USB_Device/Target/usbd_conf.c ****   if(pcdHandle->Instance==USB)
 110:USB_Device/Target/usbd_conf.c ****   {
 111:USB_Device/Target/usbd_conf.c ****   /* USER CODE BEGIN USB_MspDeInit 0 */
 112:USB_Device/Target/usbd_conf.c **** 
 113:USB_Device/Target/usbd_conf.c ****   /* USER CODE END USB_MspDeInit 0 */
 114:USB_Device/Target/usbd_conf.c ****     /* Peripheral clock disable */
 115:USB_Device/Target/usbd_conf.c ****     __HAL_RCC_USB_CLK_DISABLE();
 116:USB_Device/Target/usbd_conf.c **** 
 117:USB_Device/Target/usbd_conf.c ****     /* Peripheral interrupt Deinit*/
 118:USB_Device/Target/usbd_conf.c ****     HAL_NVIC_DisableIRQ(USB_LP_IRQn);
 119:USB_Device/Target/usbd_conf.c **** 
 120:USB_Device/Target/usbd_conf.c ****   /* USER CODE BEGIN USB_MspDeInit 1 */
 121:USB_Device/Target/usbd_conf.c **** 
 122:USB_Device/Target/usbd_conf.c ****   /* USER CODE END USB_MspDeInit 1 */
 123:USB_Device/Target/usbd_conf.c ****   }
 124:USB_Device/Target/usbd_conf.c **** }
 125:USB_Device/Target/usbd_conf.c **** 
 126:USB_Device/Target/usbd_conf.c **** /**
 127:USB_Device/Target/usbd_conf.c ****   * @brief  Setup stage callback
 128:USB_Device/Target/usbd_conf.c ****   * @param  hpcd: PCD handle
 129:USB_Device/Target/usbd_conf.c ****   * @retval None
 130:USB_Device/Target/usbd_conf.c ****   */
 131:USB_Device/Target/usbd_conf.c **** #if (USE_HAL_PCD_REGISTER_CALLBACKS == 1U)
 132:USB_Device/Target/usbd_conf.c **** static void PCD_SetupStageCallback(PCD_HandleTypeDef *hpcd)
 133:USB_Device/Target/usbd_conf.c **** #else
 134:USB_Device/Target/usbd_conf.c **** void HAL_PCD_SetupStageCallback(PCD_HandleTypeDef *hpcd)
 135:USB_Device/Target/usbd_conf.c **** #endif /* USE_HAL_PCD_REGISTER_CALLBACKS */
 136:USB_Device/Target/usbd_conf.c **** {
 137:USB_Device/Target/usbd_conf.c ****   /* USER CODE BEGIN HAL_PCD_SetupStageCallback_PreTreatment */
 138:USB_Device/Target/usbd_conf.c **** 
 139:USB_Device/Target/usbd_conf.c ****   /* USER CODE END  HAL_PCD_SetupStageCallback_PreTreatment */
 140:USB_Device/Target/usbd_conf.c ****   USBD_LL_SetupStage((USBD_HandleTypeDef*)hpcd->pData, (uint8_t *)hpcd->Setup);
 141:USB_Device/Target/usbd_conf.c ****   /* USER CODE BEGIN HAL_PCD_SetupStageCallback_PostTreatment */
 142:USB_Device/Target/usbd_conf.c **** 
 143:USB_Device/Target/usbd_conf.c ****   /* USER CODE END  HAL_PCD_SetupStageCallback_PostTreatment */
 144:USB_Device/Target/usbd_conf.c **** }
ARM GAS  /tmp/cc5lIE3f.s 			page 4


 145:USB_Device/Target/usbd_conf.c **** 
 146:USB_Device/Target/usbd_conf.c **** /**
 147:USB_Device/Target/usbd_conf.c ****   * @brief  Data Out stage callback.
 148:USB_Device/Target/usbd_conf.c ****   * @param  hpcd: PCD handle
 149:USB_Device/Target/usbd_conf.c ****   * @param  epnum: Endpoint number
 150:USB_Device/Target/usbd_conf.c ****   * @retval None
 151:USB_Device/Target/usbd_conf.c ****   */
 152:USB_Device/Target/usbd_conf.c **** #if (USE_HAL_PCD_REGISTER_CALLBACKS == 1U)
 153:USB_Device/Target/usbd_conf.c **** static void PCD_DataOutStageCallback(PCD_HandleTypeDef *hpcd, uint8_t epnum)
 154:USB_Device/Target/usbd_conf.c **** #else
 155:USB_Device/Target/usbd_conf.c **** void HAL_PCD_DataOutStageCallback(PCD_HandleTypeDef *hpcd, uint8_t epnum)
 156:USB_Device/Target/usbd_conf.c **** #endif /* USE_HAL_PCD_REGISTER_CALLBACKS */
 157:USB_Device/Target/usbd_conf.c **** {
 158:USB_Device/Target/usbd_conf.c ****   /* USER CODE BEGIN HAL_PCD_DataOutStageCallback_PreTreatment */
 159:USB_Device/Target/usbd_conf.c **** 
 160:USB_Device/Target/usbd_conf.c ****   /* USER CODE END HAL_PCD_DataOutStageCallback_PreTreatment */
 161:USB_Device/Target/usbd_conf.c ****   USBD_LL_DataOutStage((USBD_HandleTypeDef*)hpcd->pData, epnum, hpcd->OUT_ep[epnum].xfer_buff);
 162:USB_Device/Target/usbd_conf.c ****   /* USER CODE BEGIN HAL_PCD_DataOutStageCallback_PostTreatment */
 163:USB_Device/Target/usbd_conf.c **** 
 164:USB_Device/Target/usbd_conf.c ****   /* USER CODE END HAL_PCD_DataOutStageCallback_PostTreatment */
 165:USB_Device/Target/usbd_conf.c **** }
 166:USB_Device/Target/usbd_conf.c **** 
 167:USB_Device/Target/usbd_conf.c **** /**
 168:USB_Device/Target/usbd_conf.c ****   * @brief  Data In stage callback.
 169:USB_Device/Target/usbd_conf.c ****   * @param  hpcd: PCD handle
 170:USB_Device/Target/usbd_conf.c ****   * @param  epnum: Endpoint number
 171:USB_Device/Target/usbd_conf.c ****   * @retval None
 172:USB_Device/Target/usbd_conf.c ****   */
 173:USB_Device/Target/usbd_conf.c **** #if (USE_HAL_PCD_REGISTER_CALLBACKS == 1U)
 174:USB_Device/Target/usbd_conf.c **** static void PCD_DataInStageCallback(PCD_HandleTypeDef *hpcd, uint8_t epnum)
 175:USB_Device/Target/usbd_conf.c **** #else
 176:USB_Device/Target/usbd_conf.c **** void HAL_PCD_DataInStageCallback(PCD_HandleTypeDef *hpcd, uint8_t epnum)
 177:USB_Device/Target/usbd_conf.c **** #endif /* USE_HAL_PCD_REGISTER_CALLBACKS */
 178:USB_Device/Target/usbd_conf.c **** {
 179:USB_Device/Target/usbd_conf.c ****   /* USER CODE BEGIN HAL_PCD_DataInStageCallback_PreTreatment */
 180:USB_Device/Target/usbd_conf.c **** 
 181:USB_Device/Target/usbd_conf.c ****   /* USER CODE END HAL_PCD_DataInStageCallback_PreTreatment */
 182:USB_Device/Target/usbd_conf.c ****   USBD_LL_DataInStage((USBD_HandleTypeDef*)hpcd->pData, epnum, hpcd->IN_ep[epnum].xfer_buff);
 183:USB_Device/Target/usbd_conf.c ****   /* USER CODE BEGIN HAL_PCD_DataInStageCallback_PostTreatment  */
 184:USB_Device/Target/usbd_conf.c **** 
 185:USB_Device/Target/usbd_conf.c ****   /* USER CODE END HAL_PCD_DataInStageCallback_PostTreatment */
 186:USB_Device/Target/usbd_conf.c **** }
 187:USB_Device/Target/usbd_conf.c **** 
 188:USB_Device/Target/usbd_conf.c **** /**
 189:USB_Device/Target/usbd_conf.c ****   * @brief  SOF callback.
 190:USB_Device/Target/usbd_conf.c ****   * @param  hpcd: PCD handle
 191:USB_Device/Target/usbd_conf.c ****   * @retval None
 192:USB_Device/Target/usbd_conf.c ****   */
 193:USB_Device/Target/usbd_conf.c **** #if (USE_HAL_PCD_REGISTER_CALLBACKS == 1U)
 194:USB_Device/Target/usbd_conf.c **** static void PCD_SOFCallback(PCD_HandleTypeDef *hpcd)
 195:USB_Device/Target/usbd_conf.c **** #else
 196:USB_Device/Target/usbd_conf.c **** void HAL_PCD_SOFCallback(PCD_HandleTypeDef *hpcd)
 197:USB_Device/Target/usbd_conf.c **** #endif /* USE_HAL_PCD_REGISTER_CALLBACKS */
 198:USB_Device/Target/usbd_conf.c **** {
 199:USB_Device/Target/usbd_conf.c ****   /* USER CODE BEGIN HAL_PCD_SOFCallback_PreTreatment */
 200:USB_Device/Target/usbd_conf.c **** 
 201:USB_Device/Target/usbd_conf.c ****   /* USER CODE END HAL_PCD_SOFCallback_PreTreatment */
ARM GAS  /tmp/cc5lIE3f.s 			page 5


 202:USB_Device/Target/usbd_conf.c ****   USBD_LL_SOF((USBD_HandleTypeDef*)hpcd->pData);
 203:USB_Device/Target/usbd_conf.c ****   /* USER CODE BEGIN HAL_PCD_SOFCallback_PostTreatment */
 204:USB_Device/Target/usbd_conf.c **** 
 205:USB_Device/Target/usbd_conf.c ****   /* USER CODE END HAL_PCD_SOFCallback_PostTreatment */
 206:USB_Device/Target/usbd_conf.c **** }
 207:USB_Device/Target/usbd_conf.c **** 
 208:USB_Device/Target/usbd_conf.c **** /**
 209:USB_Device/Target/usbd_conf.c ****   * @brief  Reset callback.
 210:USB_Device/Target/usbd_conf.c ****   * @param  hpcd: PCD handle
 211:USB_Device/Target/usbd_conf.c ****   * @retval None
 212:USB_Device/Target/usbd_conf.c ****   */
 213:USB_Device/Target/usbd_conf.c **** #if (USE_HAL_PCD_REGISTER_CALLBACKS == 1U)
 214:USB_Device/Target/usbd_conf.c **** static void PCD_ResetCallback(PCD_HandleTypeDef *hpcd)
 215:USB_Device/Target/usbd_conf.c **** #else
 216:USB_Device/Target/usbd_conf.c **** void HAL_PCD_ResetCallback(PCD_HandleTypeDef *hpcd)
 217:USB_Device/Target/usbd_conf.c **** #endif /* USE_HAL_PCD_REGISTER_CALLBACKS */
 218:USB_Device/Target/usbd_conf.c **** {
 219:USB_Device/Target/usbd_conf.c ****   /* USER CODE BEGIN HAL_PCD_ResetCallback_PreTreatment */
 220:USB_Device/Target/usbd_conf.c **** 
 221:USB_Device/Target/usbd_conf.c ****   /* USER CODE END HAL_PCD_ResetCallback_PreTreatment */
 222:USB_Device/Target/usbd_conf.c ****   USBD_SpeedTypeDef speed = USBD_SPEED_FULL;
 223:USB_Device/Target/usbd_conf.c **** 
 224:USB_Device/Target/usbd_conf.c ****   if ( hpcd->Init.speed != PCD_SPEED_FULL)
 225:USB_Device/Target/usbd_conf.c ****   {
 226:USB_Device/Target/usbd_conf.c ****     Error_Handler();
 227:USB_Device/Target/usbd_conf.c ****   }
 228:USB_Device/Target/usbd_conf.c ****     /* Set Speed. */
 229:USB_Device/Target/usbd_conf.c ****   USBD_LL_SetSpeed((USBD_HandleTypeDef*)hpcd->pData, speed);
 230:USB_Device/Target/usbd_conf.c **** 
 231:USB_Device/Target/usbd_conf.c ****   /* Reset Device. */
 232:USB_Device/Target/usbd_conf.c ****   USBD_LL_Reset((USBD_HandleTypeDef*)hpcd->pData);
 233:USB_Device/Target/usbd_conf.c ****   /* USER CODE BEGIN HAL_PCD_ResetCallback_PostTreatment */
 234:USB_Device/Target/usbd_conf.c **** 
 235:USB_Device/Target/usbd_conf.c ****   /* USER CODE END HAL_PCD_ResetCallback_PostTreatment */
 236:USB_Device/Target/usbd_conf.c **** }
 237:USB_Device/Target/usbd_conf.c **** 
 238:USB_Device/Target/usbd_conf.c **** /**
 239:USB_Device/Target/usbd_conf.c ****   * @brief  Suspend callback.
 240:USB_Device/Target/usbd_conf.c ****   * When Low power mode is enabled the debug cannot be used (IAR, Keil doesn't support it)
 241:USB_Device/Target/usbd_conf.c ****   * @param  hpcd: PCD handle
 242:USB_Device/Target/usbd_conf.c ****   * @retval None
 243:USB_Device/Target/usbd_conf.c ****   */
 244:USB_Device/Target/usbd_conf.c **** #if (USE_HAL_PCD_REGISTER_CALLBACKS == 1U)
 245:USB_Device/Target/usbd_conf.c **** static void PCD_SuspendCallback(PCD_HandleTypeDef *hpcd)
 246:USB_Device/Target/usbd_conf.c **** #else
 247:USB_Device/Target/usbd_conf.c **** void HAL_PCD_SuspendCallback(PCD_HandleTypeDef *hpcd)
 248:USB_Device/Target/usbd_conf.c **** #endif /* USE_HAL_PCD_REGISTER_CALLBACKS */
 249:USB_Device/Target/usbd_conf.c **** {
 250:USB_Device/Target/usbd_conf.c ****   /* USER CODE BEGIN HAL_PCD_SuspendCallback_PreTreatment */
 251:USB_Device/Target/usbd_conf.c **** 
 252:USB_Device/Target/usbd_conf.c ****   /* USER CODE END HAL_PCD_SuspendCallback_PreTreatment */
 253:USB_Device/Target/usbd_conf.c ****   /* Inform USB library that core enters in suspend Mode. */
 254:USB_Device/Target/usbd_conf.c ****   USBD_LL_Suspend((USBD_HandleTypeDef*)hpcd->pData);
 255:USB_Device/Target/usbd_conf.c ****   /* Enter in STOP mode. */
 256:USB_Device/Target/usbd_conf.c ****   /* USER CODE BEGIN 2 */
 257:USB_Device/Target/usbd_conf.c ****   if (hpcd->Init.low_power_enable)
 258:USB_Device/Target/usbd_conf.c ****   {
ARM GAS  /tmp/cc5lIE3f.s 			page 6


 259:USB_Device/Target/usbd_conf.c ****     /* Set SLEEPDEEP bit and SleepOnExit of Cortex System Control Register. */
 260:USB_Device/Target/usbd_conf.c ****     SCB->SCR |= (uint32_t)((uint32_t)(SCB_SCR_SLEEPDEEP_Msk | SCB_SCR_SLEEPONEXIT_Msk));
 261:USB_Device/Target/usbd_conf.c ****   }
 262:USB_Device/Target/usbd_conf.c ****   /* USER CODE END 2 */
 263:USB_Device/Target/usbd_conf.c ****   /* USER CODE BEGIN HAL_PCD_SuspendCallback_PostTreatment */
 264:USB_Device/Target/usbd_conf.c **** 
 265:USB_Device/Target/usbd_conf.c ****   /* USER CODE END HAL_PCD_SuspendCallback_PostTreatment */
 266:USB_Device/Target/usbd_conf.c **** }
 267:USB_Device/Target/usbd_conf.c **** 
 268:USB_Device/Target/usbd_conf.c **** /**
 269:USB_Device/Target/usbd_conf.c ****   * @brief  Resume callback.
 270:USB_Device/Target/usbd_conf.c ****   * When Low power mode is enabled the debug cannot be used (IAR, Keil doesn't support it)
 271:USB_Device/Target/usbd_conf.c ****   * @param  hpcd: PCD handle
 272:USB_Device/Target/usbd_conf.c ****   * @retval None
 273:USB_Device/Target/usbd_conf.c ****   */
 274:USB_Device/Target/usbd_conf.c **** #if (USE_HAL_PCD_REGISTER_CALLBACKS == 1U)
 275:USB_Device/Target/usbd_conf.c **** static void PCD_ResumeCallback(PCD_HandleTypeDef *hpcd)
 276:USB_Device/Target/usbd_conf.c **** #else
 277:USB_Device/Target/usbd_conf.c **** void HAL_PCD_ResumeCallback(PCD_HandleTypeDef *hpcd)
 278:USB_Device/Target/usbd_conf.c **** #endif /* USE_HAL_PCD_REGISTER_CALLBACKS */
 279:USB_Device/Target/usbd_conf.c **** {
 280:USB_Device/Target/usbd_conf.c ****   /* USER CODE BEGIN HAL_PCD_ResumeCallback_PreTreatment */
 281:USB_Device/Target/usbd_conf.c **** 
 282:USB_Device/Target/usbd_conf.c ****   /* USER CODE END HAL_PCD_ResumeCallback_PreTreatment */
 283:USB_Device/Target/usbd_conf.c **** 
 284:USB_Device/Target/usbd_conf.c ****   /* USER CODE BEGIN 3 */
 285:USB_Device/Target/usbd_conf.c ****   if (hpcd->Init.low_power_enable)
 286:USB_Device/Target/usbd_conf.c ****   {
 287:USB_Device/Target/usbd_conf.c ****     /* Reset SLEEPDEEP bit of Cortex System Control Register. */
 288:USB_Device/Target/usbd_conf.c ****     SCB->SCR &= (uint32_t)~((uint32_t)(SCB_SCR_SLEEPDEEP_Msk | SCB_SCR_SLEEPONEXIT_Msk));
 289:USB_Device/Target/usbd_conf.c ****     SystemClockConfig_Resume();
 290:USB_Device/Target/usbd_conf.c ****   }
 291:USB_Device/Target/usbd_conf.c ****   /* USER CODE END 3 */
 292:USB_Device/Target/usbd_conf.c **** 
 293:USB_Device/Target/usbd_conf.c ****   USBD_LL_Resume((USBD_HandleTypeDef*)hpcd->pData);
 294:USB_Device/Target/usbd_conf.c ****   /* USER CODE BEGIN HAL_PCD_ResumeCallback_PostTreatment */
 295:USB_Device/Target/usbd_conf.c **** 
 296:USB_Device/Target/usbd_conf.c ****   /* USER CODE END HAL_PCD_ResumeCallback_PostTreatment */
 297:USB_Device/Target/usbd_conf.c **** }
 298:USB_Device/Target/usbd_conf.c **** 
 299:USB_Device/Target/usbd_conf.c **** /**
 300:USB_Device/Target/usbd_conf.c ****   * @brief  ISOOUTIncomplete callback.
 301:USB_Device/Target/usbd_conf.c ****   * @param  hpcd: PCD handle
 302:USB_Device/Target/usbd_conf.c ****   * @param  epnum: Endpoint number
 303:USB_Device/Target/usbd_conf.c ****   * @retval None
 304:USB_Device/Target/usbd_conf.c ****   */
 305:USB_Device/Target/usbd_conf.c **** #if (USE_HAL_PCD_REGISTER_CALLBACKS == 1U)
 306:USB_Device/Target/usbd_conf.c **** static void PCD_ISOOUTIncompleteCallback(PCD_HandleTypeDef *hpcd, uint8_t epnum)
 307:USB_Device/Target/usbd_conf.c **** #else
 308:USB_Device/Target/usbd_conf.c **** void HAL_PCD_ISOOUTIncompleteCallback(PCD_HandleTypeDef *hpcd, uint8_t epnum)
 309:USB_Device/Target/usbd_conf.c **** #endif /* USE_HAL_PCD_REGISTER_CALLBACKS */
 310:USB_Device/Target/usbd_conf.c **** {
 311:USB_Device/Target/usbd_conf.c ****   /* USER CODE BEGIN HAL_PCD_ISOOUTIncompleteCallback_PreTreatment */
 312:USB_Device/Target/usbd_conf.c **** 
 313:USB_Device/Target/usbd_conf.c ****   /* USER CODE END HAL_PCD_ISOOUTIncompleteCallback_PreTreatment */
 314:USB_Device/Target/usbd_conf.c ****   USBD_LL_IsoOUTIncomplete((USBD_HandleTypeDef*)hpcd->pData, epnum);
 315:USB_Device/Target/usbd_conf.c ****   /* USER CODE BEGIN HAL_PCD_ISOOUTIncompleteCallback_PostTreatment */
ARM GAS  /tmp/cc5lIE3f.s 			page 7


 316:USB_Device/Target/usbd_conf.c **** 
 317:USB_Device/Target/usbd_conf.c ****   /* USER CODE END HAL_PCD_ISOOUTIncompleteCallback_PostTreatment */
 318:USB_Device/Target/usbd_conf.c **** }
 319:USB_Device/Target/usbd_conf.c **** 
 320:USB_Device/Target/usbd_conf.c **** /**
 321:USB_Device/Target/usbd_conf.c ****   * @brief  ISOINIncomplete callback.
 322:USB_Device/Target/usbd_conf.c ****   * @param  hpcd: PCD handle
 323:USB_Device/Target/usbd_conf.c ****   * @param  epnum: Endpoint number
 324:USB_Device/Target/usbd_conf.c ****   * @retval None
 325:USB_Device/Target/usbd_conf.c ****   */
 326:USB_Device/Target/usbd_conf.c **** #if (USE_HAL_PCD_REGISTER_CALLBACKS == 1U)
 327:USB_Device/Target/usbd_conf.c **** static void PCD_ISOINIncompleteCallback(PCD_HandleTypeDef *hpcd, uint8_t epnum)
 328:USB_Device/Target/usbd_conf.c **** #else
 329:USB_Device/Target/usbd_conf.c **** void HAL_PCD_ISOINIncompleteCallback(PCD_HandleTypeDef *hpcd, uint8_t epnum)
 330:USB_Device/Target/usbd_conf.c **** #endif /* USE_HAL_PCD_REGISTER_CALLBACKS */
 331:USB_Device/Target/usbd_conf.c **** {
 332:USB_Device/Target/usbd_conf.c ****   /* USER CODE BEGIN HAL_PCD_ISOINIncompleteCallback_PreTreatment */
 333:USB_Device/Target/usbd_conf.c **** 
 334:USB_Device/Target/usbd_conf.c ****   /* USER CODE END HAL_PCD_ISOINIncompleteCallback_PreTreatment */
 335:USB_Device/Target/usbd_conf.c ****   USBD_LL_IsoINIncomplete((USBD_HandleTypeDef*)hpcd->pData, epnum);
 336:USB_Device/Target/usbd_conf.c ****   /* USER CODE BEGIN HAL_PCD_ISOINIncompleteCallback_PostTreatment */
 337:USB_Device/Target/usbd_conf.c **** 
 338:USB_Device/Target/usbd_conf.c ****   /* USER CODE END HAL_PCD_ISOINIncompleteCallback_PostTreatment */
 339:USB_Device/Target/usbd_conf.c **** }
 340:USB_Device/Target/usbd_conf.c **** 
 341:USB_Device/Target/usbd_conf.c **** /**
 342:USB_Device/Target/usbd_conf.c ****   * @brief  Connect callback.
 343:USB_Device/Target/usbd_conf.c ****   * @param  hpcd: PCD handle
 344:USB_Device/Target/usbd_conf.c ****   * @retval None
 345:USB_Device/Target/usbd_conf.c ****   */
 346:USB_Device/Target/usbd_conf.c **** #if (USE_HAL_PCD_REGISTER_CALLBACKS == 1U)
 347:USB_Device/Target/usbd_conf.c **** static void PCD_ConnectCallback(PCD_HandleTypeDef *hpcd)
 348:USB_Device/Target/usbd_conf.c **** #else
 349:USB_Device/Target/usbd_conf.c **** void HAL_PCD_ConnectCallback(PCD_HandleTypeDef *hpcd)
 350:USB_Device/Target/usbd_conf.c **** #endif /* USE_HAL_PCD_REGISTER_CALLBACKS */
 351:USB_Device/Target/usbd_conf.c **** {
 352:USB_Device/Target/usbd_conf.c ****   /* USER CODE BEGIN HAL_PCD_ConnectCallback_PreTreatment */
 353:USB_Device/Target/usbd_conf.c **** 
 354:USB_Device/Target/usbd_conf.c ****   /* USER CODE END HAL_PCD_ConnectCallback_PreTreatment */
 355:USB_Device/Target/usbd_conf.c ****   USBD_LL_DevConnected((USBD_HandleTypeDef*)hpcd->pData);
 356:USB_Device/Target/usbd_conf.c ****   /* USER CODE BEGIN HAL_PCD_ConnectCallback_PostTreatment */
 357:USB_Device/Target/usbd_conf.c **** 
 358:USB_Device/Target/usbd_conf.c ****   /* USER CODE END HAL_PCD_ConnectCallback_PostTreatment */
 359:USB_Device/Target/usbd_conf.c **** }
 360:USB_Device/Target/usbd_conf.c **** 
 361:USB_Device/Target/usbd_conf.c **** /**
 362:USB_Device/Target/usbd_conf.c ****   * @brief  Disconnect callback.
 363:USB_Device/Target/usbd_conf.c ****   * @param  hpcd: PCD handle
 364:USB_Device/Target/usbd_conf.c ****   * @retval None
 365:USB_Device/Target/usbd_conf.c ****   */
 366:USB_Device/Target/usbd_conf.c **** #if (USE_HAL_PCD_REGISTER_CALLBACKS == 1U)
 367:USB_Device/Target/usbd_conf.c **** static void PCD_DisconnectCallback(PCD_HandleTypeDef *hpcd)
 368:USB_Device/Target/usbd_conf.c **** #else
 369:USB_Device/Target/usbd_conf.c **** void HAL_PCD_DisconnectCallback(PCD_HandleTypeDef *hpcd)
 370:USB_Device/Target/usbd_conf.c **** #endif /* USE_HAL_PCD_REGISTER_CALLBACKS */
 371:USB_Device/Target/usbd_conf.c **** {
 372:USB_Device/Target/usbd_conf.c ****   /* USER CODE BEGIN HAL_PCD_DisconnectCallback_PreTreatment */
ARM GAS  /tmp/cc5lIE3f.s 			page 8


 373:USB_Device/Target/usbd_conf.c **** 
 374:USB_Device/Target/usbd_conf.c ****   /* USER CODE END HAL_PCD_DisconnectCallback_PreTreatment */
 375:USB_Device/Target/usbd_conf.c ****   USBD_LL_DevDisconnected((USBD_HandleTypeDef*)hpcd->pData);
 376:USB_Device/Target/usbd_conf.c ****   /* USER CODE BEGIN HAL_PCD_DisconnectCallback_PostTreatment */
 377:USB_Device/Target/usbd_conf.c **** 
 378:USB_Device/Target/usbd_conf.c ****   /* USER CODE END HAL_PCD_DisconnectCallback_PostTreatment */
 379:USB_Device/Target/usbd_conf.c **** }
 380:USB_Device/Target/usbd_conf.c **** 
 381:USB_Device/Target/usbd_conf.c ****   /* USER CODE BEGIN LowLevelInterface */
 382:USB_Device/Target/usbd_conf.c **** 
 383:USB_Device/Target/usbd_conf.c ****   /* USER CODE END LowLevelInterface */
 384:USB_Device/Target/usbd_conf.c **** 
 385:USB_Device/Target/usbd_conf.c **** /*******************************************************************************
 386:USB_Device/Target/usbd_conf.c ****                        LL Driver Interface (USB Device Library --> PCD)
 387:USB_Device/Target/usbd_conf.c **** *******************************************************************************/
 388:USB_Device/Target/usbd_conf.c **** 
 389:USB_Device/Target/usbd_conf.c **** /**
 390:USB_Device/Target/usbd_conf.c ****   * @brief  Initializes the low level portion of the device driver.
 391:USB_Device/Target/usbd_conf.c ****   * @param  pdev: Device handle
 392:USB_Device/Target/usbd_conf.c ****   * @retval USBD status
 393:USB_Device/Target/usbd_conf.c ****   */
 394:USB_Device/Target/usbd_conf.c **** USBD_StatusTypeDef USBD_LL_Init(USBD_HandleTypeDef *pdev)
 395:USB_Device/Target/usbd_conf.c **** {
 396:USB_Device/Target/usbd_conf.c ****   /* Init USB Ip. */
 397:USB_Device/Target/usbd_conf.c ****   hpcd_USB_FS.pData = pdev;
 398:USB_Device/Target/usbd_conf.c ****   /* Link the driver to the stack. */
 399:USB_Device/Target/usbd_conf.c ****   pdev->pData = &hpcd_USB_FS;
 400:USB_Device/Target/usbd_conf.c **** 
 401:USB_Device/Target/usbd_conf.c ****   hpcd_USB_FS.Instance = USB;
 402:USB_Device/Target/usbd_conf.c ****   hpcd_USB_FS.Init.dev_endpoints = 8;
 403:USB_Device/Target/usbd_conf.c ****   hpcd_USB_FS.Init.speed = PCD_SPEED_FULL;
 404:USB_Device/Target/usbd_conf.c ****   hpcd_USB_FS.Init.phy_itface = PCD_PHY_EMBEDDED;
 405:USB_Device/Target/usbd_conf.c ****   hpcd_USB_FS.Init.Sof_enable = DISABLE;
 406:USB_Device/Target/usbd_conf.c ****   hpcd_USB_FS.Init.low_power_enable = DISABLE;
 407:USB_Device/Target/usbd_conf.c ****   hpcd_USB_FS.Init.lpm_enable = DISABLE;
 408:USB_Device/Target/usbd_conf.c ****   hpcd_USB_FS.Init.battery_charging_enable = DISABLE;
 409:USB_Device/Target/usbd_conf.c **** 
 410:USB_Device/Target/usbd_conf.c ****   #if (USE_HAL_PCD_REGISTER_CALLBACKS == 1U)
 411:USB_Device/Target/usbd_conf.c ****   /* register Msp Callbacks (before the Init) */
 412:USB_Device/Target/usbd_conf.c ****   HAL_PCD_RegisterCallback(&hpcd_USB_FS, HAL_PCD_MSPINIT_CB_ID, PCD_MspInit);
 413:USB_Device/Target/usbd_conf.c ****   HAL_PCD_RegisterCallback(&hpcd_USB_FS, HAL_PCD_MSPDEINIT_CB_ID, PCD_MspDeInit);
 414:USB_Device/Target/usbd_conf.c ****   #endif /* USE_HAL_PCD_REGISTER_CALLBACKS */
 415:USB_Device/Target/usbd_conf.c **** 
 416:USB_Device/Target/usbd_conf.c ****   if (HAL_PCD_Init(&hpcd_USB_FS) != HAL_OK)
 417:USB_Device/Target/usbd_conf.c ****   {
 418:USB_Device/Target/usbd_conf.c ****     Error_Handler( );
 419:USB_Device/Target/usbd_conf.c ****   }
 420:USB_Device/Target/usbd_conf.c **** 
 421:USB_Device/Target/usbd_conf.c **** #if (USE_HAL_PCD_REGISTER_CALLBACKS == 1U)
 422:USB_Device/Target/usbd_conf.c ****   /* Register USB PCD CallBacks */
 423:USB_Device/Target/usbd_conf.c ****   HAL_PCD_RegisterCallback(&hpcd_USB_FS, HAL_PCD_SOF_CB_ID, PCD_SOFCallback);
 424:USB_Device/Target/usbd_conf.c ****   HAL_PCD_RegisterCallback(&hpcd_USB_FS, HAL_PCD_SETUPSTAGE_CB_ID, PCD_SetupStageCallback);
 425:USB_Device/Target/usbd_conf.c ****   HAL_PCD_RegisterCallback(&hpcd_USB_FS, HAL_PCD_RESET_CB_ID, PCD_ResetCallback);
 426:USB_Device/Target/usbd_conf.c ****   HAL_PCD_RegisterCallback(&hpcd_USB_FS, HAL_PCD_SUSPEND_CB_ID, PCD_SuspendCallback);
 427:USB_Device/Target/usbd_conf.c ****   HAL_PCD_RegisterCallback(&hpcd_USB_FS, HAL_PCD_RESUME_CB_ID, PCD_ResumeCallback);
 428:USB_Device/Target/usbd_conf.c ****   HAL_PCD_RegisterCallback(&hpcd_USB_FS, HAL_PCD_CONNECT_CB_ID, PCD_ConnectCallback);
 429:USB_Device/Target/usbd_conf.c ****   HAL_PCD_RegisterCallback(&hpcd_USB_FS, HAL_PCD_DISCONNECT_CB_ID, PCD_DisconnectCallback);
ARM GAS  /tmp/cc5lIE3f.s 			page 9


 430:USB_Device/Target/usbd_conf.c ****   /* USER CODE BEGIN RegisterCallBackFirstPart */
 431:USB_Device/Target/usbd_conf.c **** 
 432:USB_Device/Target/usbd_conf.c ****   /* USER CODE END RegisterCallBackFirstPart */
 433:USB_Device/Target/usbd_conf.c ****   HAL_PCD_RegisterLpmCallback(&hpcd_USB_FS, PCDEx_LPM_Callback);
 434:USB_Device/Target/usbd_conf.c ****   HAL_PCD_RegisterDataOutStageCallback(&hpcd_USB_FS, PCD_DataOutStageCallback);
 435:USB_Device/Target/usbd_conf.c ****   HAL_PCD_RegisterDataInStageCallback(&hpcd_USB_FS, PCD_DataInStageCallback);
 436:USB_Device/Target/usbd_conf.c ****   HAL_PCD_RegisterIsoOutIncpltCallback(&hpcd_USB_FS, PCD_ISOOUTIncompleteCallback);
 437:USB_Device/Target/usbd_conf.c ****   HAL_PCD_RegisterIsoInIncpltCallback(&hpcd_USB_FS, PCD_ISOINIncompleteCallback);
 438:USB_Device/Target/usbd_conf.c ****   /* USER CODE BEGIN RegisterCallBackSecondPart */
 439:USB_Device/Target/usbd_conf.c **** 
 440:USB_Device/Target/usbd_conf.c ****   /* USER CODE END RegisterCallBackSecondPart */
 441:USB_Device/Target/usbd_conf.c **** #endif /* USE_HAL_PCD_REGISTER_CALLBACKS */
 442:USB_Device/Target/usbd_conf.c ****   /* USER CODE BEGIN EndPoint_Configuration */
 443:USB_Device/Target/usbd_conf.c ****   HAL_PCDEx_PMAConfig((PCD_HandleTypeDef*)pdev->pData , 0x00 , PCD_SNG_BUF, 0x18);
 444:USB_Device/Target/usbd_conf.c ****   HAL_PCDEx_PMAConfig((PCD_HandleTypeDef*)pdev->pData , 0x80 , PCD_SNG_BUF, 0x58);
 445:USB_Device/Target/usbd_conf.c ****   /* USER CODE END EndPoint_Configuration */
 446:USB_Device/Target/usbd_conf.c ****   /* USER CODE BEGIN EndPoint_Configuration_CDC */
 447:USB_Device/Target/usbd_conf.c ****   HAL_PCDEx_PMAConfig((PCD_HandleTypeDef*)pdev->pData , 0x81 , PCD_SNG_BUF, 0xC0);
 448:USB_Device/Target/usbd_conf.c ****   HAL_PCDEx_PMAConfig((PCD_HandleTypeDef*)pdev->pData , 0x01 , PCD_SNG_BUF, 0x110);
 449:USB_Device/Target/usbd_conf.c ****   HAL_PCDEx_PMAConfig((PCD_HandleTypeDef*)pdev->pData , 0x82 , PCD_SNG_BUF, 0x100);
 450:USB_Device/Target/usbd_conf.c ****   /* USER CODE END EndPoint_Configuration_CDC */
 451:USB_Device/Target/usbd_conf.c ****   return USBD_OK;
 452:USB_Device/Target/usbd_conf.c **** }
 453:USB_Device/Target/usbd_conf.c **** 
 454:USB_Device/Target/usbd_conf.c **** /**
 455:USB_Device/Target/usbd_conf.c ****   * @brief  De-Initializes the low level portion of the device driver.
 456:USB_Device/Target/usbd_conf.c ****   * @param  pdev: Device handle
 457:USB_Device/Target/usbd_conf.c ****   * @retval USBD status
 458:USB_Device/Target/usbd_conf.c ****   */
 459:USB_Device/Target/usbd_conf.c **** USBD_StatusTypeDef USBD_LL_DeInit(USBD_HandleTypeDef *pdev)
 460:USB_Device/Target/usbd_conf.c **** {
 461:USB_Device/Target/usbd_conf.c ****   HAL_StatusTypeDef hal_status = HAL_OK;
 462:USB_Device/Target/usbd_conf.c ****   USBD_StatusTypeDef usb_status = USBD_OK;
 463:USB_Device/Target/usbd_conf.c **** 
 464:USB_Device/Target/usbd_conf.c ****   hal_status = HAL_PCD_DeInit(pdev->pData);
 465:USB_Device/Target/usbd_conf.c **** 
 466:USB_Device/Target/usbd_conf.c ****   usb_status =  USBD_Get_USB_Status(hal_status);
 467:USB_Device/Target/usbd_conf.c **** 
 468:USB_Device/Target/usbd_conf.c ****   return usb_status;
 469:USB_Device/Target/usbd_conf.c **** }
 470:USB_Device/Target/usbd_conf.c **** 
 471:USB_Device/Target/usbd_conf.c **** /**
 472:USB_Device/Target/usbd_conf.c ****   * @brief  Starts the low level portion of the device driver.
 473:USB_Device/Target/usbd_conf.c ****   * @param  pdev: Device handle
 474:USB_Device/Target/usbd_conf.c ****   * @retval USBD status
 475:USB_Device/Target/usbd_conf.c ****   */
 476:USB_Device/Target/usbd_conf.c **** USBD_StatusTypeDef USBD_LL_Start(USBD_HandleTypeDef *pdev)
 477:USB_Device/Target/usbd_conf.c **** {
 478:USB_Device/Target/usbd_conf.c ****   HAL_StatusTypeDef hal_status = HAL_OK;
 479:USB_Device/Target/usbd_conf.c ****   USBD_StatusTypeDef usb_status = USBD_OK;
 480:USB_Device/Target/usbd_conf.c **** 
 481:USB_Device/Target/usbd_conf.c ****   hal_status = HAL_PCD_Start(pdev->pData);
 482:USB_Device/Target/usbd_conf.c **** 
 483:USB_Device/Target/usbd_conf.c ****   usb_status =  USBD_Get_USB_Status(hal_status);
 484:USB_Device/Target/usbd_conf.c **** 
 485:USB_Device/Target/usbd_conf.c ****   return usb_status;
 486:USB_Device/Target/usbd_conf.c **** }
ARM GAS  /tmp/cc5lIE3f.s 			page 10


 487:USB_Device/Target/usbd_conf.c **** 
 488:USB_Device/Target/usbd_conf.c **** /**
 489:USB_Device/Target/usbd_conf.c ****   * @brief  Stops the low level portion of the device driver.
 490:USB_Device/Target/usbd_conf.c ****   * @param  pdev: Device handle
 491:USB_Device/Target/usbd_conf.c ****   * @retval USBD status
 492:USB_Device/Target/usbd_conf.c ****   */
 493:USB_Device/Target/usbd_conf.c **** USBD_StatusTypeDef USBD_LL_Stop(USBD_HandleTypeDef *pdev)
 494:USB_Device/Target/usbd_conf.c **** {
 495:USB_Device/Target/usbd_conf.c ****   HAL_StatusTypeDef hal_status = HAL_OK;
 496:USB_Device/Target/usbd_conf.c ****   USBD_StatusTypeDef usb_status = USBD_OK;
 497:USB_Device/Target/usbd_conf.c **** 
 498:USB_Device/Target/usbd_conf.c ****   hal_status = HAL_PCD_Stop(pdev->pData);
 499:USB_Device/Target/usbd_conf.c **** 
 500:USB_Device/Target/usbd_conf.c ****   usb_status =  USBD_Get_USB_Status(hal_status);
 501:USB_Device/Target/usbd_conf.c **** 
 502:USB_Device/Target/usbd_conf.c ****   return usb_status;
 503:USB_Device/Target/usbd_conf.c **** }
 504:USB_Device/Target/usbd_conf.c **** 
 505:USB_Device/Target/usbd_conf.c **** /**
 506:USB_Device/Target/usbd_conf.c ****   * @brief  Opens an endpoint of the low level driver.
 507:USB_Device/Target/usbd_conf.c ****   * @param  pdev: Device handle
 508:USB_Device/Target/usbd_conf.c ****   * @param  ep_addr: Endpoint number
 509:USB_Device/Target/usbd_conf.c ****   * @param  ep_type: Endpoint type
 510:USB_Device/Target/usbd_conf.c ****   * @param  ep_mps: Endpoint max packet size
 511:USB_Device/Target/usbd_conf.c ****   * @retval USBD status
 512:USB_Device/Target/usbd_conf.c ****   */
 513:USB_Device/Target/usbd_conf.c **** USBD_StatusTypeDef USBD_LL_OpenEP(USBD_HandleTypeDef *pdev, uint8_t ep_addr, uint8_t ep_type, uint1
 514:USB_Device/Target/usbd_conf.c **** {
 515:USB_Device/Target/usbd_conf.c ****   HAL_StatusTypeDef hal_status = HAL_OK;
 516:USB_Device/Target/usbd_conf.c ****   USBD_StatusTypeDef usb_status = USBD_OK;
 517:USB_Device/Target/usbd_conf.c **** 
 518:USB_Device/Target/usbd_conf.c ****   hal_status = HAL_PCD_EP_Open(pdev->pData, ep_addr, ep_mps, ep_type);
 519:USB_Device/Target/usbd_conf.c **** 
 520:USB_Device/Target/usbd_conf.c ****   usb_status =  USBD_Get_USB_Status(hal_status);
 521:USB_Device/Target/usbd_conf.c **** 
 522:USB_Device/Target/usbd_conf.c ****   return usb_status;
 523:USB_Device/Target/usbd_conf.c **** }
 524:USB_Device/Target/usbd_conf.c **** 
 525:USB_Device/Target/usbd_conf.c **** /**
 526:USB_Device/Target/usbd_conf.c ****   * @brief  Closes an endpoint of the low level driver.
 527:USB_Device/Target/usbd_conf.c ****   * @param  pdev: Device handle
 528:USB_Device/Target/usbd_conf.c ****   * @param  ep_addr: Endpoint number
 529:USB_Device/Target/usbd_conf.c ****   * @retval USBD status
 530:USB_Device/Target/usbd_conf.c ****   */
 531:USB_Device/Target/usbd_conf.c **** USBD_StatusTypeDef USBD_LL_CloseEP(USBD_HandleTypeDef *pdev, uint8_t ep_addr)
 532:USB_Device/Target/usbd_conf.c **** {
 533:USB_Device/Target/usbd_conf.c ****   HAL_StatusTypeDef hal_status = HAL_OK;
 534:USB_Device/Target/usbd_conf.c ****   USBD_StatusTypeDef usb_status = USBD_OK;
 535:USB_Device/Target/usbd_conf.c **** 
 536:USB_Device/Target/usbd_conf.c ****   hal_status = HAL_PCD_EP_Close(pdev->pData, ep_addr);
 537:USB_Device/Target/usbd_conf.c **** 
 538:USB_Device/Target/usbd_conf.c ****   usb_status =  USBD_Get_USB_Status(hal_status);
 539:USB_Device/Target/usbd_conf.c **** 
 540:USB_Device/Target/usbd_conf.c ****   return usb_status;
 541:USB_Device/Target/usbd_conf.c **** }
 542:USB_Device/Target/usbd_conf.c **** 
 543:USB_Device/Target/usbd_conf.c **** /**
ARM GAS  /tmp/cc5lIE3f.s 			page 11


 544:USB_Device/Target/usbd_conf.c ****   * @brief  Flushes an endpoint of the Low Level Driver.
 545:USB_Device/Target/usbd_conf.c ****   * @param  pdev: Device handle
 546:USB_Device/Target/usbd_conf.c ****   * @param  ep_addr: Endpoint number
 547:USB_Device/Target/usbd_conf.c ****   * @retval USBD status
 548:USB_Device/Target/usbd_conf.c ****   */
 549:USB_Device/Target/usbd_conf.c **** USBD_StatusTypeDef USBD_LL_FlushEP(USBD_HandleTypeDef *pdev, uint8_t ep_addr)
 550:USB_Device/Target/usbd_conf.c **** {
 551:USB_Device/Target/usbd_conf.c ****   HAL_StatusTypeDef hal_status = HAL_OK;
 552:USB_Device/Target/usbd_conf.c ****   USBD_StatusTypeDef usb_status = USBD_OK;
 553:USB_Device/Target/usbd_conf.c **** 
 554:USB_Device/Target/usbd_conf.c ****   hal_status = HAL_PCD_EP_Flush(pdev->pData, ep_addr);
 555:USB_Device/Target/usbd_conf.c **** 
 556:USB_Device/Target/usbd_conf.c ****   usb_status =  USBD_Get_USB_Status(hal_status);
 557:USB_Device/Target/usbd_conf.c **** 
 558:USB_Device/Target/usbd_conf.c ****   return usb_status;
 559:USB_Device/Target/usbd_conf.c **** }
 560:USB_Device/Target/usbd_conf.c **** 
 561:USB_Device/Target/usbd_conf.c **** /**
 562:USB_Device/Target/usbd_conf.c ****   * @brief  Sets a Stall condition on an endpoint of the Low Level Driver.
 563:USB_Device/Target/usbd_conf.c ****   * @param  pdev: Device handle
 564:USB_Device/Target/usbd_conf.c ****   * @param  ep_addr: Endpoint number
 565:USB_Device/Target/usbd_conf.c ****   * @retval USBD status
 566:USB_Device/Target/usbd_conf.c ****   */
 567:USB_Device/Target/usbd_conf.c **** USBD_StatusTypeDef USBD_LL_StallEP(USBD_HandleTypeDef *pdev, uint8_t ep_addr)
 568:USB_Device/Target/usbd_conf.c **** {
 569:USB_Device/Target/usbd_conf.c ****   HAL_StatusTypeDef hal_status = HAL_OK;
 570:USB_Device/Target/usbd_conf.c ****   USBD_StatusTypeDef usb_status = USBD_OK;
 571:USB_Device/Target/usbd_conf.c **** 
 572:USB_Device/Target/usbd_conf.c ****   hal_status = HAL_PCD_EP_SetStall(pdev->pData, ep_addr);
 573:USB_Device/Target/usbd_conf.c **** 
 574:USB_Device/Target/usbd_conf.c ****   usb_status =  USBD_Get_USB_Status(hal_status);
 575:USB_Device/Target/usbd_conf.c **** 
 576:USB_Device/Target/usbd_conf.c ****   return usb_status;
 577:USB_Device/Target/usbd_conf.c **** }
 578:USB_Device/Target/usbd_conf.c **** 
 579:USB_Device/Target/usbd_conf.c **** /**
 580:USB_Device/Target/usbd_conf.c ****   * @brief  Clears a Stall condition on an endpoint of the Low Level Driver.
 581:USB_Device/Target/usbd_conf.c ****   * @param  pdev: Device handle
 582:USB_Device/Target/usbd_conf.c ****   * @param  ep_addr: Endpoint number
 583:USB_Device/Target/usbd_conf.c ****   * @retval USBD status
 584:USB_Device/Target/usbd_conf.c ****   */
 585:USB_Device/Target/usbd_conf.c **** USBD_StatusTypeDef USBD_LL_ClearStallEP(USBD_HandleTypeDef *pdev, uint8_t ep_addr)
 586:USB_Device/Target/usbd_conf.c **** {
 587:USB_Device/Target/usbd_conf.c ****   HAL_StatusTypeDef hal_status = HAL_OK;
 588:USB_Device/Target/usbd_conf.c ****   USBD_StatusTypeDef usb_status = USBD_OK;
 589:USB_Device/Target/usbd_conf.c **** 
 590:USB_Device/Target/usbd_conf.c ****   hal_status = HAL_PCD_EP_ClrStall(pdev->pData, ep_addr);
 591:USB_Device/Target/usbd_conf.c **** 
 592:USB_Device/Target/usbd_conf.c ****   usb_status =  USBD_Get_USB_Status(hal_status);
 593:USB_Device/Target/usbd_conf.c **** 
 594:USB_Device/Target/usbd_conf.c ****   return usb_status;
 595:USB_Device/Target/usbd_conf.c **** }
 596:USB_Device/Target/usbd_conf.c **** 
 597:USB_Device/Target/usbd_conf.c **** /**
 598:USB_Device/Target/usbd_conf.c ****   * @brief  Returns Stall condition.
 599:USB_Device/Target/usbd_conf.c ****   * @param  pdev: Device handle
 600:USB_Device/Target/usbd_conf.c ****   * @param  ep_addr: Endpoint number
ARM GAS  /tmp/cc5lIE3f.s 			page 12


 601:USB_Device/Target/usbd_conf.c ****   * @retval Stall (1: Yes, 0: No)
 602:USB_Device/Target/usbd_conf.c ****   */
 603:USB_Device/Target/usbd_conf.c **** uint8_t USBD_LL_IsStallEP(USBD_HandleTypeDef *pdev, uint8_t ep_addr)
 604:USB_Device/Target/usbd_conf.c **** {
 605:USB_Device/Target/usbd_conf.c ****   PCD_HandleTypeDef *hpcd = (PCD_HandleTypeDef*) pdev->pData;
 606:USB_Device/Target/usbd_conf.c **** 
 607:USB_Device/Target/usbd_conf.c ****   if((ep_addr & 0x80) == 0x80)
 608:USB_Device/Target/usbd_conf.c ****   {
 609:USB_Device/Target/usbd_conf.c ****     return hpcd->IN_ep[ep_addr & 0x7F].is_stall;
 610:USB_Device/Target/usbd_conf.c ****   }
 611:USB_Device/Target/usbd_conf.c ****   else
 612:USB_Device/Target/usbd_conf.c ****   {
 613:USB_Device/Target/usbd_conf.c ****     return hpcd->OUT_ep[ep_addr & 0x7F].is_stall;
 614:USB_Device/Target/usbd_conf.c ****   }
 615:USB_Device/Target/usbd_conf.c **** }
 616:USB_Device/Target/usbd_conf.c **** 
 617:USB_Device/Target/usbd_conf.c **** /**
 618:USB_Device/Target/usbd_conf.c ****   * @brief  Assigns a USB address to the device.
 619:USB_Device/Target/usbd_conf.c ****   * @param  pdev: Device handle
 620:USB_Device/Target/usbd_conf.c ****   * @param  dev_addr: Device address
 621:USB_Device/Target/usbd_conf.c ****   * @retval USBD status
 622:USB_Device/Target/usbd_conf.c ****   */
 623:USB_Device/Target/usbd_conf.c **** USBD_StatusTypeDef USBD_LL_SetUSBAddress(USBD_HandleTypeDef *pdev, uint8_t dev_addr)
 624:USB_Device/Target/usbd_conf.c **** {
 625:USB_Device/Target/usbd_conf.c ****   HAL_StatusTypeDef hal_status = HAL_OK;
 626:USB_Device/Target/usbd_conf.c ****   USBD_StatusTypeDef usb_status = USBD_OK;
 627:USB_Device/Target/usbd_conf.c **** 
 628:USB_Device/Target/usbd_conf.c ****   hal_status = HAL_PCD_SetAddress(pdev->pData, dev_addr);
 629:USB_Device/Target/usbd_conf.c **** 
 630:USB_Device/Target/usbd_conf.c ****   usb_status =  USBD_Get_USB_Status(hal_status);
 631:USB_Device/Target/usbd_conf.c **** 
 632:USB_Device/Target/usbd_conf.c ****   return usb_status;
 633:USB_Device/Target/usbd_conf.c **** }
 634:USB_Device/Target/usbd_conf.c **** 
 635:USB_Device/Target/usbd_conf.c **** /**
 636:USB_Device/Target/usbd_conf.c ****   * @brief  Transmits data over an endpoint.
 637:USB_Device/Target/usbd_conf.c ****   * @param  pdev: Device handle
 638:USB_Device/Target/usbd_conf.c ****   * @param  ep_addr: Endpoint number
 639:USB_Device/Target/usbd_conf.c ****   * @param  pbuf: Pointer to data to be sent
 640:USB_Device/Target/usbd_conf.c ****   * @param  size: Data size
 641:USB_Device/Target/usbd_conf.c ****   * @retval USBD status
 642:USB_Device/Target/usbd_conf.c ****   */
 643:USB_Device/Target/usbd_conf.c **** USBD_StatusTypeDef USBD_LL_Transmit(USBD_HandleTypeDef *pdev, uint8_t ep_addr, uint8_t *pbuf, uint3
 644:USB_Device/Target/usbd_conf.c **** {
 645:USB_Device/Target/usbd_conf.c ****   HAL_StatusTypeDef hal_status = HAL_OK;
 646:USB_Device/Target/usbd_conf.c ****   USBD_StatusTypeDef usb_status = USBD_OK;
 647:USB_Device/Target/usbd_conf.c **** 
 648:USB_Device/Target/usbd_conf.c ****   hal_status = HAL_PCD_EP_Transmit(pdev->pData, ep_addr, pbuf, size);
 649:USB_Device/Target/usbd_conf.c **** 
 650:USB_Device/Target/usbd_conf.c ****   usb_status =  USBD_Get_USB_Status(hal_status);
 651:USB_Device/Target/usbd_conf.c **** 
 652:USB_Device/Target/usbd_conf.c ****   return usb_status;
 653:USB_Device/Target/usbd_conf.c **** }
 654:USB_Device/Target/usbd_conf.c **** 
 655:USB_Device/Target/usbd_conf.c **** /**
 656:USB_Device/Target/usbd_conf.c ****   * @brief  Prepares an endpoint for reception.
 657:USB_Device/Target/usbd_conf.c ****   * @param  pdev: Device handle
ARM GAS  /tmp/cc5lIE3f.s 			page 13


 658:USB_Device/Target/usbd_conf.c ****   * @param  ep_addr: Endpoint number
 659:USB_Device/Target/usbd_conf.c ****   * @param  pbuf: Pointer to data to be received
 660:USB_Device/Target/usbd_conf.c ****   * @param  size: Data size
 661:USB_Device/Target/usbd_conf.c ****   * @retval USBD status
 662:USB_Device/Target/usbd_conf.c ****   */
 663:USB_Device/Target/usbd_conf.c **** USBD_StatusTypeDef USBD_LL_PrepareReceive(USBD_HandleTypeDef *pdev, uint8_t ep_addr, uint8_t *pbuf,
 664:USB_Device/Target/usbd_conf.c **** {
 665:USB_Device/Target/usbd_conf.c ****   HAL_StatusTypeDef hal_status = HAL_OK;
 666:USB_Device/Target/usbd_conf.c ****   USBD_StatusTypeDef usb_status = USBD_OK;
 667:USB_Device/Target/usbd_conf.c **** 
 668:USB_Device/Target/usbd_conf.c ****   hal_status = HAL_PCD_EP_Receive(pdev->pData, ep_addr, pbuf, size);
 669:USB_Device/Target/usbd_conf.c **** 
 670:USB_Device/Target/usbd_conf.c ****   usb_status =  USBD_Get_USB_Status(hal_status);
 671:USB_Device/Target/usbd_conf.c **** 
 672:USB_Device/Target/usbd_conf.c ****   return usb_status;
 673:USB_Device/Target/usbd_conf.c **** }
 674:USB_Device/Target/usbd_conf.c **** 
 675:USB_Device/Target/usbd_conf.c **** /**
 676:USB_Device/Target/usbd_conf.c ****   * @brief  Returns the last transferred packet size.
 677:USB_Device/Target/usbd_conf.c ****   * @param  pdev: Device handle
 678:USB_Device/Target/usbd_conf.c ****   * @param  ep_addr: Endpoint number
 679:USB_Device/Target/usbd_conf.c ****   * @retval Received Data Size
 680:USB_Device/Target/usbd_conf.c ****   */
 681:USB_Device/Target/usbd_conf.c **** uint32_t USBD_LL_GetRxDataSize(USBD_HandleTypeDef *pdev, uint8_t ep_addr)
 682:USB_Device/Target/usbd_conf.c **** {
 683:USB_Device/Target/usbd_conf.c ****   return HAL_PCD_EP_GetRxCount((PCD_HandleTypeDef*) pdev->pData, ep_addr);
 684:USB_Device/Target/usbd_conf.c **** }
 685:USB_Device/Target/usbd_conf.c **** 
 686:USB_Device/Target/usbd_conf.c **** /**
 687:USB_Device/Target/usbd_conf.c ****   * @brief  Send LPM message to user layer
 688:USB_Device/Target/usbd_conf.c ****   * @param  hpcd: PCD handle
 689:USB_Device/Target/usbd_conf.c ****   * @param  msg: LPM message
 690:USB_Device/Target/usbd_conf.c ****   * @retval None
 691:USB_Device/Target/usbd_conf.c ****   */
 692:USB_Device/Target/usbd_conf.c **** #if (USE_HAL_PCD_REGISTER_CALLBACKS == 1U)
 693:USB_Device/Target/usbd_conf.c **** static void PCDEx_LPM_Callback(PCD_HandleTypeDef *hpcd, PCD_LPM_MsgTypeDef msg)
 694:USB_Device/Target/usbd_conf.c **** #else
 695:USB_Device/Target/usbd_conf.c **** void HAL_PCDEx_LPM_Callback(PCD_HandleTypeDef *hpcd, PCD_LPM_MsgTypeDef msg)
 696:USB_Device/Target/usbd_conf.c **** #endif /* USE_HAL_PCD_REGISTER_CALLBACKS */
 697:USB_Device/Target/usbd_conf.c **** {
 698:USB_Device/Target/usbd_conf.c ****   /* USER CODE BEGIN LPM_Callback */
 699:USB_Device/Target/usbd_conf.c ****   switch (msg)
 700:USB_Device/Target/usbd_conf.c ****   {
 701:USB_Device/Target/usbd_conf.c ****   case PCD_LPM_L0_ACTIVE:
 702:USB_Device/Target/usbd_conf.c ****     if (hpcd->Init.low_power_enable)
 703:USB_Device/Target/usbd_conf.c ****     {
 704:USB_Device/Target/usbd_conf.c ****       SystemClockConfig_Resume();
 705:USB_Device/Target/usbd_conf.c **** 
 706:USB_Device/Target/usbd_conf.c ****       /* Reset SLEEPDEEP bit of Cortex System Control Register. */
 707:USB_Device/Target/usbd_conf.c ****       SCB->SCR &= (uint32_t)~((uint32_t)(SCB_SCR_SLEEPDEEP_Msk | SCB_SCR_SLEEPONEXIT_Msk));
 708:USB_Device/Target/usbd_conf.c ****     }
 709:USB_Device/Target/usbd_conf.c ****     USBD_LL_Resume(hpcd->pData);
 710:USB_Device/Target/usbd_conf.c ****     break;
 711:USB_Device/Target/usbd_conf.c **** 
 712:USB_Device/Target/usbd_conf.c ****   case PCD_LPM_L1_ACTIVE:
 713:USB_Device/Target/usbd_conf.c ****     USBD_LL_Suspend(hpcd->pData);
 714:USB_Device/Target/usbd_conf.c **** 
ARM GAS  /tmp/cc5lIE3f.s 			page 14


 715:USB_Device/Target/usbd_conf.c ****     /* Enter in STOP mode. */
 716:USB_Device/Target/usbd_conf.c ****     if (hpcd->Init.low_power_enable)
 717:USB_Device/Target/usbd_conf.c ****     {
 718:USB_Device/Target/usbd_conf.c ****       /* Set SLEEPDEEP bit and SleepOnExit of Cortex System Control Register. */
 719:USB_Device/Target/usbd_conf.c ****       SCB->SCR |= (uint32_t)((uint32_t)(SCB_SCR_SLEEPDEEP_Msk | SCB_SCR_SLEEPONEXIT_Msk));
 720:USB_Device/Target/usbd_conf.c ****     }
 721:USB_Device/Target/usbd_conf.c ****     break;
 722:USB_Device/Target/usbd_conf.c ****   }
 723:USB_Device/Target/usbd_conf.c ****   /* USER CODE END LPM_Callback */
 724:USB_Device/Target/usbd_conf.c **** }
 725:USB_Device/Target/usbd_conf.c **** 
 726:USB_Device/Target/usbd_conf.c **** /**
 727:USB_Device/Target/usbd_conf.c ****   * @brief  Delays routine for the USB Device Library.
 728:USB_Device/Target/usbd_conf.c ****   * @param  Delay: Delay in ms
 729:USB_Device/Target/usbd_conf.c ****   * @retval None
 730:USB_Device/Target/usbd_conf.c ****   */
 731:USB_Device/Target/usbd_conf.c **** void USBD_LL_Delay(uint32_t Delay)
 732:USB_Device/Target/usbd_conf.c **** {
 733:USB_Device/Target/usbd_conf.c ****   HAL_Delay(Delay);
 734:USB_Device/Target/usbd_conf.c **** }
 735:USB_Device/Target/usbd_conf.c **** 
 736:USB_Device/Target/usbd_conf.c **** /**
 737:USB_Device/Target/usbd_conf.c ****   * @brief  Static single allocation.
 738:USB_Device/Target/usbd_conf.c ****   * @param  size: Size of allocated memory
 739:USB_Device/Target/usbd_conf.c ****   * @retval None
 740:USB_Device/Target/usbd_conf.c ****   */
 741:USB_Device/Target/usbd_conf.c **** void *USBD_static_malloc(uint32_t size)
 742:USB_Device/Target/usbd_conf.c **** {
 743:USB_Device/Target/usbd_conf.c ****   static uint32_t mem[(sizeof(USBD_CDC_HandleTypeDef)/4)+1];/* On 32-bit boundary */
 744:USB_Device/Target/usbd_conf.c ****   return mem;
 745:USB_Device/Target/usbd_conf.c **** }
 746:USB_Device/Target/usbd_conf.c **** 
 747:USB_Device/Target/usbd_conf.c **** /**
 748:USB_Device/Target/usbd_conf.c ****   * @brief  Dummy memory free
 749:USB_Device/Target/usbd_conf.c ****   * @param  p: Pointer to allocated  memory address
 750:USB_Device/Target/usbd_conf.c ****   * @retval None
 751:USB_Device/Target/usbd_conf.c ****   */
 752:USB_Device/Target/usbd_conf.c **** void USBD_static_free(void *p)
 753:USB_Device/Target/usbd_conf.c **** {
 754:USB_Device/Target/usbd_conf.c **** 
 755:USB_Device/Target/usbd_conf.c **** }
 756:USB_Device/Target/usbd_conf.c **** 
 757:USB_Device/Target/usbd_conf.c **** /* USER CODE BEGIN 5 */
 758:USB_Device/Target/usbd_conf.c **** /**
 759:USB_Device/Target/usbd_conf.c ****   * @brief  Configures system clock after wake-up from USB resume callBack:
 760:USB_Device/Target/usbd_conf.c ****   *         enable HSI, PLL and select PLL as system clock source.
 761:USB_Device/Target/usbd_conf.c ****   * @retval None
 762:USB_Device/Target/usbd_conf.c ****   */
 763:USB_Device/Target/usbd_conf.c **** static void SystemClockConfig_Resume(void)
 764:USB_Device/Target/usbd_conf.c **** {
 765:USB_Device/Target/usbd_conf.c ****   SystemClock_Config();
 766:USB_Device/Target/usbd_conf.c **** }
 767:USB_Device/Target/usbd_conf.c **** /* USER CODE END 5 */
 768:USB_Device/Target/usbd_conf.c **** 
 769:USB_Device/Target/usbd_conf.c **** /**
 770:USB_Device/Target/usbd_conf.c ****   * @brief  Returns the USB status depending on the HAL status:
 771:USB_Device/Target/usbd_conf.c ****   * @param  hal_status: HAL status
ARM GAS  /tmp/cc5lIE3f.s 			page 15


 772:USB_Device/Target/usbd_conf.c ****   * @retval USB status
 773:USB_Device/Target/usbd_conf.c ****   */
 774:USB_Device/Target/usbd_conf.c **** USBD_StatusTypeDef USBD_Get_USB_Status(HAL_StatusTypeDef hal_status)
 775:USB_Device/Target/usbd_conf.c **** {
  29              		.loc 1 775 1 view -0
  30              		.cfi_startproc
  31              		@ args = 0, pretend = 0, frame = 0
  32              		@ frame_needed = 0, uses_anonymous_args = 0
  33              		@ link register save eliminated.
 776:USB_Device/Target/usbd_conf.c ****   USBD_StatusTypeDef usb_status = USBD_OK;
  34              		.loc 1 776 3 view .LVU1
 777:USB_Device/Target/usbd_conf.c **** 
 778:USB_Device/Target/usbd_conf.c ****   switch (hal_status)
  35              		.loc 1 778 3 view .LVU2
  36 0000 0328     		cmp	r0, #3
  37 0002 05D8     		bhi	.L7
  38 0004 DFE800F0 		tbb	[pc, r0]
  39              	.L4:
  40 0008 05       		.byte	(.L2-.L4)/2
  41 0009 04       		.byte	(.L7-.L4)/2
  42 000a 02       		.byte	(.L5-.L4)/2
  43 000b 05       		.byte	(.L2-.L4)/2
  44              		.p2align 1
  45              	.L5:
 779:USB_Device/Target/usbd_conf.c ****   {
 780:USB_Device/Target/usbd_conf.c ****     case HAL_OK :
 781:USB_Device/Target/usbd_conf.c ****       usb_status = USBD_OK;
 782:USB_Device/Target/usbd_conf.c ****     break;
 783:USB_Device/Target/usbd_conf.c ****     case HAL_ERROR :
 784:USB_Device/Target/usbd_conf.c ****       usb_status = USBD_FAIL;
 785:USB_Device/Target/usbd_conf.c ****     break;
 786:USB_Device/Target/usbd_conf.c ****     case HAL_BUSY :
 787:USB_Device/Target/usbd_conf.c ****       usb_status = USBD_BUSY;
  46              		.loc 1 787 7 view .LVU3
  47              	.LVL1:
 788:USB_Device/Target/usbd_conf.c ****     break;
  48              		.loc 1 788 5 view .LVU4
 787:USB_Device/Target/usbd_conf.c ****     break;
  49              		.loc 1 787 18 is_stmt 0 view .LVU5
  50 000c 0120     		movs	r0, #1
  51              	.LVL2:
  52              		.loc 1 788 5 view .LVU6
  53 000e 7047     		bx	lr
  54              	.LVL3:
  55              	.L7:
 784:USB_Device/Target/usbd_conf.c ****     break;
  56              		.loc 1 784 18 view .LVU7
  57 0010 0320     		movs	r0, #3
  58              	.LVL4:
  59              	.L2:
 789:USB_Device/Target/usbd_conf.c ****     case HAL_TIMEOUT :
 790:USB_Device/Target/usbd_conf.c ****       usb_status = USBD_FAIL;
 791:USB_Device/Target/usbd_conf.c ****     break;
 792:USB_Device/Target/usbd_conf.c ****     default :
 793:USB_Device/Target/usbd_conf.c ****       usb_status = USBD_FAIL;
 794:USB_Device/Target/usbd_conf.c ****     break;
 795:USB_Device/Target/usbd_conf.c ****   }
ARM GAS  /tmp/cc5lIE3f.s 			page 16


 796:USB_Device/Target/usbd_conf.c ****   return usb_status;
  60              		.loc 1 796 3 is_stmt 1 view .LVU8
 797:USB_Device/Target/usbd_conf.c **** }
  61              		.loc 1 797 1 is_stmt 0 view .LVU9
  62 0012 7047     		bx	lr
  63              		.cfi_endproc
  64              	.LFE365:
  66              		.section	.text.SystemClockConfig_Resume,"ax",%progbits
  67              		.align	1
  68              		.syntax unified
  69              		.thumb
  70              		.thumb_func
  72              	SystemClockConfig_Resume:
  73              	.LFB364:
 764:USB_Device/Target/usbd_conf.c ****   SystemClock_Config();
  74              		.loc 1 764 1 is_stmt 1 view -0
  75              		.cfi_startproc
  76              		@ args = 0, pretend = 0, frame = 0
  77              		@ frame_needed = 0, uses_anonymous_args = 0
  78 0000 08B5     		push	{r3, lr}
  79              		.cfi_def_cfa_offset 8
  80              		.cfi_offset 3, -8
  81              		.cfi_offset 14, -4
 765:USB_Device/Target/usbd_conf.c **** }
  82              		.loc 1 765 3 view .LVU11
  83 0002 FFF7FEFF 		bl	SystemClock_Config
  84              	.LVL5:
 766:USB_Device/Target/usbd_conf.c **** /* USER CODE END 5 */
  85              		.loc 1 766 1 is_stmt 0 view .LVU12
  86 0006 08BD     		pop	{r3, pc}
  87              		.cfi_endproc
  88              	.LFE364:
  90              		.section	.text.HAL_PCD_MspInit,"ax",%progbits
  91              		.align	1
  92              		.global	HAL_PCD_MspInit
  93              		.syntax unified
  94              		.thumb
  95              		.thumb_func
  97              	HAL_PCD_MspInit:
  98              	.LVL6:
  99              	.LFB333:
  74:USB_Device/Target/usbd_conf.c ****   RCC_PeriphCLKInitTypeDef PeriphClkInit = {0};
 100              		.loc 1 74 1 is_stmt 1 view -0
 101              		.cfi_startproc
 102              		@ args = 0, pretend = 0, frame = 88
 103              		@ frame_needed = 0, uses_anonymous_args = 0
  74:USB_Device/Target/usbd_conf.c ****   RCC_PeriphCLKInitTypeDef PeriphClkInit = {0};
 104              		.loc 1 74 1 is_stmt 0 view .LVU14
 105 0000 10B5     		push	{r4, lr}
 106              		.cfi_def_cfa_offset 8
 107              		.cfi_offset 4, -8
 108              		.cfi_offset 14, -4
 109 0002 96B0     		sub	sp, sp, #88
 110              		.cfi_def_cfa_offset 96
 111 0004 0446     		mov	r4, r0
  75:USB_Device/Target/usbd_conf.c ****   if(pcdHandle->Instance==USB)
 112              		.loc 1 75 3 is_stmt 1 view .LVU15
ARM GAS  /tmp/cc5lIE3f.s 			page 17


  75:USB_Device/Target/usbd_conf.c ****   if(pcdHandle->Instance==USB)
 113              		.loc 1 75 28 is_stmt 0 view .LVU16
 114 0006 5422     		movs	r2, #84
 115 0008 0021     		movs	r1, #0
 116 000a 01A8     		add	r0, sp, #4
 117              	.LVL7:
  75:USB_Device/Target/usbd_conf.c ****   if(pcdHandle->Instance==USB)
 118              		.loc 1 75 28 view .LVU17
 119 000c FFF7FEFF 		bl	memset
 120              	.LVL8:
  76:USB_Device/Target/usbd_conf.c ****   {
 121              		.loc 1 76 3 is_stmt 1 view .LVU18
  76:USB_Device/Target/usbd_conf.c ****   {
 122              		.loc 1 76 15 is_stmt 0 view .LVU19
 123 0010 2268     		ldr	r2, [r4]
  76:USB_Device/Target/usbd_conf.c ****   {
 124              		.loc 1 76 5 view .LVU20
 125 0012 114B     		ldr	r3, .L16
 126 0014 9A42     		cmp	r2, r3
 127 0016 01D0     		beq	.L14
 128              	.L10:
 101:USB_Device/Target/usbd_conf.c **** 
 129              		.loc 1 101 1 view .LVU21
 130 0018 16B0     		add	sp, sp, #88
 131              		.cfi_remember_state
 132              		.cfi_def_cfa_offset 8
 133              		@ sp needed
 134 001a 10BD     		pop	{r4, pc}
 135              	.LVL9:
 136              	.L14:
 137              		.cfi_restore_state
  84:USB_Device/Target/usbd_conf.c ****     PeriphClkInit.UsbClockSelection = RCC_USBCLKSOURCE_HSI48;
 138              		.loc 1 84 5 is_stmt 1 view .LVU22
  84:USB_Device/Target/usbd_conf.c ****     PeriphClkInit.UsbClockSelection = RCC_USBCLKSOURCE_HSI48;
 139              		.loc 1 84 40 is_stmt 0 view .LVU23
 140 001c 4FF40053 		mov	r3, #8192
 141 0020 0193     		str	r3, [sp, #4]
  85:USB_Device/Target/usbd_conf.c ****     if (HAL_RCCEx_PeriphCLKConfig(&PeriphClkInit) != HAL_OK)
 142              		.loc 1 85 5 is_stmt 1 view .LVU24
  86:USB_Device/Target/usbd_conf.c ****     {
 143              		.loc 1 86 5 view .LVU25
  86:USB_Device/Target/usbd_conf.c ****     {
 144              		.loc 1 86 9 is_stmt 0 view .LVU26
 145 0022 01A8     		add	r0, sp, #4
 146 0024 FFF7FEFF 		bl	HAL_RCCEx_PeriphCLKConfig
 147              	.LVL10:
  86:USB_Device/Target/usbd_conf.c ****     {
 148              		.loc 1 86 8 discriminator 1 view .LVU27
 149 0028 90B9     		cbnz	r0, .L15
 150              	.L12:
  92:USB_Device/Target/usbd_conf.c **** 
 151              		.loc 1 92 5 is_stmt 1 view .LVU28
 152              	.LBB2:
  92:USB_Device/Target/usbd_conf.c **** 
 153              		.loc 1 92 5 view .LVU29
  92:USB_Device/Target/usbd_conf.c **** 
 154              		.loc 1 92 5 view .LVU30
ARM GAS  /tmp/cc5lIE3f.s 			page 18


 155 002a 0C4B     		ldr	r3, .L16+4
 156 002c 9A6D     		ldr	r2, [r3, #88]
 157 002e 42F40002 		orr	r2, r2, #8388608
 158 0032 9A65     		str	r2, [r3, #88]
  92:USB_Device/Target/usbd_conf.c **** 
 159              		.loc 1 92 5 view .LVU31
 160 0034 9B6D     		ldr	r3, [r3, #88]
 161 0036 03F40003 		and	r3, r3, #8388608
 162 003a 0093     		str	r3, [sp]
  92:USB_Device/Target/usbd_conf.c **** 
 163              		.loc 1 92 5 view .LVU32
 164 003c 009B     		ldr	r3, [sp]
 165              	.LBE2:
  92:USB_Device/Target/usbd_conf.c **** 
 166              		.loc 1 92 5 view .LVU33
  95:USB_Device/Target/usbd_conf.c ****     HAL_NVIC_EnableIRQ(USB_LP_IRQn);
 167              		.loc 1 95 5 view .LVU34
 168 003e 0022     		movs	r2, #0
 169 0040 0521     		movs	r1, #5
 170 0042 1420     		movs	r0, #20
 171 0044 FFF7FEFF 		bl	HAL_NVIC_SetPriority
 172              	.LVL11:
  96:USB_Device/Target/usbd_conf.c ****   /* USER CODE BEGIN USB_MspInit 1 */
 173              		.loc 1 96 5 view .LVU35
 174 0048 1420     		movs	r0, #20
 175 004a FFF7FEFF 		bl	HAL_NVIC_EnableIRQ
 176              	.LVL12:
 101:USB_Device/Target/usbd_conf.c **** 
 177              		.loc 1 101 1 is_stmt 0 view .LVU36
 178 004e E3E7     		b	.L10
 179              	.L15:
  88:USB_Device/Target/usbd_conf.c ****     }
 180              		.loc 1 88 7 is_stmt 1 view .LVU37
 181 0050 FFF7FEFF 		bl	Error_Handler
 182              	.LVL13:
 183 0054 E9E7     		b	.L12
 184              	.L17:
 185 0056 00BF     		.align	2
 186              	.L16:
 187 0058 005C0040 		.word	1073765376
 188 005c 00100240 		.word	1073876992
 189              		.cfi_endproc
 190              	.LFE333:
 192              		.section	.text.HAL_PCD_MspDeInit,"ax",%progbits
 193              		.align	1
 194              		.global	HAL_PCD_MspDeInit
 195              		.syntax unified
 196              		.thumb
 197              		.thumb_func
 199              	HAL_PCD_MspDeInit:
 200              	.LVL14:
 201              	.LFB334:
 108:USB_Device/Target/usbd_conf.c ****   if(pcdHandle->Instance==USB)
 202              		.loc 1 108 1 view -0
 203              		.cfi_startproc
 204              		@ args = 0, pretend = 0, frame = 0
 205              		@ frame_needed = 0, uses_anonymous_args = 0
ARM GAS  /tmp/cc5lIE3f.s 			page 19


 108:USB_Device/Target/usbd_conf.c ****   if(pcdHandle->Instance==USB)
 206              		.loc 1 108 1 is_stmt 0 view .LVU39
 207 0000 08B5     		push	{r3, lr}
 208              		.cfi_def_cfa_offset 8
 209              		.cfi_offset 3, -8
 210              		.cfi_offset 14, -4
 109:USB_Device/Target/usbd_conf.c ****   {
 211              		.loc 1 109 3 is_stmt 1 view .LVU40
 109:USB_Device/Target/usbd_conf.c ****   {
 212              		.loc 1 109 15 is_stmt 0 view .LVU41
 213 0002 0268     		ldr	r2, [r0]
 109:USB_Device/Target/usbd_conf.c ****   {
 214              		.loc 1 109 5 view .LVU42
 215 0004 064B     		ldr	r3, .L22
 216 0006 9A42     		cmp	r2, r3
 217 0008 00D0     		beq	.L21
 218              	.LVL15:
 219              	.L18:
 124:USB_Device/Target/usbd_conf.c **** 
 220              		.loc 1 124 1 view .LVU43
 221 000a 08BD     		pop	{r3, pc}
 222              	.LVL16:
 223              	.L21:
 115:USB_Device/Target/usbd_conf.c **** 
 224              		.loc 1 115 5 is_stmt 1 view .LVU44
 225 000c 054A     		ldr	r2, .L22+4
 226 000e 936D     		ldr	r3, [r2, #88]
 227 0010 23F40003 		bic	r3, r3, #8388608
 228 0014 9365     		str	r3, [r2, #88]
 118:USB_Device/Target/usbd_conf.c **** 
 229              		.loc 1 118 5 view .LVU45
 230 0016 1420     		movs	r0, #20
 231              	.LVL17:
 118:USB_Device/Target/usbd_conf.c **** 
 232              		.loc 1 118 5 is_stmt 0 view .LVU46
 233 0018 FFF7FEFF 		bl	HAL_NVIC_DisableIRQ
 234              	.LVL18:
 124:USB_Device/Target/usbd_conf.c **** 
 235              		.loc 1 124 1 view .LVU47
 236 001c F5E7     		b	.L18
 237              	.L23:
 238 001e 00BF     		.align	2
 239              	.L22:
 240 0020 005C0040 		.word	1073765376
 241 0024 00100240 		.word	1073876992
 242              		.cfi_endproc
 243              	.LFE334:
 245              		.section	.text.HAL_PCD_SetupStageCallback,"ax",%progbits
 246              		.align	1
 247              		.global	HAL_PCD_SetupStageCallback
 248              		.syntax unified
 249              		.thumb
 250              		.thumb_func
 252              	HAL_PCD_SetupStageCallback:
 253              	.LVL19:
 254              	.LFB335:
 136:USB_Device/Target/usbd_conf.c ****   /* USER CODE BEGIN HAL_PCD_SetupStageCallback_PreTreatment */
ARM GAS  /tmp/cc5lIE3f.s 			page 20


 255              		.loc 1 136 1 is_stmt 1 view -0
 256              		.cfi_startproc
 257              		@ args = 0, pretend = 0, frame = 0
 258              		@ frame_needed = 0, uses_anonymous_args = 0
 136:USB_Device/Target/usbd_conf.c ****   /* USER CODE BEGIN HAL_PCD_SetupStageCallback_PreTreatment */
 259              		.loc 1 136 1 is_stmt 0 view .LVU49
 260 0000 08B5     		push	{r3, lr}
 261              		.cfi_def_cfa_offset 8
 262              		.cfi_offset 3, -8
 263              		.cfi_offset 14, -4
 140:USB_Device/Target/usbd_conf.c ****   /* USER CODE BEGIN HAL_PCD_SetupStageCallback_PostTreatment */
 264              		.loc 1 140 3 is_stmt 1 view .LVU50
 265 0002 00F52671 		add	r1, r0, #664
 266 0006 D0F8D802 		ldr	r0, [r0, #728]
 267              	.LVL20:
 140:USB_Device/Target/usbd_conf.c ****   /* USER CODE BEGIN HAL_PCD_SetupStageCallback_PostTreatment */
 268              		.loc 1 140 3 is_stmt 0 view .LVU51
 269 000a FFF7FEFF 		bl	USBD_LL_SetupStage
 270              	.LVL21:
 144:USB_Device/Target/usbd_conf.c **** 
 271              		.loc 1 144 1 view .LVU52
 272 000e 08BD     		pop	{r3, pc}
 273              		.cfi_endproc
 274              	.LFE335:
 276              		.section	.text.HAL_PCD_DataOutStageCallback,"ax",%progbits
 277              		.align	1
 278              		.global	HAL_PCD_DataOutStageCallback
 279              		.syntax unified
 280              		.thumb
 281              		.thumb_func
 283              	HAL_PCD_DataOutStageCallback:
 284              	.LVL22:
 285              	.LFB336:
 157:USB_Device/Target/usbd_conf.c ****   /* USER CODE BEGIN HAL_PCD_DataOutStageCallback_PreTreatment */
 286              		.loc 1 157 1 is_stmt 1 view -0
 287              		.cfi_startproc
 288              		@ args = 0, pretend = 0, frame = 0
 289              		@ frame_needed = 0, uses_anonymous_args = 0
 157:USB_Device/Target/usbd_conf.c ****   /* USER CODE BEGIN HAL_PCD_DataOutStageCallback_PreTreatment */
 290              		.loc 1 157 1 is_stmt 0 view .LVU54
 291 0000 08B5     		push	{r3, lr}
 292              		.cfi_def_cfa_offset 8
 293              		.cfi_offset 3, -8
 294              		.cfi_offset 14, -4
 161:USB_Device/Target/usbd_conf.c ****   /* USER CODE BEGIN HAL_PCD_DataOutStageCallback_PostTreatment */
 295              		.loc 1 161 3 is_stmt 1 view .LVU55
 296 0002 01EB8103 		add	r3, r1, r1, lsl #2
 297 0006 00EBC303 		add	r3, r0, r3, lsl #3
 298 000a D3F86421 		ldr	r2, [r3, #356]
 299 000e D0F8D802 		ldr	r0, [r0, #728]
 300              	.LVL23:
 161:USB_Device/Target/usbd_conf.c ****   /* USER CODE BEGIN HAL_PCD_DataOutStageCallback_PostTreatment */
 301              		.loc 1 161 3 is_stmt 0 view .LVU56
 302 0012 FFF7FEFF 		bl	USBD_LL_DataOutStage
 303              	.LVL24:
 165:USB_Device/Target/usbd_conf.c **** 
 304              		.loc 1 165 1 view .LVU57
ARM GAS  /tmp/cc5lIE3f.s 			page 21


 305 0016 08BD     		pop	{r3, pc}
 306              		.cfi_endproc
 307              	.LFE336:
 309              		.section	.text.HAL_PCD_DataInStageCallback,"ax",%progbits
 310              		.align	1
 311              		.global	HAL_PCD_DataInStageCallback
 312              		.syntax unified
 313              		.thumb
 314              		.thumb_func
 316              	HAL_PCD_DataInStageCallback:
 317              	.LVL25:
 318              	.LFB337:
 178:USB_Device/Target/usbd_conf.c ****   /* USER CODE BEGIN HAL_PCD_DataInStageCallback_PreTreatment */
 319              		.loc 1 178 1 is_stmt 1 view -0
 320              		.cfi_startproc
 321              		@ args = 0, pretend = 0, frame = 0
 322              		@ frame_needed = 0, uses_anonymous_args = 0
 178:USB_Device/Target/usbd_conf.c ****   /* USER CODE BEGIN HAL_PCD_DataInStageCallback_PreTreatment */
 323              		.loc 1 178 1 is_stmt 0 view .LVU59
 324 0000 08B5     		push	{r3, lr}
 325              		.cfi_def_cfa_offset 8
 326              		.cfi_offset 3, -8
 327              		.cfi_offset 14, -4
 182:USB_Device/Target/usbd_conf.c ****   /* USER CODE BEGIN HAL_PCD_DataInStageCallback_PostTreatment  */
 328              		.loc 1 182 3 is_stmt 1 view .LVU60
 329 0002 01EB8103 		add	r3, r1, r1, lsl #2
 330 0006 00EBC303 		add	r3, r0, r3, lsl #3
 331 000a 5A6A     		ldr	r2, [r3, #36]
 332 000c D0F8D802 		ldr	r0, [r0, #728]
 333              	.LVL26:
 182:USB_Device/Target/usbd_conf.c ****   /* USER CODE BEGIN HAL_PCD_DataInStageCallback_PostTreatment  */
 334              		.loc 1 182 3 is_stmt 0 view .LVU61
 335 0010 FFF7FEFF 		bl	USBD_LL_DataInStage
 336              	.LVL27:
 186:USB_Device/Target/usbd_conf.c **** 
 337              		.loc 1 186 1 view .LVU62
 338 0014 08BD     		pop	{r3, pc}
 339              		.cfi_endproc
 340              	.LFE337:
 342              		.section	.text.HAL_PCD_SOFCallback,"ax",%progbits
 343              		.align	1
 344              		.global	HAL_PCD_SOFCallback
 345              		.syntax unified
 346              		.thumb
 347              		.thumb_func
 349              	HAL_PCD_SOFCallback:
 350              	.LVL28:
 351              	.LFB338:
 198:USB_Device/Target/usbd_conf.c ****   /* USER CODE BEGIN HAL_PCD_SOFCallback_PreTreatment */
 352              		.loc 1 198 1 is_stmt 1 view -0
 353              		.cfi_startproc
 354              		@ args = 0, pretend = 0, frame = 0
 355              		@ frame_needed = 0, uses_anonymous_args = 0
 198:USB_Device/Target/usbd_conf.c ****   /* USER CODE BEGIN HAL_PCD_SOFCallback_PreTreatment */
 356              		.loc 1 198 1 is_stmt 0 view .LVU64
 357 0000 08B5     		push	{r3, lr}
 358              		.cfi_def_cfa_offset 8
ARM GAS  /tmp/cc5lIE3f.s 			page 22


 359              		.cfi_offset 3, -8
 360              		.cfi_offset 14, -4
 202:USB_Device/Target/usbd_conf.c ****   /* USER CODE BEGIN HAL_PCD_SOFCallback_PostTreatment */
 361              		.loc 1 202 3 is_stmt 1 view .LVU65
 362 0002 D0F8D802 		ldr	r0, [r0, #728]
 363              	.LVL29:
 202:USB_Device/Target/usbd_conf.c ****   /* USER CODE BEGIN HAL_PCD_SOFCallback_PostTreatment */
 364              		.loc 1 202 3 is_stmt 0 view .LVU66
 365 0006 FFF7FEFF 		bl	USBD_LL_SOF
 366              	.LVL30:
 206:USB_Device/Target/usbd_conf.c **** 
 367              		.loc 1 206 1 view .LVU67
 368 000a 08BD     		pop	{r3, pc}
 369              		.cfi_endproc
 370              	.LFE338:
 372              		.section	.text.HAL_PCD_ResetCallback,"ax",%progbits
 373              		.align	1
 374              		.global	HAL_PCD_ResetCallback
 375              		.syntax unified
 376              		.thumb
 377              		.thumb_func
 379              	HAL_PCD_ResetCallback:
 380              	.LVL31:
 381              	.LFB339:
 218:USB_Device/Target/usbd_conf.c ****   /* USER CODE BEGIN HAL_PCD_ResetCallback_PreTreatment */
 382              		.loc 1 218 1 is_stmt 1 view -0
 383              		.cfi_startproc
 384              		@ args = 0, pretend = 0, frame = 0
 385              		@ frame_needed = 0, uses_anonymous_args = 0
 218:USB_Device/Target/usbd_conf.c ****   /* USER CODE BEGIN HAL_PCD_ResetCallback_PreTreatment */
 386              		.loc 1 218 1 is_stmt 0 view .LVU69
 387 0000 10B5     		push	{r4, lr}
 388              		.cfi_def_cfa_offset 8
 389              		.cfi_offset 4, -8
 390              		.cfi_offset 14, -4
 391 0002 0446     		mov	r4, r0
 222:USB_Device/Target/usbd_conf.c **** 
 392              		.loc 1 222 3 is_stmt 1 view .LVU70
 393              	.LVL32:
 224:USB_Device/Target/usbd_conf.c ****   {
 394              		.loc 1 224 3 view .LVU71
 224:USB_Device/Target/usbd_conf.c ****   {
 395              		.loc 1 224 18 is_stmt 0 view .LVU72
 396 0004 4379     		ldrb	r3, [r0, #5]	@ zero_extendqisi2
 224:USB_Device/Target/usbd_conf.c ****   {
 397              		.loc 1 224 6 view .LVU73
 398 0006 022B     		cmp	r3, #2
 399 0008 09D1     		bne	.L35
 400              	.LVL33:
 401              	.L33:
 229:USB_Device/Target/usbd_conf.c **** 
 402              		.loc 1 229 3 is_stmt 1 view .LVU74
 403 000a 0121     		movs	r1, #1
 404 000c D4F8D802 		ldr	r0, [r4, #728]
 405 0010 FFF7FEFF 		bl	USBD_LL_SetSpeed
 406              	.LVL34:
 232:USB_Device/Target/usbd_conf.c ****   /* USER CODE BEGIN HAL_PCD_ResetCallback_PostTreatment */
ARM GAS  /tmp/cc5lIE3f.s 			page 23


 407              		.loc 1 232 3 view .LVU75
 408 0014 D4F8D802 		ldr	r0, [r4, #728]
 409 0018 FFF7FEFF 		bl	USBD_LL_Reset
 410              	.LVL35:
 236:USB_Device/Target/usbd_conf.c **** 
 411              		.loc 1 236 1 is_stmt 0 view .LVU76
 412 001c 10BD     		pop	{r4, pc}
 413              	.LVL36:
 414              	.L35:
 226:USB_Device/Target/usbd_conf.c ****   }
 415              		.loc 1 226 5 is_stmt 1 view .LVU77
 416 001e FFF7FEFF 		bl	Error_Handler
 417              	.LVL37:
 226:USB_Device/Target/usbd_conf.c ****   }
 418              		.loc 1 226 5 is_stmt 0 view .LVU78
 419 0022 F2E7     		b	.L33
 420              		.cfi_endproc
 421              	.LFE339:
 423              		.section	.text.HAL_PCD_SuspendCallback,"ax",%progbits
 424              		.align	1
 425              		.global	HAL_PCD_SuspendCallback
 426              		.syntax unified
 427              		.thumb
 428              		.thumb_func
 430              	HAL_PCD_SuspendCallback:
 431              	.LVL38:
 432              	.LFB340:
 249:USB_Device/Target/usbd_conf.c ****   /* USER CODE BEGIN HAL_PCD_SuspendCallback_PreTreatment */
 433              		.loc 1 249 1 is_stmt 1 view -0
 434              		.cfi_startproc
 435              		@ args = 0, pretend = 0, frame = 0
 436              		@ frame_needed = 0, uses_anonymous_args = 0
 249:USB_Device/Target/usbd_conf.c ****   /* USER CODE BEGIN HAL_PCD_SuspendCallback_PreTreatment */
 437              		.loc 1 249 1 is_stmt 0 view .LVU80
 438 0000 10B5     		push	{r4, lr}
 439              		.cfi_def_cfa_offset 8
 440              		.cfi_offset 4, -8
 441              		.cfi_offset 14, -4
 442 0002 0446     		mov	r4, r0
 254:USB_Device/Target/usbd_conf.c ****   /* Enter in STOP mode. */
 443              		.loc 1 254 3 is_stmt 1 view .LVU81
 444 0004 D0F8D802 		ldr	r0, [r0, #728]
 445              	.LVL39:
 254:USB_Device/Target/usbd_conf.c ****   /* Enter in STOP mode. */
 446              		.loc 1 254 3 is_stmt 0 view .LVU82
 447 0008 FFF7FEFF 		bl	USBD_LL_Suspend
 448              	.LVL40:
 257:USB_Device/Target/usbd_conf.c ****   {
 449              		.loc 1 257 3 is_stmt 1 view .LVU83
 257:USB_Device/Target/usbd_conf.c ****   {
 450              		.loc 1 257 17 is_stmt 0 view .LVU84
 451 000c 637A     		ldrb	r3, [r4, #9]	@ zero_extendqisi2
 257:USB_Device/Target/usbd_conf.c ****   {
 452              		.loc 1 257 6 view .LVU85
 453 000e 23B1     		cbz	r3, .L36
 260:USB_Device/Target/usbd_conf.c ****   }
 454              		.loc 1 260 5 is_stmt 1 view .LVU86
ARM GAS  /tmp/cc5lIE3f.s 			page 24


 260:USB_Device/Target/usbd_conf.c ****   }
 455              		.loc 1 260 8 is_stmt 0 view .LVU87
 456 0010 024A     		ldr	r2, .L39
 457 0012 1369     		ldr	r3, [r2, #16]
 260:USB_Device/Target/usbd_conf.c ****   }
 458              		.loc 1 260 14 view .LVU88
 459 0014 43F00603 		orr	r3, r3, #6
 460 0018 1361     		str	r3, [r2, #16]
 461              	.L36:
 266:USB_Device/Target/usbd_conf.c **** 
 462              		.loc 1 266 1 view .LVU89
 463 001a 10BD     		pop	{r4, pc}
 464              	.LVL41:
 465              	.L40:
 266:USB_Device/Target/usbd_conf.c **** 
 466              		.loc 1 266 1 view .LVU90
 467              		.align	2
 468              	.L39:
 469 001c 00ED00E0 		.word	-536810240
 470              		.cfi_endproc
 471              	.LFE340:
 473              		.section	.text.HAL_PCD_ResumeCallback,"ax",%progbits
 474              		.align	1
 475              		.global	HAL_PCD_ResumeCallback
 476              		.syntax unified
 477              		.thumb
 478              		.thumb_func
 480              	HAL_PCD_ResumeCallback:
 481              	.LVL42:
 482              	.LFB341:
 279:USB_Device/Target/usbd_conf.c ****   /* USER CODE BEGIN HAL_PCD_ResumeCallback_PreTreatment */
 483              		.loc 1 279 1 is_stmt 1 view -0
 484              		.cfi_startproc
 485              		@ args = 0, pretend = 0, frame = 0
 486              		@ frame_needed = 0, uses_anonymous_args = 0
 279:USB_Device/Target/usbd_conf.c ****   /* USER CODE BEGIN HAL_PCD_ResumeCallback_PreTreatment */
 487              		.loc 1 279 1 is_stmt 0 view .LVU92
 488 0000 10B5     		push	{r4, lr}
 489              		.cfi_def_cfa_offset 8
 490              		.cfi_offset 4, -8
 491              		.cfi_offset 14, -4
 492 0002 0446     		mov	r4, r0
 285:USB_Device/Target/usbd_conf.c ****   {
 493              		.loc 1 285 3 is_stmt 1 view .LVU93
 285:USB_Device/Target/usbd_conf.c ****   {
 494              		.loc 1 285 17 is_stmt 0 view .LVU94
 495 0004 437A     		ldrb	r3, [r0, #9]	@ zero_extendqisi2
 285:USB_Device/Target/usbd_conf.c ****   {
 496              		.loc 1 285 6 view .LVU95
 497 0006 23B9     		cbnz	r3, .L44
 498              	.LVL43:
 499              	.L42:
 293:USB_Device/Target/usbd_conf.c ****   /* USER CODE BEGIN HAL_PCD_ResumeCallback_PostTreatment */
 500              		.loc 1 293 3 is_stmt 1 view .LVU96
 501 0008 D4F8D802 		ldr	r0, [r4, #728]
 502 000c FFF7FEFF 		bl	USBD_LL_Resume
 503              	.LVL44:
ARM GAS  /tmp/cc5lIE3f.s 			page 25


 297:USB_Device/Target/usbd_conf.c **** 
 504              		.loc 1 297 1 is_stmt 0 view .LVU97
 505 0010 10BD     		pop	{r4, pc}
 506              	.LVL45:
 507              	.L44:
 288:USB_Device/Target/usbd_conf.c ****     SystemClockConfig_Resume();
 508              		.loc 1 288 5 is_stmt 1 view .LVU98
 288:USB_Device/Target/usbd_conf.c ****     SystemClockConfig_Resume();
 509              		.loc 1 288 8 is_stmt 0 view .LVU99
 510 0012 044A     		ldr	r2, .L45
 511 0014 1369     		ldr	r3, [r2, #16]
 288:USB_Device/Target/usbd_conf.c ****     SystemClockConfig_Resume();
 512              		.loc 1 288 14 view .LVU100
 513 0016 23F00603 		bic	r3, r3, #6
 514 001a 1361     		str	r3, [r2, #16]
 289:USB_Device/Target/usbd_conf.c ****   }
 515              		.loc 1 289 5 is_stmt 1 view .LVU101
 516 001c FFF7FEFF 		bl	SystemClockConfig_Resume
 517              	.LVL46:
 289:USB_Device/Target/usbd_conf.c ****   }
 518              		.loc 1 289 5 is_stmt 0 view .LVU102
 519 0020 F2E7     		b	.L42
 520              	.L46:
 521 0022 00BF     		.align	2
 522              	.L45:
 523 0024 00ED00E0 		.word	-536810240
 524              		.cfi_endproc
 525              	.LFE341:
 527              		.section	.text.HAL_PCD_ISOOUTIncompleteCallback,"ax",%progbits
 528              		.align	1
 529              		.global	HAL_PCD_ISOOUTIncompleteCallback
 530              		.syntax unified
 531              		.thumb
 532              		.thumb_func
 534              	HAL_PCD_ISOOUTIncompleteCallback:
 535              	.LVL47:
 536              	.LFB342:
 310:USB_Device/Target/usbd_conf.c ****   /* USER CODE BEGIN HAL_PCD_ISOOUTIncompleteCallback_PreTreatment */
 537              		.loc 1 310 1 is_stmt 1 view -0
 538              		.cfi_startproc
 539              		@ args = 0, pretend = 0, frame = 0
 540              		@ frame_needed = 0, uses_anonymous_args = 0
 310:USB_Device/Target/usbd_conf.c ****   /* USER CODE BEGIN HAL_PCD_ISOOUTIncompleteCallback_PreTreatment */
 541              		.loc 1 310 1 is_stmt 0 view .LVU104
 542 0000 08B5     		push	{r3, lr}
 543              		.cfi_def_cfa_offset 8
 544              		.cfi_offset 3, -8
 545              		.cfi_offset 14, -4
 314:USB_Device/Target/usbd_conf.c ****   /* USER CODE BEGIN HAL_PCD_ISOOUTIncompleteCallback_PostTreatment */
 546              		.loc 1 314 3 is_stmt 1 view .LVU105
 547 0002 D0F8D802 		ldr	r0, [r0, #728]
 548              	.LVL48:
 314:USB_Device/Target/usbd_conf.c ****   /* USER CODE BEGIN HAL_PCD_ISOOUTIncompleteCallback_PostTreatment */
 549              		.loc 1 314 3 is_stmt 0 view .LVU106
 550 0006 FFF7FEFF 		bl	USBD_LL_IsoOUTIncomplete
 551              	.LVL49:
 318:USB_Device/Target/usbd_conf.c **** 
ARM GAS  /tmp/cc5lIE3f.s 			page 26


 552              		.loc 1 318 1 view .LVU107
 553 000a 08BD     		pop	{r3, pc}
 554              		.cfi_endproc
 555              	.LFE342:
 557              		.section	.text.HAL_PCD_ISOINIncompleteCallback,"ax",%progbits
 558              		.align	1
 559              		.global	HAL_PCD_ISOINIncompleteCallback
 560              		.syntax unified
 561              		.thumb
 562              		.thumb_func
 564              	HAL_PCD_ISOINIncompleteCallback:
 565              	.LVL50:
 566              	.LFB343:
 331:USB_Device/Target/usbd_conf.c ****   /* USER CODE BEGIN HAL_PCD_ISOINIncompleteCallback_PreTreatment */
 567              		.loc 1 331 1 is_stmt 1 view -0
 568              		.cfi_startproc
 569              		@ args = 0, pretend = 0, frame = 0
 570              		@ frame_needed = 0, uses_anonymous_args = 0
 331:USB_Device/Target/usbd_conf.c ****   /* USER CODE BEGIN HAL_PCD_ISOINIncompleteCallback_PreTreatment */
 571              		.loc 1 331 1 is_stmt 0 view .LVU109
 572 0000 08B5     		push	{r3, lr}
 573              		.cfi_def_cfa_offset 8
 574              		.cfi_offset 3, -8
 575              		.cfi_offset 14, -4
 335:USB_Device/Target/usbd_conf.c ****   /* USER CODE BEGIN HAL_PCD_ISOINIncompleteCallback_PostTreatment */
 576              		.loc 1 335 3 is_stmt 1 view .LVU110
 577 0002 D0F8D802 		ldr	r0, [r0, #728]
 578              	.LVL51:
 335:USB_Device/Target/usbd_conf.c ****   /* USER CODE BEGIN HAL_PCD_ISOINIncompleteCallback_PostTreatment */
 579              		.loc 1 335 3 is_stmt 0 view .LVU111
 580 0006 FFF7FEFF 		bl	USBD_LL_IsoINIncomplete
 581              	.LVL52:
 339:USB_Device/Target/usbd_conf.c **** 
 582              		.loc 1 339 1 view .LVU112
 583 000a 08BD     		pop	{r3, pc}
 584              		.cfi_endproc
 585              	.LFE343:
 587              		.section	.text.HAL_PCD_ConnectCallback,"ax",%progbits
 588              		.align	1
 589              		.global	HAL_PCD_ConnectCallback
 590              		.syntax unified
 591              		.thumb
 592              		.thumb_func
 594              	HAL_PCD_ConnectCallback:
 595              	.LVL53:
 596              	.LFB344:
 351:USB_Device/Target/usbd_conf.c ****   /* USER CODE BEGIN HAL_PCD_ConnectCallback_PreTreatment */
 597              		.loc 1 351 1 is_stmt 1 view -0
 598              		.cfi_startproc
 599              		@ args = 0, pretend = 0, frame = 0
 600              		@ frame_needed = 0, uses_anonymous_args = 0
 351:USB_Device/Target/usbd_conf.c ****   /* USER CODE BEGIN HAL_PCD_ConnectCallback_PreTreatment */
 601              		.loc 1 351 1 is_stmt 0 view .LVU114
 602 0000 08B5     		push	{r3, lr}
 603              		.cfi_def_cfa_offset 8
 604              		.cfi_offset 3, -8
 605              		.cfi_offset 14, -4
ARM GAS  /tmp/cc5lIE3f.s 			page 27


 355:USB_Device/Target/usbd_conf.c ****   /* USER CODE BEGIN HAL_PCD_ConnectCallback_PostTreatment */
 606              		.loc 1 355 3 is_stmt 1 view .LVU115
 607 0002 D0F8D802 		ldr	r0, [r0, #728]
 608              	.LVL54:
 355:USB_Device/Target/usbd_conf.c ****   /* USER CODE BEGIN HAL_PCD_ConnectCallback_PostTreatment */
 609              		.loc 1 355 3 is_stmt 0 view .LVU116
 610 0006 FFF7FEFF 		bl	USBD_LL_DevConnected
 611              	.LVL55:
 359:USB_Device/Target/usbd_conf.c **** 
 612              		.loc 1 359 1 view .LVU117
 613 000a 08BD     		pop	{r3, pc}
 614              		.cfi_endproc
 615              	.LFE344:
 617              		.section	.text.HAL_PCD_DisconnectCallback,"ax",%progbits
 618              		.align	1
 619              		.global	HAL_PCD_DisconnectCallback
 620              		.syntax unified
 621              		.thumb
 622              		.thumb_func
 624              	HAL_PCD_DisconnectCallback:
 625              	.LVL56:
 626              	.LFB345:
 371:USB_Device/Target/usbd_conf.c ****   /* USER CODE BEGIN HAL_PCD_DisconnectCallback_PreTreatment */
 627              		.loc 1 371 1 is_stmt 1 view -0
 628              		.cfi_startproc
 629              		@ args = 0, pretend = 0, frame = 0
 630              		@ frame_needed = 0, uses_anonymous_args = 0
 371:USB_Device/Target/usbd_conf.c ****   /* USER CODE BEGIN HAL_PCD_DisconnectCallback_PreTreatment */
 631              		.loc 1 371 1 is_stmt 0 view .LVU119
 632 0000 08B5     		push	{r3, lr}
 633              		.cfi_def_cfa_offset 8
 634              		.cfi_offset 3, -8
 635              		.cfi_offset 14, -4
 375:USB_Device/Target/usbd_conf.c ****   /* USER CODE BEGIN HAL_PCD_DisconnectCallback_PostTreatment */
 636              		.loc 1 375 3 is_stmt 1 view .LVU120
 637 0002 D0F8D802 		ldr	r0, [r0, #728]
 638              	.LVL57:
 375:USB_Device/Target/usbd_conf.c ****   /* USER CODE BEGIN HAL_PCD_DisconnectCallback_PostTreatment */
 639              		.loc 1 375 3 is_stmt 0 view .LVU121
 640 0006 FFF7FEFF 		bl	USBD_LL_DevDisconnected
 641              	.LVL58:
 379:USB_Device/Target/usbd_conf.c **** 
 642              		.loc 1 379 1 view .LVU122
 643 000a 08BD     		pop	{r3, pc}
 644              		.cfi_endproc
 645              	.LFE345:
 647              		.section	.text.USBD_LL_Init,"ax",%progbits
 648              		.align	1
 649              		.global	USBD_LL_Init
 650              		.syntax unified
 651              		.thumb
 652              		.thumb_func
 654              	USBD_LL_Init:
 655              	.LVL59:
 656              	.LFB346:
 395:USB_Device/Target/usbd_conf.c ****   /* Init USB Ip. */
 657              		.loc 1 395 1 is_stmt 1 view -0
ARM GAS  /tmp/cc5lIE3f.s 			page 28


 658              		.cfi_startproc
 659              		@ args = 0, pretend = 0, frame = 0
 660              		@ frame_needed = 0, uses_anonymous_args = 0
 395:USB_Device/Target/usbd_conf.c ****   /* Init USB Ip. */
 661              		.loc 1 395 1 is_stmt 0 view .LVU124
 662 0000 10B5     		push	{r4, lr}
 663              		.cfi_def_cfa_offset 8
 664              		.cfi_offset 4, -8
 665              		.cfi_offset 14, -4
 666 0002 0446     		mov	r4, r0
 397:USB_Device/Target/usbd_conf.c ****   /* Link the driver to the stack. */
 667              		.loc 1 397 3 is_stmt 1 view .LVU125
 397:USB_Device/Target/usbd_conf.c ****   /* Link the driver to the stack. */
 668              		.loc 1 397 21 is_stmt 0 view .LVU126
 669 0004 1E48     		ldr	r0, .L59
 670              	.LVL60:
 397:USB_Device/Target/usbd_conf.c ****   /* Link the driver to the stack. */
 671              		.loc 1 397 21 view .LVU127
 672 0006 C0F8D842 		str	r4, [r0, #728]
 399:USB_Device/Target/usbd_conf.c **** 
 673              		.loc 1 399 3 is_stmt 1 view .LVU128
 399:USB_Device/Target/usbd_conf.c **** 
 674              		.loc 1 399 15 is_stmt 0 view .LVU129
 675 000a C4F8C402 		str	r0, [r4, #708]
 401:USB_Device/Target/usbd_conf.c ****   hpcd_USB_FS.Init.dev_endpoints = 8;
 676              		.loc 1 401 3 is_stmt 1 view .LVU130
 401:USB_Device/Target/usbd_conf.c ****   hpcd_USB_FS.Init.dev_endpoints = 8;
 677              		.loc 1 401 24 is_stmt 0 view .LVU131
 678 000e 1D4B     		ldr	r3, .L59+4
 679 0010 0360     		str	r3, [r0]
 402:USB_Device/Target/usbd_conf.c ****   hpcd_USB_FS.Init.speed = PCD_SPEED_FULL;
 680              		.loc 1 402 3 is_stmt 1 view .LVU132
 402:USB_Device/Target/usbd_conf.c ****   hpcd_USB_FS.Init.speed = PCD_SPEED_FULL;
 681              		.loc 1 402 34 is_stmt 0 view .LVU133
 682 0012 0823     		movs	r3, #8
 683 0014 0371     		strb	r3, [r0, #4]
 403:USB_Device/Target/usbd_conf.c ****   hpcd_USB_FS.Init.phy_itface = PCD_PHY_EMBEDDED;
 684              		.loc 1 403 3 is_stmt 1 view .LVU134
 403:USB_Device/Target/usbd_conf.c ****   hpcd_USB_FS.Init.phy_itface = PCD_PHY_EMBEDDED;
 685              		.loc 1 403 26 is_stmt 0 view .LVU135
 686 0016 0223     		movs	r3, #2
 687 0018 4371     		strb	r3, [r0, #5]
 404:USB_Device/Target/usbd_conf.c ****   hpcd_USB_FS.Init.Sof_enable = DISABLE;
 688              		.loc 1 404 3 is_stmt 1 view .LVU136
 404:USB_Device/Target/usbd_conf.c ****   hpcd_USB_FS.Init.Sof_enable = DISABLE;
 689              		.loc 1 404 31 is_stmt 0 view .LVU137
 690 001a C371     		strb	r3, [r0, #7]
 405:USB_Device/Target/usbd_conf.c ****   hpcd_USB_FS.Init.low_power_enable = DISABLE;
 691              		.loc 1 405 3 is_stmt 1 view .LVU138
 405:USB_Device/Target/usbd_conf.c ****   hpcd_USB_FS.Init.low_power_enable = DISABLE;
 692              		.loc 1 405 31 is_stmt 0 view .LVU139
 693 001c 0023     		movs	r3, #0
 694 001e 0372     		strb	r3, [r0, #8]
 406:USB_Device/Target/usbd_conf.c ****   hpcd_USB_FS.Init.lpm_enable = DISABLE;
 695              		.loc 1 406 3 is_stmt 1 view .LVU140
 406:USB_Device/Target/usbd_conf.c ****   hpcd_USB_FS.Init.lpm_enable = DISABLE;
 696              		.loc 1 406 37 is_stmt 0 view .LVU141
ARM GAS  /tmp/cc5lIE3f.s 			page 29


 697 0020 4372     		strb	r3, [r0, #9]
 407:USB_Device/Target/usbd_conf.c ****   hpcd_USB_FS.Init.battery_charging_enable = DISABLE;
 698              		.loc 1 407 3 is_stmt 1 view .LVU142
 407:USB_Device/Target/usbd_conf.c ****   hpcd_USB_FS.Init.battery_charging_enable = DISABLE;
 699              		.loc 1 407 31 is_stmt 0 view .LVU143
 700 0022 8372     		strb	r3, [r0, #10]
 408:USB_Device/Target/usbd_conf.c **** 
 701              		.loc 1 408 3 is_stmt 1 view .LVU144
 408:USB_Device/Target/usbd_conf.c **** 
 702              		.loc 1 408 44 is_stmt 0 view .LVU145
 703 0024 C372     		strb	r3, [r0, #11]
 416:USB_Device/Target/usbd_conf.c ****   {
 704              		.loc 1 416 3 is_stmt 1 view .LVU146
 416:USB_Device/Target/usbd_conf.c ****   {
 705              		.loc 1 416 7 is_stmt 0 view .LVU147
 706 0026 FFF7FEFF 		bl	HAL_PCD_Init
 707              	.LVL61:
 416:USB_Device/Target/usbd_conf.c ****   {
 708              		.loc 1 416 6 discriminator 1 view .LVU148
 709 002a 30BB     		cbnz	r0, .L58
 710              	.L56:
 443:USB_Device/Target/usbd_conf.c ****   HAL_PCDEx_PMAConfig((PCD_HandleTypeDef*)pdev->pData , 0x80 , PCD_SNG_BUF, 0x58);
 711              		.loc 1 443 3 is_stmt 1 view .LVU149
 712 002c 1823     		movs	r3, #24
 713 002e 0022     		movs	r2, #0
 714 0030 1146     		mov	r1, r2
 715 0032 D4F8C402 		ldr	r0, [r4, #708]
 716 0036 FFF7FEFF 		bl	HAL_PCDEx_PMAConfig
 717              	.LVL62:
 444:USB_Device/Target/usbd_conf.c ****   /* USER CODE END EndPoint_Configuration */
 718              		.loc 1 444 3 view .LVU150
 719 003a 5823     		movs	r3, #88
 720 003c 0022     		movs	r2, #0
 721 003e 8021     		movs	r1, #128
 722 0040 D4F8C402 		ldr	r0, [r4, #708]
 723 0044 FFF7FEFF 		bl	HAL_PCDEx_PMAConfig
 724              	.LVL63:
 447:USB_Device/Target/usbd_conf.c ****   HAL_PCDEx_PMAConfig((PCD_HandleTypeDef*)pdev->pData , 0x01 , PCD_SNG_BUF, 0x110);
 725              		.loc 1 447 3 view .LVU151
 726 0048 C023     		movs	r3, #192
 727 004a 0022     		movs	r2, #0
 728 004c 8121     		movs	r1, #129
 729 004e D4F8C402 		ldr	r0, [r4, #708]
 730 0052 FFF7FEFF 		bl	HAL_PCDEx_PMAConfig
 731              	.LVL64:
 448:USB_Device/Target/usbd_conf.c ****   HAL_PCDEx_PMAConfig((PCD_HandleTypeDef*)pdev->pData , 0x82 , PCD_SNG_BUF, 0x100);
 732              		.loc 1 448 3 view .LVU152
 733 0056 4FF48873 		mov	r3, #272
 734 005a 0022     		movs	r2, #0
 735 005c 0121     		movs	r1, #1
 736 005e D4F8C402 		ldr	r0, [r4, #708]
 737 0062 FFF7FEFF 		bl	HAL_PCDEx_PMAConfig
 738              	.LVL65:
 449:USB_Device/Target/usbd_conf.c ****   /* USER CODE END EndPoint_Configuration_CDC */
 739              		.loc 1 449 3 view .LVU153
 740 0066 4FF48073 		mov	r3, #256
 741 006a 0022     		movs	r2, #0
ARM GAS  /tmp/cc5lIE3f.s 			page 30


 742 006c 8221     		movs	r1, #130
 743 006e D4F8C402 		ldr	r0, [r4, #708]
 744 0072 FFF7FEFF 		bl	HAL_PCDEx_PMAConfig
 745              	.LVL66:
 451:USB_Device/Target/usbd_conf.c **** }
 746              		.loc 1 451 3 view .LVU154
 452:USB_Device/Target/usbd_conf.c **** 
 747              		.loc 1 452 1 is_stmt 0 view .LVU155
 748 0076 0020     		movs	r0, #0
 749 0078 10BD     		pop	{r4, pc}
 750              	.LVL67:
 751              	.L58:
 418:USB_Device/Target/usbd_conf.c ****   }
 752              		.loc 1 418 5 is_stmt 1 view .LVU156
 753 007a FFF7FEFF 		bl	Error_Handler
 754              	.LVL68:
 755 007e D5E7     		b	.L56
 756              	.L60:
 757              		.align	2
 758              	.L59:
 759 0080 00000000 		.word	hpcd_USB_FS
 760 0084 005C0040 		.word	1073765376
 761              		.cfi_endproc
 762              	.LFE346:
 764              		.section	.text.USBD_LL_DeInit,"ax",%progbits
 765              		.align	1
 766              		.global	USBD_LL_DeInit
 767              		.syntax unified
 768              		.thumb
 769              		.thumb_func
 771              	USBD_LL_DeInit:
 772              	.LVL69:
 773              	.LFB347:
 460:USB_Device/Target/usbd_conf.c ****   HAL_StatusTypeDef hal_status = HAL_OK;
 774              		.loc 1 460 1 view -0
 775              		.cfi_startproc
 776              		@ args = 0, pretend = 0, frame = 0
 777              		@ frame_needed = 0, uses_anonymous_args = 0
 460:USB_Device/Target/usbd_conf.c ****   HAL_StatusTypeDef hal_status = HAL_OK;
 778              		.loc 1 460 1 is_stmt 0 view .LVU158
 779 0000 08B5     		push	{r3, lr}
 780              		.cfi_def_cfa_offset 8
 781              		.cfi_offset 3, -8
 782              		.cfi_offset 14, -4
 461:USB_Device/Target/usbd_conf.c ****   USBD_StatusTypeDef usb_status = USBD_OK;
 783              		.loc 1 461 3 is_stmt 1 view .LVU159
 784              	.LVL70:
 462:USB_Device/Target/usbd_conf.c **** 
 785              		.loc 1 462 3 view .LVU160
 464:USB_Device/Target/usbd_conf.c **** 
 786              		.loc 1 464 3 view .LVU161
 464:USB_Device/Target/usbd_conf.c **** 
 787              		.loc 1 464 16 is_stmt 0 view .LVU162
 788 0002 D0F8C402 		ldr	r0, [r0, #708]
 789              	.LVL71:
 464:USB_Device/Target/usbd_conf.c **** 
 790              		.loc 1 464 16 view .LVU163
ARM GAS  /tmp/cc5lIE3f.s 			page 31


 791 0006 FFF7FEFF 		bl	HAL_PCD_DeInit
 792              	.LVL72:
 466:USB_Device/Target/usbd_conf.c **** 
 793              		.loc 1 466 3 is_stmt 1 view .LVU164
 466:USB_Device/Target/usbd_conf.c **** 
 794              		.loc 1 466 17 is_stmt 0 view .LVU165
 795 000a FFF7FEFF 		bl	USBD_Get_USB_Status
 796              	.LVL73:
 468:USB_Device/Target/usbd_conf.c **** }
 797              		.loc 1 468 3 is_stmt 1 view .LVU166
 469:USB_Device/Target/usbd_conf.c **** 
 798              		.loc 1 469 1 is_stmt 0 view .LVU167
 799 000e 08BD     		pop	{r3, pc}
 800              		.cfi_endproc
 801              	.LFE347:
 803              		.section	.text.USBD_LL_Start,"ax",%progbits
 804              		.align	1
 805              		.global	USBD_LL_Start
 806              		.syntax unified
 807              		.thumb
 808              		.thumb_func
 810              	USBD_LL_Start:
 811              	.LVL74:
 812              	.LFB348:
 477:USB_Device/Target/usbd_conf.c ****   HAL_StatusTypeDef hal_status = HAL_OK;
 813              		.loc 1 477 1 is_stmt 1 view -0
 814              		.cfi_startproc
 815              		@ args = 0, pretend = 0, frame = 0
 816              		@ frame_needed = 0, uses_anonymous_args = 0
 477:USB_Device/Target/usbd_conf.c ****   HAL_StatusTypeDef hal_status = HAL_OK;
 817              		.loc 1 477 1 is_stmt 0 view .LVU169
 818 0000 08B5     		push	{r3, lr}
 819              		.cfi_def_cfa_offset 8
 820              		.cfi_offset 3, -8
 821              		.cfi_offset 14, -4
 478:USB_Device/Target/usbd_conf.c ****   USBD_StatusTypeDef usb_status = USBD_OK;
 822              		.loc 1 478 3 is_stmt 1 view .LVU170
 823              	.LVL75:
 479:USB_Device/Target/usbd_conf.c **** 
 824              		.loc 1 479 3 view .LVU171
 481:USB_Device/Target/usbd_conf.c **** 
 825              		.loc 1 481 3 view .LVU172
 481:USB_Device/Target/usbd_conf.c **** 
 826              		.loc 1 481 16 is_stmt 0 view .LVU173
 827 0002 D0F8C402 		ldr	r0, [r0, #708]
 828              	.LVL76:
 481:USB_Device/Target/usbd_conf.c **** 
 829              		.loc 1 481 16 view .LVU174
 830 0006 FFF7FEFF 		bl	HAL_PCD_Start
 831              	.LVL77:
 483:USB_Device/Target/usbd_conf.c **** 
 832              		.loc 1 483 3 is_stmt 1 view .LVU175
 483:USB_Device/Target/usbd_conf.c **** 
 833              		.loc 1 483 17 is_stmt 0 view .LVU176
 834 000a FFF7FEFF 		bl	USBD_Get_USB_Status
 835              	.LVL78:
 485:USB_Device/Target/usbd_conf.c **** }
ARM GAS  /tmp/cc5lIE3f.s 			page 32


 836              		.loc 1 485 3 is_stmt 1 view .LVU177
 486:USB_Device/Target/usbd_conf.c **** 
 837              		.loc 1 486 1 is_stmt 0 view .LVU178
 838 000e 08BD     		pop	{r3, pc}
 839              		.cfi_endproc
 840              	.LFE348:
 842              		.section	.text.USBD_LL_Stop,"ax",%progbits
 843              		.align	1
 844              		.global	USBD_LL_Stop
 845              		.syntax unified
 846              		.thumb
 847              		.thumb_func
 849              	USBD_LL_Stop:
 850              	.LVL79:
 851              	.LFB349:
 494:USB_Device/Target/usbd_conf.c ****   HAL_StatusTypeDef hal_status = HAL_OK;
 852              		.loc 1 494 1 is_stmt 1 view -0
 853              		.cfi_startproc
 854              		@ args = 0, pretend = 0, frame = 0
 855              		@ frame_needed = 0, uses_anonymous_args = 0
 494:USB_Device/Target/usbd_conf.c ****   HAL_StatusTypeDef hal_status = HAL_OK;
 856              		.loc 1 494 1 is_stmt 0 view .LVU180
 857 0000 08B5     		push	{r3, lr}
 858              		.cfi_def_cfa_offset 8
 859              		.cfi_offset 3, -8
 860              		.cfi_offset 14, -4
 495:USB_Device/Target/usbd_conf.c ****   USBD_StatusTypeDef usb_status = USBD_OK;
 861              		.loc 1 495 3 is_stmt 1 view .LVU181
 862              	.LVL80:
 496:USB_Device/Target/usbd_conf.c **** 
 863              		.loc 1 496 3 view .LVU182
 498:USB_Device/Target/usbd_conf.c **** 
 864              		.loc 1 498 3 view .LVU183
 498:USB_Device/Target/usbd_conf.c **** 
 865              		.loc 1 498 16 is_stmt 0 view .LVU184
 866 0002 D0F8C402 		ldr	r0, [r0, #708]
 867              	.LVL81:
 498:USB_Device/Target/usbd_conf.c **** 
 868              		.loc 1 498 16 view .LVU185
 869 0006 FFF7FEFF 		bl	HAL_PCD_Stop
 870              	.LVL82:
 500:USB_Device/Target/usbd_conf.c **** 
 871              		.loc 1 500 3 is_stmt 1 view .LVU186
 500:USB_Device/Target/usbd_conf.c **** 
 872              		.loc 1 500 17 is_stmt 0 view .LVU187
 873 000a FFF7FEFF 		bl	USBD_Get_USB_Status
 874              	.LVL83:
 502:USB_Device/Target/usbd_conf.c **** }
 875              		.loc 1 502 3 is_stmt 1 view .LVU188
 503:USB_Device/Target/usbd_conf.c **** 
 876              		.loc 1 503 1 is_stmt 0 view .LVU189
 877 000e 08BD     		pop	{r3, pc}
 878              		.cfi_endproc
 879              	.LFE349:
 881              		.section	.text.USBD_LL_OpenEP,"ax",%progbits
 882              		.align	1
 883              		.global	USBD_LL_OpenEP
ARM GAS  /tmp/cc5lIE3f.s 			page 33


 884              		.syntax unified
 885              		.thumb
 886              		.thumb_func
 888              	USBD_LL_OpenEP:
 889              	.LVL84:
 890              	.LFB350:
 514:USB_Device/Target/usbd_conf.c ****   HAL_StatusTypeDef hal_status = HAL_OK;
 891              		.loc 1 514 1 is_stmt 1 view -0
 892              		.cfi_startproc
 893              		@ args = 0, pretend = 0, frame = 0
 894              		@ frame_needed = 0, uses_anonymous_args = 0
 514:USB_Device/Target/usbd_conf.c ****   HAL_StatusTypeDef hal_status = HAL_OK;
 895              		.loc 1 514 1 is_stmt 0 view .LVU191
 896 0000 08B5     		push	{r3, lr}
 897              		.cfi_def_cfa_offset 8
 898              		.cfi_offset 3, -8
 899              		.cfi_offset 14, -4
 900 0002 9446     		mov	ip, r2
 901 0004 1A46     		mov	r2, r3
 902              	.LVL85:
 515:USB_Device/Target/usbd_conf.c ****   USBD_StatusTypeDef usb_status = USBD_OK;
 903              		.loc 1 515 3 is_stmt 1 view .LVU192
 516:USB_Device/Target/usbd_conf.c **** 
 904              		.loc 1 516 3 view .LVU193
 518:USB_Device/Target/usbd_conf.c **** 
 905              		.loc 1 518 3 view .LVU194
 518:USB_Device/Target/usbd_conf.c **** 
 906              		.loc 1 518 16 is_stmt 0 view .LVU195
 907 0006 6346     		mov	r3, ip
 908              	.LVL86:
 518:USB_Device/Target/usbd_conf.c **** 
 909              		.loc 1 518 16 view .LVU196
 910 0008 D0F8C402 		ldr	r0, [r0, #708]
 911              	.LVL87:
 518:USB_Device/Target/usbd_conf.c **** 
 912              		.loc 1 518 16 view .LVU197
 913 000c FFF7FEFF 		bl	HAL_PCD_EP_Open
 914              	.LVL88:
 520:USB_Device/Target/usbd_conf.c **** 
 915              		.loc 1 520 3 is_stmt 1 view .LVU198
 520:USB_Device/Target/usbd_conf.c **** 
 916              		.loc 1 520 17 is_stmt 0 view .LVU199
 917 0010 FFF7FEFF 		bl	USBD_Get_USB_Status
 918              	.LVL89:
 522:USB_Device/Target/usbd_conf.c **** }
 919              		.loc 1 522 3 is_stmt 1 view .LVU200
 523:USB_Device/Target/usbd_conf.c **** 
 920              		.loc 1 523 1 is_stmt 0 view .LVU201
 921 0014 08BD     		pop	{r3, pc}
 922              		.cfi_endproc
 923              	.LFE350:
 925              		.section	.text.USBD_LL_CloseEP,"ax",%progbits
 926              		.align	1
 927              		.global	USBD_LL_CloseEP
 928              		.syntax unified
 929              		.thumb
 930              		.thumb_func
ARM GAS  /tmp/cc5lIE3f.s 			page 34


 932              	USBD_LL_CloseEP:
 933              	.LVL90:
 934              	.LFB351:
 532:USB_Device/Target/usbd_conf.c ****   HAL_StatusTypeDef hal_status = HAL_OK;
 935              		.loc 1 532 1 is_stmt 1 view -0
 936              		.cfi_startproc
 937              		@ args = 0, pretend = 0, frame = 0
 938              		@ frame_needed = 0, uses_anonymous_args = 0
 532:USB_Device/Target/usbd_conf.c ****   HAL_StatusTypeDef hal_status = HAL_OK;
 939              		.loc 1 532 1 is_stmt 0 view .LVU203
 940 0000 08B5     		push	{r3, lr}
 941              		.cfi_def_cfa_offset 8
 942              		.cfi_offset 3, -8
 943              		.cfi_offset 14, -4
 533:USB_Device/Target/usbd_conf.c ****   USBD_StatusTypeDef usb_status = USBD_OK;
 944              		.loc 1 533 3 is_stmt 1 view .LVU204
 945              	.LVL91:
 534:USB_Device/Target/usbd_conf.c **** 
 946              		.loc 1 534 3 view .LVU205
 536:USB_Device/Target/usbd_conf.c **** 
 947              		.loc 1 536 3 view .LVU206
 536:USB_Device/Target/usbd_conf.c **** 
 948              		.loc 1 536 16 is_stmt 0 view .LVU207
 949 0002 D0F8C402 		ldr	r0, [r0, #708]
 950              	.LVL92:
 536:USB_Device/Target/usbd_conf.c **** 
 951              		.loc 1 536 16 view .LVU208
 952 0006 FFF7FEFF 		bl	HAL_PCD_EP_Close
 953              	.LVL93:
 538:USB_Device/Target/usbd_conf.c **** 
 954              		.loc 1 538 3 is_stmt 1 view .LVU209
 538:USB_Device/Target/usbd_conf.c **** 
 955              		.loc 1 538 17 is_stmt 0 view .LVU210
 956 000a FFF7FEFF 		bl	USBD_Get_USB_Status
 957              	.LVL94:
 540:USB_Device/Target/usbd_conf.c **** }
 958              		.loc 1 540 3 is_stmt 1 view .LVU211
 541:USB_Device/Target/usbd_conf.c **** 
 959              		.loc 1 541 1 is_stmt 0 view .LVU212
 960 000e 08BD     		pop	{r3, pc}
 961              		.cfi_endproc
 962              	.LFE351:
 964              		.section	.text.USBD_LL_FlushEP,"ax",%progbits
 965              		.align	1
 966              		.global	USBD_LL_FlushEP
 967              		.syntax unified
 968              		.thumb
 969              		.thumb_func
 971              	USBD_LL_FlushEP:
 972              	.LVL95:
 973              	.LFB352:
 550:USB_Device/Target/usbd_conf.c ****   HAL_StatusTypeDef hal_status = HAL_OK;
 974              		.loc 1 550 1 is_stmt 1 view -0
 975              		.cfi_startproc
 976              		@ args = 0, pretend = 0, frame = 0
 977              		@ frame_needed = 0, uses_anonymous_args = 0
 550:USB_Device/Target/usbd_conf.c ****   HAL_StatusTypeDef hal_status = HAL_OK;
ARM GAS  /tmp/cc5lIE3f.s 			page 35


 978              		.loc 1 550 1 is_stmt 0 view .LVU214
 979 0000 08B5     		push	{r3, lr}
 980              		.cfi_def_cfa_offset 8
 981              		.cfi_offset 3, -8
 982              		.cfi_offset 14, -4
 551:USB_Device/Target/usbd_conf.c ****   USBD_StatusTypeDef usb_status = USBD_OK;
 983              		.loc 1 551 3 is_stmt 1 view .LVU215
 984              	.LVL96:
 552:USB_Device/Target/usbd_conf.c **** 
 985              		.loc 1 552 3 view .LVU216
 554:USB_Device/Target/usbd_conf.c **** 
 986              		.loc 1 554 3 view .LVU217
 554:USB_Device/Target/usbd_conf.c **** 
 987              		.loc 1 554 16 is_stmt 0 view .LVU218
 988 0002 D0F8C402 		ldr	r0, [r0, #708]
 989              	.LVL97:
 554:USB_Device/Target/usbd_conf.c **** 
 990              		.loc 1 554 16 view .LVU219
 991 0006 FFF7FEFF 		bl	HAL_PCD_EP_Flush
 992              	.LVL98:
 556:USB_Device/Target/usbd_conf.c **** 
 993              		.loc 1 556 3 is_stmt 1 view .LVU220
 556:USB_Device/Target/usbd_conf.c **** 
 994              		.loc 1 556 17 is_stmt 0 view .LVU221
 995 000a FFF7FEFF 		bl	USBD_Get_USB_Status
 996              	.LVL99:
 558:USB_Device/Target/usbd_conf.c **** }
 997              		.loc 1 558 3 is_stmt 1 view .LVU222
 559:USB_Device/Target/usbd_conf.c **** 
 998              		.loc 1 559 1 is_stmt 0 view .LVU223
 999 000e 08BD     		pop	{r3, pc}
 1000              		.cfi_endproc
 1001              	.LFE352:
 1003              		.section	.text.USBD_LL_StallEP,"ax",%progbits
 1004              		.align	1
 1005              		.global	USBD_LL_StallEP
 1006              		.syntax unified
 1007              		.thumb
 1008              		.thumb_func
 1010              	USBD_LL_StallEP:
 1011              	.LVL100:
 1012              	.LFB353:
 568:USB_Device/Target/usbd_conf.c ****   HAL_StatusTypeDef hal_status = HAL_OK;
 1013              		.loc 1 568 1 is_stmt 1 view -0
 1014              		.cfi_startproc
 1015              		@ args = 0, pretend = 0, frame = 0
 1016              		@ frame_needed = 0, uses_anonymous_args = 0
 568:USB_Device/Target/usbd_conf.c ****   HAL_StatusTypeDef hal_status = HAL_OK;
 1017              		.loc 1 568 1 is_stmt 0 view .LVU225
 1018 0000 08B5     		push	{r3, lr}
 1019              		.cfi_def_cfa_offset 8
 1020              		.cfi_offset 3, -8
 1021              		.cfi_offset 14, -4
 569:USB_Device/Target/usbd_conf.c ****   USBD_StatusTypeDef usb_status = USBD_OK;
 1022              		.loc 1 569 3 is_stmt 1 view .LVU226
 1023              	.LVL101:
 570:USB_Device/Target/usbd_conf.c **** 
ARM GAS  /tmp/cc5lIE3f.s 			page 36


 1024              		.loc 1 570 3 view .LVU227
 572:USB_Device/Target/usbd_conf.c **** 
 1025              		.loc 1 572 3 view .LVU228
 572:USB_Device/Target/usbd_conf.c **** 
 1026              		.loc 1 572 16 is_stmt 0 view .LVU229
 1027 0002 D0F8C402 		ldr	r0, [r0, #708]
 1028              	.LVL102:
 572:USB_Device/Target/usbd_conf.c **** 
 1029              		.loc 1 572 16 view .LVU230
 1030 0006 FFF7FEFF 		bl	HAL_PCD_EP_SetStall
 1031              	.LVL103:
 574:USB_Device/Target/usbd_conf.c **** 
 1032              		.loc 1 574 3 is_stmt 1 view .LVU231
 574:USB_Device/Target/usbd_conf.c **** 
 1033              		.loc 1 574 17 is_stmt 0 view .LVU232
 1034 000a FFF7FEFF 		bl	USBD_Get_USB_Status
 1035              	.LVL104:
 576:USB_Device/Target/usbd_conf.c **** }
 1036              		.loc 1 576 3 is_stmt 1 view .LVU233
 577:USB_Device/Target/usbd_conf.c **** 
 1037              		.loc 1 577 1 is_stmt 0 view .LVU234
 1038 000e 08BD     		pop	{r3, pc}
 1039              		.cfi_endproc
 1040              	.LFE353:
 1042              		.section	.text.USBD_LL_ClearStallEP,"ax",%progbits
 1043              		.align	1
 1044              		.global	USBD_LL_ClearStallEP
 1045              		.syntax unified
 1046              		.thumb
 1047              		.thumb_func
 1049              	USBD_LL_ClearStallEP:
 1050              	.LVL105:
 1051              	.LFB354:
 586:USB_Device/Target/usbd_conf.c ****   HAL_StatusTypeDef hal_status = HAL_OK;
 1052              		.loc 1 586 1 is_stmt 1 view -0
 1053              		.cfi_startproc
 1054              		@ args = 0, pretend = 0, frame = 0
 1055              		@ frame_needed = 0, uses_anonymous_args = 0
 586:USB_Device/Target/usbd_conf.c ****   HAL_StatusTypeDef hal_status = HAL_OK;
 1056              		.loc 1 586 1 is_stmt 0 view .LVU236
 1057 0000 08B5     		push	{r3, lr}
 1058              		.cfi_def_cfa_offset 8
 1059              		.cfi_offset 3, -8
 1060              		.cfi_offset 14, -4
 587:USB_Device/Target/usbd_conf.c ****   USBD_StatusTypeDef usb_status = USBD_OK;
 1061              		.loc 1 587 3 is_stmt 1 view .LVU237
 1062              	.LVL106:
 588:USB_Device/Target/usbd_conf.c **** 
 1063              		.loc 1 588 3 view .LVU238
 590:USB_Device/Target/usbd_conf.c **** 
 1064              		.loc 1 590 3 view .LVU239
 590:USB_Device/Target/usbd_conf.c **** 
 1065              		.loc 1 590 16 is_stmt 0 view .LVU240
 1066 0002 D0F8C402 		ldr	r0, [r0, #708]
 1067              	.LVL107:
 590:USB_Device/Target/usbd_conf.c **** 
 1068              		.loc 1 590 16 view .LVU241
ARM GAS  /tmp/cc5lIE3f.s 			page 37


 1069 0006 FFF7FEFF 		bl	HAL_PCD_EP_ClrStall
 1070              	.LVL108:
 592:USB_Device/Target/usbd_conf.c **** 
 1071              		.loc 1 592 3 is_stmt 1 view .LVU242
 592:USB_Device/Target/usbd_conf.c **** 
 1072              		.loc 1 592 17 is_stmt 0 view .LVU243
 1073 000a FFF7FEFF 		bl	USBD_Get_USB_Status
 1074              	.LVL109:
 594:USB_Device/Target/usbd_conf.c **** }
 1075              		.loc 1 594 3 is_stmt 1 view .LVU244
 595:USB_Device/Target/usbd_conf.c **** 
 1076              		.loc 1 595 1 is_stmt 0 view .LVU245
 1077 000e 08BD     		pop	{r3, pc}
 1078              		.cfi_endproc
 1079              	.LFE354:
 1081              		.section	.text.USBD_LL_IsStallEP,"ax",%progbits
 1082              		.align	1
 1083              		.global	USBD_LL_IsStallEP
 1084              		.syntax unified
 1085              		.thumb
 1086              		.thumb_func
 1088              	USBD_LL_IsStallEP:
 1089              	.LVL110:
 1090              	.LFB355:
 604:USB_Device/Target/usbd_conf.c ****   PCD_HandleTypeDef *hpcd = (PCD_HandleTypeDef*) pdev->pData;
 1091              		.loc 1 604 1 is_stmt 1 view -0
 1092              		.cfi_startproc
 1093              		@ args = 0, pretend = 0, frame = 0
 1094              		@ frame_needed = 0, uses_anonymous_args = 0
 1095              		@ link register save eliminated.
 605:USB_Device/Target/usbd_conf.c **** 
 1096              		.loc 1 605 3 view .LVU247
 605:USB_Device/Target/usbd_conf.c **** 
 1097              		.loc 1 605 22 is_stmt 0 view .LVU248
 1098 0000 D0F8C432 		ldr	r3, [r0, #708]
 1099              	.LVL111:
 607:USB_Device/Target/usbd_conf.c ****   {
 1100              		.loc 1 607 3 is_stmt 1 view .LVU249
 607:USB_Device/Target/usbd_conf.c ****   {
 1101              		.loc 1 607 5 is_stmt 0 view .LVU250
 1102 0004 11F0800F 		tst	r1, #128
 1103 0008 08D1     		bne	.L80
 613:USB_Device/Target/usbd_conf.c ****   }
 1104              		.loc 1 613 5 is_stmt 1 view .LVU251
 613:USB_Device/Target/usbd_conf.c ****   }
 1105              		.loc 1 613 33 is_stmt 0 view .LVU252
 1106 000a 01F07F01 		and	r1, r1, #127
 1107              	.LVL112:
 613:USB_Device/Target/usbd_conf.c ****   }
 1108              		.loc 1 613 40 view .LVU253
 1109 000e 01EB8101 		add	r1, r1, r1, lsl #2
 1110 0012 03EBC103 		add	r3, r3, r1, lsl #3
 1111              	.LVL113:
 613:USB_Device/Target/usbd_conf.c ****   }
 1112              		.loc 1 613 40 view .LVU254
 1113 0016 93F85201 		ldrb	r0, [r3, #338]	@ zero_extendqisi2
 1114              	.LVL114:
ARM GAS  /tmp/cc5lIE3f.s 			page 38


 615:USB_Device/Target/usbd_conf.c **** 
 1115              		.loc 1 615 1 view .LVU255
 1116 001a 7047     		bx	lr
 1117              	.LVL115:
 1118              	.L80:
 609:USB_Device/Target/usbd_conf.c ****   }
 1119              		.loc 1 609 5 is_stmt 1 view .LVU256
 609:USB_Device/Target/usbd_conf.c ****   }
 1120              		.loc 1 609 32 is_stmt 0 view .LVU257
 1121 001c 01F07F01 		and	r1, r1, #127
 1122              	.LVL116:
 609:USB_Device/Target/usbd_conf.c ****   }
 1123              		.loc 1 609 39 view .LVU258
 1124 0020 01EB8101 		add	r1, r1, r1, lsl #2
 1125 0024 03EBC103 		add	r3, r3, r1, lsl #3
 1126              	.LVL117:
 609:USB_Device/Target/usbd_conf.c ****   }
 1127              		.loc 1 609 39 view .LVU259
 1128 0028 987C     		ldrb	r0, [r3, #18]	@ zero_extendqisi2
 1129              	.LVL118:
 609:USB_Device/Target/usbd_conf.c ****   }
 1130              		.loc 1 609 39 view .LVU260
 1131 002a 7047     		bx	lr
 1132              		.cfi_endproc
 1133              	.LFE355:
 1135              		.section	.text.USBD_LL_SetUSBAddress,"ax",%progbits
 1136              		.align	1
 1137              		.global	USBD_LL_SetUSBAddress
 1138              		.syntax unified
 1139              		.thumb
 1140              		.thumb_func
 1142              	USBD_LL_SetUSBAddress:
 1143              	.LVL119:
 1144              	.LFB356:
 624:USB_Device/Target/usbd_conf.c ****   HAL_StatusTypeDef hal_status = HAL_OK;
 1145              		.loc 1 624 1 is_stmt 1 view -0
 1146              		.cfi_startproc
 1147              		@ args = 0, pretend = 0, frame = 0
 1148              		@ frame_needed = 0, uses_anonymous_args = 0
 624:USB_Device/Target/usbd_conf.c ****   HAL_StatusTypeDef hal_status = HAL_OK;
 1149              		.loc 1 624 1 is_stmt 0 view .LVU262
 1150 0000 08B5     		push	{r3, lr}
 1151              		.cfi_def_cfa_offset 8
 1152              		.cfi_offset 3, -8
 1153              		.cfi_offset 14, -4
 625:USB_Device/Target/usbd_conf.c ****   USBD_StatusTypeDef usb_status = USBD_OK;
 1154              		.loc 1 625 3 is_stmt 1 view .LVU263
 1155              	.LVL120:
 626:USB_Device/Target/usbd_conf.c **** 
 1156              		.loc 1 626 3 view .LVU264
 628:USB_Device/Target/usbd_conf.c **** 
 1157              		.loc 1 628 3 view .LVU265
 628:USB_Device/Target/usbd_conf.c **** 
 1158              		.loc 1 628 16 is_stmt 0 view .LVU266
 1159 0002 D0F8C402 		ldr	r0, [r0, #708]
 1160              	.LVL121:
 628:USB_Device/Target/usbd_conf.c **** 
ARM GAS  /tmp/cc5lIE3f.s 			page 39


 1161              		.loc 1 628 16 view .LVU267
 1162 0006 FFF7FEFF 		bl	HAL_PCD_SetAddress
 1163              	.LVL122:
 630:USB_Device/Target/usbd_conf.c **** 
 1164              		.loc 1 630 3 is_stmt 1 view .LVU268
 630:USB_Device/Target/usbd_conf.c **** 
 1165              		.loc 1 630 17 is_stmt 0 view .LVU269
 1166 000a FFF7FEFF 		bl	USBD_Get_USB_Status
 1167              	.LVL123:
 632:USB_Device/Target/usbd_conf.c **** }
 1168              		.loc 1 632 3 is_stmt 1 view .LVU270
 633:USB_Device/Target/usbd_conf.c **** 
 1169              		.loc 1 633 1 is_stmt 0 view .LVU271
 1170 000e 08BD     		pop	{r3, pc}
 1171              		.cfi_endproc
 1172              	.LFE356:
 1174              		.section	.text.USBD_LL_Transmit,"ax",%progbits
 1175              		.align	1
 1176              		.global	USBD_LL_Transmit
 1177              		.syntax unified
 1178              		.thumb
 1179              		.thumb_func
 1181              	USBD_LL_Transmit:
 1182              	.LVL124:
 1183              	.LFB357:
 644:USB_Device/Target/usbd_conf.c ****   HAL_StatusTypeDef hal_status = HAL_OK;
 1184              		.loc 1 644 1 is_stmt 1 view -0
 1185              		.cfi_startproc
 1186              		@ args = 0, pretend = 0, frame = 0
 1187              		@ frame_needed = 0, uses_anonymous_args = 0
 644:USB_Device/Target/usbd_conf.c ****   HAL_StatusTypeDef hal_status = HAL_OK;
 1188              		.loc 1 644 1 is_stmt 0 view .LVU273
 1189 0000 08B5     		push	{r3, lr}
 1190              		.cfi_def_cfa_offset 8
 1191              		.cfi_offset 3, -8
 1192              		.cfi_offset 14, -4
 645:USB_Device/Target/usbd_conf.c ****   USBD_StatusTypeDef usb_status = USBD_OK;
 1193              		.loc 1 645 3 is_stmt 1 view .LVU274
 1194              	.LVL125:
 646:USB_Device/Target/usbd_conf.c **** 
 1195              		.loc 1 646 3 view .LVU275
 648:USB_Device/Target/usbd_conf.c **** 
 1196              		.loc 1 648 3 view .LVU276
 648:USB_Device/Target/usbd_conf.c **** 
 1197              		.loc 1 648 16 is_stmt 0 view .LVU277
 1198 0002 D0F8C402 		ldr	r0, [r0, #708]
 1199              	.LVL126:
 648:USB_Device/Target/usbd_conf.c **** 
 1200              		.loc 1 648 16 view .LVU278
 1201 0006 FFF7FEFF 		bl	HAL_PCD_EP_Transmit
 1202              	.LVL127:
 650:USB_Device/Target/usbd_conf.c **** 
 1203              		.loc 1 650 3 is_stmt 1 view .LVU279
 650:USB_Device/Target/usbd_conf.c **** 
 1204              		.loc 1 650 17 is_stmt 0 view .LVU280
 1205 000a FFF7FEFF 		bl	USBD_Get_USB_Status
 1206              	.LVL128:
ARM GAS  /tmp/cc5lIE3f.s 			page 40


 652:USB_Device/Target/usbd_conf.c **** }
 1207              		.loc 1 652 3 is_stmt 1 view .LVU281
 653:USB_Device/Target/usbd_conf.c **** 
 1208              		.loc 1 653 1 is_stmt 0 view .LVU282
 1209 000e 08BD     		pop	{r3, pc}
 1210              		.cfi_endproc
 1211              	.LFE357:
 1213              		.section	.text.USBD_LL_PrepareReceive,"ax",%progbits
 1214              		.align	1
 1215              		.global	USBD_LL_PrepareReceive
 1216              		.syntax unified
 1217              		.thumb
 1218              		.thumb_func
 1220              	USBD_LL_PrepareReceive:
 1221              	.LVL129:
 1222              	.LFB358:
 664:USB_Device/Target/usbd_conf.c ****   HAL_StatusTypeDef hal_status = HAL_OK;
 1223              		.loc 1 664 1 is_stmt 1 view -0
 1224              		.cfi_startproc
 1225              		@ args = 0, pretend = 0, frame = 0
 1226              		@ frame_needed = 0, uses_anonymous_args = 0
 664:USB_Device/Target/usbd_conf.c ****   HAL_StatusTypeDef hal_status = HAL_OK;
 1227              		.loc 1 664 1 is_stmt 0 view .LVU284
 1228 0000 08B5     		push	{r3, lr}
 1229              		.cfi_def_cfa_offset 8
 1230              		.cfi_offset 3, -8
 1231              		.cfi_offset 14, -4
 665:USB_Device/Target/usbd_conf.c ****   USBD_StatusTypeDef usb_status = USBD_OK;
 1232              		.loc 1 665 3 is_stmt 1 view .LVU285
 1233              	.LVL130:
 666:USB_Device/Target/usbd_conf.c **** 
 1234              		.loc 1 666 3 view .LVU286
 668:USB_Device/Target/usbd_conf.c **** 
 1235              		.loc 1 668 3 view .LVU287
 668:USB_Device/Target/usbd_conf.c **** 
 1236              		.loc 1 668 16 is_stmt 0 view .LVU288
 1237 0002 D0F8C402 		ldr	r0, [r0, #708]
 1238              	.LVL131:
 668:USB_Device/Target/usbd_conf.c **** 
 1239              		.loc 1 668 16 view .LVU289
 1240 0006 FFF7FEFF 		bl	HAL_PCD_EP_Receive
 1241              	.LVL132:
 670:USB_Device/Target/usbd_conf.c **** 
 1242              		.loc 1 670 3 is_stmt 1 view .LVU290
 670:USB_Device/Target/usbd_conf.c **** 
 1243              		.loc 1 670 17 is_stmt 0 view .LVU291
 1244 000a FFF7FEFF 		bl	USBD_Get_USB_Status
 1245              	.LVL133:
 672:USB_Device/Target/usbd_conf.c **** }
 1246              		.loc 1 672 3 is_stmt 1 view .LVU292
 673:USB_Device/Target/usbd_conf.c **** 
 1247              		.loc 1 673 1 is_stmt 0 view .LVU293
 1248 000e 08BD     		pop	{r3, pc}
 1249              		.cfi_endproc
 1250              	.LFE358:
 1252              		.section	.text.USBD_LL_GetRxDataSize,"ax",%progbits
 1253              		.align	1
ARM GAS  /tmp/cc5lIE3f.s 			page 41


 1254              		.global	USBD_LL_GetRxDataSize
 1255              		.syntax unified
 1256              		.thumb
 1257              		.thumb_func
 1259              	USBD_LL_GetRxDataSize:
 1260              	.LVL134:
 1261              	.LFB359:
 682:USB_Device/Target/usbd_conf.c ****   return HAL_PCD_EP_GetRxCount((PCD_HandleTypeDef*) pdev->pData, ep_addr);
 1262              		.loc 1 682 1 is_stmt 1 view -0
 1263              		.cfi_startproc
 1264              		@ args = 0, pretend = 0, frame = 0
 1265              		@ frame_needed = 0, uses_anonymous_args = 0
 682:USB_Device/Target/usbd_conf.c ****   return HAL_PCD_EP_GetRxCount((PCD_HandleTypeDef*) pdev->pData, ep_addr);
 1266              		.loc 1 682 1 is_stmt 0 view .LVU295
 1267 0000 08B5     		push	{r3, lr}
 1268              		.cfi_def_cfa_offset 8
 1269              		.cfi_offset 3, -8
 1270              		.cfi_offset 14, -4
 683:USB_Device/Target/usbd_conf.c **** }
 1271              		.loc 1 683 3 is_stmt 1 view .LVU296
 683:USB_Device/Target/usbd_conf.c **** }
 1272              		.loc 1 683 10 is_stmt 0 view .LVU297
 1273 0002 D0F8C402 		ldr	r0, [r0, #708]
 1274              	.LVL135:
 683:USB_Device/Target/usbd_conf.c **** }
 1275              		.loc 1 683 10 view .LVU298
 1276 0006 FFF7FEFF 		bl	HAL_PCD_EP_GetRxCount
 1277              	.LVL136:
 684:USB_Device/Target/usbd_conf.c **** 
 1278              		.loc 1 684 1 view .LVU299
 1279 000a 08BD     		pop	{r3, pc}
 1280              		.cfi_endproc
 1281              	.LFE359:
 1283              		.section	.text.HAL_PCDEx_LPM_Callback,"ax",%progbits
 1284              		.align	1
 1285              		.global	HAL_PCDEx_LPM_Callback
 1286              		.syntax unified
 1287              		.thumb
 1288              		.thumb_func
 1290              	HAL_PCDEx_LPM_Callback:
 1291              	.LVL137:
 1292              	.LFB360:
 697:USB_Device/Target/usbd_conf.c ****   /* USER CODE BEGIN LPM_Callback */
 1293              		.loc 1 697 1 is_stmt 1 view -0
 1294              		.cfi_startproc
 1295              		@ args = 0, pretend = 0, frame = 0
 1296              		@ frame_needed = 0, uses_anonymous_args = 0
 697:USB_Device/Target/usbd_conf.c ****   /* USER CODE BEGIN LPM_Callback */
 1297              		.loc 1 697 1 is_stmt 0 view .LVU301
 1298 0000 10B5     		push	{r4, lr}
 1299              		.cfi_def_cfa_offset 8
 1300              		.cfi_offset 4, -8
 1301              		.cfi_offset 14, -4
 1302 0002 0446     		mov	r4, r0
 699:USB_Device/Target/usbd_conf.c ****   {
 1303              		.loc 1 699 3 is_stmt 1 view .LVU302
 1304 0004 69B1     		cbz	r1, .L90
ARM GAS  /tmp/cc5lIE3f.s 			page 42


 1305 0006 0129     		cmp	r1, #1
 1306 0008 11D1     		bne	.L89
 713:USB_Device/Target/usbd_conf.c **** 
 1307              		.loc 1 713 5 view .LVU303
 1308 000a D0F8D802 		ldr	r0, [r0, #728]
 1309              	.LVL138:
 713:USB_Device/Target/usbd_conf.c **** 
 1310              		.loc 1 713 5 is_stmt 0 view .LVU304
 1311 000e FFF7FEFF 		bl	USBD_LL_Suspend
 1312              	.LVL139:
 716:USB_Device/Target/usbd_conf.c ****     {
 1313              		.loc 1 716 5 is_stmt 1 view .LVU305
 716:USB_Device/Target/usbd_conf.c ****     {
 1314              		.loc 1 716 19 is_stmt 0 view .LVU306
 1315 0012 637A     		ldrb	r3, [r4, #9]	@ zero_extendqisi2
 716:USB_Device/Target/usbd_conf.c ****     {
 1316              		.loc 1 716 8 view .LVU307
 1317 0014 5BB1     		cbz	r3, .L89
 719:USB_Device/Target/usbd_conf.c ****     }
 1318              		.loc 1 719 7 is_stmt 1 view .LVU308
 719:USB_Device/Target/usbd_conf.c ****     }
 1319              		.loc 1 719 10 is_stmt 0 view .LVU309
 1320 0016 0A4A     		ldr	r2, .L96
 1321 0018 1369     		ldr	r3, [r2, #16]
 719:USB_Device/Target/usbd_conf.c ****     }
 1322              		.loc 1 719 16 view .LVU310
 1323 001a 43F00603 		orr	r3, r3, #6
 1324 001e 1361     		str	r3, [r2, #16]
 724:USB_Device/Target/usbd_conf.c **** 
 1325              		.loc 1 724 1 view .LVU311
 1326 0020 05E0     		b	.L89
 1327              	.LVL140:
 1328              	.L90:
 702:USB_Device/Target/usbd_conf.c ****     {
 1329              		.loc 1 702 5 is_stmt 1 view .LVU312
 702:USB_Device/Target/usbd_conf.c ****     {
 1330              		.loc 1 702 19 is_stmt 0 view .LVU313
 1331 0022 437A     		ldrb	r3, [r0, #9]	@ zero_extendqisi2
 702:USB_Device/Target/usbd_conf.c ****     {
 1332              		.loc 1 702 8 view .LVU314
 1333 0024 23B9     		cbnz	r3, .L95
 1334              	.LVL141:
 1335              	.L93:
 709:USB_Device/Target/usbd_conf.c ****     break;
 1336              		.loc 1 709 5 is_stmt 1 view .LVU315
 1337 0026 D4F8D802 		ldr	r0, [r4, #728]
 1338 002a FFF7FEFF 		bl	USBD_LL_Resume
 1339              	.LVL142:
 710:USB_Device/Target/usbd_conf.c **** 
 1340              		.loc 1 710 5 view .LVU316
 1341              	.L89:
 724:USB_Device/Target/usbd_conf.c **** 
 1342              		.loc 1 724 1 is_stmt 0 view .LVU317
 1343 002e 10BD     		pop	{r4, pc}
 1344              	.LVL143:
 1345              	.L95:
 704:USB_Device/Target/usbd_conf.c **** 
ARM GAS  /tmp/cc5lIE3f.s 			page 43


 1346              		.loc 1 704 7 is_stmt 1 view .LVU318
 1347 0030 FFF7FEFF 		bl	SystemClockConfig_Resume
 1348              	.LVL144:
 707:USB_Device/Target/usbd_conf.c ****     }
 1349              		.loc 1 707 7 view .LVU319
 707:USB_Device/Target/usbd_conf.c ****     }
 1350              		.loc 1 707 10 is_stmt 0 view .LVU320
 1351 0034 024A     		ldr	r2, .L96
 1352 0036 1369     		ldr	r3, [r2, #16]
 707:USB_Device/Target/usbd_conf.c ****     }
 1353              		.loc 1 707 16 view .LVU321
 1354 0038 23F00603 		bic	r3, r3, #6
 1355 003c 1361     		str	r3, [r2, #16]
 1356 003e F2E7     		b	.L93
 1357              	.L97:
 1358              		.align	2
 1359              	.L96:
 1360 0040 00ED00E0 		.word	-536810240
 1361              		.cfi_endproc
 1362              	.LFE360:
 1364              		.section	.text.USBD_LL_Delay,"ax",%progbits
 1365              		.align	1
 1366              		.global	USBD_LL_Delay
 1367              		.syntax unified
 1368              		.thumb
 1369              		.thumb_func
 1371              	USBD_LL_Delay:
 1372              	.LVL145:
 1373              	.LFB361:
 732:USB_Device/Target/usbd_conf.c ****   HAL_Delay(Delay);
 1374              		.loc 1 732 1 is_stmt 1 view -0
 1375              		.cfi_startproc
 1376              		@ args = 0, pretend = 0, frame = 0
 1377              		@ frame_needed = 0, uses_anonymous_args = 0
 732:USB_Device/Target/usbd_conf.c ****   HAL_Delay(Delay);
 1378              		.loc 1 732 1 is_stmt 0 view .LVU323
 1379 0000 08B5     		push	{r3, lr}
 1380              		.cfi_def_cfa_offset 8
 1381              		.cfi_offset 3, -8
 1382              		.cfi_offset 14, -4
 733:USB_Device/Target/usbd_conf.c **** }
 1383              		.loc 1 733 3 is_stmt 1 view .LVU324
 1384 0002 FFF7FEFF 		bl	HAL_Delay
 1385              	.LVL146:
 734:USB_Device/Target/usbd_conf.c **** 
 1386              		.loc 1 734 1 is_stmt 0 view .LVU325
 1387 0006 08BD     		pop	{r3, pc}
 1388              		.cfi_endproc
 1389              	.LFE361:
 1391              		.section	.text.USBD_static_malloc,"ax",%progbits
 1392              		.align	1
 1393              		.global	USBD_static_malloc
 1394              		.syntax unified
 1395              		.thumb
 1396              		.thumb_func
 1398              	USBD_static_malloc:
 1399              	.LVL147:
ARM GAS  /tmp/cc5lIE3f.s 			page 44


 1400              	.LFB362:
 742:USB_Device/Target/usbd_conf.c ****   static uint32_t mem[(sizeof(USBD_CDC_HandleTypeDef)/4)+1];/* On 32-bit boundary */
 1401              		.loc 1 742 1 is_stmt 1 view -0
 1402              		.cfi_startproc
 1403              		@ args = 0, pretend = 0, frame = 0
 1404              		@ frame_needed = 0, uses_anonymous_args = 0
 1405              		@ link register save eliminated.
 743:USB_Device/Target/usbd_conf.c ****   return mem;
 1406              		.loc 1 743 3 view .LVU327
 744:USB_Device/Target/usbd_conf.c **** }
 1407              		.loc 1 744 3 view .LVU328
 745:USB_Device/Target/usbd_conf.c **** 
 1408              		.loc 1 745 1 is_stmt 0 view .LVU329
 1409 0000 0048     		ldr	r0, .L101
 1410              	.LVL148:
 745:USB_Device/Target/usbd_conf.c **** 
 1411              		.loc 1 745 1 view .LVU330
 1412 0002 7047     		bx	lr
 1413              	.L102:
 1414              		.align	2
 1415              	.L101:
 1416 0004 00000000 		.word	mem.0
 1417              		.cfi_endproc
 1418              	.LFE362:
 1420              		.section	.text.USBD_static_free,"ax",%progbits
 1421              		.align	1
 1422              		.global	USBD_static_free
 1423              		.syntax unified
 1424              		.thumb
 1425              		.thumb_func
 1427              	USBD_static_free:
 1428              	.LVL149:
 1429              	.LFB363:
 753:USB_Device/Target/usbd_conf.c **** 
 1430              		.loc 1 753 1 is_stmt 1 view -0
 1431              		.cfi_startproc
 1432              		@ args = 0, pretend = 0, frame = 0
 1433              		@ frame_needed = 0, uses_anonymous_args = 0
 1434              		@ link register save eliminated.
 755:USB_Device/Target/usbd_conf.c **** 
 1435              		.loc 1 755 1 view .LVU332
 1436 0000 7047     		bx	lr
 1437              		.cfi_endproc
 1438              	.LFE363:
 1440              		.section	.bss.mem.0,"aw",%nobits
 1441              		.align	2
 1444              	mem.0:
 1445 0000 00000000 		.space	544
 1445      00000000 
 1445      00000000 
 1445      00000000 
 1445      00000000 
 1446              		.global	hpcd_USB_FS
 1447              		.section	.bss.hpcd_USB_FS,"aw",%nobits
 1448              		.align	2
 1451              	hpcd_USB_FS:
 1452 0000 00000000 		.space	732
ARM GAS  /tmp/cc5lIE3f.s 			page 45


 1452      00000000 
 1452      00000000 
 1452      00000000 
 1452      00000000 
 1453              		.text
 1454              	.Letext0:
 1455              		.file 2 "Drivers/CMSIS/Device/ST/STM32G4xx/Include/stm32g474xx.h"
 1456              		.file 3 "/opt/arm-gnu-toolchain-14.2/arm-none-eabi/include/machine/_default_types.h"
 1457              		.file 4 "/opt/arm-gnu-toolchain-14.2/arm-none-eabi/include/sys/_stdint.h"
 1458              		.file 5 "Drivers/CMSIS/Include/core_cm4.h"
 1459              		.file 6 "Drivers/CMSIS/Device/ST/STM32G4xx/Include/stm32g4xx.h"
 1460              		.file 7 "Drivers/STM32G4xx_HAL_Driver/Inc/stm32g4xx_hal_def.h"
 1461              		.file 8 "Drivers/STM32G4xx_HAL_Driver/Inc/stm32g4xx_hal_rcc_ex.h"
 1462              		.file 9 "Drivers/STM32G4xx_HAL_Driver/Inc/stm32g4xx_ll_usb.h"
 1463              		.file 10 "Drivers/STM32G4xx_HAL_Driver/Inc/stm32g4xx_hal_pcd.h"
 1464              		.file 11 "Middlewares/ST/STM32_USB_Device_Library/Core/Inc/usbd_def.h"
 1465              		.file 12 "Drivers/STM32G4xx_HAL_Driver/Inc/stm32g4xx_hal_pcd_ex.h"
 1466              		.file 13 "Middlewares/ST/STM32_USB_Device_Library/Core/Inc/usbd_core.h"
 1467              		.file 14 "Drivers/STM32G4xx_HAL_Driver/Inc/stm32g4xx_hal.h"
 1468              		.file 15 "Drivers/STM32G4xx_HAL_Driver/Inc/stm32g4xx_hal_cortex.h"
 1469              		.file 16 "<built-in>"
ARM GAS  /tmp/cc5lIE3f.s 			page 46

