ARM GAS  /tmp/ccIa1zuE.s 			page 1


   1              		.cpu cortex-m4
   2              		.arch armv7e-m
   3              		.fpu fpv4-sp-d16
   4              		.eabi_attribute 27, 1
   5              		.eabi_attribute 28, 1
   6              		.eabi_attribute 20, 1
   7              		.eabi_attribute 21, 1
   8              		.eabi_attribute 23, 3
   9              		.eabi_attribute 24, 1
  10              		.eabi_attribute 25, 1
  11              		.eabi_attribute 26, 1
  12              		.eabi_attribute 30, 1
  13              		.eabi_attribute 34, 1
  14              		.eabi_attribute 18, 4
  15              		.file	"usbd_conf.c"
  16              		.text
  17              	.Ltext0:
  18              		.cfi_sections	.debug_frame
  19              		.file 1 "USB_Device/Target/usbd_conf.c"
  20              		.section	.text.USBD_Get_USB_Status,"ax",%progbits
  21              		.align	1
  22              		.syntax unified
  23              		.thumb
  24              		.thumb_func
  26              	USBD_Get_USB_Status:
  27              	.LVL0:
  28              	.LFB365:
   1:USB_Device/Target/usbd_conf.c **** /* USER CODE BEGIN Header */
   2:USB_Device/Target/usbd_conf.c **** /**
   3:USB_Device/Target/usbd_conf.c ****   ******************************************************************************
   4:USB_Device/Target/usbd_conf.c ****   * @file           : Target/usbd_conf.c
   5:USB_Device/Target/usbd_conf.c ****   * @version        : v3.0_Cube
   6:USB_Device/Target/usbd_conf.c ****   * @brief          : This file implements the board support package for the USB device library
   7:USB_Device/Target/usbd_conf.c ****   ******************************************************************************
   8:USB_Device/Target/usbd_conf.c ****   * @attention
   9:USB_Device/Target/usbd_conf.c ****   *
  10:USB_Device/Target/usbd_conf.c ****   * Copyright (c) 2026 STMicroelectronics.
  11:USB_Device/Target/usbd_conf.c ****   * All rights reserved.
  12:USB_Device/Target/usbd_conf.c ****   *
  13:USB_Device/Target/usbd_conf.c ****   * This software is licensed under terms that can be found in the LICENSE file
  14:USB_Device/Target/usbd_conf.c ****   * in the root directory of this software component.
  15:USB_Device/Target/usbd_conf.c ****   * If no LICENSE file comes with this software, it is provided AS-IS.
  16:USB_Device/Target/usbd_conf.c ****   *
  17:USB_Device/Target/usbd_conf.c ****   ******************************************************************************
  18:USB_Device/Target/usbd_conf.c ****   */
  19:USB_Device/Target/usbd_conf.c **** /* USER CODE END Header */
  20:USB_Device/Target/usbd_conf.c **** 
  21:USB_Device/Target/usbd_conf.c **** /* Includes ------------------------------------------------------------------*/
  22:USB_Device/Target/usbd_conf.c **** #include "stm32g4xx.h"
  23:USB_Device/Target/usbd_conf.c **** #include "stm32g4xx_hal.h"
  24:USB_Device/Target/usbd_conf.c **** #include "usbd_def.h"
  25:USB_Device/Target/usbd_conf.c **** #include "usbd_core.h"
  26:USB_Device/Target/usbd_conf.c **** 
  27:USB_Device/Target/usbd_conf.c **** #include "usbd_cdc.h"
  28:USB_Device/Target/usbd_conf.c **** 
  29:USB_Device/Target/usbd_conf.c **** /* USER CODE BEGIN Includes */
  30:USB_Device/Target/usbd_conf.c **** 
ARM GAS  /tmp/ccIa1zuE.s 			page 2


  31:USB_Device/Target/usbd_conf.c **** /* USER CODE END Includes */
  32:USB_Device/Target/usbd_conf.c **** 
  33:USB_Device/Target/usbd_conf.c **** /* Private typedef -----------------------------------------------------------*/
  34:USB_Device/Target/usbd_conf.c **** /* Private define ------------------------------------------------------------*/
  35:USB_Device/Target/usbd_conf.c **** /* Private macro -------------------------------------------------------------*/
  36:USB_Device/Target/usbd_conf.c **** 
  37:USB_Device/Target/usbd_conf.c **** /* Private variables ---------------------------------------------------------*/
  38:USB_Device/Target/usbd_conf.c **** /* USER CODE BEGIN PV */
  39:USB_Device/Target/usbd_conf.c **** 
  40:USB_Device/Target/usbd_conf.c **** /* USER CODE END PV */
  41:USB_Device/Target/usbd_conf.c **** 
  42:USB_Device/Target/usbd_conf.c **** PCD_HandleTypeDef hpcd_USB_FS;
  43:USB_Device/Target/usbd_conf.c **** void Error_Handler(void);
  44:USB_Device/Target/usbd_conf.c **** 
  45:USB_Device/Target/usbd_conf.c **** /* USER CODE BEGIN 0 */
  46:USB_Device/Target/usbd_conf.c **** 
  47:USB_Device/Target/usbd_conf.c **** /* USER CODE END 0 */
  48:USB_Device/Target/usbd_conf.c **** 
  49:USB_Device/Target/usbd_conf.c **** /* Exported function prototypes ----------------------------------------------*/
  50:USB_Device/Target/usbd_conf.c **** 
  51:USB_Device/Target/usbd_conf.c **** /* USER CODE BEGIN PFP */
  52:USB_Device/Target/usbd_conf.c **** /* Private function prototypes -----------------------------------------------*/
  53:USB_Device/Target/usbd_conf.c **** 
  54:USB_Device/Target/usbd_conf.c **** /* USER CODE END PFP */
  55:USB_Device/Target/usbd_conf.c **** 
  56:USB_Device/Target/usbd_conf.c **** /* Private functions ---------------------------------------------------------*/
  57:USB_Device/Target/usbd_conf.c **** static USBD_StatusTypeDef USBD_Get_USB_Status(HAL_StatusTypeDef hal_status);
  58:USB_Device/Target/usbd_conf.c **** /* USER CODE BEGIN 1 */
  59:USB_Device/Target/usbd_conf.c **** static void SystemClockConfig_Resume(void);
  60:USB_Device/Target/usbd_conf.c **** 
  61:USB_Device/Target/usbd_conf.c **** /* USER CODE END 1 */
  62:USB_Device/Target/usbd_conf.c **** extern void SystemClock_Config(void);
  63:USB_Device/Target/usbd_conf.c **** 
  64:USB_Device/Target/usbd_conf.c **** /*******************************************************************************
  65:USB_Device/Target/usbd_conf.c ****                        LL Driver Callbacks (PCD -> USB Device Library)
  66:USB_Device/Target/usbd_conf.c **** *******************************************************************************/
  67:USB_Device/Target/usbd_conf.c **** /* MSP Init */
  68:USB_Device/Target/usbd_conf.c **** 
  69:USB_Device/Target/usbd_conf.c **** #if (USE_HAL_PCD_REGISTER_CALLBACKS == 1U)
  70:USB_Device/Target/usbd_conf.c **** static void HAL_PCD_MspInit(PCD_HandleTypeDef* pcdHandle)
  71:USB_Device/Target/usbd_conf.c **** #else
  72:USB_Device/Target/usbd_conf.c **** void HAL_PCD_MspInit(PCD_HandleTypeDef* pcdHandle)
  73:USB_Device/Target/usbd_conf.c **** #endif /* USE_HAL_PCD_REGISTER_CALLBACKS */
  74:USB_Device/Target/usbd_conf.c **** {
  75:USB_Device/Target/usbd_conf.c ****   RCC_PeriphCLKInitTypeDef PeriphClkInit = {0};
  76:USB_Device/Target/usbd_conf.c ****   if(pcdHandle->Instance==USB)
  77:USB_Device/Target/usbd_conf.c ****   {
  78:USB_Device/Target/usbd_conf.c ****   /* USER CODE BEGIN USB_MspInit 0 */
  79:USB_Device/Target/usbd_conf.c **** 
  80:USB_Device/Target/usbd_conf.c ****   /* USER CODE END USB_MspInit 0 */
  81:USB_Device/Target/usbd_conf.c **** 
  82:USB_Device/Target/usbd_conf.c ****   /** Initializes the peripherals clocks
  83:USB_Device/Target/usbd_conf.c ****   */
  84:USB_Device/Target/usbd_conf.c ****     PeriphClkInit.PeriphClockSelection = RCC_PERIPHCLK_USB;
  85:USB_Device/Target/usbd_conf.c ****     PeriphClkInit.UsbClockSelection = RCC_USBCLKSOURCE_HSI48;
  86:USB_Device/Target/usbd_conf.c ****     if (HAL_RCCEx_PeriphCLKConfig(&PeriphClkInit) != HAL_OK)
  87:USB_Device/Target/usbd_conf.c ****     {
ARM GAS  /tmp/ccIa1zuE.s 			page 3


  88:USB_Device/Target/usbd_conf.c ****       Error_Handler();
  89:USB_Device/Target/usbd_conf.c ****     }
  90:USB_Device/Target/usbd_conf.c **** 
  91:USB_Device/Target/usbd_conf.c ****     /* Peripheral clock enable */
  92:USB_Device/Target/usbd_conf.c ****     __HAL_RCC_USB_CLK_ENABLE();
  93:USB_Device/Target/usbd_conf.c **** 
  94:USB_Device/Target/usbd_conf.c ****     /* Peripheral interrupt init */
  95:USB_Device/Target/usbd_conf.c ****     HAL_NVIC_SetPriority(USB_HP_IRQn, 5, 0);
  96:USB_Device/Target/usbd_conf.c ****     HAL_NVIC_EnableIRQ(USB_HP_IRQn);
  97:USB_Device/Target/usbd_conf.c ****     HAL_NVIC_SetPriority(USB_LP_IRQn, 5, 0);
  98:USB_Device/Target/usbd_conf.c ****     HAL_NVIC_EnableIRQ(USB_LP_IRQn);
  99:USB_Device/Target/usbd_conf.c ****   /* USER CODE BEGIN USB_MspInit 1 */
 100:USB_Device/Target/usbd_conf.c **** 
 101:USB_Device/Target/usbd_conf.c ****   /* USER CODE END USB_MspInit 1 */
 102:USB_Device/Target/usbd_conf.c ****   }
 103:USB_Device/Target/usbd_conf.c **** }
 104:USB_Device/Target/usbd_conf.c **** 
 105:USB_Device/Target/usbd_conf.c **** #if (USE_HAL_PCD_REGISTER_CALLBACKS == 1U)
 106:USB_Device/Target/usbd_conf.c **** static void HAL_PCD_MspDeInit(PCD_HandleTypeDef* pcdHandle)
 107:USB_Device/Target/usbd_conf.c **** #else
 108:USB_Device/Target/usbd_conf.c **** void HAL_PCD_MspDeInit(PCD_HandleTypeDef* pcdHandle)
 109:USB_Device/Target/usbd_conf.c **** #endif /* USE_HAL_PCD_REGISTER_CALLBACKS */
 110:USB_Device/Target/usbd_conf.c **** {
 111:USB_Device/Target/usbd_conf.c ****   if(pcdHandle->Instance==USB)
 112:USB_Device/Target/usbd_conf.c ****   {
 113:USB_Device/Target/usbd_conf.c ****   /* USER CODE BEGIN USB_MspDeInit 0 */
 114:USB_Device/Target/usbd_conf.c **** 
 115:USB_Device/Target/usbd_conf.c ****   /* USER CODE END USB_MspDeInit 0 */
 116:USB_Device/Target/usbd_conf.c ****     /* Peripheral clock disable */
 117:USB_Device/Target/usbd_conf.c ****     __HAL_RCC_USB_CLK_DISABLE();
 118:USB_Device/Target/usbd_conf.c **** 
 119:USB_Device/Target/usbd_conf.c ****     /* Peripheral interrupt Deinit*/
 120:USB_Device/Target/usbd_conf.c ****     HAL_NVIC_DisableIRQ(USB_HP_IRQn);
 121:USB_Device/Target/usbd_conf.c **** 
 122:USB_Device/Target/usbd_conf.c ****     HAL_NVIC_DisableIRQ(USB_LP_IRQn);
 123:USB_Device/Target/usbd_conf.c **** 
 124:USB_Device/Target/usbd_conf.c ****   /* USER CODE BEGIN USB_MspDeInit 1 */
 125:USB_Device/Target/usbd_conf.c **** 
 126:USB_Device/Target/usbd_conf.c ****   /* USER CODE END USB_MspDeInit 1 */
 127:USB_Device/Target/usbd_conf.c ****   }
 128:USB_Device/Target/usbd_conf.c **** }
 129:USB_Device/Target/usbd_conf.c **** 
 130:USB_Device/Target/usbd_conf.c **** /**
 131:USB_Device/Target/usbd_conf.c ****   * @brief  Setup stage callback
 132:USB_Device/Target/usbd_conf.c ****   * @param  hpcd: PCD handle
 133:USB_Device/Target/usbd_conf.c ****   * @retval None
 134:USB_Device/Target/usbd_conf.c ****   */
 135:USB_Device/Target/usbd_conf.c **** #if (USE_HAL_PCD_REGISTER_CALLBACKS == 1U)
 136:USB_Device/Target/usbd_conf.c **** static void PCD_SetupStageCallback(PCD_HandleTypeDef *hpcd)
 137:USB_Device/Target/usbd_conf.c **** #else
 138:USB_Device/Target/usbd_conf.c **** void HAL_PCD_SetupStageCallback(PCD_HandleTypeDef *hpcd)
 139:USB_Device/Target/usbd_conf.c **** #endif /* USE_HAL_PCD_REGISTER_CALLBACKS */
 140:USB_Device/Target/usbd_conf.c **** {
 141:USB_Device/Target/usbd_conf.c ****   /* USER CODE BEGIN HAL_PCD_SetupStageCallback_PreTreatment */
 142:USB_Device/Target/usbd_conf.c **** 
 143:USB_Device/Target/usbd_conf.c ****   /* USER CODE END  HAL_PCD_SetupStageCallback_PreTreatment */
 144:USB_Device/Target/usbd_conf.c ****   USBD_LL_SetupStage((USBD_HandleTypeDef*)hpcd->pData, (uint8_t *)hpcd->Setup);
ARM GAS  /tmp/ccIa1zuE.s 			page 4


 145:USB_Device/Target/usbd_conf.c ****   /* USER CODE BEGIN HAL_PCD_SetupStageCallback_PostTreatment */
 146:USB_Device/Target/usbd_conf.c **** 
 147:USB_Device/Target/usbd_conf.c ****   /* USER CODE END  HAL_PCD_SetupStageCallback_PostTreatment */
 148:USB_Device/Target/usbd_conf.c **** }
 149:USB_Device/Target/usbd_conf.c **** 
 150:USB_Device/Target/usbd_conf.c **** /**
 151:USB_Device/Target/usbd_conf.c ****   * @brief  Data Out stage callback.
 152:USB_Device/Target/usbd_conf.c ****   * @param  hpcd: PCD handle
 153:USB_Device/Target/usbd_conf.c ****   * @param  epnum: Endpoint number
 154:USB_Device/Target/usbd_conf.c ****   * @retval None
 155:USB_Device/Target/usbd_conf.c ****   */
 156:USB_Device/Target/usbd_conf.c **** #if (USE_HAL_PCD_REGISTER_CALLBACKS == 1U)
 157:USB_Device/Target/usbd_conf.c **** static void PCD_DataOutStageCallback(PCD_HandleTypeDef *hpcd, uint8_t epnum)
 158:USB_Device/Target/usbd_conf.c **** #else
 159:USB_Device/Target/usbd_conf.c **** void HAL_PCD_DataOutStageCallback(PCD_HandleTypeDef *hpcd, uint8_t epnum)
 160:USB_Device/Target/usbd_conf.c **** #endif /* USE_HAL_PCD_REGISTER_CALLBACKS */
 161:USB_Device/Target/usbd_conf.c **** {
 162:USB_Device/Target/usbd_conf.c ****   /* USER CODE BEGIN HAL_PCD_DataOutStageCallback_PreTreatment */
 163:USB_Device/Target/usbd_conf.c **** 
 164:USB_Device/Target/usbd_conf.c ****   /* USER CODE END HAL_PCD_DataOutStageCallback_PreTreatment */
 165:USB_Device/Target/usbd_conf.c ****   USBD_LL_DataOutStage((USBD_HandleTypeDef*)hpcd->pData, epnum, hpcd->OUT_ep[epnum].xfer_buff);
 166:USB_Device/Target/usbd_conf.c ****   /* USER CODE BEGIN HAL_PCD_DataOutStageCallback_PostTreatment */
 167:USB_Device/Target/usbd_conf.c **** 
 168:USB_Device/Target/usbd_conf.c ****   /* USER CODE END HAL_PCD_DataOutStageCallback_PostTreatment */
 169:USB_Device/Target/usbd_conf.c **** }
 170:USB_Device/Target/usbd_conf.c **** 
 171:USB_Device/Target/usbd_conf.c **** /**
 172:USB_Device/Target/usbd_conf.c ****   * @brief  Data In stage callback.
 173:USB_Device/Target/usbd_conf.c ****   * @param  hpcd: PCD handle
 174:USB_Device/Target/usbd_conf.c ****   * @param  epnum: Endpoint number
 175:USB_Device/Target/usbd_conf.c ****   * @retval None
 176:USB_Device/Target/usbd_conf.c ****   */
 177:USB_Device/Target/usbd_conf.c **** #if (USE_HAL_PCD_REGISTER_CALLBACKS == 1U)
 178:USB_Device/Target/usbd_conf.c **** static void PCD_DataInStageCallback(PCD_HandleTypeDef *hpcd, uint8_t epnum)
 179:USB_Device/Target/usbd_conf.c **** #else
 180:USB_Device/Target/usbd_conf.c **** void HAL_PCD_DataInStageCallback(PCD_HandleTypeDef *hpcd, uint8_t epnum)
 181:USB_Device/Target/usbd_conf.c **** #endif /* USE_HAL_PCD_REGISTER_CALLBACKS */
 182:USB_Device/Target/usbd_conf.c **** {
 183:USB_Device/Target/usbd_conf.c ****   /* USER CODE BEGIN HAL_PCD_DataInStageCallback_PreTreatment */
 184:USB_Device/Target/usbd_conf.c **** 
 185:USB_Device/Target/usbd_conf.c ****   /* USER CODE END HAL_PCD_DataInStageCallback_PreTreatment */
 186:USB_Device/Target/usbd_conf.c ****   USBD_LL_DataInStage((USBD_HandleTypeDef*)hpcd->pData, epnum, hpcd->IN_ep[epnum].xfer_buff);
 187:USB_Device/Target/usbd_conf.c ****   /* USER CODE BEGIN HAL_PCD_DataInStageCallback_PostTreatment  */
 188:USB_Device/Target/usbd_conf.c **** 
 189:USB_Device/Target/usbd_conf.c ****   /* USER CODE END HAL_PCD_DataInStageCallback_PostTreatment */
 190:USB_Device/Target/usbd_conf.c **** }
 191:USB_Device/Target/usbd_conf.c **** 
 192:USB_Device/Target/usbd_conf.c **** /**
 193:USB_Device/Target/usbd_conf.c ****   * @brief  SOF callback.
 194:USB_Device/Target/usbd_conf.c ****   * @param  hpcd: PCD handle
 195:USB_Device/Target/usbd_conf.c ****   * @retval None
 196:USB_Device/Target/usbd_conf.c ****   */
 197:USB_Device/Target/usbd_conf.c **** #if (USE_HAL_PCD_REGISTER_CALLBACKS == 1U)
 198:USB_Device/Target/usbd_conf.c **** static void PCD_SOFCallback(PCD_HandleTypeDef *hpcd)
 199:USB_Device/Target/usbd_conf.c **** #else
 200:USB_Device/Target/usbd_conf.c **** void HAL_PCD_SOFCallback(PCD_HandleTypeDef *hpcd)
 201:USB_Device/Target/usbd_conf.c **** #endif /* USE_HAL_PCD_REGISTER_CALLBACKS */
ARM GAS  /tmp/ccIa1zuE.s 			page 5


 202:USB_Device/Target/usbd_conf.c **** {
 203:USB_Device/Target/usbd_conf.c ****   /* USER CODE BEGIN HAL_PCD_SOFCallback_PreTreatment */
 204:USB_Device/Target/usbd_conf.c **** 
 205:USB_Device/Target/usbd_conf.c ****   /* USER CODE END HAL_PCD_SOFCallback_PreTreatment */
 206:USB_Device/Target/usbd_conf.c ****   USBD_LL_SOF((USBD_HandleTypeDef*)hpcd->pData);
 207:USB_Device/Target/usbd_conf.c ****   /* USER CODE BEGIN HAL_PCD_SOFCallback_PostTreatment */
 208:USB_Device/Target/usbd_conf.c **** 
 209:USB_Device/Target/usbd_conf.c ****   /* USER CODE END HAL_PCD_SOFCallback_PostTreatment */
 210:USB_Device/Target/usbd_conf.c **** }
 211:USB_Device/Target/usbd_conf.c **** 
 212:USB_Device/Target/usbd_conf.c **** /**
 213:USB_Device/Target/usbd_conf.c ****   * @brief  Reset callback.
 214:USB_Device/Target/usbd_conf.c ****   * @param  hpcd: PCD handle
 215:USB_Device/Target/usbd_conf.c ****   * @retval None
 216:USB_Device/Target/usbd_conf.c ****   */
 217:USB_Device/Target/usbd_conf.c **** #if (USE_HAL_PCD_REGISTER_CALLBACKS == 1U)
 218:USB_Device/Target/usbd_conf.c **** static void PCD_ResetCallback(PCD_HandleTypeDef *hpcd)
 219:USB_Device/Target/usbd_conf.c **** #else
 220:USB_Device/Target/usbd_conf.c **** void HAL_PCD_ResetCallback(PCD_HandleTypeDef *hpcd)
 221:USB_Device/Target/usbd_conf.c **** #endif /* USE_HAL_PCD_REGISTER_CALLBACKS */
 222:USB_Device/Target/usbd_conf.c **** {
 223:USB_Device/Target/usbd_conf.c ****   /* USER CODE BEGIN HAL_PCD_ResetCallback_PreTreatment */
 224:USB_Device/Target/usbd_conf.c **** 
 225:USB_Device/Target/usbd_conf.c ****   /* USER CODE END HAL_PCD_ResetCallback_PreTreatment */
 226:USB_Device/Target/usbd_conf.c ****   USBD_SpeedTypeDef speed = USBD_SPEED_FULL;
 227:USB_Device/Target/usbd_conf.c **** 
 228:USB_Device/Target/usbd_conf.c ****   if ( hpcd->Init.speed != PCD_SPEED_FULL)
 229:USB_Device/Target/usbd_conf.c ****   {
 230:USB_Device/Target/usbd_conf.c ****     Error_Handler();
 231:USB_Device/Target/usbd_conf.c ****   }
 232:USB_Device/Target/usbd_conf.c ****     /* Set Speed. */
 233:USB_Device/Target/usbd_conf.c ****   USBD_LL_SetSpeed((USBD_HandleTypeDef*)hpcd->pData, speed);
 234:USB_Device/Target/usbd_conf.c **** 
 235:USB_Device/Target/usbd_conf.c ****   /* Reset Device. */
 236:USB_Device/Target/usbd_conf.c ****   USBD_LL_Reset((USBD_HandleTypeDef*)hpcd->pData);
 237:USB_Device/Target/usbd_conf.c ****   /* USER CODE BEGIN HAL_PCD_ResetCallback_PostTreatment */
 238:USB_Device/Target/usbd_conf.c **** 
 239:USB_Device/Target/usbd_conf.c ****   /* USER CODE END HAL_PCD_ResetCallback_PostTreatment */
 240:USB_Device/Target/usbd_conf.c **** }
 241:USB_Device/Target/usbd_conf.c **** 
 242:USB_Device/Target/usbd_conf.c **** /**
 243:USB_Device/Target/usbd_conf.c ****   * @brief  Suspend callback.
 244:USB_Device/Target/usbd_conf.c ****   * When Low power mode is enabled the debug cannot be used (IAR, Keil doesn't support it)
 245:USB_Device/Target/usbd_conf.c ****   * @param  hpcd: PCD handle
 246:USB_Device/Target/usbd_conf.c ****   * @retval None
 247:USB_Device/Target/usbd_conf.c ****   */
 248:USB_Device/Target/usbd_conf.c **** #if (USE_HAL_PCD_REGISTER_CALLBACKS == 1U)
 249:USB_Device/Target/usbd_conf.c **** static void PCD_SuspendCallback(PCD_HandleTypeDef *hpcd)
 250:USB_Device/Target/usbd_conf.c **** #else
 251:USB_Device/Target/usbd_conf.c **** void HAL_PCD_SuspendCallback(PCD_HandleTypeDef *hpcd)
 252:USB_Device/Target/usbd_conf.c **** #endif /* USE_HAL_PCD_REGISTER_CALLBACKS */
 253:USB_Device/Target/usbd_conf.c **** {
 254:USB_Device/Target/usbd_conf.c ****   /* USER CODE BEGIN HAL_PCD_SuspendCallback_PreTreatment */
 255:USB_Device/Target/usbd_conf.c **** 
 256:USB_Device/Target/usbd_conf.c ****   /* USER CODE END HAL_PCD_SuspendCallback_PreTreatment */
 257:USB_Device/Target/usbd_conf.c ****   /* Inform USB library that core enters in suspend Mode. */
 258:USB_Device/Target/usbd_conf.c ****   USBD_LL_Suspend((USBD_HandleTypeDef*)hpcd->pData);
ARM GAS  /tmp/ccIa1zuE.s 			page 6


 259:USB_Device/Target/usbd_conf.c ****   /* Enter in STOP mode. */
 260:USB_Device/Target/usbd_conf.c ****   /* USER CODE BEGIN 2 */
 261:USB_Device/Target/usbd_conf.c ****   if (hpcd->Init.low_power_enable)
 262:USB_Device/Target/usbd_conf.c ****   {
 263:USB_Device/Target/usbd_conf.c ****     /* Set SLEEPDEEP bit and SleepOnExit of Cortex System Control Register. */
 264:USB_Device/Target/usbd_conf.c ****     SCB->SCR |= (uint32_t)((uint32_t)(SCB_SCR_SLEEPDEEP_Msk | SCB_SCR_SLEEPONEXIT_Msk));
 265:USB_Device/Target/usbd_conf.c ****   }
 266:USB_Device/Target/usbd_conf.c ****   /* USER CODE END 2 */
 267:USB_Device/Target/usbd_conf.c ****   /* USER CODE BEGIN HAL_PCD_SuspendCallback_PostTreatment */
 268:USB_Device/Target/usbd_conf.c **** 
 269:USB_Device/Target/usbd_conf.c ****   /* USER CODE END HAL_PCD_SuspendCallback_PostTreatment */
 270:USB_Device/Target/usbd_conf.c **** }
 271:USB_Device/Target/usbd_conf.c **** 
 272:USB_Device/Target/usbd_conf.c **** /**
 273:USB_Device/Target/usbd_conf.c ****   * @brief  Resume callback.
 274:USB_Device/Target/usbd_conf.c ****   * When Low power mode is enabled the debug cannot be used (IAR, Keil doesn't support it)
 275:USB_Device/Target/usbd_conf.c ****   * @param  hpcd: PCD handle
 276:USB_Device/Target/usbd_conf.c ****   * @retval None
 277:USB_Device/Target/usbd_conf.c ****   */
 278:USB_Device/Target/usbd_conf.c **** #if (USE_HAL_PCD_REGISTER_CALLBACKS == 1U)
 279:USB_Device/Target/usbd_conf.c **** static void PCD_ResumeCallback(PCD_HandleTypeDef *hpcd)
 280:USB_Device/Target/usbd_conf.c **** #else
 281:USB_Device/Target/usbd_conf.c **** void HAL_PCD_ResumeCallback(PCD_HandleTypeDef *hpcd)
 282:USB_Device/Target/usbd_conf.c **** #endif /* USE_HAL_PCD_REGISTER_CALLBACKS */
 283:USB_Device/Target/usbd_conf.c **** {
 284:USB_Device/Target/usbd_conf.c ****   /* USER CODE BEGIN HAL_PCD_ResumeCallback_PreTreatment */
 285:USB_Device/Target/usbd_conf.c **** 
 286:USB_Device/Target/usbd_conf.c ****   /* USER CODE END HAL_PCD_ResumeCallback_PreTreatment */
 287:USB_Device/Target/usbd_conf.c **** 
 288:USB_Device/Target/usbd_conf.c ****   /* USER CODE BEGIN 3 */
 289:USB_Device/Target/usbd_conf.c ****   if (hpcd->Init.low_power_enable)
 290:USB_Device/Target/usbd_conf.c ****   {
 291:USB_Device/Target/usbd_conf.c ****     /* Reset SLEEPDEEP bit of Cortex System Control Register. */
 292:USB_Device/Target/usbd_conf.c ****     SCB->SCR &= (uint32_t)~((uint32_t)(SCB_SCR_SLEEPDEEP_Msk | SCB_SCR_SLEEPONEXIT_Msk));
 293:USB_Device/Target/usbd_conf.c ****     SystemClockConfig_Resume();
 294:USB_Device/Target/usbd_conf.c ****   }
 295:USB_Device/Target/usbd_conf.c ****   /* USER CODE END 3 */
 296:USB_Device/Target/usbd_conf.c **** 
 297:USB_Device/Target/usbd_conf.c ****   USBD_LL_Resume((USBD_HandleTypeDef*)hpcd->pData);
 298:USB_Device/Target/usbd_conf.c ****   /* USER CODE BEGIN HAL_PCD_ResumeCallback_PostTreatment */
 299:USB_Device/Target/usbd_conf.c **** 
 300:USB_Device/Target/usbd_conf.c ****   /* USER CODE END HAL_PCD_ResumeCallback_PostTreatment */
 301:USB_Device/Target/usbd_conf.c **** }
 302:USB_Device/Target/usbd_conf.c **** 
 303:USB_Device/Target/usbd_conf.c **** /**
 304:USB_Device/Target/usbd_conf.c ****   * @brief  ISOOUTIncomplete callback.
 305:USB_Device/Target/usbd_conf.c ****   * @param  hpcd: PCD handle
 306:USB_Device/Target/usbd_conf.c ****   * @param  epnum: Endpoint number
 307:USB_Device/Target/usbd_conf.c ****   * @retval None
 308:USB_Device/Target/usbd_conf.c ****   */
 309:USB_Device/Target/usbd_conf.c **** #if (USE_HAL_PCD_REGISTER_CALLBACKS == 1U)
 310:USB_Device/Target/usbd_conf.c **** static void PCD_ISOOUTIncompleteCallback(PCD_HandleTypeDef *hpcd, uint8_t epnum)
 311:USB_Device/Target/usbd_conf.c **** #else
 312:USB_Device/Target/usbd_conf.c **** void HAL_PCD_ISOOUTIncompleteCallback(PCD_HandleTypeDef *hpcd, uint8_t epnum)
 313:USB_Device/Target/usbd_conf.c **** #endif /* USE_HAL_PCD_REGISTER_CALLBACKS */
 314:USB_Device/Target/usbd_conf.c **** {
 315:USB_Device/Target/usbd_conf.c ****   /* USER CODE BEGIN HAL_PCD_ISOOUTIncompleteCallback_PreTreatment */
ARM GAS  /tmp/ccIa1zuE.s 			page 7


 316:USB_Device/Target/usbd_conf.c **** 
 317:USB_Device/Target/usbd_conf.c ****   /* USER CODE END HAL_PCD_ISOOUTIncompleteCallback_PreTreatment */
 318:USB_Device/Target/usbd_conf.c ****   USBD_LL_IsoOUTIncomplete((USBD_HandleTypeDef*)hpcd->pData, epnum);
 319:USB_Device/Target/usbd_conf.c ****   /* USER CODE BEGIN HAL_PCD_ISOOUTIncompleteCallback_PostTreatment */
 320:USB_Device/Target/usbd_conf.c **** 
 321:USB_Device/Target/usbd_conf.c ****   /* USER CODE END HAL_PCD_ISOOUTIncompleteCallback_PostTreatment */
 322:USB_Device/Target/usbd_conf.c **** }
 323:USB_Device/Target/usbd_conf.c **** 
 324:USB_Device/Target/usbd_conf.c **** /**
 325:USB_Device/Target/usbd_conf.c ****   * @brief  ISOINIncomplete callback.
 326:USB_Device/Target/usbd_conf.c ****   * @param  hpcd: PCD handle
 327:USB_Device/Target/usbd_conf.c ****   * @param  epnum: Endpoint number
 328:USB_Device/Target/usbd_conf.c ****   * @retval None
 329:USB_Device/Target/usbd_conf.c ****   */
 330:USB_Device/Target/usbd_conf.c **** #if (USE_HAL_PCD_REGISTER_CALLBACKS == 1U)
 331:USB_Device/Target/usbd_conf.c **** static void PCD_ISOINIncompleteCallback(PCD_HandleTypeDef *hpcd, uint8_t epnum)
 332:USB_Device/Target/usbd_conf.c **** #else
 333:USB_Device/Target/usbd_conf.c **** void HAL_PCD_ISOINIncompleteCallback(PCD_HandleTypeDef *hpcd, uint8_t epnum)
 334:USB_Device/Target/usbd_conf.c **** #endif /* USE_HAL_PCD_REGISTER_CALLBACKS */
 335:USB_Device/Target/usbd_conf.c **** {
 336:USB_Device/Target/usbd_conf.c ****   /* USER CODE BEGIN HAL_PCD_ISOINIncompleteCallback_PreTreatment */
 337:USB_Device/Target/usbd_conf.c **** 
 338:USB_Device/Target/usbd_conf.c ****   /* USER CODE END HAL_PCD_ISOINIncompleteCallback_PreTreatment */
 339:USB_Device/Target/usbd_conf.c ****   USBD_LL_IsoINIncomplete((USBD_HandleTypeDef*)hpcd->pData, epnum);
 340:USB_Device/Target/usbd_conf.c ****   /* USER CODE BEGIN HAL_PCD_ISOINIncompleteCallback_PostTreatment */
 341:USB_Device/Target/usbd_conf.c **** 
 342:USB_Device/Target/usbd_conf.c ****   /* USER CODE END HAL_PCD_ISOINIncompleteCallback_PostTreatment */
 343:USB_Device/Target/usbd_conf.c **** }
 344:USB_Device/Target/usbd_conf.c **** 
 345:USB_Device/Target/usbd_conf.c **** /**
 346:USB_Device/Target/usbd_conf.c ****   * @brief  Connect callback.
 347:USB_Device/Target/usbd_conf.c ****   * @param  hpcd: PCD handle
 348:USB_Device/Target/usbd_conf.c ****   * @retval None
 349:USB_Device/Target/usbd_conf.c ****   */
 350:USB_Device/Target/usbd_conf.c **** #if (USE_HAL_PCD_REGISTER_CALLBACKS == 1U)
 351:USB_Device/Target/usbd_conf.c **** static void PCD_ConnectCallback(PCD_HandleTypeDef *hpcd)
 352:USB_Device/Target/usbd_conf.c **** #else
 353:USB_Device/Target/usbd_conf.c **** void HAL_PCD_ConnectCallback(PCD_HandleTypeDef *hpcd)
 354:USB_Device/Target/usbd_conf.c **** #endif /* USE_HAL_PCD_REGISTER_CALLBACKS */
 355:USB_Device/Target/usbd_conf.c **** {
 356:USB_Device/Target/usbd_conf.c ****   /* USER CODE BEGIN HAL_PCD_ConnectCallback_PreTreatment */
 357:USB_Device/Target/usbd_conf.c **** 
 358:USB_Device/Target/usbd_conf.c ****   /* USER CODE END HAL_PCD_ConnectCallback_PreTreatment */
 359:USB_Device/Target/usbd_conf.c ****   USBD_LL_DevConnected((USBD_HandleTypeDef*)hpcd->pData);
 360:USB_Device/Target/usbd_conf.c ****   /* USER CODE BEGIN HAL_PCD_ConnectCallback_PostTreatment */
 361:USB_Device/Target/usbd_conf.c **** 
 362:USB_Device/Target/usbd_conf.c ****   /* USER CODE END HAL_PCD_ConnectCallback_PostTreatment */
 363:USB_Device/Target/usbd_conf.c **** }
 364:USB_Device/Target/usbd_conf.c **** 
 365:USB_Device/Target/usbd_conf.c **** /**
 366:USB_Device/Target/usbd_conf.c ****   * @brief  Disconnect callback.
 367:USB_Device/Target/usbd_conf.c ****   * @param  hpcd: PCD handle
 368:USB_Device/Target/usbd_conf.c ****   * @retval None
 369:USB_Device/Target/usbd_conf.c ****   */
 370:USB_Device/Target/usbd_conf.c **** #if (USE_HAL_PCD_REGISTER_CALLBACKS == 1U)
 371:USB_Device/Target/usbd_conf.c **** static void PCD_DisconnectCallback(PCD_HandleTypeDef *hpcd)
 372:USB_Device/Target/usbd_conf.c **** #else
ARM GAS  /tmp/ccIa1zuE.s 			page 8


 373:USB_Device/Target/usbd_conf.c **** void HAL_PCD_DisconnectCallback(PCD_HandleTypeDef *hpcd)
 374:USB_Device/Target/usbd_conf.c **** #endif /* USE_HAL_PCD_REGISTER_CALLBACKS */
 375:USB_Device/Target/usbd_conf.c **** {
 376:USB_Device/Target/usbd_conf.c ****   /* USER CODE BEGIN HAL_PCD_DisconnectCallback_PreTreatment */
 377:USB_Device/Target/usbd_conf.c **** 
 378:USB_Device/Target/usbd_conf.c ****   /* USER CODE END HAL_PCD_DisconnectCallback_PreTreatment */
 379:USB_Device/Target/usbd_conf.c ****   USBD_LL_DevDisconnected((USBD_HandleTypeDef*)hpcd->pData);
 380:USB_Device/Target/usbd_conf.c ****   /* USER CODE BEGIN HAL_PCD_DisconnectCallback_PostTreatment */
 381:USB_Device/Target/usbd_conf.c **** 
 382:USB_Device/Target/usbd_conf.c ****   /* USER CODE END HAL_PCD_DisconnectCallback_PostTreatment */
 383:USB_Device/Target/usbd_conf.c **** }
 384:USB_Device/Target/usbd_conf.c **** 
 385:USB_Device/Target/usbd_conf.c ****   /* USER CODE BEGIN LowLevelInterface */
 386:USB_Device/Target/usbd_conf.c **** 
 387:USB_Device/Target/usbd_conf.c ****   /* USER CODE END LowLevelInterface */
 388:USB_Device/Target/usbd_conf.c **** 
 389:USB_Device/Target/usbd_conf.c **** /*******************************************************************************
 390:USB_Device/Target/usbd_conf.c ****                        LL Driver Interface (USB Device Library --> PCD)
 391:USB_Device/Target/usbd_conf.c **** *******************************************************************************/
 392:USB_Device/Target/usbd_conf.c **** 
 393:USB_Device/Target/usbd_conf.c **** /**
 394:USB_Device/Target/usbd_conf.c ****   * @brief  Initializes the low level portion of the device driver.
 395:USB_Device/Target/usbd_conf.c ****   * @param  pdev: Device handle
 396:USB_Device/Target/usbd_conf.c ****   * @retval USBD status
 397:USB_Device/Target/usbd_conf.c ****   */
 398:USB_Device/Target/usbd_conf.c **** USBD_StatusTypeDef USBD_LL_Init(USBD_HandleTypeDef *pdev)
 399:USB_Device/Target/usbd_conf.c **** {
 400:USB_Device/Target/usbd_conf.c ****   /* Init USB Ip. */
 401:USB_Device/Target/usbd_conf.c ****   hpcd_USB_FS.pData = pdev;
 402:USB_Device/Target/usbd_conf.c ****   /* Link the driver to the stack. */
 403:USB_Device/Target/usbd_conf.c ****   pdev->pData = &hpcd_USB_FS;
 404:USB_Device/Target/usbd_conf.c **** 
 405:USB_Device/Target/usbd_conf.c ****   hpcd_USB_FS.Instance = USB;
 406:USB_Device/Target/usbd_conf.c ****   hpcd_USB_FS.Init.dev_endpoints = 8;
 407:USB_Device/Target/usbd_conf.c ****   hpcd_USB_FS.Init.speed = PCD_SPEED_FULL;
 408:USB_Device/Target/usbd_conf.c ****   hpcd_USB_FS.Init.phy_itface = PCD_PHY_EMBEDDED;
 409:USB_Device/Target/usbd_conf.c ****   hpcd_USB_FS.Init.Sof_enable = DISABLE;
 410:USB_Device/Target/usbd_conf.c ****   hpcd_USB_FS.Init.low_power_enable = DISABLE;
 411:USB_Device/Target/usbd_conf.c ****   hpcd_USB_FS.Init.lpm_enable = DISABLE;
 412:USB_Device/Target/usbd_conf.c ****   hpcd_USB_FS.Init.battery_charging_enable = DISABLE;
 413:USB_Device/Target/usbd_conf.c **** 
 414:USB_Device/Target/usbd_conf.c ****   #if (USE_HAL_PCD_REGISTER_CALLBACKS == 1U)
 415:USB_Device/Target/usbd_conf.c ****   /* register Msp Callbacks (before the Init) */
 416:USB_Device/Target/usbd_conf.c ****   HAL_PCD_RegisterCallback(&hpcd_USB_FS, HAL_PCD_MSPINIT_CB_ID, PCD_MspInit);
 417:USB_Device/Target/usbd_conf.c ****   HAL_PCD_RegisterCallback(&hpcd_USB_FS, HAL_PCD_MSPDEINIT_CB_ID, PCD_MspDeInit);
 418:USB_Device/Target/usbd_conf.c ****   #endif /* USE_HAL_PCD_REGISTER_CALLBACKS */
 419:USB_Device/Target/usbd_conf.c **** 
 420:USB_Device/Target/usbd_conf.c ****   if (HAL_PCD_Init(&hpcd_USB_FS) != HAL_OK)
 421:USB_Device/Target/usbd_conf.c ****   {
 422:USB_Device/Target/usbd_conf.c ****     Error_Handler( );
 423:USB_Device/Target/usbd_conf.c ****   }
 424:USB_Device/Target/usbd_conf.c **** 
 425:USB_Device/Target/usbd_conf.c **** #if (USE_HAL_PCD_REGISTER_CALLBACKS == 1U)
 426:USB_Device/Target/usbd_conf.c ****   /* Register USB PCD CallBacks */
 427:USB_Device/Target/usbd_conf.c ****   HAL_PCD_RegisterCallback(&hpcd_USB_FS, HAL_PCD_SOF_CB_ID, PCD_SOFCallback);
 428:USB_Device/Target/usbd_conf.c ****   HAL_PCD_RegisterCallback(&hpcd_USB_FS, HAL_PCD_SETUPSTAGE_CB_ID, PCD_SetupStageCallback);
 429:USB_Device/Target/usbd_conf.c ****   HAL_PCD_RegisterCallback(&hpcd_USB_FS, HAL_PCD_RESET_CB_ID, PCD_ResetCallback);
ARM GAS  /tmp/ccIa1zuE.s 			page 9


 430:USB_Device/Target/usbd_conf.c ****   HAL_PCD_RegisterCallback(&hpcd_USB_FS, HAL_PCD_SUSPEND_CB_ID, PCD_SuspendCallback);
 431:USB_Device/Target/usbd_conf.c ****   HAL_PCD_RegisterCallback(&hpcd_USB_FS, HAL_PCD_RESUME_CB_ID, PCD_ResumeCallback);
 432:USB_Device/Target/usbd_conf.c ****   HAL_PCD_RegisterCallback(&hpcd_USB_FS, HAL_PCD_CONNECT_CB_ID, PCD_ConnectCallback);
 433:USB_Device/Target/usbd_conf.c ****   HAL_PCD_RegisterCallback(&hpcd_USB_FS, HAL_PCD_DISCONNECT_CB_ID, PCD_DisconnectCallback);
 434:USB_Device/Target/usbd_conf.c ****   /* USER CODE BEGIN RegisterCallBackFirstPart */
 435:USB_Device/Target/usbd_conf.c **** 
 436:USB_Device/Target/usbd_conf.c ****   /* USER CODE END RegisterCallBackFirstPart */
 437:USB_Device/Target/usbd_conf.c ****   HAL_PCD_RegisterLpmCallback(&hpcd_USB_FS, PCDEx_LPM_Callback);
 438:USB_Device/Target/usbd_conf.c ****   HAL_PCD_RegisterDataOutStageCallback(&hpcd_USB_FS, PCD_DataOutStageCallback);
 439:USB_Device/Target/usbd_conf.c ****   HAL_PCD_RegisterDataInStageCallback(&hpcd_USB_FS, PCD_DataInStageCallback);
 440:USB_Device/Target/usbd_conf.c ****   HAL_PCD_RegisterIsoOutIncpltCallback(&hpcd_USB_FS, PCD_ISOOUTIncompleteCallback);
 441:USB_Device/Target/usbd_conf.c ****   HAL_PCD_RegisterIsoInIncpltCallback(&hpcd_USB_FS, PCD_ISOINIncompleteCallback);
 442:USB_Device/Target/usbd_conf.c ****   /* USER CODE BEGIN RegisterCallBackSecondPart */
 443:USB_Device/Target/usbd_conf.c **** 
 444:USB_Device/Target/usbd_conf.c ****   /* USER CODE END RegisterCallBackSecondPart */
 445:USB_Device/Target/usbd_conf.c **** #endif /* USE_HAL_PCD_REGISTER_CALLBACKS */
 446:USB_Device/Target/usbd_conf.c ****   /* USER CODE BEGIN EndPoint_Configuration */
 447:USB_Device/Target/usbd_conf.c ****   HAL_PCDEx_PMAConfig((PCD_HandleTypeDef*)pdev->pData , 0x00 , PCD_SNG_BUF, 0x18);
 448:USB_Device/Target/usbd_conf.c ****   HAL_PCDEx_PMAConfig((PCD_HandleTypeDef*)pdev->pData , 0x80 , PCD_SNG_BUF, 0x58);
 449:USB_Device/Target/usbd_conf.c ****   /* USER CODE END EndPoint_Configuration */
 450:USB_Device/Target/usbd_conf.c ****   /* USER CODE BEGIN EndPoint_Configuration_CDC */
 451:USB_Device/Target/usbd_conf.c ****   HAL_PCDEx_PMAConfig((PCD_HandleTypeDef*)pdev->pData , 0x81 , PCD_SNG_BUF, 0xC0);
 452:USB_Device/Target/usbd_conf.c ****   HAL_PCDEx_PMAConfig((PCD_HandleTypeDef*)pdev->pData , 0x01 , PCD_SNG_BUF, 0x110);
 453:USB_Device/Target/usbd_conf.c ****   HAL_PCDEx_PMAConfig((PCD_HandleTypeDef*)pdev->pData , 0x82 , PCD_SNG_BUF, 0x100);
 454:USB_Device/Target/usbd_conf.c ****   /* USER CODE END EndPoint_Configuration_CDC */
 455:USB_Device/Target/usbd_conf.c ****   return USBD_OK;
 456:USB_Device/Target/usbd_conf.c **** }
 457:USB_Device/Target/usbd_conf.c **** 
 458:USB_Device/Target/usbd_conf.c **** /**
 459:USB_Device/Target/usbd_conf.c ****   * @brief  De-Initializes the low level portion of the device driver.
 460:USB_Device/Target/usbd_conf.c ****   * @param  pdev: Device handle
 461:USB_Device/Target/usbd_conf.c ****   * @retval USBD status
 462:USB_Device/Target/usbd_conf.c ****   */
 463:USB_Device/Target/usbd_conf.c **** USBD_StatusTypeDef USBD_LL_DeInit(USBD_HandleTypeDef *pdev)
 464:USB_Device/Target/usbd_conf.c **** {
 465:USB_Device/Target/usbd_conf.c ****   HAL_StatusTypeDef hal_status = HAL_OK;
 466:USB_Device/Target/usbd_conf.c ****   USBD_StatusTypeDef usb_status = USBD_OK;
 467:USB_Device/Target/usbd_conf.c **** 
 468:USB_Device/Target/usbd_conf.c ****   hal_status = HAL_PCD_DeInit(pdev->pData);
 469:USB_Device/Target/usbd_conf.c **** 
 470:USB_Device/Target/usbd_conf.c ****   usb_status =  USBD_Get_USB_Status(hal_status);
 471:USB_Device/Target/usbd_conf.c **** 
 472:USB_Device/Target/usbd_conf.c ****   return usb_status;
 473:USB_Device/Target/usbd_conf.c **** }
 474:USB_Device/Target/usbd_conf.c **** 
 475:USB_Device/Target/usbd_conf.c **** /**
 476:USB_Device/Target/usbd_conf.c ****   * @brief  Starts the low level portion of the device driver.
 477:USB_Device/Target/usbd_conf.c ****   * @param  pdev: Device handle
 478:USB_Device/Target/usbd_conf.c ****   * @retval USBD status
 479:USB_Device/Target/usbd_conf.c ****   */
 480:USB_Device/Target/usbd_conf.c **** USBD_StatusTypeDef USBD_LL_Start(USBD_HandleTypeDef *pdev)
 481:USB_Device/Target/usbd_conf.c **** {
 482:USB_Device/Target/usbd_conf.c ****   HAL_StatusTypeDef hal_status = HAL_OK;
 483:USB_Device/Target/usbd_conf.c ****   USBD_StatusTypeDef usb_status = USBD_OK;
 484:USB_Device/Target/usbd_conf.c **** 
 485:USB_Device/Target/usbd_conf.c ****   hal_status = HAL_PCD_Start(pdev->pData);
 486:USB_Device/Target/usbd_conf.c **** 
ARM GAS  /tmp/ccIa1zuE.s 			page 10


 487:USB_Device/Target/usbd_conf.c ****   usb_status =  USBD_Get_USB_Status(hal_status);
 488:USB_Device/Target/usbd_conf.c **** 
 489:USB_Device/Target/usbd_conf.c ****   return usb_status;
 490:USB_Device/Target/usbd_conf.c **** }
 491:USB_Device/Target/usbd_conf.c **** 
 492:USB_Device/Target/usbd_conf.c **** /**
 493:USB_Device/Target/usbd_conf.c ****   * @brief  Stops the low level portion of the device driver.
 494:USB_Device/Target/usbd_conf.c ****   * @param  pdev: Device handle
 495:USB_Device/Target/usbd_conf.c ****   * @retval USBD status
 496:USB_Device/Target/usbd_conf.c ****   */
 497:USB_Device/Target/usbd_conf.c **** USBD_StatusTypeDef USBD_LL_Stop(USBD_HandleTypeDef *pdev)
 498:USB_Device/Target/usbd_conf.c **** {
 499:USB_Device/Target/usbd_conf.c ****   HAL_StatusTypeDef hal_status = HAL_OK;
 500:USB_Device/Target/usbd_conf.c ****   USBD_StatusTypeDef usb_status = USBD_OK;
 501:USB_Device/Target/usbd_conf.c **** 
 502:USB_Device/Target/usbd_conf.c ****   hal_status = HAL_PCD_Stop(pdev->pData);
 503:USB_Device/Target/usbd_conf.c **** 
 504:USB_Device/Target/usbd_conf.c ****   usb_status =  USBD_Get_USB_Status(hal_status);
 505:USB_Device/Target/usbd_conf.c **** 
 506:USB_Device/Target/usbd_conf.c ****   return usb_status;
 507:USB_Device/Target/usbd_conf.c **** }
 508:USB_Device/Target/usbd_conf.c **** 
 509:USB_Device/Target/usbd_conf.c **** /**
 510:USB_Device/Target/usbd_conf.c ****   * @brief  Opens an endpoint of the low level driver.
 511:USB_Device/Target/usbd_conf.c ****   * @param  pdev: Device handle
 512:USB_Device/Target/usbd_conf.c ****   * @param  ep_addr: Endpoint number
 513:USB_Device/Target/usbd_conf.c ****   * @param  ep_type: Endpoint type
 514:USB_Device/Target/usbd_conf.c ****   * @param  ep_mps: Endpoint max packet size
 515:USB_Device/Target/usbd_conf.c ****   * @retval USBD status
 516:USB_Device/Target/usbd_conf.c ****   */
 517:USB_Device/Target/usbd_conf.c **** USBD_StatusTypeDef USBD_LL_OpenEP(USBD_HandleTypeDef *pdev, uint8_t ep_addr, uint8_t ep_type, uint1
 518:USB_Device/Target/usbd_conf.c **** {
 519:USB_Device/Target/usbd_conf.c ****   HAL_StatusTypeDef hal_status = HAL_OK;
 520:USB_Device/Target/usbd_conf.c ****   USBD_StatusTypeDef usb_status = USBD_OK;
 521:USB_Device/Target/usbd_conf.c **** 
 522:USB_Device/Target/usbd_conf.c ****   hal_status = HAL_PCD_EP_Open(pdev->pData, ep_addr, ep_mps, ep_type);
 523:USB_Device/Target/usbd_conf.c **** 
 524:USB_Device/Target/usbd_conf.c ****   usb_status =  USBD_Get_USB_Status(hal_status);
 525:USB_Device/Target/usbd_conf.c **** 
 526:USB_Device/Target/usbd_conf.c ****   return usb_status;
 527:USB_Device/Target/usbd_conf.c **** }
 528:USB_Device/Target/usbd_conf.c **** 
 529:USB_Device/Target/usbd_conf.c **** /**
 530:USB_Device/Target/usbd_conf.c ****   * @brief  Closes an endpoint of the low level driver.
 531:USB_Device/Target/usbd_conf.c ****   * @param  pdev: Device handle
 532:USB_Device/Target/usbd_conf.c ****   * @param  ep_addr: Endpoint number
 533:USB_Device/Target/usbd_conf.c ****   * @retval USBD status
 534:USB_Device/Target/usbd_conf.c ****   */
 535:USB_Device/Target/usbd_conf.c **** USBD_StatusTypeDef USBD_LL_CloseEP(USBD_HandleTypeDef *pdev, uint8_t ep_addr)
 536:USB_Device/Target/usbd_conf.c **** {
 537:USB_Device/Target/usbd_conf.c ****   HAL_StatusTypeDef hal_status = HAL_OK;
 538:USB_Device/Target/usbd_conf.c ****   USBD_StatusTypeDef usb_status = USBD_OK;
 539:USB_Device/Target/usbd_conf.c **** 
 540:USB_Device/Target/usbd_conf.c ****   hal_status = HAL_PCD_EP_Close(pdev->pData, ep_addr);
 541:USB_Device/Target/usbd_conf.c **** 
 542:USB_Device/Target/usbd_conf.c ****   usb_status =  USBD_Get_USB_Status(hal_status);
 543:USB_Device/Target/usbd_conf.c **** 
ARM GAS  /tmp/ccIa1zuE.s 			page 11


 544:USB_Device/Target/usbd_conf.c ****   return usb_status;
 545:USB_Device/Target/usbd_conf.c **** }
 546:USB_Device/Target/usbd_conf.c **** 
 547:USB_Device/Target/usbd_conf.c **** /**
 548:USB_Device/Target/usbd_conf.c ****   * @brief  Flushes an endpoint of the Low Level Driver.
 549:USB_Device/Target/usbd_conf.c ****   * @param  pdev: Device handle
 550:USB_Device/Target/usbd_conf.c ****   * @param  ep_addr: Endpoint number
 551:USB_Device/Target/usbd_conf.c ****   * @retval USBD status
 552:USB_Device/Target/usbd_conf.c ****   */
 553:USB_Device/Target/usbd_conf.c **** USBD_StatusTypeDef USBD_LL_FlushEP(USBD_HandleTypeDef *pdev, uint8_t ep_addr)
 554:USB_Device/Target/usbd_conf.c **** {
 555:USB_Device/Target/usbd_conf.c ****   HAL_StatusTypeDef hal_status = HAL_OK;
 556:USB_Device/Target/usbd_conf.c ****   USBD_StatusTypeDef usb_status = USBD_OK;
 557:USB_Device/Target/usbd_conf.c **** 
 558:USB_Device/Target/usbd_conf.c ****   hal_status = HAL_PCD_EP_Flush(pdev->pData, ep_addr);
 559:USB_Device/Target/usbd_conf.c **** 
 560:USB_Device/Target/usbd_conf.c ****   usb_status =  USBD_Get_USB_Status(hal_status);
 561:USB_Device/Target/usbd_conf.c **** 
 562:USB_Device/Target/usbd_conf.c ****   return usb_status;
 563:USB_Device/Target/usbd_conf.c **** }
 564:USB_Device/Target/usbd_conf.c **** 
 565:USB_Device/Target/usbd_conf.c **** /**
 566:USB_Device/Target/usbd_conf.c ****   * @brief  Sets a Stall condition on an endpoint of the Low Level Driver.
 567:USB_Device/Target/usbd_conf.c ****   * @param  pdev: Device handle
 568:USB_Device/Target/usbd_conf.c ****   * @param  ep_addr: Endpoint number
 569:USB_Device/Target/usbd_conf.c ****   * @retval USBD status
 570:USB_Device/Target/usbd_conf.c ****   */
 571:USB_Device/Target/usbd_conf.c **** USBD_StatusTypeDef USBD_LL_StallEP(USBD_HandleTypeDef *pdev, uint8_t ep_addr)
 572:USB_Device/Target/usbd_conf.c **** {
 573:USB_Device/Target/usbd_conf.c ****   HAL_StatusTypeDef hal_status = HAL_OK;
 574:USB_Device/Target/usbd_conf.c ****   USBD_StatusTypeDef usb_status = USBD_OK;
 575:USB_Device/Target/usbd_conf.c **** 
 576:USB_Device/Target/usbd_conf.c ****   hal_status = HAL_PCD_EP_SetStall(pdev->pData, ep_addr);
 577:USB_Device/Target/usbd_conf.c **** 
 578:USB_Device/Target/usbd_conf.c ****   usb_status =  USBD_Get_USB_Status(hal_status);
 579:USB_Device/Target/usbd_conf.c **** 
 580:USB_Device/Target/usbd_conf.c ****   return usb_status;
 581:USB_Device/Target/usbd_conf.c **** }
 582:USB_Device/Target/usbd_conf.c **** 
 583:USB_Device/Target/usbd_conf.c **** /**
 584:USB_Device/Target/usbd_conf.c ****   * @brief  Clears a Stall condition on an endpoint of the Low Level Driver.
 585:USB_Device/Target/usbd_conf.c ****   * @param  pdev: Device handle
 586:USB_Device/Target/usbd_conf.c ****   * @param  ep_addr: Endpoint number
 587:USB_Device/Target/usbd_conf.c ****   * @retval USBD status
 588:USB_Device/Target/usbd_conf.c ****   */
 589:USB_Device/Target/usbd_conf.c **** USBD_StatusTypeDef USBD_LL_ClearStallEP(USBD_HandleTypeDef *pdev, uint8_t ep_addr)
 590:USB_Device/Target/usbd_conf.c **** {
 591:USB_Device/Target/usbd_conf.c ****   HAL_StatusTypeDef hal_status = HAL_OK;
 592:USB_Device/Target/usbd_conf.c ****   USBD_StatusTypeDef usb_status = USBD_OK;
 593:USB_Device/Target/usbd_conf.c **** 
 594:USB_Device/Target/usbd_conf.c ****   hal_status = HAL_PCD_EP_ClrStall(pdev->pData, ep_addr);
 595:USB_Device/Target/usbd_conf.c **** 
 596:USB_Device/Target/usbd_conf.c ****   usb_status =  USBD_Get_USB_Status(hal_status);
 597:USB_Device/Target/usbd_conf.c **** 
 598:USB_Device/Target/usbd_conf.c ****   return usb_status;
 599:USB_Device/Target/usbd_conf.c **** }
 600:USB_Device/Target/usbd_conf.c **** 
ARM GAS  /tmp/ccIa1zuE.s 			page 12


 601:USB_Device/Target/usbd_conf.c **** /**
 602:USB_Device/Target/usbd_conf.c ****   * @brief  Returns Stall condition.
 603:USB_Device/Target/usbd_conf.c ****   * @param  pdev: Device handle
 604:USB_Device/Target/usbd_conf.c ****   * @param  ep_addr: Endpoint number
 605:USB_Device/Target/usbd_conf.c ****   * @retval Stall (1: Yes, 0: No)
 606:USB_Device/Target/usbd_conf.c ****   */
 607:USB_Device/Target/usbd_conf.c **** uint8_t USBD_LL_IsStallEP(USBD_HandleTypeDef *pdev, uint8_t ep_addr)
 608:USB_Device/Target/usbd_conf.c **** {
 609:USB_Device/Target/usbd_conf.c ****   PCD_HandleTypeDef *hpcd = (PCD_HandleTypeDef*) pdev->pData;
 610:USB_Device/Target/usbd_conf.c **** 
 611:USB_Device/Target/usbd_conf.c ****   if((ep_addr & 0x80) == 0x80)
 612:USB_Device/Target/usbd_conf.c ****   {
 613:USB_Device/Target/usbd_conf.c ****     return hpcd->IN_ep[ep_addr & 0x7F].is_stall;
 614:USB_Device/Target/usbd_conf.c ****   }
 615:USB_Device/Target/usbd_conf.c ****   else
 616:USB_Device/Target/usbd_conf.c ****   {
 617:USB_Device/Target/usbd_conf.c ****     return hpcd->OUT_ep[ep_addr & 0x7F].is_stall;
 618:USB_Device/Target/usbd_conf.c ****   }
 619:USB_Device/Target/usbd_conf.c **** }
 620:USB_Device/Target/usbd_conf.c **** 
 621:USB_Device/Target/usbd_conf.c **** /**
 622:USB_Device/Target/usbd_conf.c ****   * @brief  Assigns a USB address to the device.
 623:USB_Device/Target/usbd_conf.c ****   * @param  pdev: Device handle
 624:USB_Device/Target/usbd_conf.c ****   * @param  dev_addr: Device address
 625:USB_Device/Target/usbd_conf.c ****   * @retval USBD status
 626:USB_Device/Target/usbd_conf.c ****   */
 627:USB_Device/Target/usbd_conf.c **** USBD_StatusTypeDef USBD_LL_SetUSBAddress(USBD_HandleTypeDef *pdev, uint8_t dev_addr)
 628:USB_Device/Target/usbd_conf.c **** {
 629:USB_Device/Target/usbd_conf.c ****   HAL_StatusTypeDef hal_status = HAL_OK;
 630:USB_Device/Target/usbd_conf.c ****   USBD_StatusTypeDef usb_status = USBD_OK;
 631:USB_Device/Target/usbd_conf.c **** 
 632:USB_Device/Target/usbd_conf.c ****   hal_status = HAL_PCD_SetAddress(pdev->pData, dev_addr);
 633:USB_Device/Target/usbd_conf.c **** 
 634:USB_Device/Target/usbd_conf.c ****   usb_status =  USBD_Get_USB_Status(hal_status);
 635:USB_Device/Target/usbd_conf.c **** 
 636:USB_Device/Target/usbd_conf.c ****   return usb_status;
 637:USB_Device/Target/usbd_conf.c **** }
 638:USB_Device/Target/usbd_conf.c **** 
 639:USB_Device/Target/usbd_conf.c **** /**
 640:USB_Device/Target/usbd_conf.c ****   * @brief  Transmits data over an endpoint.
 641:USB_Device/Target/usbd_conf.c ****   * @param  pdev: Device handle
 642:USB_Device/Target/usbd_conf.c ****   * @param  ep_addr: Endpoint number
 643:USB_Device/Target/usbd_conf.c ****   * @param  pbuf: Pointer to data to be sent
 644:USB_Device/Target/usbd_conf.c ****   * @param  size: Data size
 645:USB_Device/Target/usbd_conf.c ****   * @retval USBD status
 646:USB_Device/Target/usbd_conf.c ****   */
 647:USB_Device/Target/usbd_conf.c **** USBD_StatusTypeDef USBD_LL_Transmit(USBD_HandleTypeDef *pdev, uint8_t ep_addr, uint8_t *pbuf, uint3
 648:USB_Device/Target/usbd_conf.c **** {
 649:USB_Device/Target/usbd_conf.c ****   HAL_StatusTypeDef hal_status = HAL_OK;
 650:USB_Device/Target/usbd_conf.c ****   USBD_StatusTypeDef usb_status = USBD_OK;
 651:USB_Device/Target/usbd_conf.c **** 
 652:USB_Device/Target/usbd_conf.c ****   hal_status = HAL_PCD_EP_Transmit(pdev->pData, ep_addr, pbuf, size);
 653:USB_Device/Target/usbd_conf.c **** 
 654:USB_Device/Target/usbd_conf.c ****   usb_status =  USBD_Get_USB_Status(hal_status);
 655:USB_Device/Target/usbd_conf.c **** 
 656:USB_Device/Target/usbd_conf.c ****   return usb_status;
 657:USB_Device/Target/usbd_conf.c **** }
ARM GAS  /tmp/ccIa1zuE.s 			page 13


 658:USB_Device/Target/usbd_conf.c **** 
 659:USB_Device/Target/usbd_conf.c **** /**
 660:USB_Device/Target/usbd_conf.c ****   * @brief  Prepares an endpoint for reception.
 661:USB_Device/Target/usbd_conf.c ****   * @param  pdev: Device handle
 662:USB_Device/Target/usbd_conf.c ****   * @param  ep_addr: Endpoint number
 663:USB_Device/Target/usbd_conf.c ****   * @param  pbuf: Pointer to data to be received
 664:USB_Device/Target/usbd_conf.c ****   * @param  size: Data size
 665:USB_Device/Target/usbd_conf.c ****   * @retval USBD status
 666:USB_Device/Target/usbd_conf.c ****   */
 667:USB_Device/Target/usbd_conf.c **** USBD_StatusTypeDef USBD_LL_PrepareReceive(USBD_HandleTypeDef *pdev, uint8_t ep_addr, uint8_t *pbuf,
 668:USB_Device/Target/usbd_conf.c **** {
 669:USB_Device/Target/usbd_conf.c ****   HAL_StatusTypeDef hal_status = HAL_OK;
 670:USB_Device/Target/usbd_conf.c ****   USBD_StatusTypeDef usb_status = USBD_OK;
 671:USB_Device/Target/usbd_conf.c **** 
 672:USB_Device/Target/usbd_conf.c ****   hal_status = HAL_PCD_EP_Receive(pdev->pData, ep_addr, pbuf, size);
 673:USB_Device/Target/usbd_conf.c **** 
 674:USB_Device/Target/usbd_conf.c ****   usb_status =  USBD_Get_USB_Status(hal_status);
 675:USB_Device/Target/usbd_conf.c **** 
 676:USB_Device/Target/usbd_conf.c ****   return usb_status;
 677:USB_Device/Target/usbd_conf.c **** }
 678:USB_Device/Target/usbd_conf.c **** 
 679:USB_Device/Target/usbd_conf.c **** /**
 680:USB_Device/Target/usbd_conf.c ****   * @brief  Returns the last transferred packet size.
 681:USB_Device/Target/usbd_conf.c ****   * @param  pdev: Device handle
 682:USB_Device/Target/usbd_conf.c ****   * @param  ep_addr: Endpoint number
 683:USB_Device/Target/usbd_conf.c ****   * @retval Received Data Size
 684:USB_Device/Target/usbd_conf.c ****   */
 685:USB_Device/Target/usbd_conf.c **** uint32_t USBD_LL_GetRxDataSize(USBD_HandleTypeDef *pdev, uint8_t ep_addr)
 686:USB_Device/Target/usbd_conf.c **** {
 687:USB_Device/Target/usbd_conf.c ****   return HAL_PCD_EP_GetRxCount((PCD_HandleTypeDef*) pdev->pData, ep_addr);
 688:USB_Device/Target/usbd_conf.c **** }
 689:USB_Device/Target/usbd_conf.c **** 
 690:USB_Device/Target/usbd_conf.c **** /**
 691:USB_Device/Target/usbd_conf.c ****   * @brief  Send LPM message to user layer
 692:USB_Device/Target/usbd_conf.c ****   * @param  hpcd: PCD handle
 693:USB_Device/Target/usbd_conf.c ****   * @param  msg: LPM message
 694:USB_Device/Target/usbd_conf.c ****   * @retval None
 695:USB_Device/Target/usbd_conf.c ****   */
 696:USB_Device/Target/usbd_conf.c **** #if (USE_HAL_PCD_REGISTER_CALLBACKS == 1U)
 697:USB_Device/Target/usbd_conf.c **** static void PCDEx_LPM_Callback(PCD_HandleTypeDef *hpcd, PCD_LPM_MsgTypeDef msg)
 698:USB_Device/Target/usbd_conf.c **** #else
 699:USB_Device/Target/usbd_conf.c **** void HAL_PCDEx_LPM_Callback(PCD_HandleTypeDef *hpcd, PCD_LPM_MsgTypeDef msg)
 700:USB_Device/Target/usbd_conf.c **** #endif /* USE_HAL_PCD_REGISTER_CALLBACKS */
 701:USB_Device/Target/usbd_conf.c **** {
 702:USB_Device/Target/usbd_conf.c ****   /* USER CODE BEGIN LPM_Callback */
 703:USB_Device/Target/usbd_conf.c ****   switch (msg)
 704:USB_Device/Target/usbd_conf.c ****   {
 705:USB_Device/Target/usbd_conf.c ****   case PCD_LPM_L0_ACTIVE:
 706:USB_Device/Target/usbd_conf.c ****     if (hpcd->Init.low_power_enable)
 707:USB_Device/Target/usbd_conf.c ****     {
 708:USB_Device/Target/usbd_conf.c ****       SystemClockConfig_Resume();
 709:USB_Device/Target/usbd_conf.c **** 
 710:USB_Device/Target/usbd_conf.c ****       /* Reset SLEEPDEEP bit of Cortex System Control Register. */
 711:USB_Device/Target/usbd_conf.c ****       SCB->SCR &= (uint32_t)~((uint32_t)(SCB_SCR_SLEEPDEEP_Msk | SCB_SCR_SLEEPONEXIT_Msk));
 712:USB_Device/Target/usbd_conf.c ****     }
 713:USB_Device/Target/usbd_conf.c ****     USBD_LL_Resume(hpcd->pData);
 714:USB_Device/Target/usbd_conf.c ****     break;
ARM GAS  /tmp/ccIa1zuE.s 			page 14


 715:USB_Device/Target/usbd_conf.c **** 
 716:USB_Device/Target/usbd_conf.c ****   case PCD_LPM_L1_ACTIVE:
 717:USB_Device/Target/usbd_conf.c ****     USBD_LL_Suspend(hpcd->pData);
 718:USB_Device/Target/usbd_conf.c **** 
 719:USB_Device/Target/usbd_conf.c ****     /* Enter in STOP mode. */
 720:USB_Device/Target/usbd_conf.c ****     if (hpcd->Init.low_power_enable)
 721:USB_Device/Target/usbd_conf.c ****     {
 722:USB_Device/Target/usbd_conf.c ****       /* Set SLEEPDEEP bit and SleepOnExit of Cortex System Control Register. */
 723:USB_Device/Target/usbd_conf.c ****       SCB->SCR |= (uint32_t)((uint32_t)(SCB_SCR_SLEEPDEEP_Msk | SCB_SCR_SLEEPONEXIT_Msk));
 724:USB_Device/Target/usbd_conf.c ****     }
 725:USB_Device/Target/usbd_conf.c ****     break;
 726:USB_Device/Target/usbd_conf.c ****   }
 727:USB_Device/Target/usbd_conf.c ****   /* USER CODE END LPM_Callback */
 728:USB_Device/Target/usbd_conf.c **** }
 729:USB_Device/Target/usbd_conf.c **** 
 730:USB_Device/Target/usbd_conf.c **** /**
 731:USB_Device/Target/usbd_conf.c ****   * @brief  Delays routine for the USB Device Library.
 732:USB_Device/Target/usbd_conf.c ****   * @param  Delay: Delay in ms
 733:USB_Device/Target/usbd_conf.c ****   * @retval None
 734:USB_Device/Target/usbd_conf.c ****   */
 735:USB_Device/Target/usbd_conf.c **** void USBD_LL_Delay(uint32_t Delay)
 736:USB_Device/Target/usbd_conf.c **** {
 737:USB_Device/Target/usbd_conf.c ****   HAL_Delay(Delay);
 738:USB_Device/Target/usbd_conf.c **** }
 739:USB_Device/Target/usbd_conf.c **** 
 740:USB_Device/Target/usbd_conf.c **** /**
 741:USB_Device/Target/usbd_conf.c ****   * @brief  Static single allocation.
 742:USB_Device/Target/usbd_conf.c ****   * @param  size: Size of allocated memory
 743:USB_Device/Target/usbd_conf.c ****   * @retval None
 744:USB_Device/Target/usbd_conf.c ****   */
 745:USB_Device/Target/usbd_conf.c **** void *USBD_static_malloc(uint32_t size)
 746:USB_Device/Target/usbd_conf.c **** {
 747:USB_Device/Target/usbd_conf.c ****   static uint32_t mem[(sizeof(USBD_CDC_HandleTypeDef)/4)+1];/* On 32-bit boundary */
 748:USB_Device/Target/usbd_conf.c ****   return mem;
 749:USB_Device/Target/usbd_conf.c **** }
 750:USB_Device/Target/usbd_conf.c **** 
 751:USB_Device/Target/usbd_conf.c **** /**
 752:USB_Device/Target/usbd_conf.c ****   * @brief  Dummy memory free
 753:USB_Device/Target/usbd_conf.c ****   * @param  p: Pointer to allocated  memory address
 754:USB_Device/Target/usbd_conf.c ****   * @retval None
 755:USB_Device/Target/usbd_conf.c ****   */
 756:USB_Device/Target/usbd_conf.c **** void USBD_static_free(void *p)
 757:USB_Device/Target/usbd_conf.c **** {
 758:USB_Device/Target/usbd_conf.c **** 
 759:USB_Device/Target/usbd_conf.c **** }
 760:USB_Device/Target/usbd_conf.c **** 
 761:USB_Device/Target/usbd_conf.c **** /* USER CODE BEGIN 5 */
 762:USB_Device/Target/usbd_conf.c **** /**
 763:USB_Device/Target/usbd_conf.c ****   * @brief  Configures system clock after wake-up from USB resume callBack:
 764:USB_Device/Target/usbd_conf.c ****   *         enable HSI, PLL and select PLL as system clock source.
 765:USB_Device/Target/usbd_conf.c ****   * @retval None
 766:USB_Device/Target/usbd_conf.c ****   */
 767:USB_Device/Target/usbd_conf.c **** static void SystemClockConfig_Resume(void)
 768:USB_Device/Target/usbd_conf.c **** {
 769:USB_Device/Target/usbd_conf.c ****   SystemClock_Config();
 770:USB_Device/Target/usbd_conf.c **** }
 771:USB_Device/Target/usbd_conf.c **** /* USER CODE END 5 */
ARM GAS  /tmp/ccIa1zuE.s 			page 15


 772:USB_Device/Target/usbd_conf.c **** 
 773:USB_Device/Target/usbd_conf.c **** /**
 774:USB_Device/Target/usbd_conf.c ****   * @brief  Returns the USB status depending on the HAL status:
 775:USB_Device/Target/usbd_conf.c ****   * @param  hal_status: HAL status
 776:USB_Device/Target/usbd_conf.c ****   * @retval USB status
 777:USB_Device/Target/usbd_conf.c ****   */
 778:USB_Device/Target/usbd_conf.c **** USBD_StatusTypeDef USBD_Get_USB_Status(HAL_StatusTypeDef hal_status)
 779:USB_Device/Target/usbd_conf.c **** {
  29              		.loc 1 779 1 view -0
  30              		.cfi_startproc
  31              		@ args = 0, pretend = 0, frame = 0
  32              		@ frame_needed = 0, uses_anonymous_args = 0
  33              		@ link register save eliminated.
 780:USB_Device/Target/usbd_conf.c ****   USBD_StatusTypeDef usb_status = USBD_OK;
  34              		.loc 1 780 3 view .LVU1
 781:USB_Device/Target/usbd_conf.c **** 
 782:USB_Device/Target/usbd_conf.c ****   switch (hal_status)
  35              		.loc 1 782 3 view .LVU2
  36 0000 0328     		cmp	r0, #3
  37 0002 05D8     		bhi	.L7
  38 0004 DFE800F0 		tbb	[pc, r0]
  39              	.L4:
  40 0008 05       		.byte	(.L2-.L4)/2
  41 0009 04       		.byte	(.L7-.L4)/2
  42 000a 02       		.byte	(.L5-.L4)/2
  43 000b 05       		.byte	(.L2-.L4)/2
  44              		.p2align 1
  45              	.L5:
 783:USB_Device/Target/usbd_conf.c ****   {
 784:USB_Device/Target/usbd_conf.c ****     case HAL_OK :
 785:USB_Device/Target/usbd_conf.c ****       usb_status = USBD_OK;
 786:USB_Device/Target/usbd_conf.c ****     break;
 787:USB_Device/Target/usbd_conf.c ****     case HAL_ERROR :
 788:USB_Device/Target/usbd_conf.c ****       usb_status = USBD_FAIL;
 789:USB_Device/Target/usbd_conf.c ****     break;
 790:USB_Device/Target/usbd_conf.c ****     case HAL_BUSY :
 791:USB_Device/Target/usbd_conf.c ****       usb_status = USBD_BUSY;
  46              		.loc 1 791 7 view .LVU3
  47              	.LVL1:
 792:USB_Device/Target/usbd_conf.c ****     break;
  48              		.loc 1 792 5 view .LVU4
 791:USB_Device/Target/usbd_conf.c ****     break;
  49              		.loc 1 791 18 is_stmt 0 view .LVU5
  50 000c 0120     		movs	r0, #1
  51              	.LVL2:
  52              		.loc 1 792 5 view .LVU6
  53 000e 7047     		bx	lr
  54              	.LVL3:
  55              	.L7:
 788:USB_Device/Target/usbd_conf.c ****     break;
  56              		.loc 1 788 18 view .LVU7
  57 0010 0320     		movs	r0, #3
  58              	.LVL4:
  59              	.L2:
 793:USB_Device/Target/usbd_conf.c ****     case HAL_TIMEOUT :
 794:USB_Device/Target/usbd_conf.c ****       usb_status = USBD_FAIL;
 795:USB_Device/Target/usbd_conf.c ****     break;
ARM GAS  /tmp/ccIa1zuE.s 			page 16


 796:USB_Device/Target/usbd_conf.c ****     default :
 797:USB_Device/Target/usbd_conf.c ****       usb_status = USBD_FAIL;
 798:USB_Device/Target/usbd_conf.c ****     break;
 799:USB_Device/Target/usbd_conf.c ****   }
 800:USB_Device/Target/usbd_conf.c ****   return usb_status;
  60              		.loc 1 800 3 is_stmt 1 view .LVU8
 801:USB_Device/Target/usbd_conf.c **** }
  61              		.loc 1 801 1 is_stmt 0 view .LVU9
  62 0012 7047     		bx	lr
  63              		.cfi_endproc
  64              	.LFE365:
  66              		.section	.text.SystemClockConfig_Resume,"ax",%progbits
  67              		.align	1
  68              		.syntax unified
  69              		.thumb
  70              		.thumb_func
  72              	SystemClockConfig_Resume:
  73              	.LFB364:
 768:USB_Device/Target/usbd_conf.c ****   SystemClock_Config();
  74              		.loc 1 768 1 is_stmt 1 view -0
  75              		.cfi_startproc
  76              		@ args = 0, pretend = 0, frame = 0
  77              		@ frame_needed = 0, uses_anonymous_args = 0
  78 0000 08B5     		push	{r3, lr}
  79              		.cfi_def_cfa_offset 8
  80              		.cfi_offset 3, -8
  81              		.cfi_offset 14, -4
 769:USB_Device/Target/usbd_conf.c **** }
  82              		.loc 1 769 3 view .LVU11
  83 0002 FFF7FEFF 		bl	SystemClock_Config
  84              	.LVL5:
 770:USB_Device/Target/usbd_conf.c **** /* USER CODE END 5 */
  85              		.loc 1 770 1 is_stmt 0 view .LVU12
  86 0006 08BD     		pop	{r3, pc}
  87              		.cfi_endproc
  88              	.LFE364:
  90              		.section	.text.HAL_PCD_MspInit,"ax",%progbits
  91              		.align	1
  92              		.global	HAL_PCD_MspInit
  93              		.syntax unified
  94              		.thumb
  95              		.thumb_func
  97              	HAL_PCD_MspInit:
  98              	.LVL6:
  99              	.LFB333:
  74:USB_Device/Target/usbd_conf.c ****   RCC_PeriphCLKInitTypeDef PeriphClkInit = {0};
 100              		.loc 1 74 1 is_stmt 1 view -0
 101              		.cfi_startproc
 102              		@ args = 0, pretend = 0, frame = 88
 103              		@ frame_needed = 0, uses_anonymous_args = 0
  74:USB_Device/Target/usbd_conf.c ****   RCC_PeriphCLKInitTypeDef PeriphClkInit = {0};
 104              		.loc 1 74 1 is_stmt 0 view .LVU14
 105 0000 10B5     		push	{r4, lr}
 106              		.cfi_def_cfa_offset 8
 107              		.cfi_offset 4, -8
 108              		.cfi_offset 14, -4
 109 0002 96B0     		sub	sp, sp, #88
ARM GAS  /tmp/ccIa1zuE.s 			page 17


 110              		.cfi_def_cfa_offset 96
 111 0004 0446     		mov	r4, r0
  75:USB_Device/Target/usbd_conf.c ****   if(pcdHandle->Instance==USB)
 112              		.loc 1 75 3 is_stmt 1 view .LVU15
  75:USB_Device/Target/usbd_conf.c ****   if(pcdHandle->Instance==USB)
 113              		.loc 1 75 28 is_stmt 0 view .LVU16
 114 0006 5422     		movs	r2, #84
 115 0008 0021     		movs	r1, #0
 116 000a 01A8     		add	r0, sp, #4
 117              	.LVL7:
  75:USB_Device/Target/usbd_conf.c ****   if(pcdHandle->Instance==USB)
 118              		.loc 1 75 28 view .LVU17
 119 000c FFF7FEFF 		bl	memset
 120              	.LVL8:
  76:USB_Device/Target/usbd_conf.c ****   {
 121              		.loc 1 76 3 is_stmt 1 view .LVU18
  76:USB_Device/Target/usbd_conf.c ****   {
 122              		.loc 1 76 15 is_stmt 0 view .LVU19
 123 0010 2268     		ldr	r2, [r4]
  76:USB_Device/Target/usbd_conf.c ****   {
 124              		.loc 1 76 5 view .LVU20
 125 0012 154B     		ldr	r3, .L16
 126 0014 9A42     		cmp	r2, r3
 127 0016 01D0     		beq	.L14
 128              	.L10:
 103:USB_Device/Target/usbd_conf.c **** 
 129              		.loc 1 103 1 view .LVU21
 130 0018 16B0     		add	sp, sp, #88
 131              		.cfi_remember_state
 132              		.cfi_def_cfa_offset 8
 133              		@ sp needed
 134 001a 10BD     		pop	{r4, pc}
 135              	.LVL9:
 136              	.L14:
 137              		.cfi_restore_state
  84:USB_Device/Target/usbd_conf.c ****     PeriphClkInit.UsbClockSelection = RCC_USBCLKSOURCE_HSI48;
 138              		.loc 1 84 5 is_stmt 1 view .LVU22
  84:USB_Device/Target/usbd_conf.c ****     PeriphClkInit.UsbClockSelection = RCC_USBCLKSOURCE_HSI48;
 139              		.loc 1 84 40 is_stmt 0 view .LVU23
 140 001c 4FF40053 		mov	r3, #8192
 141 0020 0193     		str	r3, [sp, #4]
  85:USB_Device/Target/usbd_conf.c ****     if (HAL_RCCEx_PeriphCLKConfig(&PeriphClkInit) != HAL_OK)
 142              		.loc 1 85 5 is_stmt 1 view .LVU24
  86:USB_Device/Target/usbd_conf.c ****     {
 143              		.loc 1 86 5 view .LVU25
  86:USB_Device/Target/usbd_conf.c ****     {
 144              		.loc 1 86 9 is_stmt 0 view .LVU26
 145 0022 01A8     		add	r0, sp, #4
 146 0024 FFF7FEFF 		bl	HAL_RCCEx_PeriphCLKConfig
 147              	.LVL10:
  86:USB_Device/Target/usbd_conf.c ****     {
 148              		.loc 1 86 8 discriminator 1 view .LVU27
 149 0028 D0B9     		cbnz	r0, .L15
 150              	.L12:
  92:USB_Device/Target/usbd_conf.c **** 
 151              		.loc 1 92 5 is_stmt 1 view .LVU28
 152              	.LBB2:
ARM GAS  /tmp/ccIa1zuE.s 			page 18


  92:USB_Device/Target/usbd_conf.c **** 
 153              		.loc 1 92 5 view .LVU29
  92:USB_Device/Target/usbd_conf.c **** 
 154              		.loc 1 92 5 view .LVU30
 155 002a 104B     		ldr	r3, .L16+4
 156 002c 9A6D     		ldr	r2, [r3, #88]
 157 002e 42F40002 		orr	r2, r2, #8388608
 158 0032 9A65     		str	r2, [r3, #88]
  92:USB_Device/Target/usbd_conf.c **** 
 159              		.loc 1 92 5 view .LVU31
 160 0034 9B6D     		ldr	r3, [r3, #88]
 161 0036 03F40003 		and	r3, r3, #8388608
 162 003a 0093     		str	r3, [sp]
  92:USB_Device/Target/usbd_conf.c **** 
 163              		.loc 1 92 5 view .LVU32
 164 003c 009B     		ldr	r3, [sp]
 165              	.LBE2:
  92:USB_Device/Target/usbd_conf.c **** 
 166              		.loc 1 92 5 view .LVU33
  95:USB_Device/Target/usbd_conf.c ****     HAL_NVIC_EnableIRQ(USB_HP_IRQn);
 167              		.loc 1 95 5 view .LVU34
 168 003e 0022     		movs	r2, #0
 169 0040 0521     		movs	r1, #5
 170 0042 1320     		movs	r0, #19
 171 0044 FFF7FEFF 		bl	HAL_NVIC_SetPriority
 172              	.LVL11:
  96:USB_Device/Target/usbd_conf.c ****     HAL_NVIC_SetPriority(USB_LP_IRQn, 5, 0);
 173              		.loc 1 96 5 view .LVU35
 174 0048 1320     		movs	r0, #19
 175 004a FFF7FEFF 		bl	HAL_NVIC_EnableIRQ
 176              	.LVL12:
  97:USB_Device/Target/usbd_conf.c ****     HAL_NVIC_EnableIRQ(USB_LP_IRQn);
 177              		.loc 1 97 5 view .LVU36
 178 004e 0022     		movs	r2, #0
 179 0050 0521     		movs	r1, #5
 180 0052 1420     		movs	r0, #20
 181 0054 FFF7FEFF 		bl	HAL_NVIC_SetPriority
 182              	.LVL13:
  98:USB_Device/Target/usbd_conf.c ****   /* USER CODE BEGIN USB_MspInit 1 */
 183              		.loc 1 98 5 view .LVU37
 184 0058 1420     		movs	r0, #20
 185 005a FFF7FEFF 		bl	HAL_NVIC_EnableIRQ
 186              	.LVL14:
 103:USB_Device/Target/usbd_conf.c **** 
 187              		.loc 1 103 1 is_stmt 0 view .LVU38
 188 005e DBE7     		b	.L10
 189              	.L15:
  88:USB_Device/Target/usbd_conf.c ****     }
 190              		.loc 1 88 7 is_stmt 1 view .LVU39
 191 0060 FFF7FEFF 		bl	Error_Handler
 192              	.LVL15:
 193 0064 E1E7     		b	.L12
 194              	.L17:
 195 0066 00BF     		.align	2
 196              	.L16:
 197 0068 005C0040 		.word	1073765376
 198 006c 00100240 		.word	1073876992
ARM GAS  /tmp/ccIa1zuE.s 			page 19


 199              		.cfi_endproc
 200              	.LFE333:
 202              		.section	.text.HAL_PCD_MspDeInit,"ax",%progbits
 203              		.align	1
 204              		.global	HAL_PCD_MspDeInit
 205              		.syntax unified
 206              		.thumb
 207              		.thumb_func
 209              	HAL_PCD_MspDeInit:
 210              	.LVL16:
 211              	.LFB334:
 110:USB_Device/Target/usbd_conf.c ****   if(pcdHandle->Instance==USB)
 212              		.loc 1 110 1 view -0
 213              		.cfi_startproc
 214              		@ args = 0, pretend = 0, frame = 0
 215              		@ frame_needed = 0, uses_anonymous_args = 0
 110:USB_Device/Target/usbd_conf.c ****   if(pcdHandle->Instance==USB)
 216              		.loc 1 110 1 is_stmt 0 view .LVU41
 217 0000 08B5     		push	{r3, lr}
 218              		.cfi_def_cfa_offset 8
 219              		.cfi_offset 3, -8
 220              		.cfi_offset 14, -4
 111:USB_Device/Target/usbd_conf.c ****   {
 221              		.loc 1 111 3 is_stmt 1 view .LVU42
 111:USB_Device/Target/usbd_conf.c ****   {
 222              		.loc 1 111 15 is_stmt 0 view .LVU43
 223 0002 0268     		ldr	r2, [r0]
 111:USB_Device/Target/usbd_conf.c ****   {
 224              		.loc 1 111 5 view .LVU44
 225 0004 074B     		ldr	r3, .L22
 226 0006 9A42     		cmp	r2, r3
 227 0008 00D0     		beq	.L21
 228              	.LVL17:
 229              	.L18:
 128:USB_Device/Target/usbd_conf.c **** 
 230              		.loc 1 128 1 view .LVU45
 231 000a 08BD     		pop	{r3, pc}
 232              	.LVL18:
 233              	.L21:
 117:USB_Device/Target/usbd_conf.c **** 
 234              		.loc 1 117 5 is_stmt 1 view .LVU46
 235 000c 064A     		ldr	r2, .L22+4
 236 000e 936D     		ldr	r3, [r2, #88]
 237 0010 23F40003 		bic	r3, r3, #8388608
 238 0014 9365     		str	r3, [r2, #88]
 120:USB_Device/Target/usbd_conf.c **** 
 239              		.loc 1 120 5 view .LVU47
 240 0016 1320     		movs	r0, #19
 241              	.LVL19:
 120:USB_Device/Target/usbd_conf.c **** 
 242              		.loc 1 120 5 is_stmt 0 view .LVU48
 243 0018 FFF7FEFF 		bl	HAL_NVIC_DisableIRQ
 244              	.LVL20:
 122:USB_Device/Target/usbd_conf.c **** 
 245              		.loc 1 122 5 is_stmt 1 view .LVU49
 246 001c 1420     		movs	r0, #20
 247 001e FFF7FEFF 		bl	HAL_NVIC_DisableIRQ
ARM GAS  /tmp/ccIa1zuE.s 			page 20


 248              	.LVL21:
 128:USB_Device/Target/usbd_conf.c **** 
 249              		.loc 1 128 1 is_stmt 0 view .LVU50
 250 0022 F2E7     		b	.L18
 251              	.L23:
 252              		.align	2
 253              	.L22:
 254 0024 005C0040 		.word	1073765376
 255 0028 00100240 		.word	1073876992
 256              		.cfi_endproc
 257              	.LFE334:
 259              		.section	.text.HAL_PCD_SetupStageCallback,"ax",%progbits
 260              		.align	1
 261              		.global	HAL_PCD_SetupStageCallback
 262              		.syntax unified
 263              		.thumb
 264              		.thumb_func
 266              	HAL_PCD_SetupStageCallback:
 267              	.LVL22:
 268              	.LFB335:
 140:USB_Device/Target/usbd_conf.c ****   /* USER CODE BEGIN HAL_PCD_SetupStageCallback_PreTreatment */
 269              		.loc 1 140 1 is_stmt 1 view -0
 270              		.cfi_startproc
 271              		@ args = 0, pretend = 0, frame = 0
 272              		@ frame_needed = 0, uses_anonymous_args = 0
 140:USB_Device/Target/usbd_conf.c ****   /* USER CODE BEGIN HAL_PCD_SetupStageCallback_PreTreatment */
 273              		.loc 1 140 1 is_stmt 0 view .LVU52
 274 0000 08B5     		push	{r3, lr}
 275              		.cfi_def_cfa_offset 8
 276              		.cfi_offset 3, -8
 277              		.cfi_offset 14, -4
 144:USB_Device/Target/usbd_conf.c ****   /* USER CODE BEGIN HAL_PCD_SetupStageCallback_PostTreatment */
 278              		.loc 1 144 3 is_stmt 1 view .LVU53
 279 0002 00F52671 		add	r1, r0, #664
 280 0006 D0F8D802 		ldr	r0, [r0, #728]
 281              	.LVL23:
 144:USB_Device/Target/usbd_conf.c ****   /* USER CODE BEGIN HAL_PCD_SetupStageCallback_PostTreatment */
 282              		.loc 1 144 3 is_stmt 0 view .LVU54
 283 000a FFF7FEFF 		bl	USBD_LL_SetupStage
 284              	.LVL24:
 148:USB_Device/Target/usbd_conf.c **** 
 285              		.loc 1 148 1 view .LVU55
 286 000e 08BD     		pop	{r3, pc}
 287              		.cfi_endproc
 288              	.LFE335:
 290              		.section	.text.HAL_PCD_DataOutStageCallback,"ax",%progbits
 291              		.align	1
 292              		.global	HAL_PCD_DataOutStageCallback
 293              		.syntax unified
 294              		.thumb
 295              		.thumb_func
 297              	HAL_PCD_DataOutStageCallback:
 298              	.LVL25:
 299              	.LFB336:
 161:USB_Device/Target/usbd_conf.c ****   /* USER CODE BEGIN HAL_PCD_DataOutStageCallback_PreTreatment */
 300              		.loc 1 161 1 is_stmt 1 view -0
 301              		.cfi_startproc
ARM GAS  /tmp/ccIa1zuE.s 			page 21


 302              		@ args = 0, pretend = 0, frame = 0
 303              		@ frame_needed = 0, uses_anonymous_args = 0
 161:USB_Device/Target/usbd_conf.c ****   /* USER CODE BEGIN HAL_PCD_DataOutStageCallback_PreTreatment */
 304              		.loc 1 161 1 is_stmt 0 view .LVU57
 305 0000 08B5     		push	{r3, lr}
 306              		.cfi_def_cfa_offset 8
 307              		.cfi_offset 3, -8
 308              		.cfi_offset 14, -4
 165:USB_Device/Target/usbd_conf.c ****   /* USER CODE BEGIN HAL_PCD_DataOutStageCallback_PostTreatment */
 309              		.loc 1 165 3 is_stmt 1 view .LVU58
 310 0002 01EB8103 		add	r3, r1, r1, lsl #2
 311 0006 00EBC303 		add	r3, r0, r3, lsl #3
 312 000a D3F86421 		ldr	r2, [r3, #356]
 313 000e D0F8D802 		ldr	r0, [r0, #728]
 314              	.LVL26:
 165:USB_Device/Target/usbd_conf.c ****   /* USER CODE BEGIN HAL_PCD_DataOutStageCallback_PostTreatment */
 315              		.loc 1 165 3 is_stmt 0 view .LVU59
 316 0012 FFF7FEFF 		bl	USBD_LL_DataOutStage
 317              	.LVL27:
 169:USB_Device/Target/usbd_conf.c **** 
 318              		.loc 1 169 1 view .LVU60
 319 0016 08BD     		pop	{r3, pc}
 320              		.cfi_endproc
 321              	.LFE336:
 323              		.section	.text.HAL_PCD_DataInStageCallback,"ax",%progbits
 324              		.align	1
 325              		.global	HAL_PCD_DataInStageCallback
 326              		.syntax unified
 327              		.thumb
 328              		.thumb_func
 330              	HAL_PCD_DataInStageCallback:
 331              	.LVL28:
 332              	.LFB337:
 182:USB_Device/Target/usbd_conf.c ****   /* USER CODE BEGIN HAL_PCD_DataInStageCallback_PreTreatment */
 333              		.loc 1 182 1 is_stmt 1 view -0
 334              		.cfi_startproc
 335              		@ args = 0, pretend = 0, frame = 0
 336              		@ frame_needed = 0, uses_anonymous_args = 0
 182:USB_Device/Target/usbd_conf.c ****   /* USER CODE BEGIN HAL_PCD_DataInStageCallback_PreTreatment */
 337              		.loc 1 182 1 is_stmt 0 view .LVU62
 338 0000 08B5     		push	{r3, lr}
 339              		.cfi_def_cfa_offset 8
 340              		.cfi_offset 3, -8
 341              		.cfi_offset 14, -4
 186:USB_Device/Target/usbd_conf.c ****   /* USER CODE BEGIN HAL_PCD_DataInStageCallback_PostTreatment  */
 342              		.loc 1 186 3 is_stmt 1 view .LVU63
 343 0002 01EB8103 		add	r3, r1, r1, lsl #2
 344 0006 00EBC303 		add	r3, r0, r3, lsl #3
 345 000a 5A6A     		ldr	r2, [r3, #36]
 346 000c D0F8D802 		ldr	r0, [r0, #728]
 347              	.LVL29:
 186:USB_Device/Target/usbd_conf.c ****   /* USER CODE BEGIN HAL_PCD_DataInStageCallback_PostTreatment  */
 348              		.loc 1 186 3 is_stmt 0 view .LVU64
 349 0010 FFF7FEFF 		bl	USBD_LL_DataInStage
 350              	.LVL30:
 190:USB_Device/Target/usbd_conf.c **** 
 351              		.loc 1 190 1 view .LVU65
ARM GAS  /tmp/ccIa1zuE.s 			page 22


 352 0014 08BD     		pop	{r3, pc}
 353              		.cfi_endproc
 354              	.LFE337:
 356              		.section	.text.HAL_PCD_SOFCallback,"ax",%progbits
 357              		.align	1
 358              		.global	HAL_PCD_SOFCallback
 359              		.syntax unified
 360              		.thumb
 361              		.thumb_func
 363              	HAL_PCD_SOFCallback:
 364              	.LVL31:
 365              	.LFB338:
 202:USB_Device/Target/usbd_conf.c ****   /* USER CODE BEGIN HAL_PCD_SOFCallback_PreTreatment */
 366              		.loc 1 202 1 is_stmt 1 view -0
 367              		.cfi_startproc
 368              		@ args = 0, pretend = 0, frame = 0
 369              		@ frame_needed = 0, uses_anonymous_args = 0
 202:USB_Device/Target/usbd_conf.c ****   /* USER CODE BEGIN HAL_PCD_SOFCallback_PreTreatment */
 370              		.loc 1 202 1 is_stmt 0 view .LVU67
 371 0000 08B5     		push	{r3, lr}
 372              		.cfi_def_cfa_offset 8
 373              		.cfi_offset 3, -8
 374              		.cfi_offset 14, -4
 206:USB_Device/Target/usbd_conf.c ****   /* USER CODE BEGIN HAL_PCD_SOFCallback_PostTreatment */
 375              		.loc 1 206 3 is_stmt 1 view .LVU68
 376 0002 D0F8D802 		ldr	r0, [r0, #728]
 377              	.LVL32:
 206:USB_Device/Target/usbd_conf.c ****   /* USER CODE BEGIN HAL_PCD_SOFCallback_PostTreatment */
 378              		.loc 1 206 3 is_stmt 0 view .LVU69
 379 0006 FFF7FEFF 		bl	USBD_LL_SOF
 380              	.LVL33:
 210:USB_Device/Target/usbd_conf.c **** 
 381              		.loc 1 210 1 view .LVU70
 382 000a 08BD     		pop	{r3, pc}
 383              		.cfi_endproc
 384              	.LFE338:
 386              		.section	.text.HAL_PCD_ResetCallback,"ax",%progbits
 387              		.align	1
 388              		.global	HAL_PCD_ResetCallback
 389              		.syntax unified
 390              		.thumb
 391              		.thumb_func
 393              	HAL_PCD_ResetCallback:
 394              	.LVL34:
 395              	.LFB339:
 222:USB_Device/Target/usbd_conf.c ****   /* USER CODE BEGIN HAL_PCD_ResetCallback_PreTreatment */
 396              		.loc 1 222 1 is_stmt 1 view -0
 397              		.cfi_startproc
 398              		@ args = 0, pretend = 0, frame = 0
 399              		@ frame_needed = 0, uses_anonymous_args = 0
 222:USB_Device/Target/usbd_conf.c ****   /* USER CODE BEGIN HAL_PCD_ResetCallback_PreTreatment */
 400              		.loc 1 222 1 is_stmt 0 view .LVU72
 401 0000 10B5     		push	{r4, lr}
 402              		.cfi_def_cfa_offset 8
 403              		.cfi_offset 4, -8
 404              		.cfi_offset 14, -4
 405 0002 0446     		mov	r4, r0
ARM GAS  /tmp/ccIa1zuE.s 			page 23


 226:USB_Device/Target/usbd_conf.c **** 
 406              		.loc 1 226 3 is_stmt 1 view .LVU73
 407              	.LVL35:
 228:USB_Device/Target/usbd_conf.c ****   {
 408              		.loc 1 228 3 view .LVU74
 228:USB_Device/Target/usbd_conf.c ****   {
 409              		.loc 1 228 18 is_stmt 0 view .LVU75
 410 0004 4379     		ldrb	r3, [r0, #5]	@ zero_extendqisi2
 228:USB_Device/Target/usbd_conf.c ****   {
 411              		.loc 1 228 6 view .LVU76
 412 0006 022B     		cmp	r3, #2
 413 0008 09D1     		bne	.L35
 414              	.LVL36:
 415              	.L33:
 233:USB_Device/Target/usbd_conf.c **** 
 416              		.loc 1 233 3 is_stmt 1 view .LVU77
 417 000a 0121     		movs	r1, #1
 418 000c D4F8D802 		ldr	r0, [r4, #728]
 419 0010 FFF7FEFF 		bl	USBD_LL_SetSpeed
 420              	.LVL37:
 236:USB_Device/Target/usbd_conf.c ****   /* USER CODE BEGIN HAL_PCD_ResetCallback_PostTreatment */
 421              		.loc 1 236 3 view .LVU78
 422 0014 D4F8D802 		ldr	r0, [r4, #728]
 423 0018 FFF7FEFF 		bl	USBD_LL_Reset
 424              	.LVL38:
 240:USB_Device/Target/usbd_conf.c **** 
 425              		.loc 1 240 1 is_stmt 0 view .LVU79
 426 001c 10BD     		pop	{r4, pc}
 427              	.LVL39:
 428              	.L35:
 230:USB_Device/Target/usbd_conf.c ****   }
 429              		.loc 1 230 5 is_stmt 1 view .LVU80
 430 001e FFF7FEFF 		bl	Error_Handler
 431              	.LVL40:
 230:USB_Device/Target/usbd_conf.c ****   }
 432              		.loc 1 230 5 is_stmt 0 view .LVU81
 433 0022 F2E7     		b	.L33
 434              		.cfi_endproc
 435              	.LFE339:
 437              		.section	.text.HAL_PCD_SuspendCallback,"ax",%progbits
 438              		.align	1
 439              		.global	HAL_PCD_SuspendCallback
 440              		.syntax unified
 441              		.thumb
 442              		.thumb_func
 444              	HAL_PCD_SuspendCallback:
 445              	.LVL41:
 446              	.LFB340:
 253:USB_Device/Target/usbd_conf.c ****   /* USER CODE BEGIN HAL_PCD_SuspendCallback_PreTreatment */
 447              		.loc 1 253 1 is_stmt 1 view -0
 448              		.cfi_startproc
 449              		@ args = 0, pretend = 0, frame = 0
 450              		@ frame_needed = 0, uses_anonymous_args = 0
 253:USB_Device/Target/usbd_conf.c ****   /* USER CODE BEGIN HAL_PCD_SuspendCallback_PreTreatment */
 451              		.loc 1 253 1 is_stmt 0 view .LVU83
 452 0000 10B5     		push	{r4, lr}
 453              		.cfi_def_cfa_offset 8
ARM GAS  /tmp/ccIa1zuE.s 			page 24


 454              		.cfi_offset 4, -8
 455              		.cfi_offset 14, -4
 456 0002 0446     		mov	r4, r0
 258:USB_Device/Target/usbd_conf.c ****   /* Enter in STOP mode. */
 457              		.loc 1 258 3 is_stmt 1 view .LVU84
 458 0004 D0F8D802 		ldr	r0, [r0, #728]
 459              	.LVL42:
 258:USB_Device/Target/usbd_conf.c ****   /* Enter in STOP mode. */
 460              		.loc 1 258 3 is_stmt 0 view .LVU85
 461 0008 FFF7FEFF 		bl	USBD_LL_Suspend
 462              	.LVL43:
 261:USB_Device/Target/usbd_conf.c ****   {
 463              		.loc 1 261 3 is_stmt 1 view .LVU86
 261:USB_Device/Target/usbd_conf.c ****   {
 464              		.loc 1 261 17 is_stmt 0 view .LVU87
 465 000c 637A     		ldrb	r3, [r4, #9]	@ zero_extendqisi2
 261:USB_Device/Target/usbd_conf.c ****   {
 466              		.loc 1 261 6 view .LVU88
 467 000e 23B1     		cbz	r3, .L36
 264:USB_Device/Target/usbd_conf.c ****   }
 468              		.loc 1 264 5 is_stmt 1 view .LVU89
 264:USB_Device/Target/usbd_conf.c ****   }
 469              		.loc 1 264 8 is_stmt 0 view .LVU90
 470 0010 024A     		ldr	r2, .L39
 471 0012 1369     		ldr	r3, [r2, #16]
 264:USB_Device/Target/usbd_conf.c ****   }
 472              		.loc 1 264 14 view .LVU91
 473 0014 43F00603 		orr	r3, r3, #6
 474 0018 1361     		str	r3, [r2, #16]
 475              	.L36:
 270:USB_Device/Target/usbd_conf.c **** 
 476              		.loc 1 270 1 view .LVU92
 477 001a 10BD     		pop	{r4, pc}
 478              	.LVL44:
 479              	.L40:
 270:USB_Device/Target/usbd_conf.c **** 
 480              		.loc 1 270 1 view .LVU93
 481              		.align	2
 482              	.L39:
 483 001c 00ED00E0 		.word	-536810240
 484              		.cfi_endproc
 485              	.LFE340:
 487              		.section	.text.HAL_PCD_ResumeCallback,"ax",%progbits
 488              		.align	1
 489              		.global	HAL_PCD_ResumeCallback
 490              		.syntax unified
 491              		.thumb
 492              		.thumb_func
 494              	HAL_PCD_ResumeCallback:
 495              	.LVL45:
 496              	.LFB341:
 283:USB_Device/Target/usbd_conf.c ****   /* USER CODE BEGIN HAL_PCD_ResumeCallback_PreTreatment */
 497              		.loc 1 283 1 is_stmt 1 view -0
 498              		.cfi_startproc
 499              		@ args = 0, pretend = 0, frame = 0
 500              		@ frame_needed = 0, uses_anonymous_args = 0
 283:USB_Device/Target/usbd_conf.c ****   /* USER CODE BEGIN HAL_PCD_ResumeCallback_PreTreatment */
ARM GAS  /tmp/ccIa1zuE.s 			page 25


 501              		.loc 1 283 1 is_stmt 0 view .LVU95
 502 0000 10B5     		push	{r4, lr}
 503              		.cfi_def_cfa_offset 8
 504              		.cfi_offset 4, -8
 505              		.cfi_offset 14, -4
 506 0002 0446     		mov	r4, r0
 289:USB_Device/Target/usbd_conf.c ****   {
 507              		.loc 1 289 3 is_stmt 1 view .LVU96
 289:USB_Device/Target/usbd_conf.c ****   {
 508              		.loc 1 289 17 is_stmt 0 view .LVU97
 509 0004 437A     		ldrb	r3, [r0, #9]	@ zero_extendqisi2
 289:USB_Device/Target/usbd_conf.c ****   {
 510              		.loc 1 289 6 view .LVU98
 511 0006 23B9     		cbnz	r3, .L44
 512              	.LVL46:
 513              	.L42:
 297:USB_Device/Target/usbd_conf.c ****   /* USER CODE BEGIN HAL_PCD_ResumeCallback_PostTreatment */
 514              		.loc 1 297 3 is_stmt 1 view .LVU99
 515 0008 D4F8D802 		ldr	r0, [r4, #728]
 516 000c FFF7FEFF 		bl	USBD_LL_Resume
 517              	.LVL47:
 301:USB_Device/Target/usbd_conf.c **** 
 518              		.loc 1 301 1 is_stmt 0 view .LVU100
 519 0010 10BD     		pop	{r4, pc}
 520              	.LVL48:
 521              	.L44:
 292:USB_Device/Target/usbd_conf.c ****     SystemClockConfig_Resume();
 522              		.loc 1 292 5 is_stmt 1 view .LVU101
 292:USB_Device/Target/usbd_conf.c ****     SystemClockConfig_Resume();
 523              		.loc 1 292 8 is_stmt 0 view .LVU102
 524 0012 044A     		ldr	r2, .L45
 525 0014 1369     		ldr	r3, [r2, #16]
 292:USB_Device/Target/usbd_conf.c ****     SystemClockConfig_Resume();
 526              		.loc 1 292 14 view .LVU103
 527 0016 23F00603 		bic	r3, r3, #6
 528 001a 1361     		str	r3, [r2, #16]
 293:USB_Device/Target/usbd_conf.c ****   }
 529              		.loc 1 293 5 is_stmt 1 view .LVU104
 530 001c FFF7FEFF 		bl	SystemClockConfig_Resume
 531              	.LVL49:
 293:USB_Device/Target/usbd_conf.c ****   }
 532              		.loc 1 293 5 is_stmt 0 view .LVU105
 533 0020 F2E7     		b	.L42
 534              	.L46:
 535 0022 00BF     		.align	2
 536              	.L45:
 537 0024 00ED00E0 		.word	-536810240
 538              		.cfi_endproc
 539              	.LFE341:
 541              		.section	.text.HAL_PCD_ISOOUTIncompleteCallback,"ax",%progbits
 542              		.align	1
 543              		.global	HAL_PCD_ISOOUTIncompleteCallback
 544              		.syntax unified
 545              		.thumb
 546              		.thumb_func
 548              	HAL_PCD_ISOOUTIncompleteCallback:
 549              	.LVL50:
ARM GAS  /tmp/ccIa1zuE.s 			page 26


 550              	.LFB342:
 314:USB_Device/Target/usbd_conf.c ****   /* USER CODE BEGIN HAL_PCD_ISOOUTIncompleteCallback_PreTreatment */
 551              		.loc 1 314 1 is_stmt 1 view -0
 552              		.cfi_startproc
 553              		@ args = 0, pretend = 0, frame = 0
 554              		@ frame_needed = 0, uses_anonymous_args = 0
 314:USB_Device/Target/usbd_conf.c ****   /* USER CODE BEGIN HAL_PCD_ISOOUTIncompleteCallback_PreTreatment */
 555              		.loc 1 314 1 is_stmt 0 view .LVU107
 556 0000 08B5     		push	{r3, lr}
 557              		.cfi_def_cfa_offset 8
 558              		.cfi_offset 3, -8
 559              		.cfi_offset 14, -4
 318:USB_Device/Target/usbd_conf.c ****   /* USER CODE BEGIN HAL_PCD_ISOOUTIncompleteCallback_PostTreatment */
 560              		.loc 1 318 3 is_stmt 1 view .LVU108
 561 0002 D0F8D802 		ldr	r0, [r0, #728]
 562              	.LVL51:
 318:USB_Device/Target/usbd_conf.c ****   /* USER CODE BEGIN HAL_PCD_ISOOUTIncompleteCallback_PostTreatment */
 563              		.loc 1 318 3 is_stmt 0 view .LVU109
 564 0006 FFF7FEFF 		bl	USBD_LL_IsoOUTIncomplete
 565              	.LVL52:
 322:USB_Device/Target/usbd_conf.c **** 
 566              		.loc 1 322 1 view .LVU110
 567 000a 08BD     		pop	{r3, pc}
 568              		.cfi_endproc
 569              	.LFE342:
 571              		.section	.text.HAL_PCD_ISOINIncompleteCallback,"ax",%progbits
 572              		.align	1
 573              		.global	HAL_PCD_ISOINIncompleteCallback
 574              		.syntax unified
 575              		.thumb
 576              		.thumb_func
 578              	HAL_PCD_ISOINIncompleteCallback:
 579              	.LVL53:
 580              	.LFB343:
 335:USB_Device/Target/usbd_conf.c ****   /* USER CODE BEGIN HAL_PCD_ISOINIncompleteCallback_PreTreatment */
 581              		.loc 1 335 1 is_stmt 1 view -0
 582              		.cfi_startproc
 583              		@ args = 0, pretend = 0, frame = 0
 584              		@ frame_needed = 0, uses_anonymous_args = 0
 335:USB_Device/Target/usbd_conf.c ****   /* USER CODE BEGIN HAL_PCD_ISOINIncompleteCallback_PreTreatment */
 585              		.loc 1 335 1 is_stmt 0 view .LVU112
 586 0000 08B5     		push	{r3, lr}
 587              		.cfi_def_cfa_offset 8
 588              		.cfi_offset 3, -8
 589              		.cfi_offset 14, -4
 339:USB_Device/Target/usbd_conf.c ****   /* USER CODE BEGIN HAL_PCD_ISOINIncompleteCallback_PostTreatment */
 590              		.loc 1 339 3 is_stmt 1 view .LVU113
 591 0002 D0F8D802 		ldr	r0, [r0, #728]
 592              	.LVL54:
 339:USB_Device/Target/usbd_conf.c ****   /* USER CODE BEGIN HAL_PCD_ISOINIncompleteCallback_PostTreatment */
 593              		.loc 1 339 3 is_stmt 0 view .LVU114
 594 0006 FFF7FEFF 		bl	USBD_LL_IsoINIncomplete
 595              	.LVL55:
 343:USB_Device/Target/usbd_conf.c **** 
 596              		.loc 1 343 1 view .LVU115
 597 000a 08BD     		pop	{r3, pc}
 598              		.cfi_endproc
ARM GAS  /tmp/ccIa1zuE.s 			page 27


 599              	.LFE343:
 601              		.section	.text.HAL_PCD_ConnectCallback,"ax",%progbits
 602              		.align	1
 603              		.global	HAL_PCD_ConnectCallback
 604              		.syntax unified
 605              		.thumb
 606              		.thumb_func
 608              	HAL_PCD_ConnectCallback:
 609              	.LVL56:
 610              	.LFB344:
 355:USB_Device/Target/usbd_conf.c ****   /* USER CODE BEGIN HAL_PCD_ConnectCallback_PreTreatment */
 611              		.loc 1 355 1 is_stmt 1 view -0
 612              		.cfi_startproc
 613              		@ args = 0, pretend = 0, frame = 0
 614              		@ frame_needed = 0, uses_anonymous_args = 0
 355:USB_Device/Target/usbd_conf.c ****   /* USER CODE BEGIN HAL_PCD_ConnectCallback_PreTreatment */
 615              		.loc 1 355 1 is_stmt 0 view .LVU117
 616 0000 08B5     		push	{r3, lr}
 617              		.cfi_def_cfa_offset 8
 618              		.cfi_offset 3, -8
 619              		.cfi_offset 14, -4
 359:USB_Device/Target/usbd_conf.c ****   /* USER CODE BEGIN HAL_PCD_ConnectCallback_PostTreatment */
 620              		.loc 1 359 3 is_stmt 1 view .LVU118
 621 0002 D0F8D802 		ldr	r0, [r0, #728]
 622              	.LVL57:
 359:USB_Device/Target/usbd_conf.c ****   /* USER CODE BEGIN HAL_PCD_ConnectCallback_PostTreatment */
 623              		.loc 1 359 3 is_stmt 0 view .LVU119
 624 0006 FFF7FEFF 		bl	USBD_LL_DevConnected
 625              	.LVL58:
 363:USB_Device/Target/usbd_conf.c **** 
 626              		.loc 1 363 1 view .LVU120
 627 000a 08BD     		pop	{r3, pc}
 628              		.cfi_endproc
 629              	.LFE344:
 631              		.section	.text.HAL_PCD_DisconnectCallback,"ax",%progbits
 632              		.align	1
 633              		.global	HAL_PCD_DisconnectCallback
 634              		.syntax unified
 635              		.thumb
 636              		.thumb_func
 638              	HAL_PCD_DisconnectCallback:
 639              	.LVL59:
 640              	.LFB345:
 375:USB_Device/Target/usbd_conf.c ****   /* USER CODE BEGIN HAL_PCD_DisconnectCallback_PreTreatment */
 641              		.loc 1 375 1 is_stmt 1 view -0
 642              		.cfi_startproc
 643              		@ args = 0, pretend = 0, frame = 0
 644              		@ frame_needed = 0, uses_anonymous_args = 0
 375:USB_Device/Target/usbd_conf.c ****   /* USER CODE BEGIN HAL_PCD_DisconnectCallback_PreTreatment */
 645              		.loc 1 375 1 is_stmt 0 view .LVU122
 646 0000 08B5     		push	{r3, lr}
 647              		.cfi_def_cfa_offset 8
 648              		.cfi_offset 3, -8
 649              		.cfi_offset 14, -4
 379:USB_Device/Target/usbd_conf.c ****   /* USER CODE BEGIN HAL_PCD_DisconnectCallback_PostTreatment */
 650              		.loc 1 379 3 is_stmt 1 view .LVU123
 651 0002 D0F8D802 		ldr	r0, [r0, #728]
ARM GAS  /tmp/ccIa1zuE.s 			page 28


 652              	.LVL60:
 379:USB_Device/Target/usbd_conf.c ****   /* USER CODE BEGIN HAL_PCD_DisconnectCallback_PostTreatment */
 653              		.loc 1 379 3 is_stmt 0 view .LVU124
 654 0006 FFF7FEFF 		bl	USBD_LL_DevDisconnected
 655              	.LVL61:
 383:USB_Device/Target/usbd_conf.c **** 
 656              		.loc 1 383 1 view .LVU125
 657 000a 08BD     		pop	{r3, pc}
 658              		.cfi_endproc
 659              	.LFE345:
 661              		.section	.text.USBD_LL_Init,"ax",%progbits
 662              		.align	1
 663              		.global	USBD_LL_Init
 664              		.syntax unified
 665              		.thumb
 666              		.thumb_func
 668              	USBD_LL_Init:
 669              	.LVL62:
 670              	.LFB346:
 399:USB_Device/Target/usbd_conf.c ****   /* Init USB Ip. */
 671              		.loc 1 399 1 is_stmt 1 view -0
 672              		.cfi_startproc
 673              		@ args = 0, pretend = 0, frame = 0
 674              		@ frame_needed = 0, uses_anonymous_args = 0
 399:USB_Device/Target/usbd_conf.c ****   /* Init USB Ip. */
 675              		.loc 1 399 1 is_stmt 0 view .LVU127
 676 0000 10B5     		push	{r4, lr}
 677              		.cfi_def_cfa_offset 8
 678              		.cfi_offset 4, -8
 679              		.cfi_offset 14, -4
 680 0002 0446     		mov	r4, r0
 401:USB_Device/Target/usbd_conf.c ****   /* Link the driver to the stack. */
 681              		.loc 1 401 3 is_stmt 1 view .LVU128
 401:USB_Device/Target/usbd_conf.c ****   /* Link the driver to the stack. */
 682              		.loc 1 401 21 is_stmt 0 view .LVU129
 683 0004 1E48     		ldr	r0, .L59
 684              	.LVL63:
 401:USB_Device/Target/usbd_conf.c ****   /* Link the driver to the stack. */
 685              		.loc 1 401 21 view .LVU130
 686 0006 C0F8D842 		str	r4, [r0, #728]
 403:USB_Device/Target/usbd_conf.c **** 
 687              		.loc 1 403 3 is_stmt 1 view .LVU131
 403:USB_Device/Target/usbd_conf.c **** 
 688              		.loc 1 403 15 is_stmt 0 view .LVU132
 689 000a C4F8C402 		str	r0, [r4, #708]
 405:USB_Device/Target/usbd_conf.c ****   hpcd_USB_FS.Init.dev_endpoints = 8;
 690              		.loc 1 405 3 is_stmt 1 view .LVU133
 405:USB_Device/Target/usbd_conf.c ****   hpcd_USB_FS.Init.dev_endpoints = 8;
 691              		.loc 1 405 24 is_stmt 0 view .LVU134
 692 000e 1D4B     		ldr	r3, .L59+4
 693 0010 0360     		str	r3, [r0]
 406:USB_Device/Target/usbd_conf.c ****   hpcd_USB_FS.Init.speed = PCD_SPEED_FULL;
 694              		.loc 1 406 3 is_stmt 1 view .LVU135
 406:USB_Device/Target/usbd_conf.c ****   hpcd_USB_FS.Init.speed = PCD_SPEED_FULL;
 695              		.loc 1 406 34 is_stmt 0 view .LVU136
 696 0012 0823     		movs	r3, #8
 697 0014 0371     		strb	r3, [r0, #4]
ARM GAS  /tmp/ccIa1zuE.s 			page 29


 407:USB_Device/Target/usbd_conf.c ****   hpcd_USB_FS.Init.phy_itface = PCD_PHY_EMBEDDED;
 698              		.loc 1 407 3 is_stmt 1 view .LVU137
 407:USB_Device/Target/usbd_conf.c ****   hpcd_USB_FS.Init.phy_itface = PCD_PHY_EMBEDDED;
 699              		.loc 1 407 26 is_stmt 0 view .LVU138
 700 0016 0223     		movs	r3, #2
 701 0018 4371     		strb	r3, [r0, #5]
 408:USB_Device/Target/usbd_conf.c ****   hpcd_USB_FS.Init.Sof_enable = DISABLE;
 702              		.loc 1 408 3 is_stmt 1 view .LVU139
 408:USB_Device/Target/usbd_conf.c ****   hpcd_USB_FS.Init.Sof_enable = DISABLE;
 703              		.loc 1 408 31 is_stmt 0 view .LVU140
 704 001a C371     		strb	r3, [r0, #7]
 409:USB_Device/Target/usbd_conf.c ****   hpcd_USB_FS.Init.low_power_enable = DISABLE;
 705              		.loc 1 409 3 is_stmt 1 view .LVU141
 409:USB_Device/Target/usbd_conf.c ****   hpcd_USB_FS.Init.low_power_enable = DISABLE;
 706              		.loc 1 409 31 is_stmt 0 view .LVU142
 707 001c 0023     		movs	r3, #0
 708 001e 0372     		strb	r3, [r0, #8]
 410:USB_Device/Target/usbd_conf.c ****   hpcd_USB_FS.Init.lpm_enable = DISABLE;
 709              		.loc 1 410 3 is_stmt 1 view .LVU143
 410:USB_Device/Target/usbd_conf.c ****   hpcd_USB_FS.Init.lpm_enable = DISABLE;
 710              		.loc 1 410 37 is_stmt 0 view .LVU144
 711 0020 4372     		strb	r3, [r0, #9]
 411:USB_Device/Target/usbd_conf.c ****   hpcd_USB_FS.Init.battery_charging_enable = DISABLE;
 712              		.loc 1 411 3 is_stmt 1 view .LVU145
 411:USB_Device/Target/usbd_conf.c ****   hpcd_USB_FS.Init.battery_charging_enable = DISABLE;
 713              		.loc 1 411 31 is_stmt 0 view .LVU146
 714 0022 8372     		strb	r3, [r0, #10]
 412:USB_Device/Target/usbd_conf.c **** 
 715              		.loc 1 412 3 is_stmt 1 view .LVU147
 412:USB_Device/Target/usbd_conf.c **** 
 716              		.loc 1 412 44 is_stmt 0 view .LVU148
 717 0024 C372     		strb	r3, [r0, #11]
 420:USB_Device/Target/usbd_conf.c ****   {
 718              		.loc 1 420 3 is_stmt 1 view .LVU149
 420:USB_Device/Target/usbd_conf.c ****   {
 719              		.loc 1 420 7 is_stmt 0 view .LVU150
 720 0026 FFF7FEFF 		bl	HAL_PCD_Init
 721              	.LVL64:
 420:USB_Device/Target/usbd_conf.c ****   {
 722              		.loc 1 420 6 discriminator 1 view .LVU151
 723 002a 30BB     		cbnz	r0, .L58
 724              	.L56:
 447:USB_Device/Target/usbd_conf.c ****   HAL_PCDEx_PMAConfig((PCD_HandleTypeDef*)pdev->pData , 0x80 , PCD_SNG_BUF, 0x58);
 725              		.loc 1 447 3 is_stmt 1 view .LVU152
 726 002c 1823     		movs	r3, #24
 727 002e 0022     		movs	r2, #0
 728 0030 1146     		mov	r1, r2
 729 0032 D4F8C402 		ldr	r0, [r4, #708]
 730 0036 FFF7FEFF 		bl	HAL_PCDEx_PMAConfig
 731              	.LVL65:
 448:USB_Device/Target/usbd_conf.c ****   /* USER CODE END EndPoint_Configuration */
 732              		.loc 1 448 3 view .LVU153
 733 003a 5823     		movs	r3, #88
 734 003c 0022     		movs	r2, #0
 735 003e 8021     		movs	r1, #128
 736 0040 D4F8C402 		ldr	r0, [r4, #708]
 737 0044 FFF7FEFF 		bl	HAL_PCDEx_PMAConfig
ARM GAS  /tmp/ccIa1zuE.s 			page 30


 738              	.LVL66:
 451:USB_Device/Target/usbd_conf.c ****   HAL_PCDEx_PMAConfig((PCD_HandleTypeDef*)pdev->pData , 0x01 , PCD_SNG_BUF, 0x110);
 739              		.loc 1 451 3 view .LVU154
 740 0048 C023     		movs	r3, #192
 741 004a 0022     		movs	r2, #0
 742 004c 8121     		movs	r1, #129
 743 004e D4F8C402 		ldr	r0, [r4, #708]
 744 0052 FFF7FEFF 		bl	HAL_PCDEx_PMAConfig
 745              	.LVL67:
 452:USB_Device/Target/usbd_conf.c ****   HAL_PCDEx_PMAConfig((PCD_HandleTypeDef*)pdev->pData , 0x82 , PCD_SNG_BUF, 0x100);
 746              		.loc 1 452 3 view .LVU155
 747 0056 4FF48873 		mov	r3, #272
 748 005a 0022     		movs	r2, #0
 749 005c 0121     		movs	r1, #1
 750 005e D4F8C402 		ldr	r0, [r4, #708]
 751 0062 FFF7FEFF 		bl	HAL_PCDEx_PMAConfig
 752              	.LVL68:
 453:USB_Device/Target/usbd_conf.c ****   /* USER CODE END EndPoint_Configuration_CDC */
 753              		.loc 1 453 3 view .LVU156
 754 0066 4FF48073 		mov	r3, #256
 755 006a 0022     		movs	r2, #0
 756 006c 8221     		movs	r1, #130
 757 006e D4F8C402 		ldr	r0, [r4, #708]
 758 0072 FFF7FEFF 		bl	HAL_PCDEx_PMAConfig
 759              	.LVL69:
 455:USB_Device/Target/usbd_conf.c **** }
 760              		.loc 1 455 3 view .LVU157
 456:USB_Device/Target/usbd_conf.c **** 
 761              		.loc 1 456 1 is_stmt 0 view .LVU158
 762 0076 0020     		movs	r0, #0
 763 0078 10BD     		pop	{r4, pc}
 764              	.LVL70:
 765              	.L58:
 422:USB_Device/Target/usbd_conf.c ****   }
 766              		.loc 1 422 5 is_stmt 1 view .LVU159
 767 007a FFF7FEFF 		bl	Error_Handler
 768              	.LVL71:
 769 007e D5E7     		b	.L56
 770              	.L60:
 771              		.align	2
 772              	.L59:
 773 0080 00000000 		.word	hpcd_USB_FS
 774 0084 005C0040 		.word	1073765376
 775              		.cfi_endproc
 776              	.LFE346:
 778              		.section	.text.USBD_LL_DeInit,"ax",%progbits
 779              		.align	1
 780              		.global	USBD_LL_DeInit
 781              		.syntax unified
 782              		.thumb
 783              		.thumb_func
 785              	USBD_LL_DeInit:
 786              	.LVL72:
 787              	.LFB347:
 464:USB_Device/Target/usbd_conf.c ****   HAL_StatusTypeDef hal_status = HAL_OK;
 788              		.loc 1 464 1 view -0
 789              		.cfi_startproc
ARM GAS  /tmp/ccIa1zuE.s 			page 31


 790              		@ args = 0, pretend = 0, frame = 0
 791              		@ frame_needed = 0, uses_anonymous_args = 0
 464:USB_Device/Target/usbd_conf.c ****   HAL_StatusTypeDef hal_status = HAL_OK;
 792              		.loc 1 464 1 is_stmt 0 view .LVU161
 793 0000 08B5     		push	{r3, lr}
 794              		.cfi_def_cfa_offset 8
 795              		.cfi_offset 3, -8
 796              		.cfi_offset 14, -4
 465:USB_Device/Target/usbd_conf.c ****   USBD_StatusTypeDef usb_status = USBD_OK;
 797              		.loc 1 465 3 is_stmt 1 view .LVU162
 798              	.LVL73:
 466:USB_Device/Target/usbd_conf.c **** 
 799              		.loc 1 466 3 view .LVU163
 468:USB_Device/Target/usbd_conf.c **** 
 800              		.loc 1 468 3 view .LVU164
 468:USB_Device/Target/usbd_conf.c **** 
 801              		.loc 1 468 16 is_stmt 0 view .LVU165
 802 0002 D0F8C402 		ldr	r0, [r0, #708]
 803              	.LVL74:
 468:USB_Device/Target/usbd_conf.c **** 
 804              		.loc 1 468 16 view .LVU166
 805 0006 FFF7FEFF 		bl	HAL_PCD_DeInit
 806              	.LVL75:
 470:USB_Device/Target/usbd_conf.c **** 
 807              		.loc 1 470 3 is_stmt 1 view .LVU167
 470:USB_Device/Target/usbd_conf.c **** 
 808              		.loc 1 470 17 is_stmt 0 view .LVU168
 809 000a FFF7FEFF 		bl	USBD_Get_USB_Status
 810              	.LVL76:
 472:USB_Device/Target/usbd_conf.c **** }
 811              		.loc 1 472 3 is_stmt 1 view .LVU169
 473:USB_Device/Target/usbd_conf.c **** 
 812              		.loc 1 473 1 is_stmt 0 view .LVU170
 813 000e 08BD     		pop	{r3, pc}
 814              		.cfi_endproc
 815              	.LFE347:
 817              		.section	.text.USBD_LL_Start,"ax",%progbits
 818              		.align	1
 819              		.global	USBD_LL_Start
 820              		.syntax unified
 821              		.thumb
 822              		.thumb_func
 824              	USBD_LL_Start:
 825              	.LVL77:
 826              	.LFB348:
 481:USB_Device/Target/usbd_conf.c ****   HAL_StatusTypeDef hal_status = HAL_OK;
 827              		.loc 1 481 1 is_stmt 1 view -0
 828              		.cfi_startproc
 829              		@ args = 0, pretend = 0, frame = 0
 830              		@ frame_needed = 0, uses_anonymous_args = 0
 481:USB_Device/Target/usbd_conf.c ****   HAL_StatusTypeDef hal_status = HAL_OK;
 831              		.loc 1 481 1 is_stmt 0 view .LVU172
 832 0000 08B5     		push	{r3, lr}
 833              		.cfi_def_cfa_offset 8
 834              		.cfi_offset 3, -8
 835              		.cfi_offset 14, -4
 482:USB_Device/Target/usbd_conf.c ****   USBD_StatusTypeDef usb_status = USBD_OK;
ARM GAS  /tmp/ccIa1zuE.s 			page 32


 836              		.loc 1 482 3 is_stmt 1 view .LVU173
 837              	.LVL78:
 483:USB_Device/Target/usbd_conf.c **** 
 838              		.loc 1 483 3 view .LVU174
 485:USB_Device/Target/usbd_conf.c **** 
 839              		.loc 1 485 3 view .LVU175
 485:USB_Device/Target/usbd_conf.c **** 
 840              		.loc 1 485 16 is_stmt 0 view .LVU176
 841 0002 D0F8C402 		ldr	r0, [r0, #708]
 842              	.LVL79:
 485:USB_Device/Target/usbd_conf.c **** 
 843              		.loc 1 485 16 view .LVU177
 844 0006 FFF7FEFF 		bl	HAL_PCD_Start
 845              	.LVL80:
 487:USB_Device/Target/usbd_conf.c **** 
 846              		.loc 1 487 3 is_stmt 1 view .LVU178
 487:USB_Device/Target/usbd_conf.c **** 
 847              		.loc 1 487 17 is_stmt 0 view .LVU179
 848 000a FFF7FEFF 		bl	USBD_Get_USB_Status
 849              	.LVL81:
 489:USB_Device/Target/usbd_conf.c **** }
 850              		.loc 1 489 3 is_stmt 1 view .LVU180
 490:USB_Device/Target/usbd_conf.c **** 
 851              		.loc 1 490 1 is_stmt 0 view .LVU181
 852 000e 08BD     		pop	{r3, pc}
 853              		.cfi_endproc
 854              	.LFE348:
 856              		.section	.text.USBD_LL_Stop,"ax",%progbits
 857              		.align	1
 858              		.global	USBD_LL_Stop
 859              		.syntax unified
 860              		.thumb
 861              		.thumb_func
 863              	USBD_LL_Stop:
 864              	.LVL82:
 865              	.LFB349:
 498:USB_Device/Target/usbd_conf.c ****   HAL_StatusTypeDef hal_status = HAL_OK;
 866              		.loc 1 498 1 is_stmt 1 view -0
 867              		.cfi_startproc
 868              		@ args = 0, pretend = 0, frame = 0
 869              		@ frame_needed = 0, uses_anonymous_args = 0
 498:USB_Device/Target/usbd_conf.c ****   HAL_StatusTypeDef hal_status = HAL_OK;
 870              		.loc 1 498 1 is_stmt 0 view .LVU183
 871 0000 08B5     		push	{r3, lr}
 872              		.cfi_def_cfa_offset 8
 873              		.cfi_offset 3, -8
 874              		.cfi_offset 14, -4
 499:USB_Device/Target/usbd_conf.c ****   USBD_StatusTypeDef usb_status = USBD_OK;
 875              		.loc 1 499 3 is_stmt 1 view .LVU184
 876              	.LVL83:
 500:USB_Device/Target/usbd_conf.c **** 
 877              		.loc 1 500 3 view .LVU185
 502:USB_Device/Target/usbd_conf.c **** 
 878              		.loc 1 502 3 view .LVU186
 502:USB_Device/Target/usbd_conf.c **** 
 879              		.loc 1 502 16 is_stmt 0 view .LVU187
 880 0002 D0F8C402 		ldr	r0, [r0, #708]
ARM GAS  /tmp/ccIa1zuE.s 			page 33


 881              	.LVL84:
 502:USB_Device/Target/usbd_conf.c **** 
 882              		.loc 1 502 16 view .LVU188
 883 0006 FFF7FEFF 		bl	HAL_PCD_Stop
 884              	.LVL85:
 504:USB_Device/Target/usbd_conf.c **** 
 885              		.loc 1 504 3 is_stmt 1 view .LVU189
 504:USB_Device/Target/usbd_conf.c **** 
 886              		.loc 1 504 17 is_stmt 0 view .LVU190
 887 000a FFF7FEFF 		bl	USBD_Get_USB_Status
 888              	.LVL86:
 506:USB_Device/Target/usbd_conf.c **** }
 889              		.loc 1 506 3 is_stmt 1 view .LVU191
 507:USB_Device/Target/usbd_conf.c **** 
 890              		.loc 1 507 1 is_stmt 0 view .LVU192
 891 000e 08BD     		pop	{r3, pc}
 892              		.cfi_endproc
 893              	.LFE349:
 895              		.section	.text.USBD_LL_OpenEP,"ax",%progbits
 896              		.align	1
 897              		.global	USBD_LL_OpenEP
 898              		.syntax unified
 899              		.thumb
 900              		.thumb_func
 902              	USBD_LL_OpenEP:
 903              	.LVL87:
 904              	.LFB350:
 518:USB_Device/Target/usbd_conf.c ****   HAL_StatusTypeDef hal_status = HAL_OK;
 905              		.loc 1 518 1 is_stmt 1 view -0
 906              		.cfi_startproc
 907              		@ args = 0, pretend = 0, frame = 0
 908              		@ frame_needed = 0, uses_anonymous_args = 0
 518:USB_Device/Target/usbd_conf.c ****   HAL_StatusTypeDef hal_status = HAL_OK;
 909              		.loc 1 518 1 is_stmt 0 view .LVU194
 910 0000 08B5     		push	{r3, lr}
 911              		.cfi_def_cfa_offset 8
 912              		.cfi_offset 3, -8
 913              		.cfi_offset 14, -4
 914 0002 9446     		mov	ip, r2
 915 0004 1A46     		mov	r2, r3
 916              	.LVL88:
 519:USB_Device/Target/usbd_conf.c ****   USBD_StatusTypeDef usb_status = USBD_OK;
 917              		.loc 1 519 3 is_stmt 1 view .LVU195
 520:USB_Device/Target/usbd_conf.c **** 
 918              		.loc 1 520 3 view .LVU196
 522:USB_Device/Target/usbd_conf.c **** 
 919              		.loc 1 522 3 view .LVU197
 522:USB_Device/Target/usbd_conf.c **** 
 920              		.loc 1 522 16 is_stmt 0 view .LVU198
 921 0006 6346     		mov	r3, ip
 922              	.LVL89:
 522:USB_Device/Target/usbd_conf.c **** 
 923              		.loc 1 522 16 view .LVU199
 924 0008 D0F8C402 		ldr	r0, [r0, #708]
 925              	.LVL90:
 522:USB_Device/Target/usbd_conf.c **** 
 926              		.loc 1 522 16 view .LVU200
ARM GAS  /tmp/ccIa1zuE.s 			page 34


 927 000c FFF7FEFF 		bl	HAL_PCD_EP_Open
 928              	.LVL91:
 524:USB_Device/Target/usbd_conf.c **** 
 929              		.loc 1 524 3 is_stmt 1 view .LVU201
 524:USB_Device/Target/usbd_conf.c **** 
 930              		.loc 1 524 17 is_stmt 0 view .LVU202
 931 0010 FFF7FEFF 		bl	USBD_Get_USB_Status
 932              	.LVL92:
 526:USB_Device/Target/usbd_conf.c **** }
 933              		.loc 1 526 3 is_stmt 1 view .LVU203
 527:USB_Device/Target/usbd_conf.c **** 
 934              		.loc 1 527 1 is_stmt 0 view .LVU204
 935 0014 08BD     		pop	{r3, pc}
 936              		.cfi_endproc
 937              	.LFE350:
 939              		.section	.text.USBD_LL_CloseEP,"ax",%progbits
 940              		.align	1
 941              		.global	USBD_LL_CloseEP
 942              		.syntax unified
 943              		.thumb
 944              		.thumb_func
 946              	USBD_LL_CloseEP:
 947              	.LVL93:
 948              	.LFB351:
 536:USB_Device/Target/usbd_conf.c ****   HAL_StatusTypeDef hal_status = HAL_OK;
 949              		.loc 1 536 1 is_stmt 1 view -0
 950              		.cfi_startproc
 951              		@ args = 0, pretend = 0, frame = 0
 952              		@ frame_needed = 0, uses_anonymous_args = 0
 536:USB_Device/Target/usbd_conf.c ****   HAL_StatusTypeDef hal_status = HAL_OK;
 953              		.loc 1 536 1 is_stmt 0 view .LVU206
 954 0000 08B5     		push	{r3, lr}
 955              		.cfi_def_cfa_offset 8
 956              		.cfi_offset 3, -8
 957              		.cfi_offset 14, -4
 537:USB_Device/Target/usbd_conf.c ****   USBD_StatusTypeDef usb_status = USBD_OK;
 958              		.loc 1 537 3 is_stmt 1 view .LVU207
 959              	.LVL94:
 538:USB_Device/Target/usbd_conf.c **** 
 960              		.loc 1 538 3 view .LVU208
 540:USB_Device/Target/usbd_conf.c **** 
 961              		.loc 1 540 3 view .LVU209
 540:USB_Device/Target/usbd_conf.c **** 
 962              		.loc 1 540 16 is_stmt 0 view .LVU210
 963 0002 D0F8C402 		ldr	r0, [r0, #708]
 964              	.LVL95:
 540:USB_Device/Target/usbd_conf.c **** 
 965              		.loc 1 540 16 view .LVU211
 966 0006 FFF7FEFF 		bl	HAL_PCD_EP_Close
 967              	.LVL96:
 542:USB_Device/Target/usbd_conf.c **** 
 968              		.loc 1 542 3 is_stmt 1 view .LVU212
 542:USB_Device/Target/usbd_conf.c **** 
 969              		.loc 1 542 17 is_stmt 0 view .LVU213
 970 000a FFF7FEFF 		bl	USBD_Get_USB_Status
 971              	.LVL97:
 544:USB_Device/Target/usbd_conf.c **** }
ARM GAS  /tmp/ccIa1zuE.s 			page 35


 972              		.loc 1 544 3 is_stmt 1 view .LVU214
 545:USB_Device/Target/usbd_conf.c **** 
 973              		.loc 1 545 1 is_stmt 0 view .LVU215
 974 000e 08BD     		pop	{r3, pc}
 975              		.cfi_endproc
 976              	.LFE351:
 978              		.section	.text.USBD_LL_FlushEP,"ax",%progbits
 979              		.align	1
 980              		.global	USBD_LL_FlushEP
 981              		.syntax unified
 982              		.thumb
 983              		.thumb_func
 985              	USBD_LL_FlushEP:
 986              	.LVL98:
 987              	.LFB352:
 554:USB_Device/Target/usbd_conf.c ****   HAL_StatusTypeDef hal_status = HAL_OK;
 988              		.loc 1 554 1 is_stmt 1 view -0
 989              		.cfi_startproc
 990              		@ args = 0, pretend = 0, frame = 0
 991              		@ frame_needed = 0, uses_anonymous_args = 0
 554:USB_Device/Target/usbd_conf.c ****   HAL_StatusTypeDef hal_status = HAL_OK;
 992              		.loc 1 554 1 is_stmt 0 view .LVU217
 993 0000 08B5     		push	{r3, lr}
 994              		.cfi_def_cfa_offset 8
 995              		.cfi_offset 3, -8
 996              		.cfi_offset 14, -4
 555:USB_Device/Target/usbd_conf.c ****   USBD_StatusTypeDef usb_status = USBD_OK;
 997              		.loc 1 555 3 is_stmt 1 view .LVU218
 998              	.LVL99:
 556:USB_Device/Target/usbd_conf.c **** 
 999              		.loc 1 556 3 view .LVU219
 558:USB_Device/Target/usbd_conf.c **** 
 1000              		.loc 1 558 3 view .LVU220
 558:USB_Device/Target/usbd_conf.c **** 
 1001              		.loc 1 558 16 is_stmt 0 view .LVU221
 1002 0002 D0F8C402 		ldr	r0, [r0, #708]
 1003              	.LVL100:
 558:USB_Device/Target/usbd_conf.c **** 
 1004              		.loc 1 558 16 view .LVU222
 1005 0006 FFF7FEFF 		bl	HAL_PCD_EP_Flush
 1006              	.LVL101:
 560:USB_Device/Target/usbd_conf.c **** 
 1007              		.loc 1 560 3 is_stmt 1 view .LVU223
 560:USB_Device/Target/usbd_conf.c **** 
 1008              		.loc 1 560 17 is_stmt 0 view .LVU224
 1009 000a FFF7FEFF 		bl	USBD_Get_USB_Status
 1010              	.LVL102:
 562:USB_Device/Target/usbd_conf.c **** }
 1011              		.loc 1 562 3 is_stmt 1 view .LVU225
 563:USB_Device/Target/usbd_conf.c **** 
 1012              		.loc 1 563 1 is_stmt 0 view .LVU226
 1013 000e 08BD     		pop	{r3, pc}
 1014              		.cfi_endproc
 1015              	.LFE352:
 1017              		.section	.text.USBD_LL_StallEP,"ax",%progbits
 1018              		.align	1
 1019              		.global	USBD_LL_StallEP
ARM GAS  /tmp/ccIa1zuE.s 			page 36


 1020              		.syntax unified
 1021              		.thumb
 1022              		.thumb_func
 1024              	USBD_LL_StallEP:
 1025              	.LVL103:
 1026              	.LFB353:
 572:USB_Device/Target/usbd_conf.c ****   HAL_StatusTypeDef hal_status = HAL_OK;
 1027              		.loc 1 572 1 is_stmt 1 view -0
 1028              		.cfi_startproc
 1029              		@ args = 0, pretend = 0, frame = 0
 1030              		@ frame_needed = 0, uses_anonymous_args = 0
 572:USB_Device/Target/usbd_conf.c ****   HAL_StatusTypeDef hal_status = HAL_OK;
 1031              		.loc 1 572 1 is_stmt 0 view .LVU228
 1032 0000 08B5     		push	{r3, lr}
 1033              		.cfi_def_cfa_offset 8
 1034              		.cfi_offset 3, -8
 1035              		.cfi_offset 14, -4
 573:USB_Device/Target/usbd_conf.c ****   USBD_StatusTypeDef usb_status = USBD_OK;
 1036              		.loc 1 573 3 is_stmt 1 view .LVU229
 1037              	.LVL104:
 574:USB_Device/Target/usbd_conf.c **** 
 1038              		.loc 1 574 3 view .LVU230
 576:USB_Device/Target/usbd_conf.c **** 
 1039              		.loc 1 576 3 view .LVU231
 576:USB_Device/Target/usbd_conf.c **** 
 1040              		.loc 1 576 16 is_stmt 0 view .LVU232
 1041 0002 D0F8C402 		ldr	r0, [r0, #708]
 1042              	.LVL105:
 576:USB_Device/Target/usbd_conf.c **** 
 1043              		.loc 1 576 16 view .LVU233
 1044 0006 FFF7FEFF 		bl	HAL_PCD_EP_SetStall
 1045              	.LVL106:
 578:USB_Device/Target/usbd_conf.c **** 
 1046              		.loc 1 578 3 is_stmt 1 view .LVU234
 578:USB_Device/Target/usbd_conf.c **** 
 1047              		.loc 1 578 17 is_stmt 0 view .LVU235
 1048 000a FFF7FEFF 		bl	USBD_Get_USB_Status
 1049              	.LVL107:
 580:USB_Device/Target/usbd_conf.c **** }
 1050              		.loc 1 580 3 is_stmt 1 view .LVU236
 581:USB_Device/Target/usbd_conf.c **** 
 1051              		.loc 1 581 1 is_stmt 0 view .LVU237
 1052 000e 08BD     		pop	{r3, pc}
 1053              		.cfi_endproc
 1054              	.LFE353:
 1056              		.section	.text.USBD_LL_ClearStallEP,"ax",%progbits
 1057              		.align	1
 1058              		.global	USBD_LL_ClearStallEP
 1059              		.syntax unified
 1060              		.thumb
 1061              		.thumb_func
 1063              	USBD_LL_ClearStallEP:
 1064              	.LVL108:
 1065              	.LFB354:
 590:USB_Device/Target/usbd_conf.c ****   HAL_StatusTypeDef hal_status = HAL_OK;
 1066              		.loc 1 590 1 is_stmt 1 view -0
 1067              		.cfi_startproc
ARM GAS  /tmp/ccIa1zuE.s 			page 37


 1068              		@ args = 0, pretend = 0, frame = 0
 1069              		@ frame_needed = 0, uses_anonymous_args = 0
 590:USB_Device/Target/usbd_conf.c ****   HAL_StatusTypeDef hal_status = HAL_OK;
 1070              		.loc 1 590 1 is_stmt 0 view .LVU239
 1071 0000 08B5     		push	{r3, lr}
 1072              		.cfi_def_cfa_offset 8
 1073              		.cfi_offset 3, -8
 1074              		.cfi_offset 14, -4
 591:USB_Device/Target/usbd_conf.c ****   USBD_StatusTypeDef usb_status = USBD_OK;
 1075              		.loc 1 591 3 is_stmt 1 view .LVU240
 1076              	.LVL109:
 592:USB_Device/Target/usbd_conf.c **** 
 1077              		.loc 1 592 3 view .LVU241
 594:USB_Device/Target/usbd_conf.c **** 
 1078              		.loc 1 594 3 view .LVU242
 594:USB_Device/Target/usbd_conf.c **** 
 1079              		.loc 1 594 16 is_stmt 0 view .LVU243
 1080 0002 D0F8C402 		ldr	r0, [r0, #708]
 1081              	.LVL110:
 594:USB_Device/Target/usbd_conf.c **** 
 1082              		.loc 1 594 16 view .LVU244
 1083 0006 FFF7FEFF 		bl	HAL_PCD_EP_ClrStall
 1084              	.LVL111:
 596:USB_Device/Target/usbd_conf.c **** 
 1085              		.loc 1 596 3 is_stmt 1 view .LVU245
 596:USB_Device/Target/usbd_conf.c **** 
 1086              		.loc 1 596 17 is_stmt 0 view .LVU246
 1087 000a FFF7FEFF 		bl	USBD_Get_USB_Status
 1088              	.LVL112:
 598:USB_Device/Target/usbd_conf.c **** }
 1089              		.loc 1 598 3 is_stmt 1 view .LVU247
 599:USB_Device/Target/usbd_conf.c **** 
 1090              		.loc 1 599 1 is_stmt 0 view .LVU248
 1091 000e 08BD     		pop	{r3, pc}
 1092              		.cfi_endproc
 1093              	.LFE354:
 1095              		.section	.text.USBD_LL_IsStallEP,"ax",%progbits
 1096              		.align	1
 1097              		.global	USBD_LL_IsStallEP
 1098              		.syntax unified
 1099              		.thumb
 1100              		.thumb_func
 1102              	USBD_LL_IsStallEP:
 1103              	.LVL113:
 1104              	.LFB355:
 608:USB_Device/Target/usbd_conf.c ****   PCD_HandleTypeDef *hpcd = (PCD_HandleTypeDef*) pdev->pData;
 1105              		.loc 1 608 1 is_stmt 1 view -0
 1106              		.cfi_startproc
 1107              		@ args = 0, pretend = 0, frame = 0
 1108              		@ frame_needed = 0, uses_anonymous_args = 0
 1109              		@ link register save eliminated.
 609:USB_Device/Target/usbd_conf.c **** 
 1110              		.loc 1 609 3 view .LVU250
 609:USB_Device/Target/usbd_conf.c **** 
 1111              		.loc 1 609 22 is_stmt 0 view .LVU251
 1112 0000 D0F8C432 		ldr	r3, [r0, #708]
 1113              	.LVL114:
ARM GAS  /tmp/ccIa1zuE.s 			page 38


 611:USB_Device/Target/usbd_conf.c ****   {
 1114              		.loc 1 611 3 is_stmt 1 view .LVU252
 611:USB_Device/Target/usbd_conf.c ****   {
 1115              		.loc 1 611 5 is_stmt 0 view .LVU253
 1116 0004 11F0800F 		tst	r1, #128
 1117 0008 08D1     		bne	.L80
 617:USB_Device/Target/usbd_conf.c ****   }
 1118              		.loc 1 617 5 is_stmt 1 view .LVU254
 617:USB_Device/Target/usbd_conf.c ****   }
 1119              		.loc 1 617 33 is_stmt 0 view .LVU255
 1120 000a 01F07F01 		and	r1, r1, #127
 1121              	.LVL115:
 617:USB_Device/Target/usbd_conf.c ****   }
 1122              		.loc 1 617 40 view .LVU256
 1123 000e 01EB8101 		add	r1, r1, r1, lsl #2
 1124 0012 03EBC103 		add	r3, r3, r1, lsl #3
 1125              	.LVL116:
 617:USB_Device/Target/usbd_conf.c ****   }
 1126              		.loc 1 617 40 view .LVU257
 1127 0016 93F85201 		ldrb	r0, [r3, #338]	@ zero_extendqisi2
 1128              	.LVL117:
 619:USB_Device/Target/usbd_conf.c **** 
 1129              		.loc 1 619 1 view .LVU258
 1130 001a 7047     		bx	lr
 1131              	.LVL118:
 1132              	.L80:
 613:USB_Device/Target/usbd_conf.c ****   }
 1133              		.loc 1 613 5 is_stmt 1 view .LVU259
 613:USB_Device/Target/usbd_conf.c ****   }
 1134              		.loc 1 613 32 is_stmt 0 view .LVU260
 1135 001c 01F07F01 		and	r1, r1, #127
 1136              	.LVL119:
 613:USB_Device/Target/usbd_conf.c ****   }
 1137              		.loc 1 613 39 view .LVU261
 1138 0020 01EB8101 		add	r1, r1, r1, lsl #2
 1139 0024 03EBC103 		add	r3, r3, r1, lsl #3
 1140              	.LVL120:
 613:USB_Device/Target/usbd_conf.c ****   }
 1141              		.loc 1 613 39 view .LVU262
 1142 0028 987C     		ldrb	r0, [r3, #18]	@ zero_extendqisi2
 1143              	.LVL121:
 613:USB_Device/Target/usbd_conf.c ****   }
 1144              		.loc 1 613 39 view .LVU263
 1145 002a 7047     		bx	lr
 1146              		.cfi_endproc
 1147              	.LFE355:
 1149              		.section	.text.USBD_LL_SetUSBAddress,"ax",%progbits
 1150              		.align	1
 1151              		.global	USBD_LL_SetUSBAddress
 1152              		.syntax unified
 1153              		.thumb
 1154              		.thumb_func
 1156              	USBD_LL_SetUSBAddress:
 1157              	.LVL122:
 1158              	.LFB356:
 628:USB_Device/Target/usbd_conf.c ****   HAL_StatusTypeDef hal_status = HAL_OK;
 1159              		.loc 1 628 1 is_stmt 1 view -0
ARM GAS  /tmp/ccIa1zuE.s 			page 39


 1160              		.cfi_startproc
 1161              		@ args = 0, pretend = 0, frame = 0
 1162              		@ frame_needed = 0, uses_anonymous_args = 0
 628:USB_Device/Target/usbd_conf.c ****   HAL_StatusTypeDef hal_status = HAL_OK;
 1163              		.loc 1 628 1 is_stmt 0 view .LVU265
 1164 0000 08B5     		push	{r3, lr}
 1165              		.cfi_def_cfa_offset 8
 1166              		.cfi_offset 3, -8
 1167              		.cfi_offset 14, -4
 629:USB_Device/Target/usbd_conf.c ****   USBD_StatusTypeDef usb_status = USBD_OK;
 1168              		.loc 1 629 3 is_stmt 1 view .LVU266
 1169              	.LVL123:
 630:USB_Device/Target/usbd_conf.c **** 
 1170              		.loc 1 630 3 view .LVU267
 632:USB_Device/Target/usbd_conf.c **** 
 1171              		.loc 1 632 3 view .LVU268
 632:USB_Device/Target/usbd_conf.c **** 
 1172              		.loc 1 632 16 is_stmt 0 view .LVU269
 1173 0002 D0F8C402 		ldr	r0, [r0, #708]
 1174              	.LVL124:
 632:USB_Device/Target/usbd_conf.c **** 
 1175              		.loc 1 632 16 view .LVU270
 1176 0006 FFF7FEFF 		bl	HAL_PCD_SetAddress
 1177              	.LVL125:
 634:USB_Device/Target/usbd_conf.c **** 
 1178              		.loc 1 634 3 is_stmt 1 view .LVU271
 634:USB_Device/Target/usbd_conf.c **** 
 1179              		.loc 1 634 17 is_stmt 0 view .LVU272
 1180 000a FFF7FEFF 		bl	USBD_Get_USB_Status
 1181              	.LVL126:
 636:USB_Device/Target/usbd_conf.c **** }
 1182              		.loc 1 636 3 is_stmt 1 view .LVU273
 637:USB_Device/Target/usbd_conf.c **** 
 1183              		.loc 1 637 1 is_stmt 0 view .LVU274
 1184 000e 08BD     		pop	{r3, pc}
 1185              		.cfi_endproc
 1186              	.LFE356:
 1188              		.section	.text.USBD_LL_Transmit,"ax",%progbits
 1189              		.align	1
 1190              		.global	USBD_LL_Transmit
 1191              		.syntax unified
 1192              		.thumb
 1193              		.thumb_func
 1195              	USBD_LL_Transmit:
 1196              	.LVL127:
 1197              	.LFB357:
 648:USB_Device/Target/usbd_conf.c ****   HAL_StatusTypeDef hal_status = HAL_OK;
 1198              		.loc 1 648 1 is_stmt 1 view -0
 1199              		.cfi_startproc
 1200              		@ args = 0, pretend = 0, frame = 0
 1201              		@ frame_needed = 0, uses_anonymous_args = 0
 648:USB_Device/Target/usbd_conf.c ****   HAL_StatusTypeDef hal_status = HAL_OK;
 1202              		.loc 1 648 1 is_stmt 0 view .LVU276
 1203 0000 08B5     		push	{r3, lr}
 1204              		.cfi_def_cfa_offset 8
 1205              		.cfi_offset 3, -8
 1206              		.cfi_offset 14, -4
ARM GAS  /tmp/ccIa1zuE.s 			page 40


 649:USB_Device/Target/usbd_conf.c ****   USBD_StatusTypeDef usb_status = USBD_OK;
 1207              		.loc 1 649 3 is_stmt 1 view .LVU277
 1208              	.LVL128:
 650:USB_Device/Target/usbd_conf.c **** 
 1209              		.loc 1 650 3 view .LVU278
 652:USB_Device/Target/usbd_conf.c **** 
 1210              		.loc 1 652 3 view .LVU279
 652:USB_Device/Target/usbd_conf.c **** 
 1211              		.loc 1 652 16 is_stmt 0 view .LVU280
 1212 0002 D0F8C402 		ldr	r0, [r0, #708]
 1213              	.LVL129:
 652:USB_Device/Target/usbd_conf.c **** 
 1214              		.loc 1 652 16 view .LVU281
 1215 0006 FFF7FEFF 		bl	HAL_PCD_EP_Transmit
 1216              	.LVL130:
 654:USB_Device/Target/usbd_conf.c **** 
 1217              		.loc 1 654 3 is_stmt 1 view .LVU282
 654:USB_Device/Target/usbd_conf.c **** 
 1218              		.loc 1 654 17 is_stmt 0 view .LVU283
 1219 000a FFF7FEFF 		bl	USBD_Get_USB_Status
 1220              	.LVL131:
 656:USB_Device/Target/usbd_conf.c **** }
 1221              		.loc 1 656 3 is_stmt 1 view .LVU284
 657:USB_Device/Target/usbd_conf.c **** 
 1222              		.loc 1 657 1 is_stmt 0 view .LVU285
 1223 000e 08BD     		pop	{r3, pc}
 1224              		.cfi_endproc
 1225              	.LFE357:
 1227              		.section	.text.USBD_LL_PrepareReceive,"ax",%progbits
 1228              		.align	1
 1229              		.global	USBD_LL_PrepareReceive
 1230              		.syntax unified
 1231              		.thumb
 1232              		.thumb_func
 1234              	USBD_LL_PrepareReceive:
 1235              	.LVL132:
 1236              	.LFB358:
 668:USB_Device/Target/usbd_conf.c ****   HAL_StatusTypeDef hal_status = HAL_OK;
 1237              		.loc 1 668 1 is_stmt 1 view -0
 1238              		.cfi_startproc
 1239              		@ args = 0, pretend = 0, frame = 0
 1240              		@ frame_needed = 0, uses_anonymous_args = 0
 668:USB_Device/Target/usbd_conf.c ****   HAL_StatusTypeDef hal_status = HAL_OK;
 1241              		.loc 1 668 1 is_stmt 0 view .LVU287
 1242 0000 08B5     		push	{r3, lr}
 1243              		.cfi_def_cfa_offset 8
 1244              		.cfi_offset 3, -8
 1245              		.cfi_offset 14, -4
 669:USB_Device/Target/usbd_conf.c ****   USBD_StatusTypeDef usb_status = USBD_OK;
 1246              		.loc 1 669 3 is_stmt 1 view .LVU288
 1247              	.LVL133:
 670:USB_Device/Target/usbd_conf.c **** 
 1248              		.loc 1 670 3 view .LVU289
 672:USB_Device/Target/usbd_conf.c **** 
 1249              		.loc 1 672 3 view .LVU290
 672:USB_Device/Target/usbd_conf.c **** 
 1250              		.loc 1 672 16 is_stmt 0 view .LVU291
ARM GAS  /tmp/ccIa1zuE.s 			page 41


 1251 0002 D0F8C402 		ldr	r0, [r0, #708]
 1252              	.LVL134:
 672:USB_Device/Target/usbd_conf.c **** 
 1253              		.loc 1 672 16 view .LVU292
 1254 0006 FFF7FEFF 		bl	HAL_PCD_EP_Receive
 1255              	.LVL135:
 674:USB_Device/Target/usbd_conf.c **** 
 1256              		.loc 1 674 3 is_stmt 1 view .LVU293
 674:USB_Device/Target/usbd_conf.c **** 
 1257              		.loc 1 674 17 is_stmt 0 view .LVU294
 1258 000a FFF7FEFF 		bl	USBD_Get_USB_Status
 1259              	.LVL136:
 676:USB_Device/Target/usbd_conf.c **** }
 1260              		.loc 1 676 3 is_stmt 1 view .LVU295
 677:USB_Device/Target/usbd_conf.c **** 
 1261              		.loc 1 677 1 is_stmt 0 view .LVU296
 1262 000e 08BD     		pop	{r3, pc}
 1263              		.cfi_endproc
 1264              	.LFE358:
 1266              		.section	.text.USBD_LL_GetRxDataSize,"ax",%progbits
 1267              		.align	1
 1268              		.global	USBD_LL_GetRxDataSize
 1269              		.syntax unified
 1270              		.thumb
 1271              		.thumb_func
 1273              	USBD_LL_GetRxDataSize:
 1274              	.LVL137:
 1275              	.LFB359:
 686:USB_Device/Target/usbd_conf.c ****   return HAL_PCD_EP_GetRxCount((PCD_HandleTypeDef*) pdev->pData, ep_addr);
 1276              		.loc 1 686 1 is_stmt 1 view -0
 1277              		.cfi_startproc
 1278              		@ args = 0, pretend = 0, frame = 0
 1279              		@ frame_needed = 0, uses_anonymous_args = 0
 686:USB_Device/Target/usbd_conf.c ****   return HAL_PCD_EP_GetRxCount((PCD_HandleTypeDef*) pdev->pData, ep_addr);
 1280              		.loc 1 686 1 is_stmt 0 view .LVU298
 1281 0000 08B5     		push	{r3, lr}
 1282              		.cfi_def_cfa_offset 8
 1283              		.cfi_offset 3, -8
 1284              		.cfi_offset 14, -4
 687:USB_Device/Target/usbd_conf.c **** }
 1285              		.loc 1 687 3 is_stmt 1 view .LVU299
 687:USB_Device/Target/usbd_conf.c **** }
 1286              		.loc 1 687 10 is_stmt 0 view .LVU300
 1287 0002 D0F8C402 		ldr	r0, [r0, #708]
 1288              	.LVL138:
 687:USB_Device/Target/usbd_conf.c **** }
 1289              		.loc 1 687 10 view .LVU301
 1290 0006 FFF7FEFF 		bl	HAL_PCD_EP_GetRxCount
 1291              	.LVL139:
 688:USB_Device/Target/usbd_conf.c **** 
 1292              		.loc 1 688 1 view .LVU302
 1293 000a 08BD     		pop	{r3, pc}
 1294              		.cfi_endproc
 1295              	.LFE359:
 1297              		.section	.text.HAL_PCDEx_LPM_Callback,"ax",%progbits
 1298              		.align	1
 1299              		.global	HAL_PCDEx_LPM_Callback
ARM GAS  /tmp/ccIa1zuE.s 			page 42


 1300              		.syntax unified
 1301              		.thumb
 1302              		.thumb_func
 1304              	HAL_PCDEx_LPM_Callback:
 1305              	.LVL140:
 1306              	.LFB360:
 701:USB_Device/Target/usbd_conf.c ****   /* USER CODE BEGIN LPM_Callback */
 1307              		.loc 1 701 1 is_stmt 1 view -0
 1308              		.cfi_startproc
 1309              		@ args = 0, pretend = 0, frame = 0
 1310              		@ frame_needed = 0, uses_anonymous_args = 0
 701:USB_Device/Target/usbd_conf.c ****   /* USER CODE BEGIN LPM_Callback */
 1311              		.loc 1 701 1 is_stmt 0 view .LVU304
 1312 0000 10B5     		push	{r4, lr}
 1313              		.cfi_def_cfa_offset 8
 1314              		.cfi_offset 4, -8
 1315              		.cfi_offset 14, -4
 1316 0002 0446     		mov	r4, r0
 703:USB_Device/Target/usbd_conf.c ****   {
 1317              		.loc 1 703 3 is_stmt 1 view .LVU305
 1318 0004 69B1     		cbz	r1, .L90
 1319 0006 0129     		cmp	r1, #1
 1320 0008 11D1     		bne	.L89
 717:USB_Device/Target/usbd_conf.c **** 
 1321              		.loc 1 717 5 view .LVU306
 1322 000a D0F8D802 		ldr	r0, [r0, #728]
 1323              	.LVL141:
 717:USB_Device/Target/usbd_conf.c **** 
 1324              		.loc 1 717 5 is_stmt 0 view .LVU307
 1325 000e FFF7FEFF 		bl	USBD_LL_Suspend
 1326              	.LVL142:
 720:USB_Device/Target/usbd_conf.c ****     {
 1327              		.loc 1 720 5 is_stmt 1 view .LVU308
 720:USB_Device/Target/usbd_conf.c ****     {
 1328              		.loc 1 720 19 is_stmt 0 view .LVU309
 1329 0012 637A     		ldrb	r3, [r4, #9]	@ zero_extendqisi2
 720:USB_Device/Target/usbd_conf.c ****     {
 1330              		.loc 1 720 8 view .LVU310
 1331 0014 5BB1     		cbz	r3, .L89
 723:USB_Device/Target/usbd_conf.c ****     }
 1332              		.loc 1 723 7 is_stmt 1 view .LVU311
 723:USB_Device/Target/usbd_conf.c ****     }
 1333              		.loc 1 723 10 is_stmt 0 view .LVU312
 1334 0016 0A4A     		ldr	r2, .L96
 1335 0018 1369     		ldr	r3, [r2, #16]
 723:USB_Device/Target/usbd_conf.c ****     }
 1336              		.loc 1 723 16 view .LVU313
 1337 001a 43F00603 		orr	r3, r3, #6
 1338 001e 1361     		str	r3, [r2, #16]
 728:USB_Device/Target/usbd_conf.c **** 
 1339              		.loc 1 728 1 view .LVU314
 1340 0020 05E0     		b	.L89
 1341              	.LVL143:
 1342              	.L90:
 706:USB_Device/Target/usbd_conf.c ****     {
 1343              		.loc 1 706 5 is_stmt 1 view .LVU315
 706:USB_Device/Target/usbd_conf.c ****     {
ARM GAS  /tmp/ccIa1zuE.s 			page 43


 1344              		.loc 1 706 19 is_stmt 0 view .LVU316
 1345 0022 437A     		ldrb	r3, [r0, #9]	@ zero_extendqisi2
 706:USB_Device/Target/usbd_conf.c ****     {
 1346              		.loc 1 706 8 view .LVU317
 1347 0024 23B9     		cbnz	r3, .L95
 1348              	.LVL144:
 1349              	.L93:
 713:USB_Device/Target/usbd_conf.c ****     break;
 1350              		.loc 1 713 5 is_stmt 1 view .LVU318
 1351 0026 D4F8D802 		ldr	r0, [r4, #728]
 1352 002a FFF7FEFF 		bl	USBD_LL_Resume
 1353              	.LVL145:
 714:USB_Device/Target/usbd_conf.c **** 
 1354              		.loc 1 714 5 view .LVU319
 1355              	.L89:
 728:USB_Device/Target/usbd_conf.c **** 
 1356              		.loc 1 728 1 is_stmt 0 view .LVU320
 1357 002e 10BD     		pop	{r4, pc}
 1358              	.LVL146:
 1359              	.L95:
 708:USB_Device/Target/usbd_conf.c **** 
 1360              		.loc 1 708 7 is_stmt 1 view .LVU321
 1361 0030 FFF7FEFF 		bl	SystemClockConfig_Resume
 1362              	.LVL147:
 711:USB_Device/Target/usbd_conf.c ****     }
 1363              		.loc 1 711 7 view .LVU322
 711:USB_Device/Target/usbd_conf.c ****     }
 1364              		.loc 1 711 10 is_stmt 0 view .LVU323
 1365 0034 024A     		ldr	r2, .L96
 1366 0036 1369     		ldr	r3, [r2, #16]
 711:USB_Device/Target/usbd_conf.c ****     }
 1367              		.loc 1 711 16 view .LVU324
 1368 0038 23F00603 		bic	r3, r3, #6
 1369 003c 1361     		str	r3, [r2, #16]
 1370 003e F2E7     		b	.L93
 1371              	.L97:
 1372              		.align	2
 1373              	.L96:
 1374 0040 00ED00E0 		.word	-536810240
 1375              		.cfi_endproc
 1376              	.LFE360:
 1378              		.section	.text.USBD_LL_Delay,"ax",%progbits
 1379              		.align	1
 1380              		.global	USBD_LL_Delay
 1381              		.syntax unified
 1382              		.thumb
 1383              		.thumb_func
 1385              	USBD_LL_Delay:
 1386              	.LVL148:
 1387              	.LFB361:
 736:USB_Device/Target/usbd_conf.c ****   HAL_Delay(Delay);
 1388              		.loc 1 736 1 is_stmt 1 view -0
 1389              		.cfi_startproc
 1390              		@ args = 0, pretend = 0, frame = 0
 1391              		@ frame_needed = 0, uses_anonymous_args = 0
 736:USB_Device/Target/usbd_conf.c ****   HAL_Delay(Delay);
 1392              		.loc 1 736 1 is_stmt 0 view .LVU326
ARM GAS  /tmp/ccIa1zuE.s 			page 44


 1393 0000 08B5     		push	{r3, lr}
 1394              		.cfi_def_cfa_offset 8
 1395              		.cfi_offset 3, -8
 1396              		.cfi_offset 14, -4
 737:USB_Device/Target/usbd_conf.c **** }
 1397              		.loc 1 737 3 is_stmt 1 view .LVU327
 1398 0002 FFF7FEFF 		bl	HAL_Delay
 1399              	.LVL149:
 738:USB_Device/Target/usbd_conf.c **** 
 1400              		.loc 1 738 1 is_stmt 0 view .LVU328
 1401 0006 08BD     		pop	{r3, pc}
 1402              		.cfi_endproc
 1403              	.LFE361:
 1405              		.section	.text.USBD_static_malloc,"ax",%progbits
 1406              		.align	1
 1407              		.global	USBD_static_malloc
 1408              		.syntax unified
 1409              		.thumb
 1410              		.thumb_func
 1412              	USBD_static_malloc:
 1413              	.LVL150:
 1414              	.LFB362:
 746:USB_Device/Target/usbd_conf.c ****   static uint32_t mem[(sizeof(USBD_CDC_HandleTypeDef)/4)+1];/* On 32-bit boundary */
 1415              		.loc 1 746 1 is_stmt 1 view -0
 1416              		.cfi_startproc
 1417              		@ args = 0, pretend = 0, frame = 0
 1418              		@ frame_needed = 0, uses_anonymous_args = 0
 1419              		@ link register save eliminated.
 747:USB_Device/Target/usbd_conf.c ****   return mem;
 1420              		.loc 1 747 3 view .LVU330
 748:USB_Device/Target/usbd_conf.c **** }
 1421              		.loc 1 748 3 view .LVU331
 749:USB_Device/Target/usbd_conf.c **** 
 1422              		.loc 1 749 1 is_stmt 0 view .LVU332
 1423 0000 0048     		ldr	r0, .L101
 1424              	.LVL151:
 749:USB_Device/Target/usbd_conf.c **** 
 1425              		.loc 1 749 1 view .LVU333
 1426 0002 7047     		bx	lr
 1427              	.L102:
 1428              		.align	2
 1429              	.L101:
 1430 0004 00000000 		.word	mem.0
 1431              		.cfi_endproc
 1432              	.LFE362:
 1434              		.section	.text.USBD_static_free,"ax",%progbits
 1435              		.align	1
 1436              		.global	USBD_static_free
 1437              		.syntax unified
 1438              		.thumb
 1439              		.thumb_func
 1441              	USBD_static_free:
 1442              	.LVL152:
 1443              	.LFB363:
 757:USB_Device/Target/usbd_conf.c **** 
 1444              		.loc 1 757 1 is_stmt 1 view -0
 1445              		.cfi_startproc
ARM GAS  /tmp/ccIa1zuE.s 			page 45


 1446              		@ args = 0, pretend = 0, frame = 0
 1447              		@ frame_needed = 0, uses_anonymous_args = 0
 1448              		@ link register save eliminated.
 759:USB_Device/Target/usbd_conf.c **** 
 1449              		.loc 1 759 1 view .LVU335
 1450 0000 7047     		bx	lr
 1451              		.cfi_endproc
 1452              	.LFE363:
 1454              		.section	.bss.mem.0,"aw",%nobits
 1455              		.align	2
 1458              	mem.0:
 1459 0000 00000000 		.space	544
 1459      00000000 
 1459      00000000 
 1459      00000000 
 1459      00000000 
 1460              		.global	hpcd_USB_FS
 1461              		.section	.bss.hpcd_USB_FS,"aw",%nobits
 1462              		.align	2
 1465              	hpcd_USB_FS:
 1466 0000 00000000 		.space	732
 1466      00000000 
 1466      00000000 
 1466      00000000 
 1466      00000000 
 1467              		.text
 1468              	.Letext0:
 1469              		.file 2 "Drivers/CMSIS/Device/ST/STM32G4xx/Include/stm32g474xx.h"
 1470              		.file 3 "/opt/arm-gnu-toolchain-14.2/arm-none-eabi/include/machine/_default_types.h"
 1471              		.file 4 "/opt/arm-gnu-toolchain-14.2/arm-none-eabi/include/sys/_stdint.h"
 1472              		.file 5 "Drivers/CMSIS/Include/core_cm4.h"
 1473              		.file 6 "Drivers/CMSIS/Device/ST/STM32G4xx/Include/stm32g4xx.h"
 1474              		.file 7 "Drivers/STM32G4xx_HAL_Driver/Inc/stm32g4xx_hal_def.h"
 1475              		.file 8 "Drivers/STM32G4xx_HAL_Driver/Inc/stm32g4xx_hal_rcc_ex.h"
 1476              		.file 9 "Drivers/STM32G4xx_HAL_Driver/Inc/stm32g4xx_ll_usb.h"
 1477              		.file 10 "Drivers/STM32G4xx_HAL_Driver/Inc/stm32g4xx_hal_pcd.h"
 1478              		.file 11 "Middlewares/ST/STM32_USB_Device_Library/Core/Inc/usbd_def.h"
 1479              		.file 12 "Drivers/STM32G4xx_HAL_Driver/Inc/stm32g4xx_hal_pcd_ex.h"
 1480              		.file 13 "Middlewares/ST/STM32_USB_Device_Library/Core/Inc/usbd_core.h"
 1481              		.file 14 "Drivers/STM32G4xx_HAL_Driver/Inc/stm32g4xx_hal.h"
 1482              		.file 15 "Drivers/STM32G4xx_HAL_Driver/Inc/stm32g4xx_hal_cortex.h"
 1483              		.file 16 "<built-in>"
ARM GAS  /tmp/ccIa1zuE.s 			page 46


DEFINED SYMBOLS
                            *ABS*:00000000 usbd_conf.c
     /tmp/ccIa1zuE.s:21     .text.USBD_Get_USB_Status:00000000 $t
     /tmp/ccIa1zuE.s:26     .text.USBD_Get_USB_Status:00000000 USBD_Get_USB_Status
     /tmp/ccIa1zuE.s:40     .text.USBD_Get_USB_Status:00000008 $d
     /tmp/ccIa1zuE.s:44     .text.USBD_Get_USB_Status:0000000c $t
     /tmp/ccIa1zuE.s:67     .text.SystemClockConfig_Resume:00000000 $t
     /tmp/ccIa1zuE.s:72     .text.SystemClockConfig_Resume:00000000 SystemClockConfig_Resume
     /tmp/ccIa1zuE.s:91     .text.HAL_PCD_MspInit:00000000 $t
     /tmp/ccIa1zuE.s:97     .text.HAL_PCD_MspInit:00000000 HAL_PCD_MspInit
     /tmp/ccIa1zuE.s:197    .text.HAL_PCD_MspInit:00000068 $d
     /tmp/ccIa1zuE.s:203    .text.HAL_PCD_MspDeInit:00000000 $t
     /tmp/ccIa1zuE.s:209    .text.HAL_PCD_MspDeInit:00000000 HAL_PCD_MspDeInit
     /tmp/ccIa1zuE.s:254    .text.HAL_PCD_MspDeInit:00000024 $d
     /tmp/ccIa1zuE.s:260    .text.HAL_PCD_SetupStageCallback:00000000 $t
     /tmp/ccIa1zuE.s:266    .text.HAL_PCD_SetupStageCallback:00000000 HAL_PCD_SetupStageCallback
     /tmp/ccIa1zuE.s:291    .text.HAL_PCD_DataOutStageCallback:00000000 $t
     /tmp/ccIa1zuE.s:297    .text.HAL_PCD_DataOutStageCallback:00000000 HAL_PCD_DataOutStageCallback
     /tmp/ccIa1zuE.s:324    .text.HAL_PCD_DataInStageCallback:00000000 $t
     /tmp/ccIa1zuE.s:330    .text.HAL_PCD_DataInStageCallback:00000000 HAL_PCD_DataInStageCallback
     /tmp/ccIa1zuE.s:357    .text.HAL_PCD_SOFCallback:00000000 $t
     /tmp/ccIa1zuE.s:363    .text.HAL_PCD_SOFCallback:00000000 HAL_PCD_SOFCallback
     /tmp/ccIa1zuE.s:387    .text.HAL_PCD_ResetCallback:00000000 $t
     /tmp/ccIa1zuE.s:393    .text.HAL_PCD_ResetCallback:00000000 HAL_PCD_ResetCallback
     /tmp/ccIa1zuE.s:438    .text.HAL_PCD_SuspendCallback:00000000 $t
     /tmp/ccIa1zuE.s:444    .text.HAL_PCD_SuspendCallback:00000000 HAL_PCD_SuspendCallback
     /tmp/ccIa1zuE.s:483    .text.HAL_PCD_SuspendCallback:0000001c $d
     /tmp/ccIa1zuE.s:488    .text.HAL_PCD_ResumeCallback:00000000 $t
     /tmp/ccIa1zuE.s:494    .text.HAL_PCD_ResumeCallback:00000000 HAL_PCD_ResumeCallback
     /tmp/ccIa1zuE.s:537    .text.HAL_PCD_ResumeCallback:00000024 $d
     /tmp/ccIa1zuE.s:542    .text.HAL_PCD_ISOOUTIncompleteCallback:00000000 $t
     /tmp/ccIa1zuE.s:548    .text.HAL_PCD_ISOOUTIncompleteCallback:00000000 HAL_PCD_ISOOUTIncompleteCallback
     /tmp/ccIa1zuE.s:572    .text.HAL_PCD_ISOINIncompleteCallback:00000000 $t
     /tmp/ccIa1zuE.s:578    .text.HAL_PCD_ISOINIncompleteCallback:00000000 HAL_PCD_ISOINIncompleteCallback
     /tmp/ccIa1zuE.s:602    .text.HAL_PCD_ConnectCallback:00000000 $t
     /tmp/ccIa1zuE.s:608    .text.HAL_PCD_ConnectCallback:00000000 HAL_PCD_ConnectCallback
     /tmp/ccIa1zuE.s:632    .text.HAL_PCD_DisconnectCallback:00000000 $t
     /tmp/ccIa1zuE.s:638    .text.HAL_PCD_DisconnectCallback:00000000 HAL_PCD_DisconnectCallback
     /tmp/ccIa1zuE.s:662    .text.USBD_LL_Init:00000000 $t
     /tmp/ccIa1zuE.s:668    .text.USBD_LL_Init:00000000 USBD_LL_Init
     /tmp/ccIa1zuE.s:773    .text.USBD_LL_Init:00000080 $d
     /tmp/ccIa1zuE.s:1465   .bss.hpcd_USB_FS:00000000 hpcd_USB_FS
     /tmp/ccIa1zuE.s:779    .text.USBD_LL_DeInit:00000000 $t
     /tmp/ccIa1zuE.s:785    .text.USBD_LL_DeInit:00000000 USBD_LL_DeInit
     /tmp/ccIa1zuE.s:818    .text.USBD_LL_Start:00000000 $t
     /tmp/ccIa1zuE.s:824    .text.USBD_LL_Start:00000000 USBD_LL_Start
     /tmp/ccIa1zuE.s:857    .text.USBD_LL_Stop:00000000 $t
     /tmp/ccIa1zuE.s:863    .text.USBD_LL_Stop:00000000 USBD_LL_Stop
     /tmp/ccIa1zuE.s:896    .text.USBD_LL_OpenEP:00000000 $t
     /tmp/ccIa1zuE.s:902    .text.USBD_LL_OpenEP:00000000 USBD_LL_OpenEP
     /tmp/ccIa1zuE.s:940    .text.USBD_LL_CloseEP:00000000 $t
     /tmp/ccIa1zuE.s:946    .text.USBD_LL_CloseEP:00000000 USBD_LL_CloseEP
     /tmp/ccIa1zuE.s:979    .text.USBD_LL_FlushEP:00000000 $t
     /tmp/ccIa1zuE.s:985    .text.USBD_LL_FlushEP:00000000 USBD_LL_FlushEP
     /tmp/ccIa1zuE.s:1018   .text.USBD_LL_StallEP:00000000 $t
     /tmp/ccIa1zuE.s:1024   .text.USBD_LL_StallEP:00000000 USBD_LL_StallEP
     /tmp/ccIa1zuE.s:1057   .text.USBD_LL_ClearStallEP:00000000 $t
ARM GAS  /tmp/ccIa1zuE.s 			page 47


     /tmp/ccIa1zuE.s:1063   .text.USBD_LL_ClearStallEP:00000000 USBD_LL_ClearStallEP
     /tmp/ccIa1zuE.s:1096   .text.USBD_LL_IsStallEP:00000000 $t
     /tmp/ccIa1zuE.s:1102   .text.USBD_LL_IsStallEP:00000000 USBD_LL_IsStallEP
     /tmp/ccIa1zuE.s:1150   .text.USBD_LL_SetUSBAddress:00000000 $t
     /tmp/ccIa1zuE.s:1156   .text.USBD_LL_SetUSBAddress:00000000 USBD_LL_SetUSBAddress
     /tmp/ccIa1zuE.s:1189   .text.USBD_LL_Transmit:00000000 $t
     /tmp/ccIa1zuE.s:1195   .text.USBD_LL_Transmit:00000000 USBD_LL_Transmit
     /tmp/ccIa1zuE.s:1228   .text.USBD_LL_PrepareReceive:00000000 $t
     /tmp/ccIa1zuE.s:1234   .text.USBD_LL_PrepareReceive:00000000 USBD_LL_PrepareReceive
     /tmp/ccIa1zuE.s:1267   .text.USBD_LL_GetRxDataSize:00000000 $t
     /tmp/ccIa1zuE.s:1273   .text.USBD_LL_GetRxDataSize:00000000 USBD_LL_GetRxDataSize
     /tmp/ccIa1zuE.s:1298   .text.HAL_PCDEx_LPM_Callback:00000000 $t
     /tmp/ccIa1zuE.s:1304   .text.HAL_PCDEx_LPM_Callback:00000000 HAL_PCDEx_LPM_Callback
     /tmp/ccIa1zuE.s:1374   .text.HAL_PCDEx_LPM_Callback:00000040 $d
     /tmp/ccIa1zuE.s:1379   .text.USBD_LL_Delay:00000000 $t
     /tmp/ccIa1zuE.s:1385   .text.USBD_LL_Delay:00000000 USBD_LL_Delay
     /tmp/ccIa1zuE.s:1406   .text.USBD_static_malloc:00000000 $t
     /tmp/ccIa1zuE.s:1412   .text.USBD_static_malloc:00000000 USBD_static_malloc
     /tmp/ccIa1zuE.s:1430   .text.USBD_static_malloc:00000004 $d
     /tmp/ccIa1zuE.s:1458   .bss.mem.0:00000000 mem.0
     /tmp/ccIa1zuE.s:1435   .text.USBD_static_free:00000000 $t
     /tmp/ccIa1zuE.s:1441   .text.USBD_static_free:00000000 USBD_static_free
     /tmp/ccIa1zuE.s:1455   .bss.mem.0:00000000 $d
     /tmp/ccIa1zuE.s:1462   .bss.hpcd_USB_FS:00000000 $d

UNDEFINED SYMBOLS
SystemClock_Config
memset
HAL_RCCEx_PeriphCLKConfig
HAL_NVIC_SetPriority
HAL_NVIC_EnableIRQ
Error_Handler
HAL_NVIC_DisableIRQ
USBD_LL_SetupStage
USBD_LL_DataOutStage
USBD_LL_DataInStage
USBD_LL_SOF
USBD_LL_SetSpeed
USBD_LL_Reset
USBD_LL_Suspend
USBD_LL_Resume
USBD_LL_IsoOUTIncomplete
USBD_LL_IsoINIncomplete
USBD_LL_DevConnected
USBD_LL_DevDisconnected
HAL_PCD_Init
HAL_PCDEx_PMAConfig
HAL_PCD_DeInit
HAL_PCD_Start
HAL_PCD_Stop
HAL_PCD_EP_Open
HAL_PCD_EP_Close
HAL_PCD_EP_Flush
HAL_PCD_EP_SetStall
HAL_PCD_EP_ClrStall
HAL_PCD_SetAddress
HAL_PCD_EP_Transmit
ARM GAS  /tmp/ccIa1zuE.s 			page 48


HAL_PCD_EP_Receive
HAL_PCD_EP_GetRxCount
HAL_Delay
