ARM GAS  /tmp/ccUi8Nh4.s 			page 1


   1              		.cpu cortex-m4
   2              		.arch armv7e-m
   3              		.fpu fpv4-sp-d16
   4              		.eabi_attribute 27, 1
   5              		.eabi_attribute 28, 1
   6              		.eabi_attribute 20, 1
   7              		.eabi_attribute 21, 1
   8              		.eabi_attribute 23, 3
   9              		.eabi_attribute 24, 1
  10              		.eabi_attribute 25, 1
  11              		.eabi_attribute 26, 1
  12              		.eabi_attribute 30, 1
  13              		.eabi_attribute 34, 1
  14              		.eabi_attribute 18, 4
  15              		.file	"XBLW24C64.cpp"
  16              		.text
  17              	.Ltext0:
  18              		.cfi_sections	.debug_frame
  19              		.file 1 "My_Top/EEPROM/XBLW24C64.cpp"
  20              		.align	1
  21              		.global	_ZN9XBLW24C644initEv
  22              		.syntax unified
  23              		.thumb
  24              		.thumb_func
  26              	_ZN9XBLW24C644initEv:
  27              	.LFB332:
   1:My_Top/EEPROM/XBLW24C64.cpp **** #include "XBLW24C64.hpp"
   2:My_Top/EEPROM/XBLW24C64.cpp **** #include "HAL_System.hpp"
   3:My_Top/EEPROM/XBLW24C64.cpp **** I2C_HandleTypeDef* XBLW24C64::_hi2c = nullptr;
   4:My_Top/EEPROM/XBLW24C64.cpp **** 
   5:My_Top/EEPROM/XBLW24C64.cpp **** // ============================================================
   6:My_Top/EEPROM/XBLW24C64.cpp **** // 初始化：探测 EEPROM 是否在线
   7:My_Top/EEPROM/XBLW24C64.cpp **** // ============================================================
   8:My_Top/EEPROM/XBLW24C64.cpp **** bool XBLW24C64::init(void)
   9:My_Top/EEPROM/XBLW24C64.cpp **** {
  28              		.loc 1 9 1 view -0
  29              		.cfi_startproc
  30              		@ args = 0, pretend = 0, frame = 0
  31              		@ frame_needed = 0, uses_anonymous_args = 0
  32 0000 08B5     		push	{r3, lr}
  33              		.cfi_def_cfa_offset 8
  34              		.cfi_offset 3, -8
  35              		.cfi_offset 14, -4
  10:My_Top/EEPROM/XBLW24C64.cpp ****     if (HAL_I2C_IsDeviceReady(_hi2c,
  36              		.loc 1 10 5 view .LVU1
  37              		.loc 1 10 30 is_stmt 0 view .LVU2
  38 0002 6423     		movs	r3, #100
  39 0004 0322     		movs	r2, #3
  40 0006 A021     		movs	r1, #160
  41 0008 0448     		ldr	r0, .L5
  42 000a 0068     		ldr	r0, [r0]
  43 000c FFF7FEFF 		bl	HAL_I2C_IsDeviceReady
  44              	.LVL0:
  45              		.loc 1 10 5 view .LVU3
  46 0010 08B1     		cbz	r0, .L3
  11:My_Top/EEPROM/XBLW24C64.cpp ****                               EEPROM_DEV_ADDR << 1,   // 8位写地址
  12:My_Top/EEPROM/XBLW24C64.cpp ****                               3,                       // 重试次数
ARM GAS  /tmp/ccUi8Nh4.s 			page 2


  13:My_Top/EEPROM/XBLW24C64.cpp ****                               100) == HAL_OK)          // 超时 ms
  14:My_Top/EEPROM/XBLW24C64.cpp ****     {
  15:My_Top/EEPROM/XBLW24C64.cpp ****         return true;
  16:My_Top/EEPROM/XBLW24C64.cpp ****     }
  17:My_Top/EEPROM/XBLW24C64.cpp ****     return false;
  47              		.loc 1 17 12 view .LVU4
  48 0012 0020     		movs	r0, #0
  49              	.L2:
  18:My_Top/EEPROM/XBLW24C64.cpp **** }
  50              		.loc 1 18 1 view .LVU5
  51 0014 08BD     		pop	{r3, pc}
  52              	.L3:
  15:My_Top/EEPROM/XBLW24C64.cpp ****     }
  53              		.loc 1 15 16 view .LVU6
  54 0016 0120     		movs	r0, #1
  55 0018 FCE7     		b	.L2
  56              	.L6:
  57 001a 00BF     		.align	2
  58              	.L5:
  59 001c 00000000 		.word	.LANCHOR0
  60              		.cfi_endproc
  61              	.LFE332:
  63              		.align	1
  64              		.global	_ZN9XBLW24C649read_byteEt
  65              		.syntax unified
  66              		.thumb
  67              		.thumb_func
  69              	_ZN9XBLW24C649read_byteEt:
  70              	.LVL1:
  71              	.LFB333:
  19:My_Top/EEPROM/XBLW24C64.cpp **** 
  20:My_Top/EEPROM/XBLW24C64.cpp **** 
  21:My_Top/EEPROM/XBLW24C64.cpp **** // ============================================================
  22:My_Top/EEPROM/XBLW24C64.cpp **** // 读取一个字节
  23:My_Top/EEPROM/XBLW24C64.cpp **** // ============================================================
  24:My_Top/EEPROM/XBLW24C64.cpp **** uint8_t XBLW24C64::read_byte(uint16_t addr)
  25:My_Top/EEPROM/XBLW24C64.cpp **** {
  72              		.loc 1 25 1 is_stmt 1 view -0
  73              		.cfi_startproc
  74              		@ args = 0, pretend = 0, frame = 8
  75              		@ frame_needed = 0, uses_anonymous_args = 0
  76              		.loc 1 25 1 is_stmt 0 view .LVU8
  77 0020 00B5     		push	{lr}
  78              		.cfi_def_cfa_offset 4
  79              		.cfi_offset 14, -4
  80 0022 87B0     		sub	sp, sp, #28
  81              		.cfi_def_cfa_offset 32
  82 0024 0246     		mov	r2, r0
  26:My_Top/EEPROM/XBLW24C64.cpp ****     uint8_t data = 0xFF;
  83              		.loc 1 26 5 is_stmt 1 view .LVU9
  84              		.loc 1 26 13 is_stmt 0 view .LVU10
  85 0026 FF23     		movs	r3, #255
  86 0028 8DF81730 		strb	r3, [sp, #23]
  27:My_Top/EEPROM/XBLW24C64.cpp **** 
  28:My_Top/EEPROM/XBLW24C64.cpp ****     if (HAL_I2C_Mem_Read(_hi2c, EEPROM_DEV_ADDR << 1, addr,
  87              		.loc 1 28 5 is_stmt 1 view .LVU11
  88              		.loc 1 28 25 is_stmt 0 view .LVU12
ARM GAS  /tmp/ccUi8Nh4.s 			page 3


  89 002c 6423     		movs	r3, #100
  90 002e 0293     		str	r3, [sp, #8]
  91 0030 0123     		movs	r3, #1
  92 0032 0193     		str	r3, [sp, #4]
  93 0034 0DF11703 		add	r3, sp, #23
  94 0038 0093     		str	r3, [sp]
  95 003a 0223     		movs	r3, #2
  96 003c A021     		movs	r1, #160
  97 003e 0648     		ldr	r0, .L11
  98              	.LVL2:
  99              		.loc 1 28 25 view .LVU13
 100 0040 0068     		ldr	r0, [r0]
 101 0042 FFF7FEFF 		bl	HAL_I2C_Mem_Read
 102              	.LVL3:
 103              		.loc 1 28 5 view .LVU14
 104 0046 20B9     		cbnz	r0, .L9
  29:My_Top/EEPROM/XBLW24C64.cpp ****                          EEPROM_ADDR_SIZE,
  30:My_Top/EEPROM/XBLW24C64.cpp ****                          &data, 1, 100) != HAL_OK)
  31:My_Top/EEPROM/XBLW24C64.cpp ****     {
  32:My_Top/EEPROM/XBLW24C64.cpp ****         return 0xFF;
  33:My_Top/EEPROM/XBLW24C64.cpp ****     }
  34:My_Top/EEPROM/XBLW24C64.cpp ****     return data;
 105              		.loc 1 34 5 is_stmt 1 view .LVU15
 106              		.loc 1 34 12 is_stmt 0 view .LVU16
 107 0048 9DF81700 		ldrb	r0, [sp, #23]	@ zero_extendqisi2
 108              	.L8:
  35:My_Top/EEPROM/XBLW24C64.cpp **** }
 109              		.loc 1 35 1 view .LVU17
 110 004c 07B0     		add	sp, sp, #28
 111              		.cfi_remember_state
 112              		.cfi_def_cfa_offset 4
 113              		@ sp needed
 114 004e 5DF804FB 		ldr	pc, [sp], #4
 115              	.L9:
 116              		.cfi_restore_state
  32:My_Top/EEPROM/XBLW24C64.cpp ****     }
 117              		.loc 1 32 16 view .LVU18
 118 0052 FF20     		movs	r0, #255
 119 0054 FAE7     		b	.L8
 120              	.L12:
 121 0056 00BF     		.align	2
 122              	.L11:
 123 0058 00000000 		.word	.LANCHOR0
 124              		.cfi_endproc
 125              	.LFE333:
 127              		.align	1
 128              		.global	_ZN9XBLW24C644readEtPht
 129              		.syntax unified
 130              		.thumb
 131              		.thumb_func
 133              	_ZN9XBLW24C644readEtPht:
 134              	.LVL4:
 135              	.LFB335:
  36:My_Top/EEPROM/XBLW24C64.cpp **** 
  37:My_Top/EEPROM/XBLW24C64.cpp **** 
  38:My_Top/EEPROM/XBLW24C64.cpp **** // ============================================================
  39:My_Top/EEPROM/XBLW24C64.cpp **** // 写入一个字节
ARM GAS  /tmp/ccUi8Nh4.s 			page 4


  40:My_Top/EEPROM/XBLW24C64.cpp **** // ============================================================
  41:My_Top/EEPROM/XBLW24C64.cpp **** bool XBLW24C64::write_byte(uint16_t addr, uint8_t data)
  42:My_Top/EEPROM/XBLW24C64.cpp **** {
  43:My_Top/EEPROM/XBLW24C64.cpp ****     if (HAL_I2C_Mem_Write(_hi2c, EEPROM_DEV_ADDR << 1, addr,
  44:My_Top/EEPROM/XBLW24C64.cpp ****                            EEPROM_ADDR_SIZE,
  45:My_Top/EEPROM/XBLW24C64.cpp ****                            &data, 1, 100) != HAL_OK)
  46:My_Top/EEPROM/XBLW24C64.cpp ****     {
  47:My_Top/EEPROM/XBLW24C64.cpp ****         return false;
  48:My_Top/EEPROM/XBLW24C64.cpp ****     }
  49:My_Top/EEPROM/XBLW24C64.cpp ****     _wait_write_complete();
  50:My_Top/EEPROM/XBLW24C64.cpp ****     return true;
  51:My_Top/EEPROM/XBLW24C64.cpp **** }
  52:My_Top/EEPROM/XBLW24C64.cpp **** 
  53:My_Top/EEPROM/XBLW24C64.cpp **** 
  54:My_Top/EEPROM/XBLW24C64.cpp **** // ============================================================
  55:My_Top/EEPROM/XBLW24C64.cpp **** // 连续读取多个字节（16位地址芯片支持跨页连续读）
  56:My_Top/EEPROM/XBLW24C64.cpp **** // ============================================================
  57:My_Top/EEPROM/XBLW24C64.cpp **** bool XBLW24C64::read(uint16_t addr, uint8_t *buf, uint16_t len)
  58:My_Top/EEPROM/XBLW24C64.cpp **** {
 136              		.loc 1 58 1 is_stmt 1 view -0
 137              		.cfi_startproc
 138              		@ args = 0, pretend = 0, frame = 0
 139              		@ frame_needed = 0, uses_anonymous_args = 0
  59:My_Top/EEPROM/XBLW24C64.cpp ****     if (buf == NULL || len == 0)
 140              		.loc 1 59 5 view .LVU20
 141 005c C9B1     		cbz	r1, .L15
 142 005e 0B46     		mov	r3, r1
 143              		.loc 1 59 21 is_stmt 0 discriminator 1 view .LVU21
 144 0060 CAB1     		cbz	r2, .L16
  60:My_Top/EEPROM/XBLW24C64.cpp ****         return false;
  61:My_Top/EEPROM/XBLW24C64.cpp ****     if (addr + len > EEPROM_SIZE)
 145              		.loc 1 61 5 is_stmt 1 view .LVU22
 146              		.loc 1 61 14 is_stmt 0 view .LVU23
 147 0062 8118     		adds	r1, r0, r2
 148              	.LVL5:
 149              		.loc 1 61 5 view .LVU24
 150 0064 B1F5005F 		cmp	r1, #8192
 151 0068 01DD     		ble	.L23
  62:My_Top/EEPROM/XBLW24C64.cpp ****         return false;
 152              		.loc 1 62 16 view .LVU25
 153 006a 0020     		movs	r0, #0
 154              	.LVL6:
  63:My_Top/EEPROM/XBLW24C64.cpp **** 
  64:My_Top/EEPROM/XBLW24C64.cpp ****     if (HAL_I2C_Mem_Read(_hi2c, EEPROM_DEV_ADDR << 1, addr,
  65:My_Top/EEPROM/XBLW24C64.cpp ****                          EEPROM_ADDR_SIZE,
  66:My_Top/EEPROM/XBLW24C64.cpp ****                          buf, len, 100) != HAL_OK)
  67:My_Top/EEPROM/XBLW24C64.cpp ****     {
  68:My_Top/EEPROM/XBLW24C64.cpp ****         return false;
  69:My_Top/EEPROM/XBLW24C64.cpp ****     }
  70:My_Top/EEPROM/XBLW24C64.cpp ****     return true;
  71:My_Top/EEPROM/XBLW24C64.cpp **** }
 155              		.loc 1 71 1 view .LVU26
 156 006c 7047     		bx	lr
 157              	.LVL7:
 158              	.L23:
  58:My_Top/EEPROM/XBLW24C64.cpp ****     if (buf == NULL || len == 0)
 159              		.loc 1 58 1 view .LVU27
ARM GAS  /tmp/ccUi8Nh4.s 			page 5


 160 006e 00B5     		push	{lr}
 161              		.cfi_def_cfa_offset 4
 162              		.cfi_offset 14, -4
 163 0070 85B0     		sub	sp, sp, #20
 164              		.cfi_def_cfa_offset 24
  64:My_Top/EEPROM/XBLW24C64.cpp ****                          EEPROM_ADDR_SIZE,
 165              		.loc 1 64 5 is_stmt 1 view .LVU28
  64:My_Top/EEPROM/XBLW24C64.cpp ****                          EEPROM_ADDR_SIZE,
 166              		.loc 1 64 25 is_stmt 0 view .LVU29
 167 0072 6421     		movs	r1, #100
 168 0074 0291     		str	r1, [sp, #8]
 169 0076 0192     		str	r2, [sp, #4]
 170 0078 0093     		str	r3, [sp]
 171 007a 0223     		movs	r3, #2
 172              	.LVL8:
  64:My_Top/EEPROM/XBLW24C64.cpp ****                          EEPROM_ADDR_SIZE,
 173              		.loc 1 64 25 view .LVU30
 174 007c 0246     		mov	r2, r0
 175              	.LVL9:
  64:My_Top/EEPROM/XBLW24C64.cpp ****                          EEPROM_ADDR_SIZE,
 176              		.loc 1 64 25 view .LVU31
 177 007e A021     		movs	r1, #160
 178 0080 0748     		ldr	r0, .L24
 179              	.LVL10:
  64:My_Top/EEPROM/XBLW24C64.cpp ****                          EEPROM_ADDR_SIZE,
 180              		.loc 1 64 25 view .LVU32
 181 0082 0068     		ldr	r0, [r0]
 182 0084 FFF7FEFF 		bl	HAL_I2C_Mem_Read
 183              	.LVL11:
  64:My_Top/EEPROM/XBLW24C64.cpp ****                          EEPROM_ADDR_SIZE,
 184              		.loc 1 64 5 view .LVU33
 185 0088 38B9     		cbnz	r0, .L18
  70:My_Top/EEPROM/XBLW24C64.cpp **** }
 186              		.loc 1 70 12 view .LVU34
 187 008a 0120     		movs	r0, #1
 188              	.L14:
 189              		.loc 1 71 1 view .LVU35
 190 008c 05B0     		add	sp, sp, #20
 191              		.cfi_def_cfa_offset 4
 192              		@ sp needed
 193 008e 5DF804FB 		ldr	pc, [sp], #4
 194              	.LVL12:
 195              	.L15:
 196              		.cfi_def_cfa_offset 0
 197              		.cfi_restore 14
  60:My_Top/EEPROM/XBLW24C64.cpp ****     if (addr + len > EEPROM_SIZE)
 198              		.loc 1 60 16 view .LVU36
 199 0092 0020     		movs	r0, #0
 200              	.LVL13:
  60:My_Top/EEPROM/XBLW24C64.cpp ****     if (addr + len > EEPROM_SIZE)
 201              		.loc 1 60 16 view .LVU37
 202 0094 7047     		bx	lr
 203              	.LVL14:
 204              	.L16:
  60:My_Top/EEPROM/XBLW24C64.cpp ****     if (addr + len > EEPROM_SIZE)
 205              		.loc 1 60 16 view .LVU38
 206 0096 0020     		movs	r0, #0
ARM GAS  /tmp/ccUi8Nh4.s 			page 6


 207              	.LVL15:
  60:My_Top/EEPROM/XBLW24C64.cpp ****     if (addr + len > EEPROM_SIZE)
 208              		.loc 1 60 16 view .LVU39
 209 0098 7047     		bx	lr
 210              	.LVL16:
 211              	.L18:
 212              		.cfi_def_cfa_offset 24
 213              		.cfi_offset 14, -4
  68:My_Top/EEPROM/XBLW24C64.cpp ****     }
 214              		.loc 1 68 16 view .LVU40
 215 009a 0020     		movs	r0, #0
 216 009c F6E7     		b	.L14
 217              	.L25:
 218 009e 00BF     		.align	2
 219              	.L24:
 220 00a0 00000000 		.word	.LANCHOR0
 221              		.cfi_endproc
 222              	.LFE335:
 224              		.align	1
 225              		.global	_ZN9XBLW24C6420_wait_write_completeEv
 226              		.syntax unified
 227              		.thumb
 228              		.thumb_func
 230              	_ZN9XBLW24C6420_wait_write_completeEv:
 231              	.LFB337:
  72:My_Top/EEPROM/XBLW24C64.cpp **** 
  73:My_Top/EEPROM/XBLW24C64.cpp **** 
  74:My_Top/EEPROM/XBLW24C64.cpp **** // ============================================================
  75:My_Top/EEPROM/XBLW24C64.cpp **** // 连续写入多个字节（自动处理页边界）
  76:My_Top/EEPROM/XBLW24C64.cpp **** // ============================================================
  77:My_Top/EEPROM/XBLW24C64.cpp **** bool XBLW24C64::write(uint16_t addr, const uint8_t *buf, uint16_t len)
  78:My_Top/EEPROM/XBLW24C64.cpp **** {
  79:My_Top/EEPROM/XBLW24C64.cpp ****     if (buf == NULL || len == 0)
  80:My_Top/EEPROM/XBLW24C64.cpp ****         return false;
  81:My_Top/EEPROM/XBLW24C64.cpp ****     if (addr + len > EEPROM_SIZE)
  82:My_Top/EEPROM/XBLW24C64.cpp ****         return false;
  83:My_Top/EEPROM/XBLW24C64.cpp **** 
  84:My_Top/EEPROM/XBLW24C64.cpp ****     while (len > 0)
  85:My_Top/EEPROM/XBLW24C64.cpp ****     {
  86:My_Top/EEPROM/XBLW24C64.cpp ****         // 计算当前页内还能写多少字节
  87:My_Top/EEPROM/XBLW24C64.cpp ****         uint8_t page_remain = EEPROM_PAGE_SIZE - (addr % EEPROM_PAGE_SIZE);
  88:My_Top/EEPROM/XBLW24C64.cpp ****         uint16_t chunk = (len < page_remain) ? len : page_remain;//等价于min(len, page_remain);
  89:My_Top/EEPROM/XBLW24C64.cpp **** 
  90:My_Top/EEPROM/XBLW24C64.cpp ****         if (HAL_I2C_Mem_Write(_hi2c, EEPROM_DEV_ADDR << 1, addr,
  91:My_Top/EEPROM/XBLW24C64.cpp ****                                EEPROM_ADDR_SIZE,
  92:My_Top/EEPROM/XBLW24C64.cpp ****                                (uint8_t *)buf, chunk, 100) != HAL_OK)
  93:My_Top/EEPROM/XBLW24C64.cpp ****         {
  94:My_Top/EEPROM/XBLW24C64.cpp ****             return false;
  95:My_Top/EEPROM/XBLW24C64.cpp ****         }
  96:My_Top/EEPROM/XBLW24C64.cpp **** 
  97:My_Top/EEPROM/XBLW24C64.cpp ****         // 等待内部写入完成
  98:My_Top/EEPROM/XBLW24C64.cpp ****         _wait_write_complete();
  99:My_Top/EEPROM/XBLW24C64.cpp **** 
 100:My_Top/EEPROM/XBLW24C64.cpp ****         addr += chunk;
 101:My_Top/EEPROM/XBLW24C64.cpp ****         buf  += chunk;
 102:My_Top/EEPROM/XBLW24C64.cpp ****         len  -= chunk;
 103:My_Top/EEPROM/XBLW24C64.cpp ****     }
ARM GAS  /tmp/ccUi8Nh4.s 			page 7


 104:My_Top/EEPROM/XBLW24C64.cpp ****     return true;
 105:My_Top/EEPROM/XBLW24C64.cpp **** }
 106:My_Top/EEPROM/XBLW24C64.cpp **** 
 107:My_Top/EEPROM/XBLW24C64.cpp **** 
 108:My_Top/EEPROM/XBLW24C64.cpp **** // ============================================================
 109:My_Top/EEPROM/XBLW24C64.cpp **** // 等待 EEPROM 内部写入完成（ACK 轮询）
 110:My_Top/EEPROM/XBLW24C64.cpp **** // ============================================================
 111:My_Top/EEPROM/XBLW24C64.cpp **** void XBLW24C64::_wait_write_complete(void)
 112:My_Top/EEPROM/XBLW24C64.cpp **** {
 232              		.loc 1 112 1 is_stmt 1 view -0
 233              		.cfi_startproc
 234              		@ args = 0, pretend = 0, frame = 0
 235              		@ frame_needed = 0, uses_anonymous_args = 0
 236 00a4 38B5     		push	{r3, r4, r5, lr}
 237              		.cfi_def_cfa_offset 16
 238              		.cfi_offset 3, -16
 239              		.cfi_offset 4, -12
 240              		.cfi_offset 5, -8
 241              		.cfi_offset 14, -4
 113:My_Top/EEPROM/XBLW24C64.cpp ****     uint32_t time_old = HAL_System::get_tick_ms();
 242              		.loc 1 113 5 view .LVU42
 243              		.loc 1 113 48 is_stmt 0 view .LVU43
 244 00a6 FFF7FEFF 		bl	_ZN10HAL_System11get_tick_msEv
 245              	.LVL17:
 246 00aa 0546     		mov	r5, r0
 247              	.LVL18:
 114:My_Top/EEPROM/XBLW24C64.cpp ****     while (HAL_I2C_IsDeviceReady(_hi2c,
 248              		.loc 1 114 5 is_stmt 1 view .LVU44
 249              	.L27:
 115:My_Top/EEPROM/XBLW24C64.cpp ****                                   EEPROM_DEV_ADDR << 1,
 116:My_Top/EEPROM/XBLW24C64.cpp ****                                   1,     // 每次1次尝试
 117:My_Top/EEPROM/XBLW24C64.cpp ****                                   1) != HAL_OK)   // 1ms 超时
 250              		.loc 1 117 38 view .LVU45
 114:My_Top/EEPROM/XBLW24C64.cpp ****     while (HAL_I2C_IsDeviceReady(_hi2c,
 251              		.loc 1 114 33 is_stmt 0 view .LVU46
 252 00ac 0123     		movs	r3, #1
 253 00ae 1A46     		mov	r2, r3
 254 00b0 A021     		movs	r1, #160
 255 00b2 054C     		ldr	r4, .L31
 256 00b4 2068     		ldr	r0, [r4]
 257 00b6 FFF7FEFF 		bl	HAL_I2C_IsDeviceReady
 258              	.LVL19:
 259              		.loc 1 117 38 view .LVU47
 260 00ba 20B1     		cbz	r0, .L26
 118:My_Top/EEPROM/XBLW24C64.cpp ****     {
 119:My_Top/EEPROM/XBLW24C64.cpp ****         if( (HAL_System::get_tick_ms()-time_old) >= EEPROM_WRITE_CYCLE_MS)
 261              		.loc 1 119 9 is_stmt 1 view .LVU48
 262              		.loc 1 119 37 is_stmt 0 view .LVU49
 263 00bc FFF7FEFF 		bl	_ZN10HAL_System11get_tick_msEv
 264              	.LVL20:
 265              		.loc 1 119 39 discriminator 1 view .LVU50
 266 00c0 401B     		subs	r0, r0, r5
 267              		.loc 1 119 9 discriminator 1 view .LVU51
 268 00c2 0428     		cmp	r0, #4
 269 00c4 F2D9     		bls	.L27
 270              	.L26:
 120:My_Top/EEPROM/XBLW24C64.cpp ****         {
ARM GAS  /tmp/ccUi8Nh4.s 			page 8


 121:My_Top/EEPROM/XBLW24C64.cpp ****             return;
 122:My_Top/EEPROM/XBLW24C64.cpp ****         }
 123:My_Top/EEPROM/XBLW24C64.cpp ****     }
 124:My_Top/EEPROM/XBLW24C64.cpp **** }
 271              		.loc 1 124 1 view .LVU52
 272 00c6 38BD     		pop	{r3, r4, r5, pc}
 273              	.LVL21:
 274              	.L32:
 275              		.loc 1 124 1 view .LVU53
 276              		.align	2
 277              	.L31:
 278 00c8 00000000 		.word	.LANCHOR0
 279              		.cfi_endproc
 280              	.LFE337:
 282              		.align	1
 283              		.global	_ZN9XBLW24C6410write_byteEth
 284              		.syntax unified
 285              		.thumb
 286              		.thumb_func
 288              	_ZN9XBLW24C6410write_byteEth:
 289              	.LVL22:
 290              	.LFB334:
  42:My_Top/EEPROM/XBLW24C64.cpp ****     if (HAL_I2C_Mem_Write(_hi2c, EEPROM_DEV_ADDR << 1, addr,
 291              		.loc 1 42 1 is_stmt 1 view -0
 292              		.cfi_startproc
 293              		@ args = 0, pretend = 0, frame = 8
 294              		@ frame_needed = 0, uses_anonymous_args = 0
  42:My_Top/EEPROM/XBLW24C64.cpp ****     if (HAL_I2C_Mem_Write(_hi2c, EEPROM_DEV_ADDR << 1, addr,
 295              		.loc 1 42 1 is_stmt 0 view .LVU55
 296 00cc 00B5     		push	{lr}
 297              		.cfi_def_cfa_offset 4
 298              		.cfi_offset 14, -4
 299 00ce 87B0     		sub	sp, sp, #28
 300              		.cfi_def_cfa_offset 32
 301 00d0 0246     		mov	r2, r0
 302 00d2 8DF81710 		strb	r1, [sp, #23]
  43:My_Top/EEPROM/XBLW24C64.cpp ****                            EEPROM_ADDR_SIZE,
 303              		.loc 1 43 5 is_stmt 1 view .LVU56
  43:My_Top/EEPROM/XBLW24C64.cpp ****                            EEPROM_ADDR_SIZE,
 304              		.loc 1 43 26 is_stmt 0 view .LVU57
 305 00d6 6423     		movs	r3, #100
 306 00d8 0293     		str	r3, [sp, #8]
 307 00da 0123     		movs	r3, #1
 308 00dc 0193     		str	r3, [sp, #4]
 309 00de 0DF11703 		add	r3, sp, #23
 310 00e2 0093     		str	r3, [sp]
 311 00e4 0223     		movs	r3, #2
 312 00e6 A021     		movs	r1, #160
 313              	.LVL23:
  43:My_Top/EEPROM/XBLW24C64.cpp ****                            EEPROM_ADDR_SIZE,
 314              		.loc 1 43 26 view .LVU58
 315 00e8 0648     		ldr	r0, .L38
 316              	.LVL24:
  43:My_Top/EEPROM/XBLW24C64.cpp ****                            EEPROM_ADDR_SIZE,
 317              		.loc 1 43 26 view .LVU59
 318 00ea 0068     		ldr	r0, [r0]
 319 00ec FFF7FEFF 		bl	HAL_I2C_Mem_Write
ARM GAS  /tmp/ccUi8Nh4.s 			page 9


 320              	.LVL25:
  43:My_Top/EEPROM/XBLW24C64.cpp ****                            EEPROM_ADDR_SIZE,
 321              		.loc 1 43 5 view .LVU60
 322 00f0 18B1     		cbz	r0, .L37
  47:My_Top/EEPROM/XBLW24C64.cpp ****     }
 323              		.loc 1 47 16 view .LVU61
 324 00f2 0020     		movs	r0, #0
 325              	.L34:
  51:My_Top/EEPROM/XBLW24C64.cpp **** 
 326              		.loc 1 51 1 view .LVU62
 327 00f4 07B0     		add	sp, sp, #28
 328              		.cfi_remember_state
 329              		.cfi_def_cfa_offset 4
 330              		@ sp needed
 331 00f6 5DF804FB 		ldr	pc, [sp], #4
 332              	.L37:
 333              		.cfi_restore_state
  49:My_Top/EEPROM/XBLW24C64.cpp ****     return true;
 334              		.loc 1 49 5 is_stmt 1 view .LVU63
  49:My_Top/EEPROM/XBLW24C64.cpp ****     return true;
 335              		.loc 1 49 25 is_stmt 0 view .LVU64
 336 00fa FFF7FEFF 		bl	_ZN9XBLW24C6420_wait_write_completeEv
 337              	.LVL26:
  50:My_Top/EEPROM/XBLW24C64.cpp **** }
 338              		.loc 1 50 5 is_stmt 1 view .LVU65
  50:My_Top/EEPROM/XBLW24C64.cpp **** }
 339              		.loc 1 50 12 is_stmt 0 view .LVU66
 340 00fe 0120     		movs	r0, #1
 341 0100 F8E7     		b	.L34
 342              	.L39:
 343 0102 00BF     		.align	2
 344              	.L38:
 345 0104 00000000 		.word	.LANCHOR0
 346              		.cfi_endproc
 347              	.LFE334:
 349              		.align	1
 350              		.global	_ZN9XBLW24C645writeEtPKht
 351              		.syntax unified
 352              		.thumb
 353              		.thumb_func
 355              	_ZN9XBLW24C645writeEtPKht:
 356              	.LVL27:
 357              	.LFB336:
  78:My_Top/EEPROM/XBLW24C64.cpp ****     if (buf == NULL || len == 0)
 358              		.loc 1 78 1 is_stmt 1 view -0
 359              		.cfi_startproc
 360              		@ args = 0, pretend = 0, frame = 0
 361              		@ frame_needed = 0, uses_anonymous_args = 0
  79:My_Top/EEPROM/XBLW24C64.cpp ****         return false;
 362              		.loc 1 79 5 view .LVU68
 363 0108 41B3     		cbz	r1, .L44
  78:My_Top/EEPROM/XBLW24C64.cpp ****     if (buf == NULL || len == 0)
 364              		.loc 1 78 1 is_stmt 0 view .LVU69
 365 010a F0B5     		push	{r4, r5, r6, r7, lr}
 366              		.cfi_def_cfa_offset 20
 367              		.cfi_offset 4, -20
 368              		.cfi_offset 5, -16
ARM GAS  /tmp/ccUi8Nh4.s 			page 10


 369              		.cfi_offset 6, -12
 370              		.cfi_offset 7, -8
 371              		.cfi_offset 14, -4
 372 010c 85B0     		sub	sp, sp, #20
 373              		.cfi_def_cfa_offset 40
 374 010e 0546     		mov	r5, r0
 375 0110 1646     		mov	r6, r2
 376 0112 0F46     		mov	r7, r1
  79:My_Top/EEPROM/XBLW24C64.cpp ****         return false;
 377              		.loc 1 79 21 discriminator 1 view .LVU70
 378 0114 22B3     		cbz	r2, .L45
  81:My_Top/EEPROM/XBLW24C64.cpp ****         return false;
 379              		.loc 1 81 5 is_stmt 1 view .LVU71
  81:My_Top/EEPROM/XBLW24C64.cpp ****         return false;
 380              		.loc 1 81 14 is_stmt 0 view .LVU72
 381 0116 8318     		adds	r3, r0, r2
  81:My_Top/EEPROM/XBLW24C64.cpp ****         return false;
 382              		.loc 1 81 5 view .LVU73
 383 0118 B3F5005F 		cmp	r3, #8192
 384 011c 23DC     		bgt	.L52
 385              	.LVL28:
 386              	.L42:
  84:My_Top/EEPROM/XBLW24C64.cpp ****     {
 387              		.loc 1 84 16 is_stmt 1 view .LVU74
 388 011e DEB1     		cbz	r6, .L53
 389              	.LBB2:
  87:My_Top/EEPROM/XBLW24C64.cpp ****         uint16_t chunk = (len < page_remain) ? len : page_remain;//等价于min(len, page_remain);
 390              		.loc 1 87 9 view .LVU75
  87:My_Top/EEPROM/XBLW24C64.cpp ****         uint16_t chunk = (len < page_remain) ? len : page_remain;//等价于min(len, page_remain);
 391              		.loc 1 87 56 is_stmt 0 view .LVU76
 392 0120 05F01F04 		and	r4, r5, #31
  87:My_Top/EEPROM/XBLW24C64.cpp ****         uint16_t chunk = (len < page_remain) ? len : page_remain;//等价于min(len, page_remain);
 393              		.loc 1 87 17 view .LVU77
 394 0124 C4F12004 		rsb	r4, r4, #32
 395 0128 E4B2     		uxtb	r4, r4
 396              	.LVL29:
  88:My_Top/EEPROM/XBLW24C64.cpp **** 
 397              		.loc 1 88 9 is_stmt 1 view .LVU78
  88:My_Top/EEPROM/XBLW24C64.cpp **** 
 398              		.loc 1 88 18 is_stmt 0 view .LVU79
 399 012a B442     		cmp	r4, r6
 400 012c 28BF     		it	cs
 401 012e 3446     		movcs	r4, r6
 402              	.LVL30:
  90:My_Top/EEPROM/XBLW24C64.cpp ****                                EEPROM_ADDR_SIZE,
 403              		.loc 1 90 9 is_stmt 1 view .LVU80
  90:My_Top/EEPROM/XBLW24C64.cpp ****                                EEPROM_ADDR_SIZE,
 404              		.loc 1 90 30 is_stmt 0 view .LVU81
 405 0130 6423     		movs	r3, #100
 406 0132 0293     		str	r3, [sp, #8]
 407 0134 0194     		str	r4, [sp, #4]
 408 0136 0097     		str	r7, [sp]
 409 0138 0223     		movs	r3, #2
 410 013a 2A46     		mov	r2, r5
 411 013c A021     		movs	r1, #160
 412 013e 0C48     		ldr	r0, .L54
 413 0140 0068     		ldr	r0, [r0]
ARM GAS  /tmp/ccUi8Nh4.s 			page 11


 414 0142 FFF7FEFF 		bl	HAL_I2C_Mem_Write
 415              	.LVL31:
  90:My_Top/EEPROM/XBLW24C64.cpp ****                                EEPROM_ADDR_SIZE,
 416              		.loc 1 90 9 view .LVU82
 417 0146 80B9     		cbnz	r0, .L47
  98:My_Top/EEPROM/XBLW24C64.cpp **** 
 418              		.loc 1 98 9 is_stmt 1 view .LVU83
  98:My_Top/EEPROM/XBLW24C64.cpp **** 
 419              		.loc 1 98 29 is_stmt 0 view .LVU84
 420 0148 FFF7FEFF 		bl	_ZN9XBLW24C6420_wait_write_completeEv
 421              	.LVL32:
 100:My_Top/EEPROM/XBLW24C64.cpp ****         buf  += chunk;
 422              		.loc 1 100 9 is_stmt 1 view .LVU85
 100:My_Top/EEPROM/XBLW24C64.cpp ****         buf  += chunk;
 423              		.loc 1 100 14 is_stmt 0 view .LVU86
 424 014c 2544     		add	r5, r5, r4
 425              	.LVL33:
 100:My_Top/EEPROM/XBLW24C64.cpp ****         buf  += chunk;
 426              		.loc 1 100 14 view .LVU87
 427 014e ADB2     		uxth	r5, r5
 428              	.LVL34:
 101:My_Top/EEPROM/XBLW24C64.cpp ****         len  -= chunk;
 429              		.loc 1 101 9 is_stmt 1 view .LVU88
 101:My_Top/EEPROM/XBLW24C64.cpp ****         len  -= chunk;
 430              		.loc 1 101 14 is_stmt 0 view .LVU89
 431 0150 2744     		add	r7, r7, r4
 432              	.LVL35:
 102:My_Top/EEPROM/XBLW24C64.cpp ****     }
 433              		.loc 1 102 9 is_stmt 1 view .LVU90
 102:My_Top/EEPROM/XBLW24C64.cpp ****     }
 434              		.loc 1 102 14 is_stmt 0 view .LVU91
 435 0152 341B     		subs	r4, r6, r4
 436              	.LVL36:
 102:My_Top/EEPROM/XBLW24C64.cpp ****     }
 437              		.loc 1 102 14 view .LVU92
 438 0154 A6B2     		uxth	r6, r4
 439              	.LVL37:
 102:My_Top/EEPROM/XBLW24C64.cpp ****     }
 440              		.loc 1 102 14 view .LVU93
 441 0156 E2E7     		b	.L42
 442              	.LVL38:
 443              	.L53:
 102:My_Top/EEPROM/XBLW24C64.cpp ****     }
 444              		.loc 1 102 14 view .LVU94
 445              	.LBE2:
 104:My_Top/EEPROM/XBLW24C64.cpp **** }
 446              		.loc 1 104 12 view .LVU95
 447 0158 0120     		movs	r0, #1
 448 015a 02E0     		b	.L41
 449              	.LVL39:
 450              	.L44:
 451              		.cfi_def_cfa_offset 0
 452              		.cfi_restore 4
 453              		.cfi_restore 5
 454              		.cfi_restore 6
 455              		.cfi_restore 7
 456              		.cfi_restore 14
ARM GAS  /tmp/ccUi8Nh4.s 			page 12


  80:My_Top/EEPROM/XBLW24C64.cpp ****     if (addr + len > EEPROM_SIZE)
 457              		.loc 1 80 16 view .LVU96
 458 015c 0020     		movs	r0, #0
 459              	.LVL40:
 105:My_Top/EEPROM/XBLW24C64.cpp **** 
 460              		.loc 1 105 1 view .LVU97
 461 015e 7047     		bx	lr
 462              	.LVL41:
 463              	.L45:
 464              		.cfi_def_cfa_offset 40
 465              		.cfi_offset 4, -20
 466              		.cfi_offset 5, -16
 467              		.cfi_offset 6, -12
 468              		.cfi_offset 7, -8
 469              		.cfi_offset 14, -4
  80:My_Top/EEPROM/XBLW24C64.cpp ****     if (addr + len > EEPROM_SIZE)
 470              		.loc 1 80 16 view .LVU98
 471 0160 0020     		movs	r0, #0
 472              	.LVL42:
 473              	.L41:
 105:My_Top/EEPROM/XBLW24C64.cpp **** 
 474              		.loc 1 105 1 view .LVU99
 475 0162 05B0     		add	sp, sp, #20
 476              		.cfi_remember_state
 477              		.cfi_def_cfa_offset 20
 478              		@ sp needed
 479 0164 F0BD     		pop	{r4, r5, r6, r7, pc}
 480              	.LVL43:
 481              	.L52:
 482              		.cfi_restore_state
  82:My_Top/EEPROM/XBLW24C64.cpp **** 
 483              		.loc 1 82 16 view .LVU100
 484 0166 0020     		movs	r0, #0
 485              	.LVL44:
  82:My_Top/EEPROM/XBLW24C64.cpp **** 
 486              		.loc 1 82 16 view .LVU101
 487 0168 FBE7     		b	.L41
 488              	.LVL45:
 489              	.L47:
 490              	.LBB3:
  94:My_Top/EEPROM/XBLW24C64.cpp ****         }
 491              		.loc 1 94 20 view .LVU102
 492 016a 0020     		movs	r0, #0
 493 016c F9E7     		b	.L41
 494              	.L55:
 495 016e 00BF     		.align	2
 496              	.L54:
 497 0170 00000000 		.word	.LANCHOR0
 498              	.LBE3:
 499              		.cfi_endproc
 500              	.LFE336:
 502              		.global	_ZN9XBLW24C645_hi2cE
 503              		.bss
 504              		.align	2
 505              		.set	.LANCHOR0,. + 0
 508              	_ZN9XBLW24C645_hi2cE:
 509 0000 00000000 		.space	4
ARM GAS  /tmp/ccUi8Nh4.s 			page 13


 510              		.text
 511              	.Letext0:
 512              		.file 2 "/opt/arm-gnu-toolchain-14.2/arm-none-eabi/include/machine/_default_types.h"
 513              		.file 3 "/opt/arm-gnu-toolchain-14.2/arm-none-eabi/include/sys/_stdint.h"
 514              		.file 4 "Drivers/CMSIS/Device/ST/STM32G4xx/Include/stm32g474xx.h"
 515              		.file 5 "Drivers/CMSIS/Device/ST/STM32G4xx/Include/stm32g4xx.h"
 516              		.file 6 "Drivers/STM32G4xx_HAL_Driver/Inc/stm32g4xx_hal_def.h"
 517              		.file 7 "Drivers/STM32G4xx_HAL_Driver/Inc/stm32g4xx_hal_dma.h"
 518              		.file 8 "Drivers/STM32G4xx_HAL_Driver/Inc/stm32g4xx_hal_i2c.h"
 519              		.file 9 "Drivers/STM32G4xx_HAL_Driver/Inc/stm32g4xx_hal_tim.h"
 520              		.file 10 "My_Top/EEPROM/XBLW24C64.hpp"
 521              		.file 11 "My_Top/System/HAL_System.hpp"
ARM GAS  /tmp/ccUi8Nh4.s 			page 14

